EXPORTS
	_ZN10HbRangeBar10rangeEventE19HbCnWidgetEventType8QVariant @ 1 NONAME ABSENT
	_ZN10HbRangeBar10rangeValueEv @ 2 NONAME ABSENT
	_ZN10HbRangeBar10setSpacingEf @ 3 NONAME ABSENT
	_ZN10HbRangeBar11qt_metacallEN11QMetaObject4CallEiPPv @ 4 NONAME ABSENT
	_ZN10HbRangeBar11qt_metacastEPKc @ 5 NONAME ABSENT
	_ZN10HbRangeBar11setGeometryERK6QRectF @ 6 NONAME ABSENT
	_ZN10HbRangeBar12setRangeTextEiRK7QString @ 7 NONAME ABSENT
	_ZN10HbRangeBar15constructRangesERK5QListI11HbRangePairE @ 8 NONAME ABSENT
	_ZN10HbRangeBar16onRangeActivatedEi @ 9 NONAME ABSENT
	_ZN10HbRangeBar16staticMetaObjectE @ 10 NONAME DATA 16 ABSENT
	_ZN10HbRangeBar19constructIconRangesERK5QListI15HbIconRangePairE @ 11 NONAME ABSENT
	_ZN10HbRangeBar19getStaticMetaObjectEv @ 12 NONAME ABSENT
	_ZN10HbRangeBar5rangeEi @ 13 NONAME ABSENT
	_ZN10HbRangeBar8setRangeEi @ 14 NONAME ABSENT
	_ZN10HbRangeBarC1EP13QGraphicsItemfN2Qt11OrientationE @ 15 NONAME ABSENT
	_ZN10HbRangeBarC2EP13QGraphicsItemfN2Qt11OrientationE @ 16 NONAME ABSENT
	_ZN10HbRangeBarD0Ev @ 17 NONAME ABSENT
	_ZN10HbRangeBarD1Ev @ 18 NONAME ABSENT
	_ZN10HbRangeBarD2Ev @ 19 NONAME ABSENT
	_ZN12HbInputSpell11actualWidthEv @ 20 NONAME ABSENT
	_ZN12HbInputSpell11qt_metacallEN11QMetaObject4CallEiPPv @ 21 NONAME ABSENT
	_ZN12HbInputSpell11qt_metacastEPKc @ 22 NONAME ABSENT
	_ZN12HbInputSpell11spellTappedE19HbCnWidgetEventType8QVariant @ 23 NONAME ABSENT
	_ZN12HbInputSpell12setAlignmentE6QFlagsIN2Qt13AlignmentFlagEE @ 24 NONAME ABSENT
	_ZN12HbInputSpell12setElideModeEN2Qt13TextElideModeE @ 25 NONAME ABSENT
	_ZN12HbInputSpell12setTextColorERK6QColor @ 26 NONAME ABSENT
	_ZN12HbInputSpell12setTextFlagsEi @ 27 NONAME ABSENT
	_ZN12HbInputSpell15hoverEnterEventEP24QGraphicsSceneHoverEvent @ 28 NONAME ABSENT
	_ZN12HbInputSpell15hoverLeaveEventEP24QGraphicsSceneHoverEvent @ 29 NONAME ABSENT
	_ZN12HbInputSpell15mousePressEventEP24QGraphicsSceneMouseEvent @ 30 NONAME ABSENT
	_ZN12HbInputSpell16staticMetaObjectE @ 31 NONAME DATA 16 ABSENT
	_ZN12HbInputSpell17mouseReleaseEventEP24QGraphicsSceneMouseEvent @ 32 NONAME ABSENT
	_ZN12HbInputSpell19getStaticMetaObjectEv @ 33 NONAME ABSENT
	_ZN12HbInputSpell5paintEP8QPainterPK24QStyleOptionGraphicsItemP7QWidget @ 34 NONAME ABSENT
	_ZN12HbInputSpell7setTextERK7QString @ 35 NONAME ABSENT
	_ZN12HbInputSpellC1EP13QGraphicsItemRK7QString @ 36 NONAME ABSENT
	_ZN12HbInputSpellC2EP13QGraphicsItemRK7QString @ 37 NONAME ABSENT
	_ZN12HbInputSpellD0Ev @ 38 NONAME ABSENT
	_ZN12HbInputSpellD1Ev @ 39 NONAME ABSENT
	_ZN12HbInputSpellD2Ev @ 40 NONAME ABSENT
	_ZN12HbWritingBox10setBgColorE6QColor @ 41 NONAME ABSENT
	_ZN12HbWritingBox10strokeListEv @ 42 NONAME ABSENT
	_ZN12HbWritingBox11qt_metacallEN11QMetaObject4CallEiPPv @ 43 NONAME ABSENT
	_ZN12HbWritingBox11qt_metacastEPKc @ 44 NONAME ABSENT
	_ZN12HbWritingBox11setGeometryERK6QRectF @ 45 NONAME ABSENT
	_ZN12HbWritingBox11setPenColorE6QColor @ 46 NONAME ABSENT
	_ZN12HbWritingBox11setPenWidthEi @ 47 NONAME ABSENT
	_ZN12HbWritingBox12clearStrokesEv @ 48 NONAME ABSENT
	_ZN12HbWritingBox13currentStrokeEv @ 49 NONAME ABSENT
	_ZN12HbWritingBox14mouseMoveEventEP24QGraphicsSceneMouseEvent @ 50 NONAME ABSENT
	_ZN12HbWritingBox15mousePressEventEP24QGraphicsSceneMouseEvent @ 51 NONAME ABSENT
	_ZN12HbWritingBox15setCharIntervalEi @ 52 NONAME ABSENT
	_ZN12HbWritingBox16sceneEventFilterEP13QGraphicsItemP6QEvent @ 53 NONAME ABSENT
	_ZN12HbWritingBox16setStrokeEndMarkE7QPointF @ 54 NONAME ABSENT
	_ZN12HbWritingBox16staticMetaObjectE @ 55 NONAME DATA 16 ABSENT
	_ZN12HbWritingBox17characterFinishedEv @ 56 NONAME ABSENT
	_ZN12HbWritingBox17mouseReleaseEventEP24QGraphicsSceneMouseEvent @ 57 NONAME ABSENT
	_ZN12HbWritingBox19getStaticMetaObjectEv @ 58 NONAME ABSENT
	_ZN12HbWritingBox19onRepeatLongTimeOutEv @ 59 NONAME ABSENT
	_ZN12HbWritingBox23RemovePenTraceDecoratorEv @ 60 NONAME ABSENT
	_ZN12HbWritingBox24InstallPenTraceDecoratorEv @ 61 NONAME ABSENT
	_ZN12HbWritingBox4initEv @ 62 NONAME ABSENT
	_ZN12HbWritingBox5paintEP8QPainterPK24QStyleOptionGraphicsItemP7QWidget @ 63 NONAME ABSENT
	_ZN12HbWritingBox8boxEventE19HbCnWidgetEventType8QVariant @ 64 NONAME ABSENT
	_ZN12HbWritingBoxC1EP13QGraphicsItem6QRectF6QFlagsIN2Qt10WindowTypeEE @ 65 NONAME ABSENT
	_ZN12HbWritingBoxC2EP13QGraphicsItem6QRectF6QFlagsIN2Qt10WindowTypeEE @ 66 NONAME ABSENT
	_ZN12HbWritingBoxD0Ev @ 67 NONAME ABSENT
	_ZN12HbWritingBoxD1Ev @ 68 NONAME ABSENT
	_ZN12HbWritingBoxD2Ev @ 69 NONAME ABSENT
	_ZN13HbInputTabBar11qt_metacallEN11QMetaObject4CallEiPPv @ 70 NONAME ABSENT
	_ZN13HbInputTabBar11qt_metacastEPKc @ 71 NONAME ABSENT
	_ZN13HbInputTabBar11tabGeometryEi @ 72 NONAME ABSENT
	_ZN13HbInputTabBar11tabSelectedEi @ 73 NONAME ABSENT
	_ZN13HbInputTabBar16staticMetaObjectE @ 74 NONAME DATA 16 ABSENT
	_ZN13HbInputTabBar19getStaticMetaObjectEv @ 75 NONAME ABSENT
	_ZN13HbInputTabBar6addTabERK7QString @ 76 NONAME ABSENT
	_ZN13HbInputTabBar7setIconEiRK7QString @ 77 NONAME ABSENT
	_ZN13HbInputTabBar8tabCountEv @ 78 NONAME ABSENT
	_ZN13HbInputTabBar9removeTabEi @ 79 NONAME ABSENT
	_ZN13HbInputTabBarC1EP16HbInputVkbWidgetP13QGraphicsItem @ 80 NONAME ABSENT
	_ZN13HbInputTabBarC2EP16HbInputVkbWidgetP13QGraphicsItem @ 81 NONAME ABSENT
	_ZN13HbInputTabBarD0Ev @ 82 NONAME ABSENT
	_ZN13HbInputTabBarD1Ev @ 83 NONAME ABSENT
	_ZN13HbInputTabBarD2Ev @ 84 NONAME ABSENT
	_ZN14HbInputCnModel10initializeE7QString @ 85 NONAME ABSENT
	_ZN14HbInputCnModel10initializeERK15HbInputLanguage @ 86 NONAME ABSENT
	_ZN14HbInputCnModel10initializeERK15HbInputLanguage6QFlagsI19HbInputModeTypeFlagE @ 87 NONAME ABSENT
	_ZN14HbInputCnModel11isCandExistEi @ 88 NONAME ABSENT
	_ZN14HbInputCnModel11selectACandE7QString @ 89 NONAME ABSENT
	_ZN14HbInputCnModel11selectACandEi @ 90 NONAME ABSENT
	_ZN14HbInputCnModel11setKeyboardE6QFlagsI18HbKeyboardTypeFlagE @ 91 NONAME ABSENT
	_ZN14HbInputCnModel11setLanguageERK15HbInputLanguage6QFlagsI19HbInputModeTypeFlagE @ 92 NONAME ABSENT
	_ZN14HbInputCnModel12selectASpellEi @ 93 NONAME ABSENT
	_ZN14HbInputCnModel12setInputModeE6QFlagsI19HbInputModeTypeFlagE @ 94 NONAME ABSENT
	_ZN14HbInputCnModel14initPredictEngERK15HbInputLanguage @ 95 NONAME ABSENT
	_ZN14HbInputCnModel14inputModeEqualEii @ 96 NONAME ABSENT
	_ZN14HbInputCnModel16predictInputLangEv @ 97 NONAME ABSENT
	_ZN14HbInputCnModel16setInputSequenceERK7QVectorIiE6QFlagsIN2Qt16KeyboardModifierEE @ 98 NONAME ABSENT
	_ZN14HbInputCnModel17setPredictionBaseE7QString @ 99 NONAME ABSENT
	_ZN14HbInputCnModel20supportsKeyboardTypeEi6QFlagsI18HbKeyboardTypeFlagE @ 100 NONAME ABSENT
	_ZN14HbInputCnModel23candsListFromPredictEngEiiR11QStringList @ 101 NONAME ABSENT
	_ZN14HbInputCnModel23isCandExistInPredictEngEi @ 102 NONAME ABSENT
	_ZN14HbInputCnModel23setLanguageToPredictEngERK15HbInputLanguage6QFlagsI19HbInputModeTypeFlagE @ 103 NONAME ABSENT
	_ZN14HbInputCnModel5clearEv @ 104 NONAME ABSENT
	_ZN14HbInputCnModel5spellEiR7QString @ 105 NONAME ABSENT
	_ZN14HbInputCnModel8instanceEv @ 106 NONAME ABSENT
	_ZN14HbInputCnModel8pressKeyEi6QFlagsIN2Qt16KeyboardModifierEEi @ 107 NONAME ABSENT
	_ZN14HbInputCnModel9addStrokeERK5QListI7QPointFE @ 108 NONAME ABSENT
	_ZN14HbInputCnModel9candsListEiiR11QStringList @ 109 NONAME ABSENT
	_ZN14HbInputCnModel9inputLangEv @ 110 NONAME ABSENT
	_ZN14HbInputCnModel9inputModeEv @ 111 NONAME ABSENT
	_ZN14HbInputCnModelC1Ev @ 112 NONAME ABSENT
	_ZN14HbInputCnModelC2Ev @ 113 NONAME ABSENT
	_ZN14HbInputCnModelD0Ev @ 114 NONAME ABSENT
	_ZN14HbInputCnModelD1Ev @ 115 NONAME ABSENT
	_ZN14HbInputCnModelD2Ev @ 116 NONAME ABSENT
	_ZN14HbPreviewLabel11qt_metacallEN11QMetaObject4CallEiPPv @ 117 NONAME ABSENT
	_ZN14HbPreviewLabel11qt_metacastEPKc @ 118 NONAME ABSENT
	_ZN14HbPreviewLabel15mousePressEventEP24QGraphicsSceneMouseEvent @ 119 NONAME ABSENT
	_ZN14HbPreviewLabel16staticMetaObjectE @ 120 NONAME DATA 16 ABSENT
	_ZN14HbPreviewLabel19getStaticMetaObjectEv @ 121 NONAME ABSENT
	_ZN14HbPreviewLabel8selectedEv @ 122 NONAME ABSENT
	_ZN14HbPreviewLabelC1E7QString @ 123 NONAME ABSENT
	_ZN14HbPreviewLabelC2E7QString @ 124 NONAME ABSENT
	_ZN15HbCandidateList10closeEventEP11QCloseEvent @ 125 NONAME
	_ZN15HbCandidateList11qt_metacallEN11QMetaObject4CallEiPPv @ 126 NONAME
	_ZN15HbCandidateList11qt_metacastEPKc @ 127 NONAME
	_ZN15HbCandidateList12populateListER11QStringList @ 128 NONAME ABSENT
	_ZN15HbCandidateList13itemActivatedEP16HbListWidgetItem @ 129 NONAME
	_ZN15HbCandidateList13keyPressEventEP9QKeyEvent @ 130 NONAME
	_ZN15HbCandidateList16currentCandidateEv @ 131 NONAME
	_ZN15HbCandidateList16staticMetaObjectE @ 132 NONAME DATA 16
	_ZN15HbCandidateList16updatePrimitivesEv @ 133 NONAME
	_ZN15HbCandidateList19getStaticMetaObjectEv @ 134 NONAME
	_ZN15HbCandidateList23setNumberOfVisibleLinesEi @ 135 NONAME
	_ZN15HbCandidateList35setSizeAndPositionForAutoCompletionEP9HbVkbHost @ 136 NONAME
	_ZN15HbCandidateList9hideEventEP10QHideEvent @ 137 NONAME
	_ZN15HbCandidateListC1EP13HbInputMethodP13QGraphicsItem @ 138 NONAME
	_ZN15HbCandidateListC2EP13HbInputMethodP13QGraphicsItem @ 139 NONAME
	_ZN15HbCandidateListD0Ev @ 140 NONAME
	_ZN15HbCandidateListD1Ev @ 141 NONAME
	_ZN15HbCandidateListD2Ev @ 142 NONAME
	_ZN15HbInputCnKeypad11expireTimerEv @ 143 NONAME ABSENT
	_ZN15HbInputCnKeypad11keyPositionEi @ 144 NONAME ABSENT
	_ZN15HbInputCnKeypad11keypadEventE19HbCnWidgetEventType8QVariant @ 145 NONAME ABSENT
	_ZN15HbInputCnKeypad11qt_metacallEN11QMetaObject4CallEiPPv @ 146 NONAME ABSENT
	_ZN15HbInputCnKeypad11qt_metacastEPKc @ 147 NONAME ABSENT
	_ZN15HbInputCnKeypad15sendKeypadEventE19HbCnWidgetEventTypei5QChar @ 148 NONAME ABSENT
	_ZN15HbInputCnKeypad16reorganizeKeypadERK14HbCnKeypadKeys @ 149 NONAME ABSENT
	_ZN15HbInputCnKeypad16staticMetaObjectE @ 150 NONAME DATA 16 ABSENT
	_ZN15HbInputCnKeypad17buttonDisplayTextEi @ 151 NONAME ABSENT
	_ZN15HbInputCnKeypad17onMultitapTimeOutEv @ 152 NONAME ABSENT
	_ZN15HbInputCnKeypad18configureKeypadPosERK17HbCnKeypadPosInfo @ 153 NONAME ABSENT
	_ZN15HbInputCnKeypad19buttonSecondaryTextEi @ 154 NONAME ABSENT
	_ZN15HbInputCnKeypad19getStaticMetaObjectEv @ 155 NONAME ABSENT
	_ZN15HbInputCnKeypad19onRepeatLongTimeOutEv @ 156 NONAME ABSENT
	_ZN15HbInputCnKeypad19setPropertiesForKeyERK14HbCnVirtualKey @ 157 NONAME ABSENT
	_ZN15HbInputCnKeypad20setPropertiesForKeysERK5QListI14HbCnVirtualKeyE @ 158 NONAME ABSENT
	_ZN15HbInputCnKeypad20virtualButtonPressedEi @ 159 NONAME ABSENT
	_ZN15HbInputCnKeypad21isButtonRepeatEnabledEi @ 160 NONAME ABSENT
	_ZN15HbInputCnKeypad21virtualButtonReleasedEi @ 161 NONAME ABSENT
	_ZN15HbInputCnKeypad22setButtonRepeatEnabledEib @ 162 NONAME ABSENT
	_ZN15HbInputCnKeypadC1ER22HbInputCnKeypadPrivateRK19HbCnKeypadConfigureP13QGraphicsItem @ 163 NONAME ABSENT
	_ZN15HbInputCnKeypadC1ERK19HbCnKeypadConfigureP13QGraphicsItem @ 164 NONAME ABSENT
	_ZN15HbInputCnKeypadC2ER22HbInputCnKeypadPrivateRK19HbCnKeypadConfigureP13QGraphicsItem @ 165 NONAME ABSENT
	_ZN15HbInputCnKeypadC2ERK19HbCnKeypadConfigureP13QGraphicsItem @ 166 NONAME ABSENT
	_ZN15HbInputCnKeypadD0Ev @ 167 NONAME ABSENT
	_ZN15HbInputCnKeypadD1Ev @ 168 NONAME ABSENT
	_ZN15HbInputCnKeypadD2Ev @ 169 NONAME ABSENT
	_ZN16HbExactWordPopup11qt_metacallEN11QMetaObject4CallEiPPv @ 170 NONAME
	_ZN16HbExactWordPopup11qt_metacastEPKc @ 171 NONAME
	_ZN16HbExactWordPopup16staticMetaObjectE @ 172 NONAME DATA 16
	_ZN16HbExactWordPopup16updatePrimitivesEv @ 173 NONAME
	_ZN16HbExactWordPopup17exactWordSelectedEv @ 174 NONAME
	_ZN16HbExactWordPopup17mouseReleaseEventEP24QGraphicsSceneMouseEvent @ 175 NONAME
	_ZN16HbExactWordPopup17setIndicatorArrowENS_25HbExactWordPopupIndicatorE @ 176 NONAME
	_ZN16HbExactWordPopup19getStaticMetaObjectEv @ 177 NONAME
	_ZN16HbExactWordPopup4textEv @ 178 NONAME
	_ZN16HbExactWordPopup7setTextERK7QString @ 179 NONAME
	_ZN16HbExactWordPopup8hideTextEv @ 180 NONAME
	_ZN16HbExactWordPopup8instanceENS_25HbExactWordPopupIndicatorE @ 181 NONAME
	_ZN16HbExactWordPopup8showTextE7QPointF @ 182 NONAME
	_ZN16HbExactWordPopupC1EP15QGraphicsWidgetNS_25HbExactWordPopupIndicatorE @ 183 NONAME
	_ZN16HbExactWordPopupC2EP15QGraphicsWidgetNS_25HbExactWordPopupIndicatorE @ 184 NONAME
	_ZN16HbInputVkbWidget10tabClickedEi @ 185 NONAME ABSENT
	_ZN16HbInputVkbWidget11aboutToOpenEP9HbVkbHost @ 186 NONAME
	_ZN16HbInputVkbWidget11qt_metacallEN11QMetaObject4CallEiPPv @ 187 NONAME
	_ZN16HbInputVkbWidget11qt_metacastEPKc @ 188 NONAME
	_ZN16HbInputVkbWidget11tabSelectedEi @ 189 NONAME ABSENT
	_ZN16HbInputVkbWidget12aboutToCloseEP9HbVkbHost @ 190 NONAME
	_ZN16HbInputVkbWidget12keypadLayoutEv @ 191 NONAME ABSENT
	_ZN16HbInputVkbWidget12setModifiersE6QFlagsI10HbModifierE @ 192 NONAME ABSENT
	_ZN16HbInputVkbWidget13setKeyMapDataEP12HbKeyMapData @ 193 NONAME ABSENT
	_ZN16HbInputVkbWidget14keyboardClosedEP9HbVkbHost @ 194 NONAME
	_ZN16HbInputVkbWidget14keyboardOpenedEP9HbVkbHost @ 195 NONAME
	_ZN16HbInputVkbWidget14mappedKeyPressEi @ 196 NONAME ABSENT
	_ZN16HbInputVkbWidget14settingsClosedEv @ 197 NONAME
	_ZN16HbInputVkbWidget15mousePressEventEP24QGraphicsSceneMouseEvent @ 198 NONAME ABSENT
	_ZN16HbInputVkbWidget15rockerDirectionEiN20HbInputVirtualRocker19RockerSelectionModeE @ 199 NONAME
	_ZN16HbInputVkbWidget16asGraphicsWidgetEv @ 200 NONAME
	_ZN16HbInputVkbWidget16mappedKeyReleaseEi @ 201 NONAME ABSENT
	_ZN16HbInputVkbWidget16setRockerVisibleEb @ 202 NONAME
	_ZN16HbInputVkbWidget16setupToolClusterEv @ 203 NONAME ABSENT
	_ZN16HbInputVkbWidget16staticMetaObjectE @ 204 NONAME DATA 16
	_ZN16HbInputVkbWidget17keyboardMinimizedEP9HbVkbHost @ 205 NONAME
	_ZN16HbInputVkbWidget17mouseReleaseEventEP24QGraphicsSceneMouseEvent @ 206 NONAME ABSENT
	_ZN16HbInputVkbWidget17setKeyboardDimmedEb @ 207 NONAME
	_ZN16HbInputVkbWidget19executeMethodDialogEv @ 208 NONAME
	_ZN16HbInputVkbWidget19getStaticMetaObjectEv @ 209 NONAME
	_ZN16HbInputVkbWidget20keypadButtonAreaSizeEv @ 210 NONAME
	_ZN16HbInputVkbWidget20setBackgroundDrawingEb @ 211 NONAME
	_ZN16HbInputVkbWidget21executeLanguageDialogEv @ 212 NONAME ABSENT
	_ZN16HbInputVkbWidget21executeSettingsDialogEv @ 213 NONAME ABSENT
	_ZN16HbInputVkbWidget21minimizedKeyboardSizeEv @ 214 NONAME
	_ZN16HbInputVkbWidget21preferredKeyboardSizeEv @ 215 NONAME
	_ZN16HbInputVkbWidget22keyboardAnimationFrameEN17HbVirtualKeyboard18HbVkbAnimationTypeEf @ 216 NONAME
	_ZN16HbInputVkbWidget23showSettingsButtonPopupEv @ 217 NONAME ABSENT
	_ZN16HbInputVkbWidget24closeSettingsButtonPopupEv @ 218 NONAME ABSENT
	_ZN16HbInputVkbWidget24enableLongKeyPressEventsER5QListIiE @ 219 NONAME ABSENT
	_ZN16HbInputVkbWidget24keypadCloseEventDetectedENS_16HbVkbCloseMethodE @ 220 NONAME
	_ZN16HbInputVkbWidget25enableAutoKeyRepeatEventsER5QListIiE @ 221 NONAME ABSENT
	_ZN16HbInputVkbWidget5paintEP8QPainterPK24QStyleOptionGraphicsItemP7QWidget @ 222 NONAME
	_ZN16HbInputVkbWidget6addTabERK7QString @ 223 NONAME ABSENT
	_ZN16HbInputVkbWidget7setModeE12HbKeypadMode @ 224 NONAME ABSENT
	_ZN16HbInputVkbWidget8asWidgetEv @ 225 NONAME
	_ZN16HbInputVkbWidget8tabCountEv @ 226 NONAME ABSENT
	_ZN16HbInputVkbWidget9removeTabEi @ 227 NONAME ABSENT
	_ZN16HbInputVkbWidgetC1EP13QGraphicsItem @ 228 NONAME
	_ZN16HbInputVkbWidgetC1ER23HbInputVkbWidgetPrivateP13QGraphicsItem @ 229 NONAME
	_ZN16HbInputVkbWidgetC2EP13QGraphicsItem @ 230 NONAME
	_ZN16HbInputVkbWidgetC2ER23HbInputVkbWidgetPrivateP13QGraphicsItem @ 231 NONAME
	_ZN16HbInputVkbWidgetD0Ev @ 232 NONAME
	_ZN16HbInputVkbWidgetD1Ev @ 233 NONAME
	_ZN16HbInputVkbWidgetD2Ev @ 234 NONAME
	_ZN16HbQwertyKeyboard11aboutToOpenEP9HbVkbHost @ 235 NONAME ABSENT
	_ZN16HbQwertyKeyboard11qt_metacallEN11QMetaObject4CallEiPPv @ 236 NONAME ABSENT
	_ZN16HbQwertyKeyboard11qt_metacastEPKc @ 237 NONAME ABSENT
	_ZN16HbQwertyKeyboard12aboutToCloseEP9HbVkbHost @ 238 NONAME ABSENT
	_ZN16HbQwertyKeyboard12setModifiersE6QFlagsI10HbModifierE @ 239 NONAME ABSENT
	_ZN16HbQwertyKeyboard13setKeyMapDataEP12HbKeyMapData @ 240 NONAME ABSENT
	_ZN16HbQwertyKeyboard14mappedKeyClickEi @ 241 NONAME ABSENT
	_ZN16HbQwertyKeyboard16staticMetaObjectE @ 242 NONAME DATA 16 ABSENT
	_ZN16HbQwertyKeyboard17previewCharactersERK11QStringList @ 243 NONAME ABSENT
	_ZN16HbQwertyKeyboard19getStaticMetaObjectEv @ 244 NONAME ABSENT
	_ZN16HbQwertyKeyboard21preferredKeyboardSizeEv @ 245 NONAME ABSENT
	_ZN16HbQwertyKeyboard23charFromPreviewSelectedE7QString @ 246 NONAME ABSENT
	_ZN16HbQwertyKeyboard24enableLongKeyPressEventsER5QListIiE @ 247 NONAME ABSENT
	_ZN16HbQwertyKeyboard24enteredInNonStickyRegionEv @ 248 NONAME ABSENT
	_ZN16HbQwertyKeyboard25enableAutoKeyRepeatEventsER5QListIiE @ 249 NONAME ABSENT
	_ZN16HbQwertyKeyboard7setModeE12HbKeypadMode @ 250 NONAME ABSENT
	_ZN16HbQwertyKeyboardC1EP13HbInputMethodP12HbKeyMapDataP13QGraphicsItem12HbKeypadMode @ 251 NONAME ABSENT
	_ZN16HbQwertyKeyboardC1ER23HbQwertyKeyboardPrivateP13QGraphicsItem @ 252 NONAME ABSENT
	_ZN16HbQwertyKeyboardC2EP13HbInputMethodP12HbKeyMapDataP13QGraphicsItem12HbKeypadMode @ 253 NONAME ABSENT
	_ZN16HbQwertyKeyboardC2ER23HbQwertyKeyboardPrivateP13QGraphicsItem @ 254 NONAME ABSENT
	_ZN16HbQwertyKeyboardD0Ev @ 255 NONAME ABSENT
	_ZN16HbQwertyKeyboardD1Ev @ 256 NONAME ABSENT
	_ZN16HbQwertyKeyboardD2Ev @ 257 NONAME ABSENT
	_ZN17HbCharPreviewPane11qt_metacallEN11QMetaObject4CallEiPPv @ 258 NONAME ABSENT
	_ZN17HbCharPreviewPane11qt_metacastEPKc @ 259 NONAME ABSENT
	_ZN17HbCharPreviewPane14showCharactersERK11QStringListRK6QRectF @ 260 NONAME ABSENT
	_ZN17HbCharPreviewPane16staticMetaObjectE @ 261 NONAME DATA 16 ABSENT
	_ZN17HbCharPreviewPane16updatePrimitivesEv @ 262 NONAME ABSENT
	_ZN17HbCharPreviewPane19getStaticMetaObjectEv @ 263 NONAME ABSENT
	_ZN17HbCharPreviewPane23charFromPreviewSelectedE7QString @ 264 NONAME ABSENT
	_ZN17HbCharPreviewPaneC1EP13QGraphicsItem @ 265 NONAME ABSENT
	_ZN17HbCharPreviewPaneC2EP13QGraphicsItem @ 266 NONAME ABSENT
	_ZN17HbCharPreviewPaneD0Ev @ 267 NONAME ABSENT
	_ZN17HbCharPreviewPaneD1Ev @ 268 NONAME ABSENT
	_ZN17HbCharPreviewPaneD2Ev @ 269 NONAME ABSENT
	_ZN17HbInputCnListView10initializeEv @ 270 NONAME ABSENT
	_ZN17HbInputCnListView11qt_metacallEN11QMetaObject4CallEiPPv @ 271 NONAME ABSENT
	_ZN17HbInputCnListView11qt_metacastEPKc @ 272 NONAME ABSENT
	_ZN17HbInputCnListView11resizeEventEP25QGraphicsSceneResizeEvent @ 273 NONAME ABSENT
	_ZN17HbInputCnListView11updateModelEv @ 274 NONAME ABSENT
	_ZN17HbInputCnListView12itemSelectedE19HbCnWidgetEventType8QVariant @ 275 NONAME ABSENT
	_ZN17HbInputCnListView12modelUpdatedEv @ 276 NONAME ABSENT
	_ZN17HbInputCnListView15setListTextFontERK5QFont @ 277 NONAME ABSENT
	_ZN17HbInputCnListView16setExpandEnabledEb @ 278 NONAME ABSENT
	_ZN17HbInputCnListView16staticMetaObjectE @ 279 NONAME DATA 16 ABSENT
	_ZN17HbInputCnListView17setMaxColumnCountEi @ 280 NONAME ABSENT
	_ZN17HbInputCnListView17setShrinkRowCountEi @ 281 NONAME ABSENT
	_ZN17HbInputCnListView18launchPreviewPopupERK7QString6QRectF @ 282 NONAME ABSENT
	_ZN17HbInputCnListView19dismissPreviewPopupEv @ 283 NONAME ABSENT
	_ZN17HbInputCnListView19getStaticMetaObjectEv @ 284 NONAME ABSENT
	_ZN17HbInputCnListView19setExpandedRowCountEi @ 285 NONAME ABSENT
	_ZN17HbInputCnListView19setListFunctionTypeE12HbCnListType @ 286 NONAME ABSENT
	_ZN17HbInputCnListView21setItemInternalMarginEff @ 287 NONAME ABSENT
	_ZN17HbInputCnListView22constructListItemsInfoEv @ 288 NONAME ABSENT
	_ZN17HbInputCnListView22setItemVerticalSpacingEf @ 289 NONAME ABSENT
	_ZN17HbInputCnListView24setItemHorizontalSpacingEf @ 290 NONAME ABSENT
	_ZN17HbInputCnListView27onExpandEnableStatusChangedEb @ 291 NONAME ABSENT
	_ZN17HbInputCnListView9setExpandEb @ 292 NONAME ABSENT
	_ZN17HbInputCnListViewC1EP18HbInputCnListModelP24HbInputCnListCompositiorP13QGraphicsItem12HbCnListType @ 293 NONAME ABSENT
	_ZN17HbInputCnListViewC2EP18HbInputCnListModelP24HbInputCnListCompositiorP13QGraphicsItem12HbCnListType @ 294 NONAME ABSENT
	_ZN17HbInputCnListViewD0Ev @ 295 NONAME ABSENT
	_ZN17HbInputCnListViewD1Ev @ 296 NONAME ABSENT
	_ZN17HbInputCnListViewD2Ev @ 297 NONAME ABSENT
	_ZN18Hb12KeyTouchKeypad11aboutToOpenEP9HbVkbHost @ 298 NONAME ABSENT
	_ZN18Hb12KeyTouchKeypad11qt_metacallEN11QMetaObject4CallEiPPv @ 299 NONAME ABSENT
	_ZN18Hb12KeyTouchKeypad11qt_metacastEPKc @ 300 NONAME ABSENT
	_ZN18Hb12KeyTouchKeypad12createLayoutEv @ 301 NONAME ABSENT
	_ZN18Hb12KeyTouchKeypad16staticMetaObjectE @ 302 NONAME DATA 16 ABSENT
	_ZN18Hb12KeyTouchKeypad19getStaticMetaObjectEv @ 303 NONAME ABSENT
	_ZN18Hb12KeyTouchKeypad24enableLongKeyPressEventsER5QListIiE @ 304 NONAME ABSENT
	_ZN18Hb12KeyTouchKeypad25enableAutoKeyRepeatEventsER5QListIiE @ 305 NONAME ABSENT
	_ZN18Hb12KeyTouchKeypad7setModeE12HbKeypadMode @ 306 NONAME ABSENT
	_ZN18Hb12KeyTouchKeypadC1EP13HbInputMethodP13QGraphicsItem @ 307 NONAME ABSENT
	_ZN18Hb12KeyTouchKeypadC2EP13HbInputMethodP13QGraphicsItem @ 308 NONAME ABSENT
	_ZN18Hb12KeyTouchKeypadD0Ev @ 309 NONAME ABSENT
	_ZN18Hb12KeyTouchKeypadD1Ev @ 310 NONAME ABSENT
	_ZN18Hb12KeyTouchKeypadD2Ev @ 311 NONAME ABSENT
	_ZN18HbInputCnListModel11qt_metacallEN11QMetaObject4CallEiPPv @ 312 NONAME ABSENT
	_ZN18HbInputCnListModel11qt_metacastEPKc @ 313 NONAME ABSENT
	_ZN18HbInputCnListModel12setThresholdEi @ 314 NONAME ABSENT
	_ZN18HbInputCnListModel16staticMetaObjectE @ 315 NONAME DATA 16 ABSENT
	_ZN18HbInputCnListModel17notifyDataUpdatedEb @ 316 NONAME ABSENT
	_ZN18HbInputCnListModel19getStaticMetaObjectEv @ 317 NONAME ABSENT
	_ZN18HbInputCnListModel8dataListEv @ 318 NONAME ABSENT
	_ZN18HbInputCnListModel8setOwnerEP17HbInputCnListView @ 319 NONAME ABSENT
	_ZN18HbInputCnListModelC2EP7QObjecti @ 320 NONAME ABSENT
	_ZN18HbInputCnListModelC2ER25HbInputCnListModelPrivate @ 321 NONAME ABSENT
	_ZN18HbInputCnListModelD0Ev @ 322 NONAME ABSENT
	_ZN18HbInputCnListModelD1Ev @ 323 NONAME ABSENT
	_ZN18HbInputCnListModelD2Ev @ 324 NONAME ABSENT
	_ZN18HbInputCnTchButton10setKeycodeEi @ 325 NONAME ABSENT
	_ZN18HbInputCnTchButton10smileyTextEv @ 326 NONAME ABSENT
	_ZN18HbInputCnTchButton11qt_metacallEN11QMetaObject4CallEiPPv @ 327 NONAME ABSENT
	_ZN18HbInputCnTchButton11qt_metacastEPKc @ 328 NONAME ABSENT
	_ZN18HbInputCnTchButton12multitapTextEv @ 329 NONAME ABSENT
	_ZN18HbInputCnTchButton13releaseButtonEb @ 330 NONAME ABSENT
	_ZN18HbInputCnTchButton13secondaryTextEv @ 331 NONAME ABSENT
	_ZN18HbInputCnTchButton13setButtonTypeE17HbCnTchButtonType @ 332 NONAME ABSENT
	_ZN18HbInputCnTchButton13setSmileyTextERK7QString @ 333 NONAME ABSENT
	_ZN18HbInputCnTchButton15mousePressEventEP24QGraphicsSceneMouseEvent @ 334 NONAME ABSENT
	_ZN18HbInputCnTchButton15setMultitapTextERK7QString @ 335 NONAME ABSENT
	_ZN18HbInputCnTchButton15setTimerEnabledEi @ 336 NONAME ABSENT
	_ZN18HbInputCnTchButton16setSecondaryTextERK7QString @ 337 NONAME ABSENT
	_ZN18HbInputCnTchButton16staticMetaObjectE @ 338 NONAME DATA 16 ABSENT
	_ZN18HbInputCnTchButton16updatePrimitivesEv @ 339 NONAME ABSENT
	_ZN18HbInputCnTchButton17mouseReleaseEventEP24QGraphicsSceneMouseEvent @ 340 NONAME ABSENT
	_ZN18HbInputCnTchButton19getStaticMetaObjectEv @ 341 NONAME ABSENT
	_ZN18HbInputCnTchButton4textEv @ 342 NONAME ABSENT
	_ZN18HbInputCnTchButton5paintEP8QPainterPK24QStyleOptionGraphicsItemP7QWidget @ 343 NONAME ABSENT
	_ZN18HbInputCnTchButton7pressedEi @ 344 NONAME ABSENT
	_ZN18HbInputCnTchButton7setIconERK6HbIcon @ 345 NONAME ABSENT
	_ZN18HbInputCnTchButton7setIconERK7QString @ 346 NONAME ABSENT
	_ZN18HbInputCnTchButton7setTextERK7QString @ 347 NONAME ABSENT
	_ZN18HbInputCnTchButton8releasedEi @ 348 NONAME ABSENT
	_ZN18HbInputCnTchButton9timerFlagEv @ 349 NONAME ABSENT
	_ZN18HbInputCnTchButtonC1EiRK7QStringP13QGraphicsItem @ 350 NONAME ABSENT
	_ZN18HbInputCnTchButtonC1EiRK7QStringR25HbInputCnTchButtonPrivateP13QGraphicsItem @ 351 NONAME ABSENT
	_ZN18HbInputCnTchButtonC2EiRK7QStringP13QGraphicsItem @ 352 NONAME ABSENT
	_ZN18HbInputCnTchButtonC2EiRK7QStringR25HbInputCnTchButtonPrivateP13QGraphicsItem @ 353 NONAME ABSENT
	_ZN18HbInputCnTchButtonD0Ev @ 354 NONAME ABSENT
	_ZN18HbInputCnTchButtonD1Ev @ 355 NONAME ABSENT
	_ZN18HbInputCnTchButtonD2Ev @ 356 NONAME ABSENT
	_ZN18HbInputSctPortrait10setCharSetERK7QStringP13HbInputFilter @ 357 NONAME ABSENT
	_ZN18HbInputSctPortrait11aboutToOpenEP9HbVkbHost @ 358 NONAME ABSENT
	_ZN18HbInputSctPortrait11qt_metacallEN11QMetaObject4CallEiPPv @ 359 NONAME ABSENT
	_ZN18HbInputSctPortrait11qt_metacastEPKc @ 360 NONAME ABSENT
	_ZN18HbInputSctPortrait12keypadLayoutEv @ 361 NONAME ABSENT
	_ZN18HbInputSctPortrait16staticMetaObjectE @ 362 NONAME DATA 16 ABSENT
	_ZN18HbInputSctPortrait19getStaticMetaObjectEv @ 363 NONAME ABSENT
	_ZN18HbInputSctPortrait20sctCharacterSelectedE5QChar @ 364 NONAME ABSENT
	_ZN18HbInputSctPortrait21preferredKeyboardSizeEv @ 365 NONAME ABSENT
	_ZN18HbInputSctPortraitC1EP13HbInputMethodP13QGraphicsItem @ 366 NONAME ABSENT
	_ZN18HbInputSctPortraitC1ER25HbInputSctPortraitPrivateP13QGraphicsItem @ 367 NONAME ABSENT
	_ZN18HbInputSctPortraitC2EP13HbInputMethodP13QGraphicsItem @ 368 NONAME ABSENT
	_ZN18HbInputSctPortraitC2ER25HbInputSctPortraitPrivateP13QGraphicsItem @ 369 NONAME ABSENT
	_ZN18HbInputSctPortraitD0Ev @ 370 NONAME ABSENT
	_ZN18HbInputSctPortraitD1Ev @ 371 NONAME ABSENT
	_ZN18HbInputSctPortraitD2Ev @ 372 NONAME ABSENT
	_ZN19HbInputKeypadReader10readKeypadER5QHashI7QString14HbCnKeypadKeysE @ 373 NONAME ABSENT
	_ZN19HbInputKeypadReader11readKeypadsER5QHashI7QString14HbCnKeypadKeysE @ 374 NONAME ABSENT
	_ZN19HbInputKeypadReader15readKeypadsListEP9QIODeviceR5QHashI7QString14HbCnKeypadKeysE @ 375 NONAME ABSENT
	_ZN19HbInputKeypadReader18readUnknownElementEv @ 376 NONAME ABSENT
	_ZN19HbInputKeypadReader7mReaderE @ 377 NONAME DATA 4 ABSENT
	_ZN19HbInputKeypadReader8instanceEv @ 378 NONAME ABSENT
	_ZN19HbInputKeypadReader8readKeysEP5QListI14HbCnVirtualKeyE @ 379 NONAME ABSENT
	_ZN19HbInputKeypadReaderC1Ev @ 380 NONAME ABSENT
	_ZN19HbInputKeypadReaderC2Ev @ 381 NONAME ABSENT
	_ZN19HbInputKeypadReaderD0Ev @ 382 NONAME ABSENT
	_ZN19HbInputKeypadReaderD1Ev @ 383 NONAME ABSENT
	_ZN19HbInputKeypadReaderD2Ev @ 384 NONAME ABSENT
	_ZN19HbInputSctLandscape11aboutToOpenEP9HbVkbHost @ 385 NONAME ABSENT
	_ZN19HbInputSctLandscape11qt_metacallEN11QMetaObject4CallEiPPv @ 386 NONAME ABSENT
	_ZN19HbInputSctLandscape11qt_metacastEPKc @ 387 NONAME ABSENT
	_ZN19HbInputSctLandscape12aboutToCloseEP9HbVkbHost @ 388 NONAME ABSENT
	_ZN19HbInputSctLandscape12keypadLayoutEv @ 389 NONAME ABSENT
	_ZN19HbInputSctLandscape13setKeyMapDataEP12HbKeyMapData @ 390 NONAME ABSENT
	_ZN19HbInputSctLandscape16staticMetaObjectE @ 391 NONAME DATA 16 ABSENT
	_ZN19HbInputSctLandscape17sctSmileySelectedE6HbIcon @ 392 NONAME ABSENT
	_ZN19HbInputSctLandscape19getStaticMetaObjectEv @ 393 NONAME ABSENT
	_ZN19HbInputSctLandscape20sctCharacterSelectedE5QChar @ 394 NONAME ABSENT
	_ZN19HbInputSctLandscape24enableLongKeyPressEventsER5QListIiE @ 395 NONAME ABSENT
	_ZN19HbInputSctLandscape25enableAutoKeyRepeatEventsER5QListIiE @ 396 NONAME ABSENT
	_ZN19HbInputSctLandscape6setSctENS_9HbSctViewEb @ 397 NONAME ABSENT
	_ZN19HbInputSctLandscapeC1EP13HbInputMethodP12HbKeyMapDataP13QGraphicsItem @ 398 NONAME ABSENT
	_ZN19HbInputSctLandscapeC1ER26HbInputSctLandscapePrivateP13QGraphicsItem @ 399 NONAME ABSENT
	_ZN19HbInputSctLandscapeC2EP13HbInputMethodP12HbKeyMapDataP13QGraphicsItem @ 400 NONAME ABSENT
	_ZN19HbInputSctLandscapeC2ER26HbInputSctLandscapePrivateP13QGraphicsItem @ 401 NONAME ABSENT
	_ZN19HbInputSctLandscapeD0Ev @ 402 NONAME ABSENT
	_ZN19HbInputSctLandscapeD1Ev @ 403 NONAME ABSENT
	_ZN19HbInputSctLandscapeD2Ev @ 404 NONAME ABSENT
	_ZN19HbTouchKeypadButton11qt_metacallEN11QMetaObject4CallEiPPv @ 405 NONAME ABSENT
	_ZN19HbTouchKeypadButton11qt_metacastEPKc @ 406 NONAME ABSENT
	_ZN19HbTouchKeypadButton11resizeEventEP25QGraphicsSceneResizeEvent @ 407 NONAME ABSENT
	_ZN19HbTouchKeypadButton12setFrameIconE7QString @ 408 NONAME ABSENT
	_ZN19HbTouchKeypadButton13setBackgroundE7QString @ 409 NONAME ABSENT
	_ZN19HbTouchKeypadButton13setButtonTypeENS_17HbTouchButtonTypeE @ 410 NONAME ABSENT
	_ZN19HbTouchKeypadButton14mouseMoveEventEP24QGraphicsSceneMouseEvent @ 411 NONAME ABSENT
	_ZN19HbTouchKeypadButton15mousePressEventEP24QGraphicsSceneMouseEvent @ 412 NONAME ABSENT
	_ZN19HbTouchKeypadButton16staticMetaObjectE @ 413 NONAME DATA 16 ABSENT
	_ZN19HbTouchKeypadButton17mouseReleaseEventEP24QGraphicsSceneMouseEvent @ 414 NONAME ABSENT
	_ZN19HbTouchKeypadButton17setAdditionalTextERK7QString @ 415 NONAME ABSENT
	_ZN19HbTouchKeypadButton17setAsStickyButtonEb @ 416 NONAME ABSENT
	_ZN19HbTouchKeypadButton19getStaticMetaObjectEv @ 417 NONAME ABSENT
	_ZN19HbTouchKeypadButton23setBackgroundAttributesENS_18HbTouchButtonStateE @ 418 NONAME ABSENT
	_ZN19HbTouchKeypadButton24enteredInNonStickyRegionEv @ 419 NONAME ABSENT
	_ZN19HbTouchKeypadButton7setFadeEb @ 420 NONAME ABSENT
	_ZN19HbTouchKeypadButton7setTextERK7QString @ 421 NONAME ABSENT
	_ZN19HbTouchKeypadButton8setLatchEb @ 422 NONAME ABSENT
	_ZN19HbTouchKeypadButtonC1EP16HbInputVkbWidgetRK7QStringP15QGraphicsWidget @ 423 NONAME ABSENT
	_ZN19HbTouchKeypadButtonC1EP16HbInputVkbWidgetRK7QStringS4_P15QGraphicsWidget @ 424 NONAME ABSENT
	_ZN19HbTouchKeypadButtonC2EP16HbInputVkbWidgetRK7QStringP15QGraphicsWidget @ 425 NONAME ABSENT
	_ZN19HbTouchKeypadButtonC2EP16HbInputVkbWidgetRK7QStringS4_P15QGraphicsWidget @ 426 NONAME ABSENT
	_ZN19HbTouchKeypadButtonD0Ev @ 427 NONAME ABSENT
	_ZN19HbTouchKeypadButtonD1Ev @ 428 NONAME ABSENT
	_ZN19HbTouchKeypadButtonD2Ev @ 429 NONAME ABSENT
	_ZN20HbInputCommonDialogs27showLanguageSelectionDialogEN7QLocale8LanguageE5QListI15HbInputLanguageE @ 430 NONAME
	_ZN20HbInputCommonDialogs30showInputMethodSelectionDialogERK15HbInputLanguage @ 431 NONAME ABSENT
	_ZN20HbInputModeIndicator11qt_metacallEN11QMetaObject4CallEiPPv @ 432 NONAME
	_ZN20HbInputModeIndicator11qt_metacastEPKc @ 433 NONAME
	_ZN20HbInputModeIndicator15updateIndicatorEv @ 434 NONAME
	_ZN20HbInputModeIndicator16staticMetaObjectE @ 435 NONAME DATA 16
	_ZN20HbInputModeIndicator19getStaticMetaObjectEv @ 436 NONAME
	_ZN20HbInputModeIndicatorC1ER19HbTouchKeypadButtonNS_24HbInputModeIndicatorTypeEP15QGraphicsWidget @ 437 NONAME ABSENT
	_ZN20HbInputModeIndicatorC2ER19HbTouchKeypadButtonNS_24HbInputModeIndicatorTypeEP15QGraphicsWidget @ 438 NONAME ABSENT
	_ZN20HbInputModeIndicatorD0Ev @ 439 NONAME
	_ZN20HbInputModeIndicatorD1Ev @ 440 NONAME
	_ZN20HbInputModeIndicatorD2Ev @ 441 NONAME
	_ZN20HbInputSettingDialog11qt_metacallEN11QMetaObject4CallEiPPv @ 442 NONAME ABSENT
	_ZN20HbInputSettingDialog11qt_metacastEPKc @ 443 NONAME ABSENT
	_ZN20HbInputSettingDialog16staticMetaObjectE @ 444 NONAME DATA 16 ABSENT
	_ZN20HbInputSettingDialog19getStaticMetaObjectEv @ 445 NONAME ABSENT
	_ZN20HbInputSettingDialog20settingItemDisplayedERK11QModelIndex @ 446 NONAME ABSENT
	_ZN20HbInputSettingDialog22primaryLanguageChangedEi @ 447 NONAME ABSENT
	_ZN20HbInputSettingDialog23predictionStatusChangedEi @ 448 NONAME ABSENT
	_ZN20HbInputSettingDialog24secondaryLanguageChangedEi @ 449 NONAME ABSENT
	_ZN20HbInputSettingDialog8selectedEv @ 450 NONAME ABSENT
	_ZN20HbInputSettingDialogC1EP15QGraphicsWidget @ 451 NONAME ABSENT
	_ZN20HbInputSettingDialogC2EP15QGraphicsWidget @ 452 NONAME ABSENT
	_ZN20HbInputSettingDialogD0Ev @ 453 NONAME ABSENT
	_ZN20HbInputSettingDialogD1Ev @ 454 NONAME ABSENT
	_ZN20HbInputSettingDialogD2Ev @ 455 NONAME ABSENT
	_ZN20HbInputVirtualRocker11qt_metacallEN11QMetaObject4CallEiPPv @ 456 NONAME
	_ZN20HbInputVirtualRocker11qt_metacastEPKc @ 457 NONAME
	_ZN20HbInputVirtualRocker14mouseMoveEventEP24QGraphicsSceneMouseEvent @ 458 NONAME
	_ZN20HbInputVirtualRocker15mousePressEventEP24QGraphicsSceneMouseEvent @ 459 NONAME
	_ZN20HbInputVirtualRocker15rockerDirectionEiNS_19RockerSelectionModeE @ 460 NONAME
	_ZN20HbInputVirtualRocker16staticMetaObjectE @ 461 NONAME DATA 16
	_ZN20HbInputVirtualRocker17mouseReleaseEventEP24QGraphicsSceneMouseEvent @ 462 NONAME
	_ZN20HbInputVirtualRocker19getStaticMetaObjectEv @ 463 NONAME
	_ZN20HbInputVirtualRocker21mouseDoubleClickEventEP24QGraphicsSceneMouseEvent @ 464 NONAME
	_ZN20HbInputVirtualRocker5paintEP8QPainterPK24QStyleOptionGraphicsItemP7QWidget @ 465 NONAME
	_ZN20HbInputVirtualRockerC1EP16HbInputVkbWidget @ 466 NONAME
	_ZN20HbInputVirtualRockerC1ER27HbInputVirtualRockerPrivateP15QGraphicsWidget @ 467 NONAME
	_ZN20HbInputVirtualRockerC2EP16HbInputVkbWidget @ 468 NONAME
	_ZN20HbInputVirtualRockerC2ER27HbInputVirtualRockerPrivateP15QGraphicsWidget @ 469 NONAME
	_ZN20HbInputVirtualRockerD0Ev @ 470 NONAME
	_ZN20HbInputVirtualRockerD1Ev @ 471 NONAME
	_ZN20HbInputVirtualRockerD2Ev @ 472 NONAME
	_ZN21HbInputCnScrollKeypad11keyPositionEi @ 473 NONAME ABSENT
	_ZN21HbInputCnScrollKeypad11keypadEventE19HbCnWidgetEventType8QVariant @ 474 NONAME ABSENT
	_ZN21HbInputCnScrollKeypad11qt_metacallEN11QMetaObject4CallEiPPv @ 475 NONAME ABSENT
	_ZN21HbInputCnScrollKeypad11qt_metacastEPKc @ 476 NONAME ABSENT
	_ZN21HbInputCnScrollKeypad15resumeKeypadPosEv @ 477 NONAME ABSENT
	_ZN21HbInputCnScrollKeypad15sendKeypadEventE19HbCnWidgetEventTypei5QChar @ 478 NONAME ABSENT
	_ZN21HbInputCnScrollKeypad16buttonSmileyTextEi @ 479 NONAME ABSENT
	_ZN21HbInputCnScrollKeypad16reorganizeKeypadERK14HbCnKeypadKeys @ 480 NONAME ABSENT
	_ZN21HbInputCnScrollKeypad16sceneEventFilterEP13QGraphicsItemP6QEvent @ 481 NONAME ABSENT
	_ZN21HbInputCnScrollKeypad16staticMetaObjectE @ 482 NONAME DATA 16 ABSENT
	_ZN21HbInputCnScrollKeypad17buttonDisplayTextEi @ 483 NONAME ABSENT
	_ZN21HbInputCnScrollKeypad18configureKeypadPosERK17HbCnKeypadPosInfo @ 484 NONAME ABSENT
	_ZN21HbInputCnScrollKeypad19getStaticMetaObjectEv @ 485 NONAME ABSENT
	_ZN21HbInputCnScrollKeypad20setPropertiesForKeysERK5QListI14HbCnVirtualKeyE @ 486 NONAME ABSENT
	_ZN21HbInputCnScrollKeypad20virtualButtonPressedEi @ 487 NONAME ABSENT
	_ZN21HbInputCnScrollKeypad21virtualButtonReleasedEi @ 488 NONAME ABSENT
	_ZN21HbInputCnScrollKeypadC1ER28HbInputCnScrollKeypadPrivateRK19HbCnKeypadConfigureP13QGraphicsItem @ 489 NONAME ABSENT
	_ZN21HbInputCnScrollKeypadC1ERK19HbCnKeypadConfigureP13QGraphicsItem @ 490 NONAME ABSENT
	_ZN21HbInputCnScrollKeypadC2ER28HbInputCnScrollKeypadPrivateRK19HbCnKeypadConfigureP13QGraphicsItem @ 491 NONAME ABSENT
	_ZN21HbInputCnScrollKeypadC2ERK19HbCnKeypadConfigureP13QGraphicsItem @ 492 NONAME ABSENT
	_ZN21HbInputCnScrollKeypadD0Ev @ 493 NONAME ABSENT
	_ZN21HbInputCnScrollKeypadD1Ev @ 494 NONAME ABSENT
	_ZN21HbInputCnScrollKeypadD2Ev @ 495 NONAME ABSENT
	_ZN21HbInputUsedSymbolPane11qt_metacallEN11QMetaObject4CallEiPPv @ 496 NONAME ABSENT
	_ZN21HbInputUsedSymbolPane11qt_metacastEPKc @ 497 NONAME ABSENT
	_ZN21HbInputUsedSymbolPane14restoreSctLineEP13HbInputFilter @ 498 NONAME ABSENT
	_ZN21HbInputUsedSymbolPane15mousePressEventEP24QGraphicsSceneMouseEvent @ 499 NONAME ABSENT
	_ZN21HbInputUsedSymbolPane16staticMetaObjectE @ 500 NONAME DATA 16 ABSENT
	_ZN21HbInputUsedSymbolPane17mouseReleaseEventEP24QGraphicsSceneMouseEvent @ 501 NONAME ABSENT
	_ZN21HbInputUsedSymbolPane19getStaticMetaObjectEv @ 502 NONAME ABSENT
	_ZN21HbInputUsedSymbolPane20sctCharacterSelectedE5QChar @ 503 NONAME ABSENT
	_ZN21HbInputUsedSymbolPane21mouseDoubleClickEventEP24QGraphicsSceneMouseEvent @ 504 NONAME ABSENT
	_ZN21HbInputUsedSymbolPane21setNumberOfCharactersEi @ 505 NONAME ABSENT
	_ZN21HbInputUsedSymbolPane5paintEP8QPainterPK24QStyleOptionGraphicsItemP7QWidget @ 506 NONAME ABSENT
	_ZN21HbInputUsedSymbolPaneC1EP16HbInputVkbWidgetP15QGraphicsWidget @ 507 NONAME ABSENT
	_ZN21HbInputUsedSymbolPaneC2EP16HbInputVkbWidgetP15QGraphicsWidget @ 508 NONAME ABSENT
	_ZN21HbInputUsedSymbolPaneD0Ev @ 509 NONAME ABSENT
	_ZN21HbInputUsedSymbolPaneD1Ev @ 510 NONAME ABSENT
	_ZN21HbInputUsedSymbolPaneD2Ev @ 511 NONAME ABSENT
	_ZN22HbInputCnListCandModel17notifyDataUpdatedEb @ 512 NONAME ABSENT
	_ZN22HbInputCnListCandModelC1EP7QObjecti @ 513 NONAME ABSENT
	_ZN22HbInputCnListCandModelC2EP7QObjecti @ 514 NONAME ABSENT
	_ZN22HbInputCnListCandModelD0Ev @ 515 NONAME ABSENT
	_ZN22HbInputCnListCandModelD1Ev @ 516 NONAME ABSENT
	_ZN22HbInputCnListCandModelD2Ev @ 517 NONAME ABSENT
	_ZN22HbInputCnTouchListView10expandListEv @ 518 NONAME ABSENT
	_ZN22HbInputCnTouchListView10initializeEv @ 519 NONAME ABSENT
	_ZN22HbInputCnTouchListView10itemChangeEN13QGraphicsItem18GraphicsItemChangeERK8QVariant @ 520 NONAME ABSENT
	_ZN22HbInputCnTouchListView10setRowSizeERK6QSizeF @ 521 NONAME ABSENT
	_ZN22HbInputCnTouchListView10shrinkListEv @ 522 NONAME ABSENT
	_ZN22HbInputCnTouchListView11qt_metacallEN11QMetaObject4CallEiPPv @ 523 NONAME ABSENT
	_ZN22HbInputCnTouchListView11qt_metacastEPKc @ 524 NONAME ABSENT
	_ZN22HbInputCnTouchListView14onModelUpdatedEv @ 525 NONAME ABSENT
	_ZN22HbInputCnTouchListView16staticMetaObjectE @ 526 NONAME DATA 16 ABSENT
	_ZN22HbInputCnTouchListView19expandButtonClickedEv @ 527 NONAME ABSENT
	_ZN22HbInputCnTouchListView19getStaticMetaObjectEv @ 528 NONAME ABSENT
	_ZN22HbInputCnTouchListView19pageUpButtonClickedEv @ 529 NONAME ABSENT
	_ZN22HbInputCnTouchListView19shrinkButtonClickedEv @ 530 NONAME ABSENT
	_ZN22HbInputCnTouchListView21checkPageButtonStatusEv @ 531 NONAME ABSENT
	_ZN22HbInputCnTouchListView21pageDownButtonClickedEv @ 532 NONAME ABSENT
	_ZN22HbInputCnTouchListView27onExpandEnableStatusChangedEb @ 533 NONAME ABSENT
	_ZN22HbInputCnTouchListView9resetListEv @ 534 NONAME ABSENT
	_ZN22HbInputCnTouchListViewC1EP18HbInputCnListModelP24HbInputCnListCompositiorP13QGraphicsItem12HbCnListType @ 535 NONAME ABSENT
	_ZN22HbInputCnTouchListViewC2EP18HbInputCnListModelP24HbInputCnListCompositiorP13QGraphicsItem12HbCnListType @ 536 NONAME ABSENT
	_ZN22HbInputCnTouchListViewD0Ev @ 537 NONAME ABSENT
	_ZN22HbInputCnTouchListViewD1Ev @ 538 NONAME ABSENT
	_ZN22HbInputCnTouchListViewD2Ev @ 539 NONAME ABSENT
	_ZN23HbInputCnListSpellModel17notifyDataUpdatedEb @ 540 NONAME ABSENT
	_ZN23HbInputCnListSpellModelC1EP7QObjecti @ 541 NONAME ABSENT
	_ZN23HbInputCnListSpellModelC2EP7QObjecti @ 542 NONAME ABSENT
	_ZN23HbInputCnListSpellModelD0Ev @ 543 NONAME ABSENT
	_ZN23HbInputCnListSpellModelD1Ev @ 544 NONAME ABSENT
	_ZN23HbInputCnListSpellModelD2Ev @ 545 NONAME ABSENT
	_ZN23HbInputCustomButtonList11orientationEv @ 546 NONAME ABSENT
	_ZN23HbInputCustomButtonList11qt_metacallEN11QMetaObject4CallEiPPv @ 547 NONAME ABSENT
	_ZN23HbInputCustomButtonList11qt_metacastEPKc @ 548 NONAME ABSENT
	_ZN23HbInputCustomButtonList13updateActionsER5QListIP8HbActionE @ 549 NONAME ABSENT
	_ZN23HbInputCustomButtonList14setOrientationEN2Qt11OrientationE @ 550 NONAME ABSENT
	_ZN23HbInputCustomButtonList16staticMetaObjectE @ 551 NONAME DATA 16 ABSENT
	_ZN23HbInputCustomButtonList19customButtonPressedEi @ 552 NONAME ABSENT
	_ZN23HbInputCustomButtonList19getStaticMetaObjectEv @ 553 NONAME ABSENT
	_ZN23HbInputCustomButtonList20customButtonReleasedEi @ 554 NONAME ABSENT
	_ZN23HbInputCustomButtonListC1ER5QListIP8HbActionEP16HbInputVkbWidgetP15QGraphicsWidget @ 555 NONAME ABSENT
	_ZN23HbInputCustomButtonListC2ER5QListIP8HbActionEP16HbInputVkbWidgetP15QGraphicsWidget @ 556 NONAME ABSENT
	_ZN23HbInputCustomButtonListD0Ev @ 557 NONAME ABSENT
	_ZN23HbInputCustomButtonListD1Ev @ 558 NONAME ABSENT
	_ZN23HbInputCustomButtonListD2Ev @ 559 NONAME ABSENT
	_ZN24HbInputCnListCompositior12rectInfoListEv @ 560 NONAME ABSENT
	_ZN24HbInputCnListCompositior13cellIdxInLineEv @ 561 NONAME ABSENT
	_ZN24HbInputCnListCompositior13cellIdxInPageEv @ 562 NONAME ABSENT
	_ZN24HbInputCnListCompositior19listDrawInfoByLinesEii @ 563 NONAME ABSENT
	_ZN24HbInputCnListCompositior19listDrawInfoByPagesEii @ 564 NONAME ABSENT
	_ZN24HbInputCnListCompositior24listDrawInfoByCandidatesEii @ 565 NONAME ABSENT
	_ZN24HbInputCnListCompositior8pageDownEi @ 566 NONAME ABSENT
	_ZN24HbInputCnListCompositior8setOwnerEP17HbInputCnListView @ 567 NONAME ABSENT
	_ZN24HbInputCnListCompositior9listModelEv @ 568 NONAME ABSENT
	_ZN24HbInputCnListCompositiorC2EP18HbInputCnListModel @ 569 NONAME ABSENT
	_ZN24HbInputCnListCompositiorC2ER31HbInputCnListCompositiorPrivateP18HbInputCnListModel @ 570 NONAME ABSENT
	_ZN24HbInputCnListCompositiorD0Ev @ 571 NONAME ABSENT
	_ZN24HbInputCnListCompositiorD1Ev @ 572 NONAME ABSENT
	_ZN24HbInputCnListCompositiorD2Ev @ 573 NONAME ABSENT
	_ZN25HbInputCnListPreCandModel17notifyDataUpdatedEb @ 574 NONAME ABSENT
	_ZN25HbInputCnListPreCandModelC1EP7QObjecti @ 575 NONAME ABSENT
	_ZN25HbInputCnListPreCandModelC2EP7QObjecti @ 576 NONAME ABSENT
	_ZN25HbInputCnListPreCandModelD0Ev @ 577 NONAME ABSENT
	_ZN25HbInputCnListPreCandModelD1Ev @ 578 NONAME ABSENT
	_ZN25HbInputCnListPreCandModelD2Ev @ 579 NONAME ABSENT
	_ZN27HbInputCnListPreSymbolModel17notifyDataUpdatedEb @ 580 NONAME ABSENT
	_ZN27HbInputCnListPreSymbolModelC1EP7QObjecti @ 581 NONAME ABSENT
	_ZN27HbInputCnListPreSymbolModelC2EP7QObjecti @ 582 NONAME ABSENT
	_ZN27HbInputCnListPreSymbolModelD0Ev @ 583 NONAME ABSENT
	_ZN27HbInputCnListPreSymbolModelD1Ev @ 584 NONAME ABSENT
	_ZN27HbInputCnListPreSymbolModelD2Ev @ 585 NONAME ABSENT
	_ZN29HbInputCnListVItutCompositior21constructPageRectInfoEv @ 586 NONAME ABSENT
	_ZN29HbInputCnListVItutCompositior25calculateCandiRectsInLineEiRK11QStringListiRiR7QVectorI6QRectFE @ 587 NONAME ABSENT
	_ZN29HbInputCnListVItutCompositiorC1EP18HbInputCnListModel @ 588 NONAME ABSENT
	_ZN29HbInputCnListVItutCompositiorC2EP18HbInputCnListModel @ 589 NONAME ABSENT
	_ZN29HbInputCnListVItutCompositiorD0Ev @ 590 NONAME ABSENT
	_ZN29HbInputCnListVItutCompositiorD1Ev @ 591 NONAME ABSENT
	_ZN29HbInputCnListVItutCompositiorD2Ev @ 592 NONAME ABSENT
	_ZN32HbInputCnListHwrPredictCandModel17notifyDataUpdatedEb @ 593 NONAME ABSENT
	_ZN32HbInputCnListHwrPredictCandModelC1EP7QObjecti @ 594 NONAME ABSENT
	_ZN32HbInputCnListHwrPredictCandModelC2EP7QObjecti @ 595 NONAME ABSENT
	_ZN32HbInputCnListHwrPredictCandModelD0Ev @ 596 NONAME ABSENT
	_ZN32HbInputCnListHwrPredictCandModelD1Ev @ 597 NONAME ABSENT
	_ZN32HbInputCnListHwrPredictCandModelD2Ev @ 598 NONAME ABSENT
	_ZN7HbRange11qt_metacallEN11QMetaObject4CallEiPPv @ 599 NONAME ABSENT
	_ZN7HbRange11qt_metacastEPKc @ 600 NONAME ABSENT
	_ZN7HbRange12setTextColorE6QColor @ 601 NONAME ABSENT
	_ZN7HbRange13setBackgroundEv @ 602 NONAME ABSENT
	_ZN7HbRange15hoverEnterEventEP24QGraphicsSceneHoverEvent @ 603 NONAME ABSENT
	_ZN7HbRange15hoverLeaveEventEP24QGraphicsSceneHoverEvent @ 604 NONAME ABSENT
	_ZN7HbRange16staticMetaObjectE @ 605 NONAME DATA 16 ABSENT
	_ZN7HbRange18setRangePropertiesEiRK7QString @ 606 NONAME ABSENT
	_ZN7HbRange19getStaticMetaObjectEv @ 607 NONAME ABSENT
	_ZN7HbRange7setFadeEb @ 608 NONAME ABSENT
	_ZN7HbRange9setActiveEb @ 609 NONAME ABSENT
	_ZN7HbRangeC1EiRK7QStringP13QGraphicsItem @ 610 NONAME ABSENT
	_ZN7HbRangeC1EiRK7QStringS2_P13QGraphicsItem @ 611 NONAME ABSENT
	_ZN7HbRangeC2EiRK7QStringP13QGraphicsItem @ 612 NONAME ABSENT
	_ZN7HbRangeC2EiRK7QStringS2_P13QGraphicsItem @ 613 NONAME ABSENT
	_ZN7HbRangeD0Ev @ 614 NONAME ABSENT
	_ZN7HbRangeD1Ev @ 615 NONAME ABSENT
	_ZN7HbRangeD2Ev @ 616 NONAME ABSENT
	_ZNK10HbRangeBar10metaObjectEv @ 617 NONAME ABSENT
	_ZNK12HbInputSpell10metaObjectEv @ 618 NONAME ABSENT
	_ZNK12HbInputSpell4textEv @ 619 NONAME ABSENT
	_ZNK12HbInputSpell8sizeHintEN2Qt8SizeHintERK6QSizeF @ 620 NONAME ABSENT
	_ZNK12HbInputSpell9alignmentEv @ 621 NONAME ABSENT
	_ZNK12HbInputSpell9elideModeEv @ 622 NONAME ABSENT
	_ZNK12HbInputSpell9textColorEv @ 623 NONAME ABSENT
	_ZNK12HbInputSpell9textFlagsEv @ 624 NONAME ABSENT
	_ZNK12HbWritingBox10metaObjectEv @ 625 NONAME ABSENT
	_ZNK12HbWritingBox12charIntervalEv @ 626 NONAME ABSENT
	_ZNK12HbWritingBox13strokeEndMarkEv @ 627 NONAME ABSENT
	_ZNK12HbWritingBox7bgColorEv @ 628 NONAME ABSENT
	_ZNK12HbWritingBox8penColorEv @ 629 NONAME ABSENT
	_ZNK12HbWritingBox8penWidthEv @ 630 NONAME ABSENT
	_ZNK13HbInputTabBar10metaObjectEv @ 631 NONAME ABSENT
	_ZNK14HbInputCnModel10spellCountEv @ 632 NONAME ABSENT
	_ZNK14HbInputCnModel18supportedLanguagesEv @ 633 NONAME ABSENT
	_ZNK14HbInputCnModel8keyboardEv @ 634 NONAME ABSENT
	_ZNK14HbInputCnModel9spellListER11QStringList @ 635 NONAME ABSENT
	_ZNK14HbPreviewLabel10metaObjectEv @ 636 NONAME ABSENT
	_ZNK15HbCandidateList10metaObjectEv @ 637 NONAME
	_ZNK15HbInputCnKeypad10metaObjectEv @ 638 NONAME ABSENT
	_ZNK16HbExactWordPopup10metaObjectEv @ 639 NONAME
	_ZNK16HbInputVkbWidget10metaObjectEv @ 640 NONAME
	_ZNK16HbInputVkbWidget15isRockerVisibleEv @ 641 NONAME
	_ZNK16HbInputVkbWidget4modeEv @ 642 NONAME
	_ZNK16HbInputVkbWidget5shapeEv @ 643 NONAME
	_ZNK16HbQwertyKeyboard10metaObjectEv @ 644 NONAME ABSENT
	_ZNK16HbQwertyKeyboard12keyboardTypeEv @ 645 NONAME ABSENT
	_ZNK17HbCharPreviewPane10metaObjectEv @ 646 NONAME ABSENT
	_ZNK17HbInputCnListView10metaObjectEv @ 647 NONAME ABSENT
	_ZNK17HbInputCnListView11compositiorEv @ 648 NONAME ABSENT
	_ZNK17HbInputCnListView12functionTypeEv @ 649 NONAME ABSENT
	_ZNK17HbInputCnListView12listTextFontEv @ 650 NONAME ABSENT
	_ZNK17HbInputCnListView14listItemWidgetEv @ 651 NONAME ABSENT
	_ZNK17HbInputCnListView14maxColumnCountEv @ 652 NONAME ABSENT
	_ZNK17HbInputCnListView14shrinkRowCountEv @ 653 NONAME ABSENT
	_ZNK17HbInputCnListView15isExpandEnabledEv @ 654 NONAME ABSENT
	_ZNK17HbInputCnListView16expandedRowCountEv @ 655 NONAME ABSENT
	_ZNK17HbInputCnListView18listItemWidgetSizeEv @ 656 NONAME ABSENT
	_ZNK17HbInputCnListView19itemVerticalSpacingEv @ 657 NONAME ABSENT
	_ZNK17HbInputCnListView21itemHorizontalSpacingEv @ 658 NONAME ABSENT
	_ZNK17HbInputCnListView22itemInternalLeftMarginEv @ 659 NONAME ABSENT
	_ZNK17HbInputCnListView23itemInternalRightMarginEv @ 660 NONAME ABSENT
	_ZNK17HbInputCnListView5modelEv @ 661 NONAME ABSENT
	_ZNK17HbInputCnListView8expandedEv @ 662 NONAME ABSENT
	_ZNK18Hb12KeyTouchKeypad10metaObjectEv @ 663 NONAME ABSENT
	_ZNK18Hb12KeyTouchKeypad12keyboardTypeEv @ 664 NONAME ABSENT
	_ZNK18HbInputCnListModel10metaObjectEv @ 665 NONAME ABSENT
	_ZNK18HbInputCnListModel10noMoreDataEv @ 666 NONAME ABSENT
	_ZNK18HbInputCnListModel4itemEi @ 667 NONAME ABSENT
	_ZNK18HbInputCnListModel4itemEii @ 668 NONAME ABSENT
	_ZNK18HbInputCnListModel8itemListEv @ 669 NONAME ABSENT
	_ZNK18HbInputCnListModel9itemCountEv @ 670 NONAME ABSENT
	_ZNK18HbInputCnListModel9thresholdEv @ 671 NONAME ABSENT
	_ZNK18HbInputCnTchButton10metaObjectEv @ 672 NONAME ABSENT
	_ZNK18HbInputCnTchButton4typeEv @ 673 NONAME ABSENT
	_ZNK18HbInputCnTchButton7keycodeEv @ 674 NONAME ABSENT
	_ZNK18HbInputSctPortrait10metaObjectEv @ 675 NONAME ABSENT
	_ZNK18HbInputSctPortrait12keyboardTypeEv @ 676 NONAME ABSENT
	_ZNK19HbInputSctLandscape10metaObjectEv @ 677 NONAME ABSENT
	_ZNK19HbInputSctLandscape12keyboardTypeEv @ 678 NONAME ABSENT
	_ZNK19HbTouchKeypadButton10metaObjectEv @ 679 NONAME ABSENT
	_ZNK19HbTouchKeypadButton14isStickyButtonEv @ 680 NONAME ABSENT
	_ZNK19HbTouchKeypadButton4typeEv @ 681 NONAME ABSENT
	_ZNK19HbTouchKeypadButton9isLatchedEv @ 682 NONAME ABSENT
	_ZNK20HbInputModeIndicator10metaObjectEv @ 683 NONAME
	_ZNK20HbInputSettingDialog10metaObjectEv @ 684 NONAME ABSENT
	_ZNK20HbInputVirtualRocker10metaObjectEv @ 685 NONAME
	_ZNK20HbInputVirtualRocker13selectionModeEv @ 686 NONAME
	_ZNK21HbInputCnScrollKeypad10metaObjectEv @ 687 NONAME ABSENT
	_ZNK21HbInputCnScrollKeypad5shapeEv @ 688 NONAME ABSENT
	_ZNK21HbInputUsedSymbolPane10metaObjectEv @ 689 NONAME ABSENT
	_ZNK22HbInputCnTouchListView10metaObjectEv @ 690 NONAME ABSENT
	_ZNK22HbInputCnTouchListView8sizeHintEN2Qt8SizeHintERK6QSizeF @ 691 NONAME ABSENT
	_ZNK23HbInputCustomButtonList10metaObjectEv @ 692 NONAME ABSENT
	_ZNK24HbInputCnListCompositior15cellCountInPageEi @ 693 NONAME ABSENT
	_ZNK24HbInputCnListCompositior18getLineIndexOfItemEi @ 694 NONAME ABSENT
	_ZNK24HbInputCnListCompositior19lastCellIndexInPageEi @ 695 NONAME ABSENT
	_ZNK24HbInputCnListCompositior5ownerEv @ 696 NONAME ABSENT
	_ZNK24HbInputCnListCompositior9pageCountEv @ 697 NONAME ABSENT
	_ZNK7HbRange10metaObjectEv @ 698 NONAME ABSENT
	_ZNK7HbRange8rangeValEv @ 699 NONAME ABSENT
	_ZTI10HbRangeBar @ 700 NONAME ABSENT
	_ZTI12HbInputSpell @ 701 NONAME ABSENT
	_ZTI12HbWritingBox @ 702 NONAME ABSENT
	_ZTI13HbInputTabBar @ 703 NONAME ABSENT
	_ZTI14HbInputCnModel @ 704 NONAME ABSENT
	_ZTI14HbPreviewLabel @ 705 NONAME ABSENT
	_ZTI15HbCandidateList @ 706 NONAME
	_ZTI15HbInputCnKeypad @ 707 NONAME ABSENT
	_ZTI16HbExactWordPopup @ 708 NONAME
	_ZTI16HbInputVkbWidget @ 709 NONAME
	_ZTI16HbQwertyKeyboard @ 710 NONAME ABSENT
	_ZTI17HbCharPreviewPane @ 711 NONAME ABSENT
	_ZTI17HbInputCnListView @ 712 NONAME ABSENT
	_ZTI18Hb12KeyTouchKeypad @ 713 NONAME ABSENT
	_ZTI18HbInputCnListModel @ 714 NONAME ABSENT
	_ZTI18HbInputCnTchButton @ 715 NONAME ABSENT
	_ZTI18HbInputSctPortrait @ 716 NONAME ABSENT
	_ZTI19HbInputKeypadReader @ 717 NONAME ABSENT
	_ZTI19HbInputSctLandscape @ 718 NONAME ABSENT
	_ZTI19HbTouchKeypadButton @ 719 NONAME ABSENT
	_ZTI20HbInputModeIndicator @ 720 NONAME
	_ZTI20HbInputSettingDialog @ 721 NONAME ABSENT
	_ZTI20HbInputVirtualRocker @ 722 NONAME
	_ZTI21HbInputCnScrollKeypad @ 723 NONAME ABSENT
	_ZTI21HbInputUsedSymbolPane @ 724 NONAME ABSENT
	_ZTI22HbInputCnListCandModel @ 725 NONAME ABSENT
	_ZTI22HbInputCnTouchListView @ 726 NONAME ABSENT
	_ZTI23HbInputCnListSpellModel @ 727 NONAME ABSENT
	_ZTI23HbInputCustomButtonList @ 728 NONAME ABSENT
	_ZTI24HbInputCnListCompositior @ 729 NONAME ABSENT
	_ZTI25HbInputCnListPreCandModel @ 730 NONAME ABSENT
	_ZTI27HbInputCnListPreSymbolModel @ 731 NONAME ABSENT
	_ZTI29HbInputCnListVItutCompositior @ 732 NONAME ABSENT
	_ZTI32HbInputCnListHwrPredictCandModel @ 733 NONAME ABSENT
	_ZTI7HbRange @ 734 NONAME ABSENT
	_ZTV10HbRangeBar @ 735 NONAME ABSENT
	_ZTV12HbInputSpell @ 736 NONAME ABSENT
	_ZTV12HbWritingBox @ 737 NONAME ABSENT
	_ZTV13HbInputTabBar @ 738 NONAME ABSENT
	_ZTV14HbInputCnModel @ 739 NONAME ABSENT
	_ZTV14HbPreviewLabel @ 740 NONAME ABSENT
	_ZTV15HbCandidateList @ 741 NONAME
	_ZTV15HbInputCnKeypad @ 742 NONAME ABSENT
	_ZTV16HbExactWordPopup @ 743 NONAME
	_ZTV16HbInputVkbWidget @ 744 NONAME
	_ZTV16HbQwertyKeyboard @ 745 NONAME ABSENT
	_ZTV17HbCharPreviewPane @ 746 NONAME ABSENT
	_ZTV17HbInputCnListView @ 747 NONAME ABSENT
	_ZTV18Hb12KeyTouchKeypad @ 748 NONAME ABSENT
	_ZTV18HbInputCnListModel @ 749 NONAME ABSENT
	_ZTV18HbInputCnTchButton @ 750 NONAME ABSENT
	_ZTV18HbInputSctPortrait @ 751 NONAME ABSENT
	_ZTV19HbInputKeypadReader @ 752 NONAME ABSENT
	_ZTV19HbInputSctLandscape @ 753 NONAME ABSENT
	_ZTV19HbTouchKeypadButton @ 754 NONAME ABSENT
	_ZTV20HbInputModeIndicator @ 755 NONAME
	_ZTV20HbInputSettingDialog @ 756 NONAME ABSENT
	_ZTV20HbInputVirtualRocker @ 757 NONAME
	_ZTV21HbInputCnScrollKeypad @ 758 NONAME ABSENT
	_ZTV21HbInputUsedSymbolPane @ 759 NONAME ABSENT
	_ZTV22HbInputCnListCandModel @ 760 NONAME ABSENT
	_ZTV22HbInputCnTouchListView @ 761 NONAME ABSENT
	_ZTV23HbInputCnListSpellModel @ 762 NONAME ABSENT
	_ZTV23HbInputCustomButtonList @ 763 NONAME ABSENT
	_ZTV24HbInputCnListCompositior @ 764 NONAME ABSENT
	_ZTV25HbInputCnListPreCandModel @ 765 NONAME ABSENT
	_ZTV27HbInputCnListPreSymbolModel @ 766 NONAME ABSENT
	_ZTV29HbInputCnListVItutCompositior @ 767 NONAME ABSENT
	_ZTV32HbInputCnListHwrPredictCandModel @ 768 NONAME ABSENT
	_ZTV7HbRange @ 769 NONAME ABSENT
	_ZThn16_N10HbRangeBar11setGeometryERK6QRectF @ 770 NONAME ABSENT
	_ZThn16_N10HbRangeBarD0Ev @ 771 NONAME ABSENT
	_ZThn16_N10HbRangeBarD1Ev @ 772 NONAME ABSENT
	_ZThn16_N12HbInputSpellD0Ev @ 773 NONAME ABSENT
	_ZThn16_N12HbInputSpellD1Ev @ 774 NONAME ABSENT
	_ZThn16_N12HbWritingBox11setGeometryERK6QRectF @ 775 NONAME ABSENT
	_ZThn16_N12HbWritingBoxD0Ev @ 776 NONAME ABSENT
	_ZThn16_N12HbWritingBoxD1Ev @ 777 NONAME ABSENT
	_ZThn16_N13HbInputTabBarD0Ev @ 778 NONAME ABSENT
	_ZThn16_N13HbInputTabBarD1Ev @ 779 NONAME ABSENT
	_ZThn16_N15HbCandidateListD0Ev @ 780 NONAME
	_ZThn16_N15HbCandidateListD1Ev @ 781 NONAME
	_ZThn16_N15HbInputCnKeypadD0Ev @ 782 NONAME ABSENT
	_ZThn16_N15HbInputCnKeypadD1Ev @ 783 NONAME ABSENT
	_ZThn16_N16HbInputVkbWidgetD0Ev @ 784 NONAME
	_ZThn16_N16HbInputVkbWidgetD1Ev @ 785 NONAME
	_ZThn16_N16HbQwertyKeyboardD0Ev @ 786 NONAME ABSENT
	_ZThn16_N16HbQwertyKeyboardD1Ev @ 787 NONAME ABSENT
	_ZThn16_N17HbCharPreviewPaneD0Ev @ 788 NONAME ABSENT
	_ZThn16_N17HbCharPreviewPaneD1Ev @ 789 NONAME ABSENT
	_ZThn16_N17HbInputCnListViewD0Ev @ 790 NONAME ABSENT
	_ZThn16_N17HbInputCnListViewD1Ev @ 791 NONAME ABSENT
	_ZThn16_N18Hb12KeyTouchKeypadD0Ev @ 792 NONAME ABSENT
	_ZThn16_N18Hb12KeyTouchKeypadD1Ev @ 793 NONAME ABSENT
	_ZThn16_N18HbInputCnTchButtonD0Ev @ 794 NONAME ABSENT
	_ZThn16_N18HbInputCnTchButtonD1Ev @ 795 NONAME ABSENT
	_ZThn16_N18HbInputSctPortraitD0Ev @ 796 NONAME ABSENT
	_ZThn16_N18HbInputSctPortraitD1Ev @ 797 NONAME ABSENT
	_ZThn16_N19HbInputSctLandscapeD0Ev @ 798 NONAME ABSENT
	_ZThn16_N19HbInputSctLandscapeD1Ev @ 799 NONAME ABSENT
	_ZThn16_N19HbTouchKeypadButtonD0Ev @ 800 NONAME ABSENT
	_ZThn16_N19HbTouchKeypadButtonD1Ev @ 801 NONAME ABSENT
	_ZThn16_N20HbInputSettingDialogD0Ev @ 802 NONAME ABSENT
	_ZThn16_N20HbInputSettingDialogD1Ev @ 803 NONAME ABSENT
	_ZThn16_N20HbInputVirtualRockerD0Ev @ 804 NONAME
	_ZThn16_N20HbInputVirtualRockerD1Ev @ 805 NONAME
	_ZThn16_N21HbInputCnScrollKeypadD0Ev @ 806 NONAME ABSENT
	_ZThn16_N21HbInputCnScrollKeypadD1Ev @ 807 NONAME ABSENT
	_ZThn16_N21HbInputUsedSymbolPaneD0Ev @ 808 NONAME ABSENT
	_ZThn16_N21HbInputUsedSymbolPaneD1Ev @ 809 NONAME ABSENT
	_ZThn16_N22HbInputCnTouchListViewD0Ev @ 810 NONAME ABSENT
	_ZThn16_N22HbInputCnTouchListViewD1Ev @ 811 NONAME ABSENT
	_ZThn16_N23HbInputCustomButtonListD0Ev @ 812 NONAME ABSENT
	_ZThn16_N23HbInputCustomButtonListD1Ev @ 813 NONAME ABSENT
	_ZThn16_N7HbRangeD0Ev @ 814 NONAME ABSENT
	_ZThn16_N7HbRangeD1Ev @ 815 NONAME ABSENT
	_ZThn16_NK12HbInputSpell8sizeHintEN2Qt8SizeHintERK6QSizeF @ 816 NONAME ABSENT
	_ZThn16_NK22HbInputCnTouchListView8sizeHintEN2Qt8SizeHintERK6QSizeF @ 817 NONAME ABSENT
	_ZThn28_N16HbInputVkbWidget11aboutToOpenEP9HbVkbHost @ 818 NONAME
	_ZThn28_N16HbInputVkbWidget12aboutToCloseEP9HbVkbHost @ 819 NONAME
	_ZThn28_N16HbInputVkbWidget14keyboardClosedEP9HbVkbHost @ 820 NONAME
	_ZThn28_N16HbInputVkbWidget14keyboardOpenedEP9HbVkbHost @ 821 NONAME
	_ZThn28_N16HbInputVkbWidget16asGraphicsWidgetEv @ 822 NONAME
	_ZThn28_N16HbInputVkbWidget17keyboardMinimizedEP9HbVkbHost @ 823 NONAME
	_ZThn28_N16HbInputVkbWidget21minimizedKeyboardSizeEv @ 824 NONAME
	_ZThn28_N16HbInputVkbWidget21preferredKeyboardSizeEv @ 825 NONAME
	_ZThn28_N16HbInputVkbWidget22keyboardAnimationFrameEN17HbVirtualKeyboard18HbVkbAnimationTypeEf @ 826 NONAME
	_ZThn28_N16HbInputVkbWidget8asWidgetEv @ 827 NONAME
	_ZThn28_N16HbInputVkbWidgetD0Ev @ 828 NONAME
	_ZThn28_N16HbInputVkbWidgetD1Ev @ 829 NONAME
	_ZThn28_N16HbQwertyKeyboard11aboutToOpenEP9HbVkbHost @ 830 NONAME ABSENT
	_ZThn28_N16HbQwertyKeyboard12aboutToCloseEP9HbVkbHost @ 831 NONAME ABSENT
	_ZThn28_N16HbQwertyKeyboard21preferredKeyboardSizeEv @ 832 NONAME ABSENT
	_ZThn28_N16HbQwertyKeyboardD0Ev @ 833 NONAME ABSENT
	_ZThn28_N16HbQwertyKeyboardD1Ev @ 834 NONAME ABSENT
	_ZThn28_N18Hb12KeyTouchKeypad11aboutToOpenEP9HbVkbHost @ 835 NONAME ABSENT
	_ZThn28_N18Hb12KeyTouchKeypadD0Ev @ 836 NONAME ABSENT
	_ZThn28_N18Hb12KeyTouchKeypadD1Ev @ 837 NONAME ABSENT
	_ZThn28_N18HbInputSctPortrait11aboutToOpenEP9HbVkbHost @ 838 NONAME ABSENT
	_ZThn28_N18HbInputSctPortrait21preferredKeyboardSizeEv @ 839 NONAME ABSENT
	_ZThn28_N18HbInputSctPortraitD0Ev @ 840 NONAME ABSENT
	_ZThn28_N18HbInputSctPortraitD1Ev @ 841 NONAME ABSENT
	_ZThn28_N19HbInputSctLandscape11aboutToOpenEP9HbVkbHost @ 842 NONAME ABSENT
	_ZThn28_N19HbInputSctLandscape12aboutToCloseEP9HbVkbHost @ 843 NONAME ABSENT
	_ZThn28_N19HbInputSctLandscapeD0Ev @ 844 NONAME ABSENT
	_ZThn28_N19HbInputSctLandscapeD1Ev @ 845 NONAME ABSENT
	_ZThn28_NK16HbQwertyKeyboard12keyboardTypeEv @ 846 NONAME ABSENT
	_ZThn28_NK18Hb12KeyTouchKeypad12keyboardTypeEv @ 847 NONAME ABSENT
	_ZThn28_NK18HbInputSctPortrait12keyboardTypeEv @ 848 NONAME ABSENT
	_ZThn28_NK19HbInputSctLandscape12keyboardTypeEv @ 849 NONAME ABSENT
	_ZThn8_N10HbRangeBarD0Ev @ 850 NONAME ABSENT
	_ZThn8_N10HbRangeBarD1Ev @ 851 NONAME ABSENT
	_ZThn8_N12HbInputSpell15hoverEnterEventEP24QGraphicsSceneHoverEvent @ 852 NONAME ABSENT
	_ZThn8_N12HbInputSpell15hoverLeaveEventEP24QGraphicsSceneHoverEvent @ 853 NONAME ABSENT
	_ZThn8_N12HbInputSpell15mousePressEventEP24QGraphicsSceneMouseEvent @ 854 NONAME ABSENT
	_ZThn8_N12HbInputSpell17mouseReleaseEventEP24QGraphicsSceneMouseEvent @ 855 NONAME ABSENT
	_ZThn8_N12HbInputSpell5paintEP8QPainterPK24QStyleOptionGraphicsItemP7QWidget @ 856 NONAME ABSENT
	_ZThn8_N12HbInputSpellD0Ev @ 857 NONAME ABSENT
	_ZThn8_N12HbInputSpellD1Ev @ 858 NONAME ABSENT
	_ZThn8_N12HbWritingBox14mouseMoveEventEP24QGraphicsSceneMouseEvent @ 859 NONAME ABSENT
	_ZThn8_N12HbWritingBox15mousePressEventEP24QGraphicsSceneMouseEvent @ 860 NONAME ABSENT
	_ZThn8_N12HbWritingBox16sceneEventFilterEP13QGraphicsItemP6QEvent @ 861 NONAME ABSENT
	_ZThn8_N12HbWritingBox17mouseReleaseEventEP24QGraphicsSceneMouseEvent @ 862 NONAME ABSENT
	_ZThn8_N12HbWritingBox5paintEP8QPainterPK24QStyleOptionGraphicsItemP7QWidget @ 863 NONAME ABSENT
	_ZThn8_N12HbWritingBoxD0Ev @ 864 NONAME ABSENT
	_ZThn8_N12HbWritingBoxD1Ev @ 865 NONAME ABSENT
	_ZThn8_N13HbInputTabBarD0Ev @ 866 NONAME ABSENT
	_ZThn8_N13HbInputTabBarD1Ev @ 867 NONAME ABSENT
	_ZThn8_N14HbPreviewLabel15mousePressEventEP24QGraphicsSceneMouseEvent @ 868 NONAME ABSENT
	_ZThn8_N15HbCandidateList13keyPressEventEP9QKeyEvent @ 869 NONAME
	_ZThn8_N15HbCandidateListD0Ev @ 870 NONAME
	_ZThn8_N15HbCandidateListD1Ev @ 871 NONAME
	_ZThn8_N15HbInputCnKeypadD0Ev @ 872 NONAME ABSENT
	_ZThn8_N15HbInputCnKeypadD1Ev @ 873 NONAME ABSENT
	_ZThn8_N16HbExactWordPopup17mouseReleaseEventEP24QGraphicsSceneMouseEvent @ 874 NONAME
	_ZThn8_N16HbInputVkbWidget15mousePressEventEP24QGraphicsSceneMouseEvent @ 875 NONAME ABSENT
	_ZThn8_N16HbInputVkbWidget17mouseReleaseEventEP24QGraphicsSceneMouseEvent @ 876 NONAME ABSENT
	_ZThn8_N16HbInputVkbWidget5paintEP8QPainterPK24QStyleOptionGraphicsItemP7QWidget @ 877 NONAME
	_ZThn8_N16HbInputVkbWidgetD0Ev @ 878 NONAME
	_ZThn8_N16HbInputVkbWidgetD1Ev @ 879 NONAME
	_ZThn8_N16HbQwertyKeyboardD0Ev @ 880 NONAME ABSENT
	_ZThn8_N16HbQwertyKeyboardD1Ev @ 881 NONAME ABSENT
	_ZThn8_N17HbCharPreviewPaneD0Ev @ 882 NONAME ABSENT
	_ZThn8_N17HbCharPreviewPaneD1Ev @ 883 NONAME ABSENT
	_ZThn8_N17HbInputCnListViewD0Ev @ 884 NONAME ABSENT
	_ZThn8_N17HbInputCnListViewD1Ev @ 885 NONAME ABSENT
	_ZThn8_N18Hb12KeyTouchKeypadD0Ev @ 886 NONAME ABSENT
	_ZThn8_N18Hb12KeyTouchKeypadD1Ev @ 887 NONAME ABSENT
	_ZThn8_N18HbInputCnTchButton15mousePressEventEP24QGraphicsSceneMouseEvent @ 888 NONAME ABSENT
	_ZThn8_N18HbInputCnTchButton17mouseReleaseEventEP24QGraphicsSceneMouseEvent @ 889 NONAME ABSENT
	_ZThn8_N18HbInputCnTchButton5paintEP8QPainterPK24QStyleOptionGraphicsItemP7QWidget @ 890 NONAME ABSENT
	_ZThn8_N18HbInputCnTchButtonD0Ev @ 891 NONAME ABSENT
	_ZThn8_N18HbInputCnTchButtonD1Ev @ 892 NONAME ABSENT
	_ZThn8_N18HbInputSctPortraitD0Ev @ 893 NONAME ABSENT
	_ZThn8_N18HbInputSctPortraitD1Ev @ 894 NONAME ABSENT
	_ZThn8_N19HbInputSctLandscapeD0Ev @ 895 NONAME ABSENT
	_ZThn8_N19HbInputSctLandscapeD1Ev @ 896 NONAME ABSENT
	_ZThn8_N19HbTouchKeypadButton14mouseMoveEventEP24QGraphicsSceneMouseEvent @ 897 NONAME ABSENT
	_ZThn8_N19HbTouchKeypadButton15mousePressEventEP24QGraphicsSceneMouseEvent @ 898 NONAME ABSENT
	_ZThn8_N19HbTouchKeypadButton17mouseReleaseEventEP24QGraphicsSceneMouseEvent @ 899 NONAME ABSENT
	_ZThn8_N19HbTouchKeypadButtonD0Ev @ 900 NONAME ABSENT
	_ZThn8_N19HbTouchKeypadButtonD1Ev @ 901 NONAME ABSENT
	_ZThn8_N20HbInputSettingDialogD0Ev @ 902 NONAME ABSENT
	_ZThn8_N20HbInputSettingDialogD1Ev @ 903 NONAME ABSENT
	_ZThn8_N20HbInputVirtualRocker14mouseMoveEventEP24QGraphicsSceneMouseEvent @ 904 NONAME
	_ZThn8_N20HbInputVirtualRocker15mousePressEventEP24QGraphicsSceneMouseEvent @ 905 NONAME
	_ZThn8_N20HbInputVirtualRocker17mouseReleaseEventEP24QGraphicsSceneMouseEvent @ 906 NONAME
	_ZThn8_N20HbInputVirtualRocker21mouseDoubleClickEventEP24QGraphicsSceneMouseEvent @ 907 NONAME
	_ZThn8_N20HbInputVirtualRocker5paintEP8QPainterPK24QStyleOptionGraphicsItemP7QWidget @ 908 NONAME
	_ZThn8_N20HbInputVirtualRockerD0Ev @ 909 NONAME
	_ZThn8_N20HbInputVirtualRockerD1Ev @ 910 NONAME
	_ZThn8_N21HbInputCnScrollKeypad16sceneEventFilterEP13QGraphicsItemP6QEvent @ 911 NONAME ABSENT
	_ZThn8_N21HbInputCnScrollKeypadD0Ev @ 912 NONAME ABSENT
	_ZThn8_N21HbInputCnScrollKeypadD1Ev @ 913 NONAME ABSENT
	_ZThn8_N21HbInputUsedSymbolPane15mousePressEventEP24QGraphicsSceneMouseEvent @ 914 NONAME ABSENT
	_ZThn8_N21HbInputUsedSymbolPane17mouseReleaseEventEP24QGraphicsSceneMouseEvent @ 915 NONAME ABSENT
	_ZThn8_N21HbInputUsedSymbolPane21mouseDoubleClickEventEP24QGraphicsSceneMouseEvent @ 916 NONAME ABSENT
	_ZThn8_N21HbInputUsedSymbolPane5paintEP8QPainterPK24QStyleOptionGraphicsItemP7QWidget @ 917 NONAME ABSENT
	_ZThn8_N21HbInputUsedSymbolPaneD0Ev @ 918 NONAME ABSENT
	_ZThn8_N21HbInputUsedSymbolPaneD1Ev @ 919 NONAME ABSENT
	_ZThn8_N22HbInputCnTouchListView10itemChangeEN13QGraphicsItem18GraphicsItemChangeERK8QVariant @ 920 NONAME ABSENT
	_ZThn8_N22HbInputCnTouchListViewD0Ev @ 921 NONAME ABSENT
	_ZThn8_N22HbInputCnTouchListViewD1Ev @ 922 NONAME ABSENT
	_ZThn8_N23HbInputCustomButtonListD0Ev @ 923 NONAME ABSENT
	_ZThn8_N23HbInputCustomButtonListD1Ev @ 924 NONAME ABSENT
	_ZThn8_N7HbRange15hoverEnterEventEP24QGraphicsSceneHoverEvent @ 925 NONAME ABSENT
	_ZThn8_N7HbRange15hoverLeaveEventEP24QGraphicsSceneHoverEvent @ 926 NONAME ABSENT
	_ZThn8_N7HbRangeD0Ev @ 927 NONAME ABSENT
	_ZThn8_N7HbRangeD1Ev @ 928 NONAME ABSENT
	_ZThn8_NK16HbInputVkbWidget5shapeEv @ 929 NONAME
	_ZThn8_NK18HbInputCnTchButton4typeEv @ 930 NONAME ABSENT
	_ZThn8_NK19HbTouchKeypadButton4typeEv @ 931 NONAME ABSENT
	_ZThn8_NK21HbInputCnScrollKeypad5shapeEv @ 932 NONAME ABSENT
	_ZN14HbInputCnModel20supportsKeyboardTypeERK15HbInputLanguage6QFlagsI18HbKeyboardTypeFlagE @ 933 NONAME ABSENT
	_ZN20HbInputSettingDialogC1E6QFlagsINS_13HbSettingItemEEP15QGraphicsWidget @ 934 NONAME ABSENT
	_ZN20HbInputSettingDialogC2E6QFlagsINS_13HbSettingItemEEP15QGraphicsWidget @ 935 NONAME ABSENT
	_ZThn32_N16HbInputVkbWidget11aboutToOpenEP9HbVkbHost @ 936 NONAME ABSENT
	_ZThn32_N16HbInputVkbWidget12aboutToCloseEP9HbVkbHost @ 937 NONAME ABSENT
	_ZThn32_N16HbInputVkbWidget14keyboardClosedEP9HbVkbHost @ 938 NONAME ABSENT
	_ZThn32_N16HbInputVkbWidget14keyboardOpenedEP9HbVkbHost @ 939 NONAME ABSENT
	_ZThn32_N16HbInputVkbWidget16asGraphicsWidgetEv @ 940 NONAME ABSENT
	_ZThn32_N16HbInputVkbWidget17keyboardMinimizedEP9HbVkbHost @ 941 NONAME ABSENT
	_ZThn32_N16HbInputVkbWidget21minimizedKeyboardSizeEv @ 942 NONAME ABSENT
	_ZThn32_N16HbInputVkbWidget21preferredKeyboardSizeEv @ 943 NONAME ABSENT
	_ZThn32_N16HbInputVkbWidget22keyboardAnimationFrameEN17HbVirtualKeyboard18HbVkbAnimationTypeEf @ 944 NONAME ABSENT
	_ZThn32_N16HbInputVkbWidget8asWidgetEv @ 945 NONAME ABSENT
	_ZThn32_N16HbInputVkbWidgetD0Ev @ 946 NONAME ABSENT
	_ZThn32_N16HbInputVkbWidgetD1Ev @ 947 NONAME ABSENT
	_ZThn32_N16HbQwertyKeyboard11aboutToOpenEP9HbVkbHost @ 948 NONAME ABSENT
	_ZThn32_N16HbQwertyKeyboard12aboutToCloseEP9HbVkbHost @ 949 NONAME ABSENT
	_ZThn32_N16HbQwertyKeyboard21preferredKeyboardSizeEv @ 950 NONAME ABSENT
	_ZThn32_N16HbQwertyKeyboardD0Ev @ 951 NONAME ABSENT
	_ZThn32_N16HbQwertyKeyboardD1Ev @ 952 NONAME ABSENT
	_ZThn32_N18Hb12KeyTouchKeypad11aboutToOpenEP9HbVkbHost @ 953 NONAME ABSENT
	_ZThn32_N18Hb12KeyTouchKeypadD0Ev @ 954 NONAME ABSENT
	_ZThn32_N18Hb12KeyTouchKeypadD1Ev @ 955 NONAME ABSENT
	_ZThn32_N18HbInputSctPortrait11aboutToOpenEP9HbVkbHost @ 956 NONAME ABSENT
	_ZThn32_N18HbInputSctPortrait21preferredKeyboardSizeEv @ 957 NONAME ABSENT
	_ZThn32_N18HbInputSctPortraitD0Ev @ 958 NONAME ABSENT
	_ZThn32_N18HbInputSctPortraitD1Ev @ 959 NONAME ABSENT
	_ZThn32_N19HbInputSctLandscape11aboutToOpenEP9HbVkbHost @ 960 NONAME ABSENT
	_ZThn32_N19HbInputSctLandscape12aboutToCloseEP9HbVkbHost @ 961 NONAME ABSENT
	_ZThn32_N19HbInputSctLandscapeD0Ev @ 962 NONAME ABSENT
	_ZThn32_N19HbInputSctLandscapeD1Ev @ 963 NONAME ABSENT
	_ZThn32_NK16HbQwertyKeyboard12keyboardTypeEv @ 964 NONAME ABSENT
	_ZThn32_NK18Hb12KeyTouchKeypad12keyboardTypeEv @ 965 NONAME ABSENT
	_ZThn32_NK18HbInputSctPortrait12keyboardTypeEv @ 966 NONAME ABSENT
	_ZThn32_NK19HbInputSctLandscape12keyboardTypeEv @ 967 NONAME ABSENT
	_ZN10HbRangeBar12createRangesERK5QListI11HbRangePairE @ 968 NONAME ABSENT
	_ZN10HbRangeBar12createRangesERK5QListI15HbIconRangePairE @ 969 NONAME ABSENT
	_ZN10HbRangeBar14onRangeChangedEP14HbStackedRangei @ 970 NONAME ABSENT
	_ZN10HbRangeBar15constructRangesERK5QListIS0_I11HbRangePairEE @ 971 NONAME ABSENT
	_ZN10HbRangeBar15removeAllRangesEv @ 972 NONAME ABSENT
	_ZN10HbRangeBar17gestureMouseEventEP24QGraphicsSceneMouseEvent @ 973 NONAME ABSENT
	_ZN10HbRangeBar19constructIconRangesERK5QListIS0_I15HbIconRangePairEE @ 974 NONAME ABSENT
	_ZN14HbInputCnModel14inputModesNameE6QFlagsI19HbInputModeTypeFlagE @ 975 NONAME ABSENT
	_ZN14HbInputCnModel21alternativeInputModesEP13HbInputMethod15HbInputLanguage6QFlagsI19HbInputModeTypeFlagE @ 976 NONAME ABSENT
	_ZN14HbInputCnModel23changeScreenOrientationEN2Qt11OrientationEP12HbMainWindow @ 977 NONAME ABSENT
	_ZN14HbInputCnModel25handleInputModesActivatedEP13HbInputMethod7QString @ 978 NONAME ABSENT
	_ZN14HbInputCnModel27handleInputMethodsActivatedEP13HbInputMethod7QStringN2Qt11OrientationEP12HbMainWindow @ 979 NONAME ABSENT
	_ZN14HbInputCnModel28isCurrentPredictEngSupportedE6QFlagsI19HbInputModeTypeFlagE @ 980 NONAME ABSENT
	_ZN14HbStackedRange11qt_metacallEN11QMetaObject4CallEiPPv @ 981 NONAME ABSENT
	_ZN14HbStackedRange11qt_metacastEPKc @ 982 NONAME ABSENT
	_ZN14HbStackedRange11rangeChangeEPS_i @ 983 NONAME ABSENT
	_ZN14HbStackedRange12rangeByValueEi @ 984 NONAME ABSENT
	_ZN14HbStackedRange12visibleRangeEv @ 985 NONAME ABSENT
	_ZN14HbStackedRange16staticMetaObjectE @ 986 NONAME DATA 16 ABSENT
	_ZN14HbStackedRange19getStaticMetaObjectEv @ 987 NONAME ABSENT
	_ZN14HbStackedRange8addRangeEP7HbRange @ 988 NONAME ABSENT
	_ZN14HbStackedRange9loopRangeEib @ 989 NONAME ABSENT
	_ZN14HbStackedRangeC1EP13QGraphicsItem @ 990 NONAME ABSENT
	_ZN14HbStackedRangeC2EP13QGraphicsItem @ 991 NONAME ABSENT
	_ZN15HbInputCnKeypad12onMouseEventEP24QGraphicsSceneMouseEvent @ 992 NONAME ABSENT
	_ZN15HbInputCnKeypad16buttonSmileyTextEi @ 993 NONAME ABSENT
	_ZN15HbInputCnKeypad17gestureMouseEventEP24QGraphicsSceneMouseEvent @ 994 NONAME ABSENT
	_ZN16HbInputVkbWidget15initSctModeListEv @ 995 NONAME ABSENT
	_ZN16HbInputVkbWidget15sctModeSelectedEi @ 996 NONAME ABSENT
	_ZN16HbInputVkbWidget15showSctModeListEv @ 997 NONAME ABSENT
	_ZN16HbInputVkbWidget17sctModeListClosedEv @ 998 NONAME ABSENT
	_ZN16HbInputVkbWidget7setModeE12HbKeypadMode6QFlagsI10HbModifierE @ 999 NONAME
	_ZN16HbQwertyKeyboard15initSctModeListEv @ 1000 NONAME ABSENT
	_ZN16HbQwertyKeyboard17sctModeListClosedEv @ 1001 NONAME ABSENT
	_ZN16HbQwertyKeyboard7setModeE12HbKeypadMode6QFlagsI10HbModifierE @ 1002 NONAME ABSENT
	_ZN17HbInputCnListView17gestureMouseEventEP24QGraphicsSceneMouseEvent @ 1003 NONAME ABSENT
	_ZN18Hb12KeyTouchKeypad15initSctModeListEv @ 1004 NONAME ABSENT
	_ZN18Hb12KeyTouchKeypad17sctModeListClosedEv @ 1005 NONAME ABSENT
	_ZN18Hb12KeyTouchKeypad7setModeE12HbKeypadMode6QFlagsI10HbModifierE @ 1006 NONAME ABSENT
	_ZN18HbInputCnTchButton10buttonTypeEv @ 1007 NONAME ABSENT
	_ZN18HbInputCnTchButton10mouseEventEP24QGraphicsSceneMouseEvent @ 1008 NONAME ABSENT
	_ZN18HbInputCnTchButton14mouseMoveEventEP24QGraphicsSceneMouseEvent @ 1009 NONAME ABSENT
	_ZN18HbInputSctPortrait6setSctEN16HbInputVkbWidget9HbSctViewE @ 1010 NONAME ABSENT
	_ZN19HbInputSctLandscape6setSctEN16HbInputVkbWidget9HbSctViewEb @ 1011 NONAME ABSENT
	_ZN21HbInputCnScrollKeypad11scrollEndedEv @ 1012 NONAME ABSENT
	_ZN21HbInputCnScrollKeypad11setIndiTextE7QPointF @ 1013 NONAME ABSENT
	_ZN21HbInputCnScrollKeypad5paintEP8QPainterPK24QStyleOptionGraphicsItemP7QWidget @ 1014 NONAME ABSENT
	_ZN7HbRange14mouseMoveEventEP24QGraphicsSceneMouseEvent @ 1015 NONAME ABSENT
	_ZN7HbRange15mousePressEventEP24QGraphicsSceneMouseEvent @ 1016 NONAME ABSENT
	_ZN7HbRange17mouseReleaseEventEP24QGraphicsSceneMouseEvent @ 1017 NONAME ABSENT
	_ZNK14HbStackedRange10metaObjectEv @ 1018 NONAME ABSENT
	_ZNK16HbInputVkbWidget9modifiersEv @ 1019 NONAME
	_ZTI14HbStackedRange @ 1020 NONAME ABSENT
	_ZTV14HbStackedRange @ 1021 NONAME ABSENT
	_ZThn8_N18HbInputCnTchButton14mouseMoveEventEP24QGraphicsSceneMouseEvent @ 1022 NONAME ABSENT
	_ZThn8_N21HbInputCnScrollKeypad5paintEP8QPainterPK24QStyleOptionGraphicsItemP7QWidget @ 1023 NONAME ABSENT
	_ZThn8_N7HbRange14mouseMoveEventEP24QGraphicsSceneMouseEvent @ 1024 NONAME ABSENT
	_ZThn8_N7HbRange15mousePressEventEP24QGraphicsSceneMouseEvent @ 1025 NONAME ABSENT
	_ZThn8_N7HbRange17mouseReleaseEventEP24QGraphicsSceneMouseEvent @ 1026 NONAME ABSENT
	_ZN14HbInputCnModel11inlineSpellEiR7QString @ 1027 NONAME ABSENT
	_ZN14HbInputCnModel13insertEngPairERK13HbPredEngPair @ 1028 NONAME ABSENT
	_ZN14HbInputCnModel21alternativeInputModesEP13HbInputMethod15HbInputLanguage6QFlagsI19HbInputModeTypeFlagEN2Qt11OrientationE @ 1029 NONAME ABSENT
	_ZN14HbInputCnModel23executeInputModesDialogEP12HbListDialog6QFlagsI19HbInputModeTypeFlagEP13HbInputMethodN2Qt11OrientationE @ 1030 NONAME ABSENT
	_ZN14HbInputCnModel24setActiveInputPluginNameE7QString @ 1031 NONAME ABSENT
	_ZN14HbInputCnModel25executeInputMethodsDialogEP12HbListDialog11QStringListP12HbMainWindowP13HbInputMethodN2Qt11OrientationE @ 1032 NONAME ABSENT
	_ZN15HbCandidateList12populateListERK11QStringList @ 1033 NONAME ABSENT
	_ZN15HbHwToolCluster11aboutToOpenEP9HbVkbHost @ 1034 NONAME
	_ZN15HbHwToolCluster11qt_metacallEN11QMetaObject4CallEiPPv @ 1035 NONAME
	_ZN15HbHwToolCluster11qt_metacastEPKc @ 1036 NONAME
	_ZN15HbHwToolCluster12createLayoutEv @ 1037 NONAME
	_ZN15HbHwToolCluster16setupToolClusterEv @ 1038 NONAME
	_ZN15HbHwToolCluster16showMethodDialogEv @ 1039 NONAME
	_ZN15HbHwToolCluster16staticMetaObjectE @ 1040 NONAME DATA 16
	_ZN15HbHwToolCluster18showLanguageDialogEv @ 1041 NONAME
	_ZN15HbHwToolCluster18showSettingsDialogEv @ 1042 NONAME ABSENT
	_ZN15HbHwToolCluster19getStaticMetaObjectEv @ 1043 NONAME
	_ZN15HbHwToolCluster21preferredKeyboardSizeEv @ 1044 NONAME
	_ZN15HbHwToolClusterC1EP13HbInputMethodP13QGraphicsItem @ 1045 NONAME
	_ZN15HbHwToolClusterC2EP13HbInputMethodP13QGraphicsItem @ 1046 NONAME
	_ZN15HbHwToolClusterD0Ev @ 1047 NONAME
	_ZN15HbHwToolClusterD1Ev @ 1048 NONAME
	_ZN15HbHwToolClusterD2Ev @ 1049 NONAME
	_ZN15HbInputCnKeypad22abortCurrentPressedKeyEv @ 1050 NONAME ABSENT
	_ZN16HbInputVkbWidget11setGeometryERK6QRectF @ 1051 NONAME ABSENT
	_ZN16HbInputVkbWidget14smileySelectedE7QString @ 1052 NONAME
	_ZN16HbInputVkbWidget16showSmileyPickerEii @ 1053 NONAME
	_ZN16HbInputVkbWidget22togglePredictionStatusEv @ 1054 NONAME ABSENT
	_ZN16HbInputVkbWidget9setKeymapEPK8HbKeymap @ 1055 NONAME
	_ZN16HbQwertyKeyboard9setKeymapEPK8HbKeymap @ 1056 NONAME ABSENT
	_ZN16HbQwertyKeyboardC1EP13HbInputMethodPK8HbKeymapP13QGraphicsItem12HbKeypadMode @ 1057 NONAME ABSENT
	_ZN16HbQwertyKeyboardC2EP13HbInputMethodPK8HbKeymapP13QGraphicsItem12HbKeypadMode @ 1058 NONAME ABSENT
	_ZN18Hb12KeyTouchKeypad9setKeymapEPK8HbKeymap @ 1059 NONAME ABSENT
	_ZN18HbInputCnTchButton11resizeEventEP25QGraphicsSceneResizeEvent @ 1060 NONAME ABSENT
	_ZN18HbInputCnTchButton11setGeometryERK6QRectF @ 1061 NONAME ABSENT
	_ZN18HbInputSctPortrait20sctCharacterSelectedE7QString @ 1062 NONAME ABSENT
	_ZN18HbInputSctPortrait9setKeymapEPK8HbKeymap @ 1063 NONAME ABSENT
	_ZN18HbInputSctPortraitC1EP13HbInputMethodPK8HbKeymapP13QGraphicsItem @ 1064 NONAME ABSENT
	_ZN18HbInputSctPortraitC2EP13HbInputMethodPK8HbKeymapP13QGraphicsItem @ 1065 NONAME ABSENT
	_ZN19HbInputSctLandscape20sctCharacterSelectedE7QString @ 1066 NONAME ABSENT
	_ZN19HbInputSctLandscape9setKeymapEPK8HbKeymap @ 1067 NONAME ABSENT
	_ZN19HbInputSctLandscapeC1EP13HbInputMethodPK8HbKeymapP13QGraphicsItem @ 1068 NONAME ABSENT
	_ZN19HbInputSctLandscapeC2EP13HbInputMethodPK8HbKeymapP13QGraphicsItem @ 1069 NONAME ABSENT
	_ZN19HbInputSmileyPicker11qt_metacallEN11QMetaObject4CallEiPPv @ 1070 NONAME
	_ZN19HbInputSmileyPicker11qt_metacastEPKc @ 1071 NONAME
	_ZN19HbInputSmileyPicker16staticMetaObjectE @ 1072 NONAME DATA 16
	_ZN19HbInputSmileyPicker19getStaticMetaObjectEv @ 1073 NONAME
	_ZN19HbInputSmileyPicker8selectedE7QString @ 1074 NONAME
	_ZN19HbInputSmileyPicker9showEventEP10QShowEvent @ 1075 NONAME
	_ZN19HbInputSmileyPickerC1EiiP13QGraphicsItem @ 1076 NONAME ABSENT
	_ZN19HbInputSmileyPickerC2EiiP13QGraphicsItem @ 1077 NONAME ABSENT
	_ZN19HbInputSmileyPickerD0Ev @ 1078 NONAME
	_ZN19HbInputSmileyPickerD1Ev @ 1079 NONAME
	_ZN19HbInputSmileyPickerD2Ev @ 1080 NONAME
	_ZN19HbTouchKeypadButton12getFrameIconEv @ 1081 NONAME ABSENT
	_ZN19HbTouchKeypadButton13getButtonTypeEv @ 1082 NONAME ABSENT
	_ZN20HbInputModeIndicator23udpdatePredictionStatusEi @ 1083 NONAME ABSENT
	_ZN21HbInputCnSmileyPicker10itemChangeEN13QGraphicsItem18GraphicsItemChangeERK8QVariant @ 1084 NONAME ABSENT
	_ZN21HbInputCnSmileyPicker11qt_metacallEN11QMetaObject4CallEiPPv @ 1085 NONAME ABSENT
	_ZN21HbInputCnSmileyPicker11qt_metacastEPKc @ 1086 NONAME ABSENT
	_ZN21HbInputCnSmileyPicker16staticMetaObjectE @ 1087 NONAME DATA 16 ABSENT
	_ZN21HbInputCnSmileyPicker16updatePrimitivesEv @ 1088 NONAME ABSENT
	_ZN21HbInputCnSmileyPicker19getStaticMetaObjectEv @ 1089 NONAME ABSENT
	_ZN21HbInputCnSmileyPicker7clickedERK11QModelIndex @ 1090 NONAME ABSENT
	_ZN21HbInputCnSmileyPicker9activatedE7QStringS0_ @ 1091 NONAME ABSENT
	_ZN21HbInputCnSmileyPickerC1ERK5QListI11HbCnSctPairEiP13QGraphicsItem @ 1092 NONAME ABSENT
	_ZN21HbInputCnSmileyPickerC2ERK5QListI11HbCnSctPairEiP13QGraphicsItem @ 1093 NONAME ABSENT
	_ZN21HbInputCnSmileyPickerD0Ev @ 1094 NONAME ABSENT
	_ZN21HbInputCnSmileyPickerD1Ev @ 1095 NONAME ABSENT
	_ZN21HbInputCnSmileyPickerD2Ev @ 1096 NONAME ABSENT
	_ZN23HbInputCustomButtonList11setGeometryERK6QRectF @ 1097 NONAME ABSENT
	_ZN23HbInputCustomButtonList5countEv @ 1098 NONAME ABSENT
	_ZNK14HbInputCnModel14findEngPairPosE7QStringRi @ 1099 NONAME ABSENT
	_ZNK14HbInputCnModel21activeInputPluginNameEv @ 1100 NONAME ABSENT
	_ZNK15HbHwToolCluster10metaObjectEv @ 1101 NONAME
	_ZNK15HbHwToolCluster12keyboardTypeEv @ 1102 NONAME
	_ZNK19HbInputSmileyPicker10metaObjectEv @ 1103 NONAME
	_ZNK21HbInputCnSmileyPicker10metaObjectEv @ 1104 NONAME ABSENT
	_ZTI15HbHwToolCluster @ 1105 NONAME
	_ZTI19HbInputSmileyPicker @ 1106 NONAME
	_ZTI21HbInputCnSmileyPicker @ 1107 NONAME ABSENT
	_ZTV15HbHwToolCluster @ 1108 NONAME
	_ZTV19HbInputSmileyPicker @ 1109 NONAME
	_ZTV21HbInputCnSmileyPicker @ 1110 NONAME ABSENT
	_ZThn16_N15HbHwToolClusterD0Ev @ 1111 NONAME
	_ZThn16_N15HbHwToolClusterD1Ev @ 1112 NONAME
	_ZThn16_N16HbInputVkbWidget11setGeometryERK6QRectF @ 1113 NONAME ABSENT
	_ZThn16_N18HbInputCnTchButton11setGeometryERK6QRectF @ 1114 NONAME ABSENT
	_ZThn16_N19HbInputSmileyPickerD0Ev @ 1115 NONAME
	_ZThn16_N19HbInputSmileyPickerD1Ev @ 1116 NONAME
	_ZThn16_N21HbInputCnSmileyPickerD0Ev @ 1117 NONAME ABSENT
	_ZThn16_N21HbInputCnSmileyPickerD1Ev @ 1118 NONAME ABSENT
	_ZThn16_N23HbInputCustomButtonList11setGeometryERK6QRectF @ 1119 NONAME ABSENT
	_ZThn32_N15HbHwToolCluster11aboutToOpenEP9HbVkbHost @ 1120 NONAME ABSENT
	_ZThn32_N15HbHwToolCluster21preferredKeyboardSizeEv @ 1121 NONAME ABSENT
	_ZThn32_N15HbHwToolClusterD0Ev @ 1122 NONAME ABSENT
	_ZThn32_N15HbHwToolClusterD1Ev @ 1123 NONAME ABSENT
	_ZThn32_NK15HbHwToolCluster12keyboardTypeEv @ 1124 NONAME ABSENT
	_ZThn8_N15HbHwToolClusterD0Ev @ 1125 NONAME
	_ZThn8_N15HbHwToolClusterD1Ev @ 1126 NONAME
	_ZThn8_N19HbInputSmileyPickerD0Ev @ 1127 NONAME
	_ZThn8_N19HbInputSmileyPickerD1Ev @ 1128 NONAME
	_ZThn8_N21HbInputCnSmileyPicker10itemChangeEN13QGraphicsItem18GraphicsItemChangeERK8QVariant @ 1129 NONAME ABSENT
	_ZThn8_N21HbInputCnSmileyPickerD0Ev @ 1130 NONAME ABSENT
	_ZThn8_N21HbInputCnSmileyPickerD1Ev @ 1131 NONAME ABSENT
	_ZThn28_N15HbHwToolCluster11aboutToOpenEP9HbVkbHost @ 1132 NONAME
	_ZThn28_N15HbHwToolCluster21preferredKeyboardSizeEv @ 1133 NONAME
	_ZThn28_N15HbHwToolClusterD0Ev @ 1134 NONAME
	_ZThn28_N15HbHwToolClusterD1Ev @ 1135 NONAME
	_ZThn28_NK15HbHwToolCluster12keyboardTypeEv @ 1136 NONAME
	_ZN12HbWritingBox19setClrBtnVisibilityEb @ 1137 NONAME ABSENT
	_ZN14HbPreviewLabel11hidePreviewEv @ 1138 NONAME ABSENT
	_ZN14HbPreviewLabel14mouseMoveEventEP24QGraphicsSceneMouseEvent @ 1139 NONAME ABSENT
	_ZN14HbPreviewLabel17mouseReleaseEventEP24QGraphicsSceneMouseEvent @ 1140 NONAME ABSENT
	_ZN14HbPreviewLabel19hideAccentedPreviewEv @ 1141 NONAME ABSENT
	_ZN14HbPreviewLabel19showAccentedPreviewERK7QStringRK6QRectF @ 1142 NONAME ABSENT
	_ZN15HbInputCnKeypad10itemChangeEN13QGraphicsItem18GraphicsItemChangeERK8QVariant @ 1143 NONAME ABSENT
	_ZN15HbInputCnKeypad13setKeyEnabledEib @ 1144 NONAME ABSENT
	_ZN15HbInputCnKeypad18buttonMouseMovedInEi @ 1145 NONAME ABSENT
	_ZN15HbInputCnKeypad19buttonMouseMovedOutEi @ 1146 NONAME ABSENT
	_ZN15HbInputCnKeypad19setDisplayTextToKeyEi7QString @ 1147 NONAME ABSENT
	_ZN16HbInputVkbWidget10flickEventENS_14FlickDirectionE @ 1148 NONAME ABSENT
	_ZN16HbInputVkbWidget13wasFlickEventEv @ 1149 NONAME ABSENT
	_ZN18HbInputCnTchButton11mouseMoveInEi @ 1150 NONAME ABSENT
	_ZN18HbInputCnTchButton12mouseMoveOutEi @ 1151 NONAME ABSENT
	_ZN18HbInputCnTchButton12setFrameIconERK7QString @ 1152 NONAME ABSENT
	_ZN18HbInputSctPortrait14flickTriggeredEN16HbInputVkbWidget14FlickDirectionE @ 1153 NONAME ABSENT
	_ZN19HbInputSctLandscape14flickTriggeredEN16HbInputVkbWidget14FlickDirectionE @ 1154 NONAME ABSENT
	_ZN19HbTouchKeypadButton11changeEventEP6QEvent @ 1155 NONAME ABSENT
	_ZN19HbTouchKeypadButton16updatePrimitivesEv @ 1156 NONAME ABSENT
	_ZN19HbTouchKeypadButtonC1EP16HbInputVkbWidgetRK6HbIconRK7QStringP13QGraphicsItem @ 1157 NONAME ABSENT
	_ZN19HbTouchKeypadButtonC2EP16HbInputVkbWidgetRK6HbIconRK7QStringP13QGraphicsItem @ 1158 NONAME ABSENT
	_ZN20HbInputSettingDialog23predictionStatusChangedEv @ 1159 NONAME ABSENT
	_ZN21HbInputCnSmileyPickerC1ERK5QListI11HbCnSctPairEiiP13QGraphicsItem6QFlagsIN2Qt11OrientationEE @ 1160 NONAME ABSENT
	_ZN21HbInputCnSmileyPickerC2ERK5QListI11HbCnSctPairEiiP13QGraphicsItem6QFlagsIN2Qt11OrientationEE @ 1161 NONAME ABSENT
	_ZN22HbInputCnTouchListView9hideEventEP10QHideEvent @ 1162 NONAME ABSENT
	_ZN22HbInputCnTouchListView9showEventEP10QShowEvent @ 1163 NONAME ABSENT
	_ZN23HbInputVkbWidgetPrivate17setRockerPositionEv @ 1164 NONAME ABSENT
	_ZN23HbInputVkbWidgetPrivate22applyEditorConstraintsEv @ 1165 NONAME
	_ZN23HbInputVkbWidgetPrivate23addCustomButtonToLayoutEP19HbTouchKeypadButtoni @ 1166 NONAME
	_ZN23HbInputVkbWidgetPrivate23redirectMousePressEventEP24QGraphicsSceneMouseEvent @ 1167 NONAME
	_ZN23HbInputVkbWidgetPrivate25handleStandardButtonPressEi @ 1168 NONAME
	_ZN23HbInputVkbWidgetPrivate25redirectMouseReleaseEventEP24QGraphicsSceneMouseEvent @ 1169 NONAME
	_ZN23HbInputVkbWidgetPrivate27handleStandardButtonReleaseEi @ 1170 NONAME
	_ZN23HbInputVkbWidgetPrivate4initEv @ 1171 NONAME
	_ZN23HbInputVkbWidgetPrivate7keyCodeEi @ 1172 NONAME
	_ZN23HbInputVkbWidgetPrivateC1Ev @ 1173 NONAME
	_ZN23HbInputVkbWidgetPrivateC2Ev @ 1174 NONAME
	_ZN23HbInputVkbWidgetPrivateD0Ev @ 1175 NONAME
	_ZN23HbInputVkbWidgetPrivateD1Ev @ 1176 NONAME
	_ZN23HbInputVkbWidgetPrivateD2Ev @ 1177 NONAME
	_ZN23HbQwertyKeyboardPrivate10textForKeyEi @ 1178 NONAME ABSENT
	_ZN23HbQwertyKeyboardPrivate11showPreviewEi @ 1179 NONAME ABSENT
	_ZN23HbQwertyKeyboardPrivate15indexForKeycodeEi @ 1180 NONAME ABSENT
	_ZN23HbQwertyKeyboardPrivate17launchPreviewPaneERK11QStringList @ 1181 NONAME ABSENT
	_ZN23HbQwertyKeyboardPrivate18initializeKeyboardEv @ 1182 NONAME ABSENT
	_ZN23HbQwertyKeyboardPrivate19setButtonObjectNameER19HbTouchKeypadButtoniiN2Qt3KeyE @ 1183 NONAME ABSENT
	_ZN23HbQwertyKeyboardPrivate19setLayoutDimensionsE6QSizeF @ 1184 NONAME ABSENT
	_ZN23HbQwertyKeyboardPrivate22applyEditorConstraintsEv @ 1185 NONAME ABSENT
	_ZN23HbQwertyKeyboardPrivate25handleStandardButtonClickEi @ 1186 NONAME ABSENT
	_ZN23HbQwertyKeyboardPrivate25handleStandardButtonPressEi @ 1187 NONAME ABSENT
	_ZN23HbQwertyKeyboardPrivate25initializeNumericKeyboardEv @ 1188 NONAME ABSENT
	_ZN23HbQwertyKeyboardPrivate27handleStandardButtonReleaseEi @ 1189 NONAME ABSENT
	_ZN23HbQwertyKeyboardPrivateC1Ev @ 1190 NONAME ABSENT
	_ZN23HbQwertyKeyboardPrivateC2Ev @ 1191 NONAME ABSENT
	_ZN23HbQwertyKeyboardPrivateD0Ev @ 1192 NONAME ABSENT
	_ZN23HbQwertyKeyboardPrivateD1Ev @ 1193 NONAME ABSENT
	_ZN23HbQwertyKeyboardPrivateD2Ev @ 1194 NONAME ABSENT
	_ZN25Hb12KeyTouchKeypadPrivate10textForKeyEi @ 1195 NONAME ABSENT
	_ZN25Hb12KeyTouchKeypadPrivate12createKeypadEv @ 1196 NONAME ABSENT
	_ZN25Hb12KeyTouchKeypadPrivate12createLayoutEv @ 1197 NONAME ABSENT
	_ZN25Hb12KeyTouchKeypadPrivate18setKeyMappingTitleEiP19HbTouchKeypadButton6QFlagsI10HbModifierE @ 1198 NONAME ABSENT
	_ZN25Hb12KeyTouchKeypadPrivate20additionalTextForKeyEi @ 1199 NONAME ABSENT
	_ZN25Hb12KeyTouchKeypadPrivate22applyEditorConstraintsEv @ 1200 NONAME ABSENT
	_ZN25Hb12KeyTouchKeypadPrivate25setKeyMappingTitleNumericEiP19HbTouchKeypadButton6QFlagsI10HbModifierE @ 1201 NONAME ABSENT
	_ZN25Hb12KeyTouchKeypadPrivate7keyCodeEi @ 1202 NONAME ABSENT
	_ZN25Hb12KeyTouchKeypadPrivateC1Ev @ 1203 NONAME ABSENT
	_ZN25Hb12KeyTouchKeypadPrivateC2Ev @ 1204 NONAME ABSENT
	_ZN25Hb12KeyTouchKeypadPrivateD0Ev @ 1205 NONAME ABSENT
	_ZN25Hb12KeyTouchKeypadPrivateD1Ev @ 1206 NONAME ABSENT
	_ZN25Hb12KeyTouchKeypadPrivateD2Ev @ 1207 NONAME ABSENT
	_ZN25HbInputSctPortraitPrivate10initializeEv @ 1208 NONAME ABSENT
	_ZN25HbInputSctPortraitPrivate13setActiveViewEN16HbInputVkbWidget9HbSctViewE @ 1209 NONAME ABSENT
	_ZN25HbInputSctPortraitPrivate13setSctButtonsERK7QString @ 1210 NONAME ABSENT
	_ZN25HbInputSctPortraitPrivate16createSctButtonsEv @ 1211 NONAME ABSENT
	_ZN25HbInputSctPortraitPrivate17_q_mappedKeyClickEi @ 1212 NONAME ABSENT
	_ZN25HbInputSctPortraitPrivate19setLayoutDimensionsE6QSizeF @ 1213 NONAME ABSENT
	_ZN25HbInputSctPortraitPrivate20getSpecialCharactersEv @ 1214 NONAME ABSENT
	_ZN25HbInputSctPortraitPrivate22applyEditorConstraintsEv @ 1215 NONAME ABSENT
	_ZN25HbInputSctPortraitPrivate25handleStandardButtonClickEi @ 1216 NONAME ABSENT
	_ZN25HbInputSctPortraitPrivate25handleStandardButtonPressEi @ 1217 NONAME ABSENT
	_ZN25HbInputSctPortraitPrivate27handleStandardButtonReleaseEi @ 1218 NONAME ABSENT
	_ZN25HbInputSctPortraitPrivate7keyCodeEi @ 1219 NONAME ABSENT
	_ZN25HbInputSctPortraitPrivateC1Ev @ 1220 NONAME ABSENT
	_ZN25HbInputSctPortraitPrivateC2Ev @ 1221 NONAME ABSENT
	_ZN26HbInputSctLandscapePrivate13setActiveViewEN16HbInputVkbWidget9HbSctViewE @ 1222 NONAME ABSENT
	_ZN26HbInputSctLandscapePrivate13setSctButtonsERK7QString @ 1223 NONAME ABSENT
	_ZN26HbInputSctLandscapePrivate16createSctButtonsEv @ 1224 NONAME ABSENT
	_ZN26HbInputSctLandscapePrivate16latchRangeButtonEi @ 1225 NONAME ABSENT
	_ZN26HbInputSctLandscapePrivate17_q_mappedKeyClickEi @ 1226 NONAME ABSENT
	_ZN26HbInputSctLandscapePrivate19setAsFunctionButtonEiRK6HbIconRK7QString @ 1227 NONAME ABSENT
	_ZN26HbInputSctLandscapePrivate19setLayoutDimensionsE6QSizeF @ 1228 NONAME ABSENT
	_ZN26HbInputSctLandscapePrivate20getSpecialCharactersEv @ 1229 NONAME ABSENT
	_ZN26HbInputSctLandscapePrivate22applyEditorConstraintsEv @ 1230 NONAME ABSENT
	_ZN26HbInputSctLandscapePrivate25handleStandardButtonClickEi @ 1231 NONAME ABSENT
	_ZN26HbInputSctLandscapePrivate25handleStandardButtonPressEi @ 1232 NONAME ABSENT
	_ZN26HbInputSctLandscapePrivate27_q_enteredInNonStickyRegionEv @ 1233 NONAME ABSENT
	_ZN26HbInputSctLandscapePrivate27handleStandardButtonReleaseEi @ 1234 NONAME ABSENT
	_ZN26HbInputSctLandscapePrivate7keyCodeEi @ 1235 NONAME ABSENT
	_ZN26HbInputSctLandscapePrivateC1Ev @ 1236 NONAME ABSENT
	_ZN26HbInputSctLandscapePrivateC2Ev @ 1237 NONAME ABSENT
	_ZTI23HbInputVkbWidgetPrivate @ 1238 NONAME
	_ZTI23HbQwertyKeyboardPrivate @ 1239 NONAME ABSENT
	_ZTI25Hb12KeyTouchKeypadPrivate @ 1240 NONAME ABSENT
	_ZTI25HbInputSctPortraitPrivate @ 1241 NONAME ABSENT
	_ZTI26HbInputSctLandscapePrivate @ 1242 NONAME ABSENT
	_ZTV23HbInputVkbWidgetPrivate @ 1243 NONAME
	_ZTV23HbQwertyKeyboardPrivate @ 1244 NONAME ABSENT
	_ZTV25Hb12KeyTouchKeypadPrivate @ 1245 NONAME ABSENT
	_ZTV25HbInputSctPortraitPrivate @ 1246 NONAME ABSENT
	_ZTV26HbInputSctLandscapePrivate @ 1247 NONAME ABSENT
	_ZThn8_N14HbPreviewLabel14mouseMoveEventEP24QGraphicsSceneMouseEvent @ 1248 NONAME ABSENT
	_ZThn8_N14HbPreviewLabel17mouseReleaseEventEP24QGraphicsSceneMouseEvent @ 1249 NONAME ABSENT
	_ZThn8_N15HbInputCnKeypad10itemChangeEN13QGraphicsItem18GraphicsItemChangeERK8QVariant @ 1250 NONAME ABSENT
	_ZN14HbPreviewLabel15setTextGeometryERK6QSizeF @ 1251 NONAME ABSENT
	_ZN14HbPreviewLabelC1E7QStringP13QGraphicsItem @ 1252 NONAME ABSENT
	_ZN14HbPreviewLabelC2E7QStringP13QGraphicsItem @ 1253 NONAME ABSENT
	_ZN14HbPreviewLabelD0Ev @ 1254 NONAME ABSENT
	_ZN14HbPreviewLabelD1Ev @ 1255 NONAME ABSENT
	_ZN14HbPreviewLabelD2Ev @ 1256 NONAME ABSENT
	_ZN16HbInputVkbWidget21mouseMovedOutOfButtonEv @ 1257 NONAME
	_ZN19HbTouchKeypadButton7isFadedEv @ 1258 NONAME ABSENT
	_ZN20HbInputCommonDialogs36showCustomInputMethodSelectionDialogERK15HbInputLanguage @ 1259 NONAME
	_ZThn16_N14HbPreviewLabelD0Ev @ 1260 NONAME ABSENT
	_ZThn16_N14HbPreviewLabelD1Ev @ 1261 NONAME ABSENT
	_ZThn8_N14HbPreviewLabelD0Ev @ 1262 NONAME ABSENT
	_ZThn8_N14HbPreviewLabelD1Ev @ 1263 NONAME ABSENT
	_ZN19HbInputSmileyPickerC1EiiP13QGraphicsItem11QStringList @ 1264 NONAME
	_ZN19HbInputSmileyPickerC2EiiP13QGraphicsItem11QStringList @ 1265 NONAME
	_ZN23HbQwertyKeyboardPrivate15ConstructKeypadEv @ 1266 NONAME ABSENT
	_ZN23HbQwertyKeyboardPrivate20initialize4x10KeypadEv @ 1267 NONAME ABSENT
	_ZN23HbQwertyKeyboardPrivate20initialize4x11KeypadEv @ 1268 NONAME ABSENT
	_ZN23HbQwertyKeyboardPrivate28removeExistingSignalMappingsEv @ 1269 NONAME ABSENT
	_ZN16HbInputVkbWidget10flickEventENS_16HbFlickDirectionE @ 1270 NONAME
	_ZN16HbInputVkbWidget14flickDirectionEv @ 1271 NONAME
	_ZN16HbInputVkbWidget16timeLineFinishedEv @ 1272 NONAME ABSENT
	_ZN16HbInputVkbWidget18animKeyboardChangeEv @ 1273 NONAME
	_ZN16HbInputVkbWidget18probableKeypressesEv @ 1274 NONAME
	_ZN16HbInputVkbWidget22pixmapAnimValueChangedEf @ 1275 NONAME ABSENT
	_ZN18HbInputSctPortrait14flickTriggeredEN16HbInputVkbWidget16HbFlickDirectionE @ 1276 NONAME ABSENT
	_ZN19HbInputSctLandscape14flickTriggeredEN16HbInputVkbWidget16HbFlickDirectionE @ 1277 NONAME ABSENT
	_ZN23HbInputVkbWidgetPrivate17captureScreenshotEv @ 1278 NONAME
	_ZN23HbInputVkbWidgetPrivate18updateMouseHitItemEP19HbTouchKeypadButton7QPointF @ 1279 NONAME
	_ZN23HbInputVkbWidgetPrivate22normalizeProbabilitiesER5QListI21HbKeyPressProbabilityE @ 1280 NONAME
	_ZN23HbInputVkbWidgetPrivate7keyCodeEP19HbTouchKeypadButton @ 1281 NONAME
	_ZN23HbQwertyKeyboardPrivate15constructKeypadEv @ 1282 NONAME ABSENT
	_ZN23HbQwertyKeyboardPrivate7keyCodeEP19HbTouchKeypadButton @ 1283 NONAME ABSENT
	_ZN25Hb12KeyTouchKeypadPrivate7keyCodeEP19HbTouchKeypadButton @ 1284 NONAME ABSENT
	_ZN14HbPreviewLabel15setTextGeometryEff @ 1285 NONAME ABSENT
	_ZN16HbInputVkbWidget11changeEventEP6QEvent @ 1286 NONAME
	_ZN16HbInputVkbWidget15showSettingListEv @ 1287 NONAME
	_ZN16HbInputVkbWidget16closeSettingListEv @ 1288 NONAME
	_ZN16HbInputVkbWidget24refreshApplicationButtonEv @ 1289 NONAME ABSENT
	_ZN16HbInputVkbWidget28keypadLanguageChangeFinishedEv @ 1290 NONAME
	_ZN16HbInputVkbWidget35keypadLanguageChangeAnimationUpdateEf @ 1291 NONAME
	_ZN18HbInputSettingList11qt_metacallEN11QMetaObject4CallEiPPv @ 1292 NONAME
	_ZN18HbInputSettingList11qt_metacastEPKc @ 1293 NONAME
	_ZN18HbInputSettingList12saveSettingsEv @ 1294 NONAME ABSENT
	_ZN18HbInputSettingList15showSettingListEv @ 1295 NONAME ABSENT
	_ZN18HbInputSettingList16staticMetaObjectE @ 1296 NONAME DATA 16
	_ZN18HbInputSettingList17listItemActivatedEP16HbListWidgetItem @ 1297 NONAME
	_ZN18HbInputSettingList19getStaticMetaObjectEv @ 1298 NONAME
	_ZN18HbInputSettingList21languageButtonClickedEv @ 1299 NONAME
	_ZN18HbInputSettingList22primaryLanguageChangedERK15HbInputLanguage @ 1300 NONAME
	_ZN18HbInputSettingList23predictionButtonClickedEv @ 1301 NONAME
	_ZN18HbInputSettingList23predictionStatusChangedEi @ 1302 NONAME ABSENT
	_ZN18HbInputSettingList24secondaryLanguageChangedERK15HbInputLanguage @ 1303 NONAME
	_ZN18HbInputSettingList25inputMethodsButtonClickedEv @ 1304 NONAME
	_ZN18HbInputSettingList26inputSettingsButtonClickedEv @ 1305 NONAME
	_ZN18HbInputSettingList27setLanguageSelectionEnabledEb @ 1306 NONAME
	_ZN18HbInputSettingList29setPredictionSelectionEnabledEb @ 1307 NONAME
	_ZN18HbInputSettingListC1EP15QGraphicsWidget @ 1308 NONAME
	_ZN18HbInputSettingListC2EP15QGraphicsWidget @ 1309 NONAME
	_ZN18HbInputSettingListD0Ev @ 1310 NONAME
	_ZN18HbInputSettingListD1Ev @ 1311 NONAME
	_ZN18HbInputSettingListD2Ev @ 1312 NONAME
	_ZN19HbTouchKeypadButton10setKeyCodeEi @ 1313 NONAME ABSENT
	_ZN19HbTouchKeypadButton12setFrameIconERK7QString @ 1314 NONAME ABSENT
	_ZN19HbTouchKeypadButton13setBackgroundERK7QString @ 1315 NONAME ABSENT
	_ZN19HbTouchKeypadButton14setInitialSizeERK6QSizeF @ 1316 NONAME ABSENT
	_ZN20HbInputModeIndicatorC1ER19HbTouchKeypadButtonP15QGraphicsWidget @ 1317 NONAME ABSENT
	_ZN20HbInputModeIndicatorC2ER19HbTouchKeypadButtonP15QGraphicsWidget @ 1318 NONAME ABSENT
	_ZN20HbInputSettingDialog9showEventEP10QShowEvent @ 1319 NONAME ABSENT
	_ZN23HbQwertyKeyboardPrivate17setRockerPositionEv @ 1320 NONAME ABSENT
	_ZN23HbQwertyKeyboardPrivate18initializeKeyboardEb @ 1321 NONAME ABSENT
	_ZN23HbQwertyKeyboardPrivate19calculateDimensionsE6QSizeF @ 1322 NONAME ABSENT
	_ZN23HbQwertyKeyboardPrivate20initialize4x10KeypadEb @ 1323 NONAME ABSENT
	_ZN23HbQwertyKeyboardPrivate20initialize4x11KeypadEb @ 1324 NONAME ABSENT
	_ZN23HbQwertyKeyboardPrivate7keyCodeEi @ 1325 NONAME ABSENT
	_ZNK16HbInputVkbWidget8sizeHintEN2Qt8SizeHintERK6QSizeF @ 1326 NONAME
	_ZNK18HbInputSettingList10metaObjectEv @ 1327 NONAME
	_ZNK19HbTouchKeypadButton7keyCodeEv @ 1328 NONAME ABSENT
	_ZNK19HbTouchKeypadButton8sizeHintEN2Qt8SizeHintERK6QSizeF @ 1329 NONAME ABSENT
	_ZTI18HbInputSettingList @ 1330 NONAME
	_ZTV18HbInputSettingList @ 1331 NONAME
	_ZThn16_N18HbInputSettingListD0Ev @ 1332 NONAME
	_ZThn16_N18HbInputSettingListD1Ev @ 1333 NONAME
	_ZThn16_NK16HbInputVkbWidget8sizeHintEN2Qt8SizeHintERK6QSizeF @ 1334 NONAME
	_ZThn16_NK19HbTouchKeypadButton8sizeHintEN2Qt8SizeHintERK6QSizeF @ 1335 NONAME ABSENT
	_ZThn8_N18HbInputSettingListD0Ev @ 1336 NONAME
	_ZThn8_N18HbInputSettingListD1Ev @ 1337 NONAME
	_ZN15HbCandidateList23candidatePopupCancelledEv @ 1338 NONAME
	_ZN19HbTouchKeypadButton10itemChangeEN13QGraphicsItem18GraphicsItemChangeERK8QVariant @ 1339 NONAME ABSENT
	_ZN23HbInputVkbWidgetPrivate16isKeyboardDimmedEv @ 1340 NONAME
	_ZN23HbInputVkbWidgetPrivate16isSmileysEnabledEv @ 1341 NONAME
	_ZN23HbQwertyKeyboardPrivate17updateButtonsTextEv @ 1342 NONAME ABSENT
	_ZN23HbQwertyKeyboardPrivate22getAllowedSctCharctersER7QString @ 1343 NONAME ABSENT
	_ZThn8_N19HbTouchKeypadButton10itemChangeEN13QGraphicsItem18GraphicsItemChangeERK8QVariant @ 1344 NONAME ABSENT
	_ZN16HbInputVkbWidget12gestureEventEP13QGestureEvent @ 1345 NONAME
	_ZN16HbInputVkbWidget16showSettingsViewEv @ 1346 NONAME
	_ZN16HbInputVkbWidget17closeSettingsViewEv @ 1347 NONAME
	_ZN18Hb12KeyTouchKeypad14mappedKeyPressEi @ 1348 NONAME ABSENT
	_ZN18Hb12KeyTouchKeypad16mappedKeyReleaseEi @ 1349 NONAME ABSENT
	_ZN18HbInputSettingList17updateSettingListEv @ 1350 NONAME
	_ZN18HbInputSettingList23predictionStatusChangedE6QFlagsI21HbKeyboardSettingFlagEb @ 1351 NONAME
	_ZN19HbInputCheckBoxList10createItemEv @ 1352 NONAME
	_ZN19HbInputCheckBoxList11qt_metacallEN11QMetaObject4CallEiPPv @ 1353 NONAME
	_ZN19HbInputCheckBoxList11qt_metacastEPKc @ 1354 NONAME
	_ZN19HbInputCheckBoxList13itemActivatedERK11QModelIndex @ 1355 NONAME
	_ZN19HbInputCheckBoxList16staticMetaObjectE @ 1356 NONAME DATA 16
	_ZN19HbInputCheckBoxList18createCustomWidgetEv @ 1357 NONAME
	_ZN19HbInputCheckBoxList19getStaticMetaObjectEv @ 1358 NONAME
	_ZN19HbInputCheckBoxListC1EP13QGraphicsItem @ 1359 NONAME
	_ZN19HbInputCheckBoxListC1ERKS_ @ 1360 NONAME
	_ZN19HbInputCheckBoxListC2EP13QGraphicsItem @ 1361 NONAME
	_ZN19HbInputCheckBoxListC2ERKS_ @ 1362 NONAME
	_ZN19HbInputCheckBoxListD0Ev @ 1363 NONAME
	_ZN19HbInputCheckBoxListD1Ev @ 1364 NONAME
	_ZN19HbInputCheckBoxListD2Ev @ 1365 NONAME
	_ZN19HbTouchKeypadButton12gestureEventEP13QGestureEvent @ 1366 NONAME ABSENT
	_ZN20HbInputModeIndicator22updatePredictionStatusE6QFlagsI21HbKeyboardSettingFlagEb @ 1367 NONAME
	_ZN20HbInputSettingWidget11qt_metacallEN11QMetaObject4CallEiPPv @ 1368 NONAME
	_ZN20HbInputSettingWidget11qt_metacastEPKc @ 1369 NONAME
	_ZN20HbInputSettingWidget16initializeWidgetEv @ 1370 NONAME
	_ZN20HbInputSettingWidget16staticMetaObjectE @ 1371 NONAME DATA 16
	_ZN20HbInputSettingWidget18setCorrectionLevelEi @ 1372 NONAME
	_ZN20HbInputSettingWidget18setPredictionStateERK11QModelIndex @ 1373 NONAME
	_ZN20HbInputSettingWidget18setPrimaryLanguageEi @ 1374 NONAME
	_ZN20HbInputSettingWidget19getStaticMetaObjectEv @ 1375 NONAME
	_ZN20HbInputSettingWidget20setSecondaryLanguageEi @ 1376 NONAME
	_ZN20HbInputSettingWidget21updateKeypressTimeoutEi @ 1377 NONAME
	_ZN20HbInputSettingWidget22setAutocompletionStateERK11QModelIndex @ 1378 NONAME
	_ZN20HbInputSettingWidget23setKeypressTimeoutValueEi @ 1379 NONAME
	_ZN20HbInputSettingWidget23setPrimaryCandidateModeEv @ 1380 NONAME
	_ZN20HbInputSettingWidget24setCharacterPreviewStateEv @ 1381 NONAME
	_ZN20HbInputSettingWidget25updateAutocompletionStateE6QFlagsI21HbKeyboardSettingFlagEb @ 1382 NONAME
	_ZN20HbInputSettingWidget25updateGlobalInputLanguageERK15HbInputLanguage @ 1383 NONAME
	_ZN20HbInputSettingWidget26updatePredictiveInputStateE6QFlagsI21HbKeyboardSettingFlagEb @ 1384 NONAME
	_ZN20HbInputSettingWidget26updatePrimaryCandidateModeE22HbPrimaryCandidateMode @ 1385 NONAME
	_ZN20HbInputSettingWidget27updateTypingCorrectionLevelE23HbTypingCorrectionLevel @ 1386 NONAME
	_ZN20HbInputSettingWidget34updateGlobalSecondaryInputLanguageERK15HbInputLanguage @ 1387 NONAME
	_ZN20HbInputSettingWidget36updateCharacterPreviewStateForQwertyEb @ 1388 NONAME
	_ZN20HbInputSettingWidgetC1EP10HbDataFormP15QGraphicsWidget @ 1389 NONAME
	_ZN20HbInputSettingWidgetC2EP10HbDataFormP15QGraphicsWidget @ 1390 NONAME
	_ZN20HbInputSettingWidgetD0Ev @ 1391 NONAME
	_ZN20HbInputSettingWidgetD1Ev @ 1392 NONAME
	_ZN20HbInputSettingWidgetD2Ev @ 1393 NONAME
	_ZN20HbInputVirtualRocker12gestureEventEP13QGestureEvent @ 1394 NONAME
	_ZN25Hb12KeyTouchKeypadPrivate22getAllowedSctCharctersER7QString @ 1395 NONAME ABSENT
	_ZNK19HbInputCheckBoxList10metaObjectEv @ 1396 NONAME
	_ZNK19HbInputCheckBoxList16canSetModelIndexERK11QModelIndex @ 1397 NONAME
	_ZNK20HbInputSettingWidget10metaObjectEv @ 1398 NONAME
	_ZTI19HbInputCheckBoxList @ 1399 NONAME
	_ZTI20HbInputSettingWidget @ 1400 NONAME
	_ZTV19HbInputCheckBoxList @ 1401 NONAME
	_ZTV20HbInputSettingWidget @ 1402 NONAME
	_ZThn16_N19HbInputCheckBoxListD0Ev @ 1403 NONAME
	_ZThn16_N19HbInputCheckBoxListD1Ev @ 1404 NONAME
	_ZThn8_N19HbInputCheckBoxListD0Ev @ 1405 NONAME
	_ZThn8_N19HbInputCheckBoxListD1Ev @ 1406 NONAME
	_ZN23HbQwertyKeyboardPrivate27updateButtonsTextAndMappersEv @ 1407 NONAME ABSENT
	_ZN25Hb12KeyTouchKeypadPrivate34findFirstNumberCharacterBoundToKeyEi @ 1408 NONAME ABSENT
	_ZN13HbInputButton10setKeyCodeEi @ 1409 NONAME
	_ZN13HbInputButton11qt_metacallEN11QMetaObject4CallEiPPv @ 1410 NONAME
	_ZN13HbInputButton11qt_metacastEPKc @ 1411 NONAME
	_ZN13HbInputButton11setPositionERK6QPoint @ 1412 NONAME
	_ZN13HbInputButton13setAutoRepeatEb @ 1413 NONAME
	_ZN13HbInputButton15setBoundingRectERK6QRectF @ 1414 NONAME
	_ZN13HbInputButton16staticMetaObjectE @ 1415 NONAME DATA 16
	_ZN13HbInputButton19getStaticMetaObjectEv @ 1416 NONAME
	_ZN13HbInputButton19setMappedCharactersERK7QString @ 1417 NONAME
	_ZN13HbInputButton7setIconERK6HbIconNS_22HbInputButtonIconIndexE @ 1418 NONAME
	_ZN13HbInputButton7setSizeERK5QSize @ 1419 NONAME
	_ZN13HbInputButton7setTextERK7QStringNS_22HbInputButtonTextIndexE @ 1420 NONAME
	_ZN13HbInputButton7setTypeENS_17HbInputButtonTypeE @ 1421 NONAME
	_ZN13HbInputButton8setIconsERK5QListI6HbIconE @ 1422 NONAME
	_ZN13HbInputButton8setStateENS_18HbInputButtonStateE @ 1423 NONAME
	_ZN13HbInputButton8setTextsERK5QListI7QStringE @ 1424 NONAME
	_ZN13HbInputButtonC1EiRK6QPointRK5QSize @ 1425 NONAME
	_ZN13HbInputButtonC1Ev @ 1426 NONAME
	_ZN13HbInputButtonC2EiRK6QPointRK5QSize @ 1427 NONAME
	_ZN13HbInputButtonC2Ev @ 1428 NONAME
	_ZN13HbInputButtonD0Ev @ 1429 NONAME
	_ZN13HbInputButtonD1Ev @ 1430 NONAME
	_ZN13HbInputButtonD2Ev @ 1431 NONAME
	_ZN13HbSctKeyboard10changePageEN16HbInputVkbWidget16HbFlickDirectionE @ 1432 NONAME
	_ZN13HbSctKeyboard11qt_metacallEN11QMetaObject4CallEiPPv @ 1433 NONAME
	_ZN13HbSctKeyboard11qt_metacastEPKc @ 1434 NONAME
	_ZN13HbSctKeyboard16staticMetaObjectE @ 1435 NONAME DATA 16
	_ZN13HbSctKeyboard17sendKeyPressEventERK9QKeyEvent @ 1436 NONAME
	_ZN13HbSctKeyboard18sendKeyChangeEventERK9QKeyEventS2_ @ 1437 NONAME
	_ZN13HbSctKeyboard19getStaticMetaObjectEv @ 1438 NONAME
	_ZN13HbSctKeyboard19sendKeyReleaseEventERK9QKeyEvent @ 1439 NONAME
	_ZN13HbSctKeyboard21preferredKeyboardSizeEv @ 1440 NONAME
	_ZN13HbSctKeyboard25updateButtonPreviewStatusEb @ 1441 NONAME
	_ZN13HbSctKeyboard7setModeE12HbKeypadMode6QFlagsI10HbModifierE @ 1442 NONAME
	_ZN13HbSctKeyboardC1EP13HbInputMethodPK8HbKeymapP13QGraphicsItem @ 1443 NONAME
	_ZN13HbSctKeyboardC1ER20HbSctKeyboardPrivateP13HbInputMethodPK8HbKeymapP13QGraphicsItem @ 1444 NONAME
	_ZN13HbSctKeyboardC2EP13HbInputMethodPK8HbKeymapP13QGraphicsItem @ 1445 NONAME
	_ZN13HbSctKeyboardC2ER20HbSctKeyboardPrivateP13HbInputMethodPK8HbKeymapP13QGraphicsItem @ 1446 NONAME
	_ZN13HbSctKeyboardD0Ev @ 1447 NONAME
	_ZN13HbSctKeyboardD1Ev @ 1448 NONAME
	_ZN13HbSctKeyboardD2Ev @ 1449 NONAME
	_ZN15HbCandidateList17candidateSelectedEiRK7QString @ 1450 NONAME
	_ZN16HbInputVkbWidget14setContentItemEP19QGraphicsLayoutItem @ 1451 NONAME
	_ZN16HbInputVkbWidget17sendKeyPressEventERK9QKeyEvent @ 1452 NONAME
	_ZN16HbInputVkbWidget18sendKeyChangeEventERK9QKeyEventS2_ @ 1453 NONAME
	_ZN16HbInputVkbWidget18sendLongPressEventERK9QKeyEvent @ 1454 NONAME
	_ZN16HbInputVkbWidget19sendKeyReleaseEventERK9QKeyEvent @ 1455 NONAME
	_ZN16HbInputVkbWidget23sendKeyDoublePressEventERK9QKeyEvent @ 1456 NONAME
	_ZN18HbInputButtonGroup10sceneEventEP6QEvent @ 1457 NONAME
	_ZN18HbInputButtonGroup10setButtonsERK5QListIP13HbInputButtonE @ 1458 NONAME
	_ZN18HbInputButtonGroup10setEnabledEb @ 1459 NONAME
	_ZN18HbInputButtonGroup11changeEventEP6QEvent @ 1460 NONAME
	_ZN18HbInputButtonGroup11qt_metacallEN11QMetaObject4CallEiPPv @ 1461 NONAME
	_ZN18HbInputButtonGroup11qt_metacastEPKc @ 1462 NONAME
	_ZN18HbInputButtonGroup11setGeometryERK6QRectF @ 1463 NONAME
	_ZN18HbInputButtonGroup11setGridSizeERK5QSize @ 1464 NONAME
	_ZN18HbInputButtonGroup13buttonPressedERK9QKeyEvent @ 1465 NONAME
	_ZN18HbInputButtonGroup13setBackgroundEP13HbFrameDrawer @ 1466 NONAME
	_ZN18HbInputButtonGroup14buttonReleasedERK9QKeyEvent @ 1467 NONAME
	_ZN18HbInputButtonGroup14longPressEventEv @ 1468 NONAME
	_ZN18HbInputButtonGroup16staticMetaObjectE @ 1469 NONAME DATA 16
	_ZN18HbInputButtonGroup17buttonLongPressedERK9QKeyEvent @ 1470 NONAME
	_ZN18HbInputButtonGroup17cancelButtonPressEv @ 1471 NONAME
	_ZN18HbInputButtonGroup17emitButtonPressedERK9QKeyEvent @ 1472 NONAME
	_ZN18HbInputButtonGroup18emitButtonReleasedERK9QKeyEvent @ 1473 NONAME
	_ZN18HbInputButtonGroup19buttonDoublePressedERK9QKeyEvent @ 1474 NONAME
	_ZN18HbInputButtonGroup19getStaticMetaObjectEv @ 1475 NONAME
	_ZN18HbInputButtonGroup19setButtonBorderSizeEf @ 1476 NONAME
	_ZN18HbInputButtonGroup19updateCustomButtonsEv @ 1477 NONAME
	_ZN18HbInputButtonGroup20pressedButtonChangedERK9QKeyEventS2_ @ 1478 NONAME
	_ZN18HbInputButtonGroup20setMultiTouchEnabledEb @ 1479 NONAME
	_ZN18HbInputButtonGroup21emitButtonLongPressedERK9QKeyEvent @ 1480 NONAME
	_ZN18HbInputButtonGroup22setCustomButtonActionsERK5QListIP8HbActionE @ 1481 NONAME
	_ZN18HbInputButtonGroup23emitButtonDoublePressedERK9QKeyEvent @ 1482 NONAME
	_ZN18HbInputButtonGroup23setButtonPreviewEnabledEb @ 1483 NONAME
	_ZN18HbInputButtonGroup24emitPressedButtonChangedERK9QKeyEventS2_ @ 1484 NONAME
	_ZN18HbInputButtonGroup35setCharacterSelectionPreviewEnabledEb @ 1485 NONAME
	_ZN18HbInputButtonGroup5paintEP8QPainterPK24QStyleOptionGraphicsItemP7QWidget @ 1486 NONAME
	_ZN18HbInputButtonGroup9hideEventEP10QHideEvent @ 1487 NONAME
	_ZN18HbInputButtonGroup9setButtonEP13HbInputButtonNS0_20HbInputButtonKeyCodeE @ 1488 NONAME
	_ZN18HbInputButtonGroup9setButtonEP13HbInputButtoni @ 1489 NONAME
	_ZN18HbInputButtonGroup9setButtonEP13HbInputButtonii @ 1490 NONAME
	_ZN18HbInputButtonGroup9showEventEP10QShowEvent @ 1491 NONAME
	_ZN18HbInputButtonGroupC1EP13QGraphicsItem @ 1492 NONAME
	_ZN18HbInputButtonGroupC1ER25HbInputButtonGroupPrivateP13QGraphicsItem @ 1493 NONAME
	_ZN18HbInputButtonGroupC1ER25HbInputButtonGroupPrivateRK5QSizeP13QGraphicsItem @ 1494 NONAME
	_ZN18HbInputButtonGroupC1ERK5QSizeP13QGraphicsItem @ 1495 NONAME
	_ZN18HbInputButtonGroupC2EP13QGraphicsItem @ 1496 NONAME
	_ZN18HbInputButtonGroupC2ER25HbInputButtonGroupPrivateP13QGraphicsItem @ 1497 NONAME
	_ZN18HbInputButtonGroupC2ER25HbInputButtonGroupPrivateRK5QSizeP13QGraphicsItem @ 1498 NONAME
	_ZN18HbInputButtonGroupC2ERK5QSizeP13QGraphicsItem @ 1499 NONAME
	_ZN18HbInputButtonGroupD0Ev @ 1500 NONAME
	_ZN18HbInputButtonGroupD1Ev @ 1501 NONAME
	_ZN18HbInputButtonGroupD2Ev @ 1502 NONAME
	_ZN20HbInputModeIndicatorC1EP13HbInputButtonP15QGraphicsWidget @ 1503 NONAME
	_ZN20HbInputModeIndicatorC2EP13HbInputButtonP15QGraphicsWidget @ 1504 NONAME
	_ZN20HbSctKeyboardPrivate13updateButtonsEv @ 1505 NONAME
	_ZN20HbSctKeyboardPrivate14updateKeyCodesEv @ 1506 NONAME
	_ZN20HbSctKeyboardPrivate22applyEditorConstraintsEv @ 1507 NONAME
	_ZN20HbSctKeyboardPrivate4initEv @ 1508 NONAME
	_ZN20HbSctKeyboardPrivate7keyCodeEi @ 1509 NONAME
	_ZN20HbSctKeyboardPrivateC1Ev @ 1510 NONAME
	_ZN20HbSctKeyboardPrivateC2Ev @ 1511 NONAME
	_ZN20HbSctKeyboardPrivateD0Ev @ 1512 NONAME
	_ZN20HbSctKeyboardPrivateD1Ev @ 1513 NONAME
	_ZN20HbSctKeyboardPrivateD2Ev @ 1514 NONAME
	_ZN23HbInputVkbWidgetPrivate10initLayoutEv @ 1515 NONAME
	_ZN23HbInputVkbWidgetPrivate13updateButtonsEv @ 1516 NONAME
	_ZN23HbInputVkbWidgetPrivate14updateKeyCodesEv @ 1517 NONAME
	_ZN23HbInputVkbWidgetPrivate19settingListPositionER7QPointFRN7HbPopup9PlacementE @ 1518 NONAME
	_ZN25HbInputButtonGroupPrivate10pressEventERK7QPointFb @ 1519 NONAME
	_ZN25HbInputButtonGroupPrivate11buttonColorEN13HbInputButton17HbInputButtonTypeENS0_18HbInputButtonStateE @ 1520 NONAME
	_ZN25HbInputButtonGroupPrivate12releaseEventERK7QPointFb @ 1521 NONAME
	_ZN25HbInputButtonGroupPrivate14buttonGraphicsEN13HbInputButton17HbInputButtonTypeENS0_18HbInputButtonStateE @ 1522 NONAME
	_ZN25HbInputButtonGroupPrivate14layoutTextLineENS_21HbInputButtonTextTypeEPK13HbInputButtonRK6QSizeFR9QTextLineS6_ @ 1523 NONAME ABSENT
	_ZN25HbInputButtonGroupPrivate14longPressEventEv @ 1524 NONAME
	_ZN25HbInputButtonGroupPrivate14startLongPressEi @ 1525 NONAME
	_ZN25HbInputButtonGroupPrivate14updateGraphicsERK6QSizeF @ 1526 NONAME
	_ZN25HbInputButtonGroupPrivate15cancelLongPressEi @ 1527 NONAME
	_ZN25HbInputButtonGroupPrivate16doublePressEventERK7QPointFb @ 1528 NONAME
	_ZN25HbInputButtonGroupPrivate16updateButtonGridERK6QSizeF @ 1529 NONAME
	_ZN25HbInputButtonGroupPrivate16updateColorArrayEv @ 1530 NONAME
	_ZN25HbInputButtonGroupPrivate17hideButtonPreviewEP13HbInputButton @ 1531 NONAME
	_ZN25HbInputButtonGroupPrivate17showButtonPreviewEP13HbInputButton @ 1532 NONAME
	_ZN25HbInputButtonGroupPrivate17updateTextLayoutsERK6QSizeF @ 1533 NONAME
	_ZN25HbInputButtonGroupPrivate19updateCustomActionsEv @ 1534 NONAME
	_ZN25HbInputButtonGroupPrivate23createPrimaryTextLayoutEiRK5QHashIi7QStringERK6QSizeF @ 1535 NONAME
	_ZN25HbInputButtonGroupPrivate25createSecondaryTextLayoutEiRK5QHashIi7QStringERK6QSizeF @ 1536 NONAME
	_ZN25HbInputButtonGroupPrivate28calculateButtonProbabilitiesERK7QPointF @ 1537 NONAME
	_ZN25HbInputButtonGroupPrivate29createPrimarySingleTextLayoutEiRK5QHashIi7QStringERK6QSizeF @ 1538 NONAME
	_ZN25HbInputButtonGroupPrivate29showCharacterSelectionPreviewEP13HbInputButton @ 1539 NONAME
	_ZN25HbInputButtonGroupPrivate8fontSizeENS_21HbInputButtonTextTypeE @ 1540 NONAME ABSENT
	_ZN25HbInputButtonGroupPrivate9moveEventERK7QPointFS2_ @ 1541 NONAME
	_ZN25HbInputButtonGroupPrivateC1Ev @ 1542 NONAME
	_ZN25HbInputButtonGroupPrivateC2Ev @ 1543 NONAME
	_ZN25HbInputButtonGroupPrivateD0Ev @ 1544 NONAME
	_ZN25HbInputButtonGroupPrivateD1Ev @ 1545 NONAME
	_ZN25HbInputButtonGroupPrivateD2Ev @ 1546 NONAME
	_ZNK13HbInputButton10autoRepeatEv @ 1547 NONAME
	_ZNK13HbInputButton10metaObjectEv @ 1548 NONAME
	_ZNK13HbInputButton12boundingRectEv @ 1549 NONAME
	_ZNK13HbInputButton16mappedCharactersEv @ 1550 NONAME
	_ZNK13HbInputButton4iconENS_22HbInputButtonIconIndexE @ 1551 NONAME
	_ZNK13HbInputButton4sizeEv @ 1552 NONAME
	_ZNK13HbInputButton4textENS_22HbInputButtonTextIndexE @ 1553 NONAME
	_ZNK13HbInputButton4typeEv @ 1554 NONAME
	_ZNK13HbInputButton5iconsEv @ 1555 NONAME
	_ZNK13HbInputButton5stateEv @ 1556 NONAME
	_ZNK13HbInputButton5textsEv @ 1557 NONAME
	_ZNK13HbInputButton7keyCodeEv @ 1558 NONAME
	_ZNK13HbInputButton8positionEv @ 1559 NONAME
	_ZNK13HbSctKeyboard10metaObjectEv @ 1560 NONAME
	_ZNK13HbSctKeyboard12keyboardTypeEv @ 1561 NONAME
	_ZNK16HbInputVkbWidget11contentItemEv @ 1562 NONAME
	_ZNK18HbInputButtonGroup10metaObjectEv @ 1563 NONAME
	_ZNK18HbInputButtonGroup16buttonBorderSizeEv @ 1564 NONAME
	_ZNK18HbInputButtonGroup19buttonProbabilitiesEv @ 1565 NONAME
	_ZNK18HbInputButtonGroup19customButtonActionsEv @ 1566 NONAME
	_ZNK18HbInputButtonGroup19isMultiTouchEnabledEv @ 1567 NONAME
	_ZNK18HbInputButtonGroup22isButtonPreviewEnabledEv @ 1568 NONAME
	_ZNK18HbInputButtonGroup34isCharacterSelectionPreviewEnabledEv @ 1569 NONAME
	_ZNK18HbInputButtonGroup6buttonEN13HbInputButton20HbInputButtonKeyCodeE @ 1570 NONAME
	_ZNK18HbInputButtonGroup6buttonEi @ 1571 NONAME
	_ZNK18HbInputButtonGroup6buttonEii @ 1572 NONAME
	_ZNK18HbInputButtonGroup7buttonsEv @ 1573 NONAME
	_ZNK18HbInputButtonGroup8gridSizeEv @ 1574 NONAME
	_ZNK18HbInputButtonGroup9isEnabledEv @ 1575 NONAME
	_ZTI13HbInputButton @ 1576 NONAME
	_ZTI13HbSctKeyboard @ 1577 NONAME
	_ZTI18HbInputButtonGroup @ 1578 NONAME
	_ZTI20HbSctKeyboardPrivate @ 1579 NONAME
	_ZTI25HbInputButtonGroupPrivate @ 1580 NONAME
	_ZTV13HbInputButton @ 1581 NONAME
	_ZTV13HbSctKeyboard @ 1582 NONAME
	_ZTV18HbInputButtonGroup @ 1583 NONAME
	_ZTV20HbSctKeyboardPrivate @ 1584 NONAME
	_ZTV25HbInputButtonGroupPrivate @ 1585 NONAME
	_ZThn16_N13HbSctKeyboardD0Ev @ 1586 NONAME
	_ZThn16_N13HbSctKeyboardD1Ev @ 1587 NONAME
	_ZThn16_N18HbInputButtonGroup11setGeometryERK6QRectF @ 1588 NONAME
	_ZThn16_N18HbInputButtonGroupD0Ev @ 1589 NONAME
	_ZThn16_N18HbInputButtonGroupD1Ev @ 1590 NONAME
	_ZThn28_N13HbSctKeyboard21preferredKeyboardSizeEv @ 1591 NONAME
	_ZThn28_N13HbSctKeyboardD0Ev @ 1592 NONAME
	_ZThn28_N13HbSctKeyboardD1Ev @ 1593 NONAME
	_ZThn28_NK13HbSctKeyboard12keyboardTypeEv @ 1594 NONAME
	_ZThn8_N13HbSctKeyboardD0Ev @ 1595 NONAME
	_ZThn8_N13HbSctKeyboardD1Ev @ 1596 NONAME
	_ZThn8_N18HbInputButtonGroup10sceneEventEP6QEvent @ 1597 NONAME
	_ZThn8_N18HbInputButtonGroup5paintEP8QPainterPK24QStyleOptionGraphicsItemP7QWidget @ 1598 NONAME
	_ZThn8_N18HbInputButtonGroupD0Ev @ 1599 NONAME
	_ZThn8_N18HbInputButtonGroupD1Ev @ 1600 NONAME
	_ZN15HbCandidateList12populateListERK11QStringListb @ 1601 NONAME
	_ZN15HbCandidateList22launchSpellQueryDialogEv @ 1602 NONAME
	_ZN23HbInputVkbWidgetPrivate25numberCharacterBoundToKeyEi @ 1603 NONAME
	_ZN23HbInputVkbWidgetPrivate30showInputMethodSelectionDialogEv @ 1604 NONAME ABSENT
	_ZN23HbInputVkbWidgetPrivate37_q_inputMethodSelectionDialogFinishedEP8HbAction @ 1605 NONAME ABSENT
	_ZN16HbInputVkbWidget27aboutToActivateCustomActionEP8HbAction @ 1606 NONAME
	_ZN18HbInputButtonGroup27aboutToActivateCustomActionEP8HbAction @ 1607 NONAME
	_ZN23HbInputVkbWidgetPrivate21_q_handleRockerChangeEiN20HbInputVirtualRocker19RockerSelectionModeE @ 1608 NONAME ABSENT
	_ZN16HbInputVkbWidget14rockerPositionEv @ 1609 NONAME
	_ZN18HbInputButtonGroup8fontSizeENS_21HbInputButtonTextTypeE @ 1610 NONAME
	_ZN25HbInputButtonGroupPrivate14layoutTextLineEN18HbInputButtonGroup21HbInputButtonTextTypeEPK13HbInputButtonRK6QSizeFR9QTextLineS7_ @ 1611 NONAME
	_ZN25HbInputButtonGroupPrivate8fontSizeEN18HbInputButtonGroup21HbInputButtonTextTypeE @ 1612 NONAME
	_ZN23HbInputVkbWidgetPrivate17_q_settingsClosedEP8HbAction @ 1613 NONAME
	_ZN25HbInputButtonGroupPrivate24_q_customActionDestroyedEP7QObject @ 1614 NONAME
	_ZN20HbInputSettingWidget10dataChangeERK11QModelIndexS2_ @ 1615 NONAME
	_ZN20HbInputSettingWidget11resetWidgetEv @ 1616 NONAME
	_ZN26HbInputMethodSelectionList11qt_metacallEN11QMetaObject4CallEiPPv @ 1617 NONAME
	_ZN26HbInputMethodSelectionList11qt_metacastEPKc @ 1618 NONAME
	_ZN26HbInputMethodSelectionList16staticMetaObjectE @ 1619 NONAME DATA 16
	_ZN26HbInputMethodSelectionList19getStaticMetaObjectEv @ 1620 NONAME
	_ZN26HbInputMethodSelectionList19inputMethodSelectedERK23HbInputMethodDescriptorRK10QByteArray @ 1621 NONAME
	_ZN26HbInputMethodSelectionList22activateSelectedMethodEP16HbListWidgetItem @ 1622 NONAME
	_ZN26HbInputMethodSelectionListC1EP15QGraphicsWidget @ 1623 NONAME
	_ZN26HbInputMethodSelectionListC2EP15QGraphicsWidget @ 1624 NONAME
	_ZN26HbInputMethodSelectionListD0Ev @ 1625 NONAME
	_ZN26HbInputMethodSelectionListD1Ev @ 1626 NONAME
	_ZN26HbInputMethodSelectionListD2Ev @ 1627 NONAME
	_ZNK26HbInputMethodSelectionList10metaObjectEv @ 1628 NONAME
	_ZTI26HbInputMethodSelectionList @ 1629 NONAME
	_ZTV26HbInputMethodSelectionList @ 1630 NONAME
	_ZThn16_N26HbInputMethodSelectionListD0Ev @ 1631 NONAME
	_ZThn16_N26HbInputMethodSelectionListD1Ev @ 1632 NONAME
	_ZThn8_N26HbInputMethodSelectionListD0Ev @ 1633 NONAME
	_ZThn8_N26HbInputMethodSelectionListD1Ev @ 1634 NONAME
	_ZN23HbInputVkbWidgetPrivate22_q_activateInputMethodERK23HbInputMethodDescriptorRK10QByteArray @ 1635 NONAME
	_ZN18HbInputSettingList12aboutToCloseEv @ 1636 NONAME
	_ZN18HbInputSettingList13closeSettingsERK23HbInputMethodDescriptorRK10QByteArray @ 1637 NONAME
	_ZN18HbInputSettingList19inputMethodSelectedERK23HbInputMethodDescriptorRK10QByteArray @ 1638 NONAME
	_ZN20HbInputSettingWidget14setCangjieModeEi @ 1639 NONAME
	_ZN20HbInputSettingWidget21resetChineseInputModeEv @ 1640 NONAME
	_ZN20HbInputSettingWidget22setPortraitInputMethodEi @ 1641 NONAME
	_ZN20HbInputSettingWidget23setLandscapeInputMethodEi @ 1642 NONAME
	_ZN20HbInputSettingWidget11setHwrSpeedEi @ 1643 NONAME
	_ZN23HbInputVkbWidgetPrivate21_q_smileyPickerClosedEv @ 1644 NONAME
	_ZN25HbInputButtonGroupPrivate19layoutSecondaryTextEiP13HbInputButtonR13QFontMetricsFRK6QSizeFNS0_22HbInputButtonTextIndexENS0_22HbInputButtonIconIndexES7_S8_N18HbInputButtonGroup21HbInputButtonTextTypeE @ 1645 NONAME

