EXPORTS
	?findWidget@HbDocumentLoader@@QBEPAVQGraphicsWidget@@ABVQString@@@Z @ 1 NONAME ; class QGraphicsWidget * HbDocumentLoader::findWidget(class QString const &) const
	?tr@HbDocumentLoaderPlugin@@SA?AVQString@@PBD0@Z @ 2 NONAME ; class QString HbDocumentLoaderPlugin::tr(char const *, char const *)
	?getStaticMetaObject@HbDocumentLoaderPlugin@@SAABUQMetaObject@@XZ @ 3 NONAME ; struct QMetaObject const & HbDocumentLoaderPlugin::getStaticMetaObject(void)
	?findObject@HbDocumentLoader@@QBEPAVQObject@@ABVQString@@@Z @ 4 NONAME ; class QObject * HbDocumentLoader::findObject(class QString const &) const
	?metaObject@HbDocumentLoaderPlugin@@UBEPBUQMetaObject@@XZ @ 5 NONAME ; struct QMetaObject const * HbDocumentLoaderPlugin::metaObject(void) const
	?tr@HbDocumentLoaderPlugin@@SA?AVQString@@PBD0H@Z @ 6 NONAME ; class QString HbDocumentLoaderPlugin::tr(char const *, char const *, int)
	?qt_metacast@HbDocumentLoaderPlugin@@UAEPAXPBD@Z @ 7 NONAME ; void * HbDocumentLoaderPlugin::qt_metacast(char const *)
	?d_func@HbDocumentLoader@@ABEPBVHbDocumentLoaderPrivate@@XZ @ 8 NONAME ; class HbDocumentLoaderPrivate const * HbDocumentLoader::d_func(void) const
	?setObjectTree@HbDocumentLoader@@QAE_NV?$QList@PAVQObject@@@@@Z @ 9 NONAME ; bool HbDocumentLoader::setObjectTree(class QList<class QObject *>)
	?reset@HbDocumentLoader@@QAEXXZ @ 10 NONAME ; void HbDocumentLoader::reset(void)
	?d_func@HbDocumentLoader@@AAEPAVHbDocumentLoaderPrivate@@XZ @ 11 NONAME ; class HbDocumentLoaderPrivate * HbDocumentLoader::d_func(void)
	??1HbDocumentLoader@@UAE@XZ @ 12 NONAME ; HbDocumentLoader::~HbDocumentLoader(void)
	?load@HbDocumentLoader@@QAE?AV?$QList@PAVQObject@@@@PAVQIODevice@@PA_N@Z @ 13 NONAME ; class QList<class QObject *> HbDocumentLoader::load(class QIODevice *, bool *)
	?trUtf8@HbDocumentLoaderPlugin@@SA?AVQString@@PBD0@Z @ 14 NONAME ; class QString HbDocumentLoaderPlugin::trUtf8(char const *, char const *)
	??_EHbDocumentLoader@@UAE@I@Z @ 15 NONAME ; HbDocumentLoader::~HbDocumentLoader(unsigned int)
	?qt_metacall@HbDocumentLoaderPlugin@@UAEHW4Call@QMetaObject@@HPAPAX@Z @ 16 NONAME ; int HbDocumentLoaderPlugin::qt_metacall(enum QMetaObject::Call, int, void * *)
	?createObject@HbDocumentLoader@@MAEPAVQObject@@ABVQString@@0@Z @ 17 NONAME ; class QObject * HbDocumentLoader::createObject(class QString const &, class QString const &)
	?load@HbDocumentLoader@@QAE?AV?$QList@PAVQObject@@@@ABVQString@@0PA_N@Z @ 18 NONAME ; class QList<class QObject *> HbDocumentLoader::load(class QString const &, class QString const &, bool *)
	?load@HbDocumentLoader@@QAE?AV?$QList@PAVQObject@@@@PAVQIODevice@@ABVQString@@PA_N@Z @ 19 NONAME ; class QList<class QObject *> HbDocumentLoader::load(class QIODevice *, class QString const &, bool *)
	?version@HbDocumentLoader@@SA?AVQString@@XZ @ 20 NONAME ; class QString HbDocumentLoader::version(void)
	?load@HbDocumentLoader@@QAE?AV?$QList@PAVQObject@@@@ABVQString@@PA_N@Z @ 21 NONAME ; class QList<class QObject *> HbDocumentLoader::load(class QString const &, bool *)
	??0HbDocumentLoader@@QAE@XZ @ 22 NONAME ; HbDocumentLoader::HbDocumentLoader(void)
	?trUtf8@HbDocumentLoaderPlugin@@SA?AVQString@@PBD0H@Z @ 23 NONAME ; class QString HbDocumentLoaderPlugin::trUtf8(char const *, char const *, int)
	?staticMetaObject@HbDocumentLoaderPlugin@@2UQMetaObject@@B @ 24 NONAME ; struct QMetaObject const HbDocumentLoaderPlugin::staticMetaObject
	??0HbDocumentLoader@@QAE@PBVHbMainWindow@@@Z @ 25 NONAME ; HbDocumentLoader::HbDocumentLoader(class HbMainWindow const *)
	?createBinary@HbDocumentLoader@@QAE_NPAVQIODevice@@0@Z @ 26 NONAME ; bool HbDocumentLoader::createBinary(class QIODevice *, class QIODevice *)
	?themePath@HbThemeServices@@SA?BVQString@@XZ @ 27 NONAME ; class QString HbThemeServices::themePath(void)
	?setTheme@HbThemeServices@@SAXABVQString@@@Z @ 28 NONAME ; void HbThemeServices::setTheme(class QString const &)
	?availableThemes@HbThemeServices@@SA?BV?$QList@U?$QPair@VQString@@V1@@@@@XZ @ 29 NONAME ; class QList<struct QPair<class QString, class QString> > const HbThemeServices::availableThemes(void)

