EXPORTS
	_ZN10HbFontSpec12setFontDeltaERK5QFont @ 1 NONAME ABSENT
	_ZN10HbFontSpec12setPixelSizeEi @ 2 NONAME ABSENT
	_ZN10HbFontSpec12setPointSizeEi @ 3 NONAME ABSENT
	_ZN10HbFontSpec16staticMetaObjectE @ 4 NONAME DATA 16
	_ZN10HbFontSpec17setTextPaneHeightEf @ 5 NONAME ABSENT
	_ZN10HbFontSpec19getStaticMetaObjectEv @ 6 NONAME
	_ZN10HbFontSpec7setRoleENS_4RoleE @ 7 NONAME
	_ZN10HbFontSpecC1ENS_4RoleE @ 8 NONAME
	_ZN10HbFontSpecC1ERKS_ @ 9 NONAME
	_ZN10HbFontSpecC1Ev @ 10 NONAME
	_ZN10HbFontSpecC2ENS_4RoleE @ 11 NONAME
	_ZN10HbFontSpecC2ERKS_ @ 12 NONAME
	_ZN10HbFontSpecC2Ev @ 13 NONAME
	_ZN10HbFontSpecD1Ev @ 14 NONAME
	_ZN10HbFontSpecD2Ev @ 15 NONAME
	_ZN10HbFontSpecaSERKS_ @ 16 NONAME
	_ZN10HbGridView11dataChangedERK11QModelIndexS2_ @ 17 NONAME ABSENT
	_ZN10HbGridView11qt_metacallEN11QMetaObject4CallEiPPv @ 18 NONAME ABSENT
	_ZN10HbGridView11qt_metacastEPKc @ 19 NONAME ABSENT
	_ZN10HbGridView11rowsRemovedERK11QModelIndexii @ 20 NONAME ABSENT
	_ZN10HbGridView11setRowCountEi @ 21 NONAME ABSENT
	_ZN10HbGridView12rowsInsertedERK11QModelIndexii @ 22 NONAME ABSENT
	_ZN10HbGridView14mouseMoveEventEP24QGraphicsSceneMouseEvent @ 23 NONAME ABSENT
	_ZN10HbGridView14setColumnCountEi @ 24 NONAME ABSENT
	_ZN10HbGridView14setIconVisibleEb @ 25 NONAME ABSENT
	_ZN10HbGridView14setTextVisibleEb @ 26 NONAME ABSENT
	_ZN10HbGridView16staticMetaObjectE @ 27 NONAME DATA 16 ABSENT
	_ZN10HbGridView18orientationChangedEN2Qt11OrientationE @ 28 NONAME ABSENT
	_ZN10HbGridView19getStaticMetaObjectEv @ 29 NONAME ABSENT
	_ZN10HbGridView8scrollToERK11QModelIndex @ 30 NONAME ABSENT
	_ZN10HbGridViewC1EP13QGraphicsItem @ 31 NONAME ABSENT
	_ZN10HbGridViewC1ER17HbGridViewPrivateP23HbAbstractItemContainerP13QGraphicsItem @ 32 NONAME ABSENT
	_ZN10HbGridViewC2EP13QGraphicsItem @ 33 NONAME ABSENT
	_ZN10HbGridViewC2ER17HbGridViewPrivateP23HbAbstractItemContainerP13QGraphicsItem @ 34 NONAME ABSENT
	_ZN10HbGridViewD0Ev @ 35 NONAME ABSENT
	_ZN10HbGridViewD1Ev @ 36 NONAME ABSENT
	_ZN10HbGridViewD2Ev @ 37 NONAME ABSENT
	_ZN10HbIconItem10itemChangeEN13QGraphicsItem18GraphicsItemChangeERK8QVariant @ 38 NONAME
	_ZN10HbIconItem11defaultModeE @ 39 NONAME DATA 4
	_ZN10HbIconItem11setGeometryERK6QRectF @ 40 NONAME
	_ZN10HbIconItem11setIconNameERK7QString @ 41 NONAME
	_ZN10HbIconItem11setIconNameERK7QStringN5QIcon4ModeENS3_5StateE @ 42 NONAME
	_ZN10HbIconItem12defaultStateE @ 43 NONAME DATA 4
	_ZN10HbIconItem12setAlignmentE6QFlagsIN2Qt13AlignmentFlagEE @ 44 NONAME
	_ZN10HbIconItem14updateGeometryEv @ 45 NONAME ABSENT
	_ZN10HbIconItem16defaultAlignmentE @ 46 NONAME DATA 4
	_ZN10HbIconItem16setMirroringModeEN6HbIcon13MirroringModeE @ 47 NONAME
	_ZN10HbIconItem18setAspectRatioModeEN2Qt15AspectRatioModeE @ 48 NONAME
	_ZN10HbIconItem22defaultAspectRatioModeE @ 49 NONAME DATA 4
	_ZN10HbIconItem5paintEP8QPainterPK24QStyleOptionGraphicsItemP7QWidget @ 50 NONAME
	_ZN10HbIconItem7setIconERK6HbIcon @ 51 NONAME ABSENT
	_ZN10HbIconItem7setModeEN5QIcon4ModeE @ 52 NONAME
	_ZN10HbIconItem7setSizeERK6QSizeF @ 53 NONAME
	_ZN10HbIconItem8animatorEv @ 54 NONAME
	_ZN10HbIconItem8setBrushERK6QBrush @ 55 NONAME
	_ZN10HbIconItem8setFlagsE6QFlagsIN6HbIcon4FlagEE @ 56 NONAME
	_ZN10HbIconItem8setStateEN5QIcon5StateE @ 57 NONAME
	_ZN10HbIconItemC1EP13QGraphicsItem @ 58 NONAME
	_ZN10HbIconItemC1ER17HbIconItemPrivateP13QGraphicsItem @ 59 NONAME
	_ZN10HbIconItemC1ERK6HbIconP13QGraphicsItem @ 60 NONAME
	_ZN10HbIconItemC1ERK7QStringP13QGraphicsItem @ 61 NONAME
	_ZN10HbIconItemC2EP13QGraphicsItem @ 62 NONAME
	_ZN10HbIconItemC2ER17HbIconItemPrivateP13QGraphicsItem @ 63 NONAME
	_ZN10HbIconItemC2ERK6HbIconP13QGraphicsItem @ 64 NONAME
	_ZN10HbIconItemC2ERK7QStringP13QGraphicsItem @ 65 NONAME
	_ZN10HbIconItemD0Ev @ 66 NONAME
	_ZN10HbIconItemD1Ev @ 67 NONAME
	_ZN10HbIconItemD2Ev @ 68 NONAME
	_ZN10HbInstance14setOrientationEN2Qt11OrientationE @ 69 NONAME ABSENT
	_ZN10HbInstance18interactionManagerEv @ 70 NONAME ABSENT
	_ZN10HbInstance8instanceEv @ 71 NONAME
	_ZN10HbInstanceC1Ev @ 72 NONAME
	_ZN10HbInstanceC2Ev @ 73 NONAME
	_ZN10HbInstanceD1Ev @ 74 NONAME
	_ZN10HbInstanceD2Ev @ 75 NONAME
	_ZN10HbListView11dataChangedERK11QModelIndexS2_ @ 76 NONAME ABSENT
	_ZN10HbListView11qt_metacallEN11QMetaObject4CallEiPPv @ 77 NONAME ABSENT
	_ZN10HbListView11qt_metacastEPKc @ 78 NONAME ABSENT
	_ZN10HbListView11rowsRemovedERK11QModelIndexii @ 79 NONAME ABSENT
	_ZN10HbListView12rowsInsertedERK11QModelIndexii @ 80 NONAME ABSENT
	_ZN10HbListView13setCurrentRowEi @ 81 NONAME ABSENT
	_ZN10HbListView14mouseMoveEventEP24QGraphicsSceneMouseEvent @ 82 NONAME ABSENT
	_ZN10HbListView14setArrangeModeEb @ 83 NONAME ABSENT
	_ZN10HbListView15mousePressEventEP24QGraphicsSceneMouseEvent @ 84 NONAME ABSENT
	_ZN10HbListView16staticMetaObjectE @ 85 NONAME DATA 16 ABSENT
	_ZN10HbListView17mouseReleaseEventEP24QGraphicsSceneMouseEvent @ 86 NONAME ABSENT
	_ZN10HbListView19getStaticMetaObjectEv @ 87 NONAME ABSENT
	_ZN10HbListView4moveERK11QModelIndexS2_ @ 88 NONAME ABSENT
	_ZN10HbListView8scrollToERK11QModelIndex @ 89 NONAME ABSENT
	_ZN10HbListView9scrollingE7QPointF @ 90 NONAME ABSENT
	_ZN10HbListViewC1EP13QGraphicsItem @ 91 NONAME ABSENT
	_ZN10HbListViewC1ER17HbListViewPrivateP23HbAbstractItemContainerP13QGraphicsItem @ 92 NONAME ABSENT
	_ZN10HbListViewC2EP13QGraphicsItem @ 93 NONAME ABSENT
	_ZN10HbListViewC2ER17HbListViewPrivateP23HbAbstractItemContainerP13QGraphicsItem @ 94 NONAME ABSENT
	_ZN10HbListViewD0Ev @ 95 NONAME ABSENT
	_ZN10HbListViewD1Ev @ 96 NONAME ABSENT
	_ZN10HbListViewD2Ev @ 97 NONAME ABSENT
	_ZN10HbStyleOld10visualRectEN2Qt15LayoutDirectionERK6QRectFS4_ @ 98 NONAME ABSENT
	_ZN10HbStyleOld11qt_metacallEN11QMetaObject4CallEiPPv @ 99 NONAME ABSENT
	_ZN10HbStyleOld11qt_metacastEPKc @ 100 NONAME ABSENT
	_ZN10HbStyleOld16staticMetaObjectE @ 101 NONAME DATA 16 ABSENT
	_ZN10HbStyleOld19getStaticMetaObjectEv @ 102 NONAME ABSENT
	_ZN10HbStyleOldC1Ev @ 103 NONAME ABSENT
	_ZN10HbStyleOldC2Ev @ 104 NONAME ABSENT
	_ZN10HbStyleOldD0Ev @ 105 NONAME ABSENT
	_ZN10HbStyleOldD1Ev @ 106 NONAME ABSENT
	_ZN10HbStyleOldD2Ev @ 107 NONAME ABSENT
	_ZN10HbTextItem10setPaletteERK8QPalette @ 108 NONAME ABSENT
	_ZN10HbTextItem11changeEventEP6QEvent @ 109 NONAME
	_ZN10HbTextItem11setFontSpecERK10HbFontSpec @ 110 NONAME ABSENT
	_ZN10HbTextItem12setAlignmentE6QFlagsIN2Qt13AlignmentFlagEE @ 111 NONAME
	_ZN10HbTextItem12setElideModeEN2Qt13TextElideModeE @ 112 NONAME
	_ZN10HbTextItem12setTextColorERK6QColor @ 113 NONAME
	_ZN10HbTextItem12setTextFlagsEi @ 114 NONAME ABSENT
	_ZN10HbTextItem14setLogicalFontEN2Hb15LogicalFontNameE @ 115 NONAME ABSENT
	_ZN10HbTextItem18setLayoutDirectionEN2Qt15LayoutDirectionE @ 116 NONAME ABSENT
	_ZN10HbTextItem20unsetLayoutDirectionEv @ 117 NONAME ABSENT
	_ZN10HbTextItem5paintEP8QPainterPK24QStyleOptionGraphicsItemP7QWidget @ 118 NONAME
	_ZN10HbTextItem7setFontERK5QFont @ 119 NONAME ABSENT
	_ZN10HbTextItem7setTextERK7QString @ 120 NONAME
	_ZN10HbTextItemC1EP13QGraphicsItem @ 121 NONAME
	_ZN10HbTextItemC1ER17HbTextItemPrivateP13QGraphicsItem @ 122 NONAME
	_ZN10HbTextItemC1ERK7QStringP13QGraphicsItem @ 123 NONAME
	_ZN10HbTextItemC2EP13QGraphicsItem @ 124 NONAME
	_ZN10HbTextItemC2ER17HbTextItemPrivateP13QGraphicsItem @ 125 NONAME
	_ZN10HbTextItemC2ERK7QStringP13QGraphicsItem @ 126 NONAME
	_ZN10HbTextItemD0Ev @ 127 NONAME
	_ZN10HbTextItemD1Ev @ 128 NONAME
	_ZN10HbTextItemD2Ev @ 129 NONAME
	_ZN10HbTreeView11dataChangedERK11QModelIndexS2_ @ 130 NONAME ABSENT
	_ZN10HbTreeView11qt_metacallEN11QMetaObject4CallEiPPv @ 131 NONAME ABSENT
	_ZN10HbTreeView11qt_metacastEPKc @ 132 NONAME ABSENT
	_ZN10HbTreeView11rowsRemovedERK11QModelIndexii @ 133 NONAME ABSENT
	_ZN10HbTreeView11setExpandedERK11QModelIndexb @ 134 NONAME ABSENT
	_ZN10HbTreeView12rowsInsertedERK11QModelIndexii @ 135 NONAME ABSENT
	_ZN10HbTreeView14columnsRemovedERK11QModelIndexii @ 136 NONAME ABSENT
	_ZN10HbTreeView15columnsInsertedERK11QModelIndexii @ 137 NONAME ABSENT
	_ZN10HbTreeView16staticMetaObjectE @ 138 NONAME DATA 16 ABSENT
	_ZN10HbTreeView19getStaticMetaObjectEv @ 139 NONAME ABSENT
	_ZN10HbTreeView20rowsAboutToBeRemovedERK11QModelIndexii @ 140 NONAME ABSENT
	_ZN10HbTreeView23currentSelectionChangedERK14QItemSelectionS2_ @ 141 NONAME ABSENT
	_ZN10HbTreeView8scrollToERK11QModelIndex @ 142 NONAME ABSENT
	_ZN10HbTreeViewC1EP13QGraphicsItem @ 143 NONAME ABSENT
	_ZN10HbTreeViewC1ER17HbTreeViewPrivateP23HbAbstractItemContainerP13QGraphicsItem @ 144 NONAME ABSENT
	_ZN10HbTreeViewC2EP13QGraphicsItem @ 145 NONAME ABSENT
	_ZN10HbTreeViewC2ER17HbTreeViewPrivateP23HbAbstractItemContainerP13QGraphicsItem @ 146 NONAME ABSENT
	_ZN10HbTreeViewD0Ev @ 147 NONAME ABSENT
	_ZN10HbTreeViewD1Ev @ 148 NONAME ABSENT
	_ZN10HbTreeViewD2Ev @ 149 NONAME ABSENT
	_ZN11HbDecorator10itemChangeEN13QGraphicsItem18GraphicsItemChangeERK8QVariant @ 150 NONAME ABSENT
	_ZN11HbDecorator11changeEventEP6QEvent @ 151 NONAME ABSENT
	_ZN11HbDecorator11launchPopupERK7QPointF @ 152 NONAME ABSENT
	_ZN11HbDecorator11qt_metacallEN11QMetaObject4CallEiPPv @ 153 NONAME ABSENT
	_ZN11HbDecorator11qt_metacastEPKc @ 154 NONAME ABSENT
	_ZN11HbDecorator14mouseMoveEventEP24QGraphicsSceneMouseEvent @ 155 NONAME ABSENT
	_ZN11HbDecorator15mousePressEventEP24QGraphicsSceneMouseEvent @ 156 NONAME ABSENT
	_ZN11HbDecorator16staticMetaObjectE @ 157 NONAME DATA 16 ABSENT
	_ZN11HbDecorator17mouseReleaseEventEP24QGraphicsSceneMouseEvent @ 158 NONAME ABSENT
	_ZN11HbDecorator17visibilityChangedEv @ 159 NONAME ABSENT
	_ZN11HbDecorator19getStaticMetaObjectEv @ 160 NONAME ABSENT
	_ZN11HbDecoratorC1ENS_13DecoratorTypeEP13QGraphicsItem @ 161 NONAME ABSENT
	_ZN11HbDecoratorC1ER18HbDecoratorPrivateNS_13DecoratorTypeEP13QGraphicsItem @ 162 NONAME ABSENT
	_ZN11HbDecoratorC2ENS_13DecoratorTypeEP13QGraphicsItem @ 163 NONAME ABSENT
	_ZN11HbDecoratorC2ER18HbDecoratorPrivateNS_13DecoratorTypeEP13QGraphicsItem @ 164 NONAME ABSENT
	_ZN11HbDecoratorD0Ev @ 165 NONAME ABSENT
	_ZN11HbDecoratorD1Ev @ 166 NONAME ABSENT
	_ZN11HbDecoratorD2Ev @ 167 NONAME ABSENT
	_ZN11HbFrameItem11changeEventEP6QEvent @ 168 NONAME
	_ZN11HbFrameItem14setFrameDrawerEP13HbFrameDrawer @ 169 NONAME
	_ZN11HbFrameItem5paintEP8QPainterPK24QStyleOptionGraphicsItemP7QWidget @ 170 NONAME
	_ZN11HbFrameItemC1EP13HbFrameDrawerP13QGraphicsItem @ 171 NONAME
	_ZN11HbFrameItemC1EP13QGraphicsItem @ 172 NONAME
	_ZN11HbFrameItemC2EP13HbFrameDrawerP13QGraphicsItem @ 173 NONAME
	_ZN11HbFrameItemC2EP13QGraphicsItem @ 174 NONAME
	_ZN11HbFrameItemD0Ev @ 175 NONAME
	_ZN11HbFrameItemD1Ev @ 176 NONAME
	_ZN11HbFrameItemD2Ev @ 177 NONAME
	_ZN11HbIndicator10deactivateERK7QStringRK8QVariant @ 178 NONAME
	_ZN11HbIndicator11qt_metacallEN11QMetaObject4CallEiPPv @ 179 NONAME
	_ZN11HbIndicator11qt_metacastEPKc @ 180 NONAME
	_ZN11HbIndicator16staticMetaObjectE @ 181 NONAME DATA 16
	_ZN11HbIndicator19getStaticMetaObjectEv @ 182 NONAME
	_ZN11HbIndicator8activateERK7QStringRK8QVariant @ 183 NONAME
	_ZN11HbIndicatorC1EP7QObject @ 184 NONAME
	_ZN11HbIndicatorC1ER18HbIndicatorPrivateP7QObject @ 185 NONAME
	_ZN11HbIndicatorC2EP7QObject @ 186 NONAME
	_ZN11HbIndicatorC2ER18HbIndicatorPrivateP7QObject @ 187 NONAME
	_ZN11HbIndicatorD0Ev @ 188 NONAME
	_ZN11HbIndicatorD1Ev @ 189 NONAME
	_ZN11HbIndicatorD2Ev @ 190 NONAME
	_ZN11HbListModel10removeRowsEiiRK11QModelIndex @ 191 NONAME ABSENT
	_ZN11HbListModel11itemChangedEP16HbListWidgetItem @ 192 NONAME ABSENT
	_ZN11HbListModel11qt_metacallEN11QMetaObject4CallEiPPv @ 193 NONAME ABSENT
	_ZN11HbListModel11qt_metacastEPKc @ 194 NONAME ABSENT
	_ZN11HbListModel16staticMetaObjectE @ 195 NONAME DATA 16 ABSENT
	_ZN11HbListModel19getStaticMetaObjectEv @ 196 NONAME ABSENT
	_ZN11HbListModel4takeEi @ 197 NONAME ABSENT
	_ZN11HbListModel5clearEv @ 198 NONAME ABSENT
	_ZN11HbListModel6insertEiP16HbListWidgetItem @ 199 NONAME ABSENT
	_ZN11HbListModel7setDataERK11QModelIndexRK8QVarianti @ 200 NONAME ABSENT
	_ZN11HbListModel9appendRowEP16HbListWidgetItem @ 201 NONAME ABSENT
	_ZN11HbListModelC1EP7QObject @ 202 NONAME ABSENT
	_ZN11HbListModelC2EP7QObject @ 203 NONAME ABSENT
	_ZN11HbListModelD0Ev @ 204 NONAME ABSENT
	_ZN11HbListModelD1Ev @ 205 NONAME ABSENT
	_ZN11HbListModelD2Ev @ 206 NONAME ABSENT
	_ZN11HbPopupBase10closeEventEP11QCloseEvent @ 207 NONAME ABSENT
	_ZN11HbPopupBase10itemChangeEN13QGraphicsItem18GraphicsItemChangeERK8QVariant @ 208 NONAME ABSENT
	_ZN11HbPopupBase10setTimeoutENS_14DefaultTimeoutE @ 209 NONAME ABSENT
	_ZN11HbPopupBase10setTimeoutEi @ 210 NONAME ABSENT
	_ZN11HbPopupBase11aboutToHideEv @ 211 NONAME ABSENT
	_ZN11HbPopupBase11aboutToShowEv @ 212 NONAME ABSENT
	_ZN11HbPopupBase11qt_metacallEN11QMetaObject4CallEiPPv @ 213 NONAME ABSENT
	_ZN11HbPopupBase11qt_metacastEPKc @ 214 NONAME ABSENT
	_ZN11HbPopupBase11resizeEventEP25QGraphicsSceneResizeEvent @ 215 NONAME ABSENT
	_ZN11HbPopupBase12aboutToCloseEv @ 216 NONAME ABSENT
	_ZN11HbPopupBase13keyPressEventEP9QKeyEvent @ 217 NONAME ABSENT
	_ZN11HbPopupBase15mousePressEventEP24QGraphicsSceneMouseEvent @ 218 NONAME ABSENT
	_ZN11HbPopupBase16setDismissPolicyENS_13DismissPolicyE @ 219 NONAME ABSENT
	_ZN11HbPopupBase16staticMetaObjectE @ 220 NONAME DATA 16 ABSENT
	_ZN11HbPopupBase17mouseReleaseEventEP24QGraphicsSceneMouseEvent @ 221 NONAME ABSENT
	_ZN11HbPopupBase18setBackgroundFadedEb @ 222 NONAME ABSENT
	_ZN11HbPopupBase19getStaticMetaObjectEv @ 223 NONAME ABSENT
	_ZN11HbPopupBase4execEv @ 224 NONAME ABSENT
	_ZN11HbPopupBase5eventEP6QEvent @ 225 NONAME ABSENT
	_ZN11HbPopupBase8setModalEb @ 226 NONAME ABSENT
	_ZN11HbPopupBase9hideEventEP10QHideEvent @ 227 NONAME ABSENT
	_ZN11HbPopupBase9showEventEP10QShowEvent @ 228 NONAME ABSENT
	_ZN11HbPopupBaseC1EP13QGraphicsItem @ 229 NONAME ABSENT
	_ZN11HbPopupBaseC1ER18HbPopupBasePrivateP13QGraphicsItem @ 230 NONAME ABSENT
	_ZN11HbPopupBaseC2EP13QGraphicsItem @ 231 NONAME ABSENT
	_ZN11HbPopupBaseC2ER18HbPopupBasePrivateP13QGraphicsItem @ 232 NONAME ABSENT
	_ZN11HbPopupBaseD0Ev @ 233 NONAME ABSENT
	_ZN11HbPopupBaseD1Ev @ 234 NONAME ABSENT
	_ZN11HbPopupBaseD2Ev @ 235 NONAME ABSENT
	_ZN11HbScrollBar10deactivateEv @ 236 NONAME ABSENT
	_ZN11HbScrollBar10itemChangeEN13QGraphicsItem18GraphicsItemChangeERK8QVariant @ 237 NONAME
	_ZN11HbScrollBar10timerEventEP11QTimerEvent @ 238 NONAME
	_ZN11HbScrollBar11changeEventEP6QEvent @ 239 NONAME ABSENT
	_ZN11HbScrollBar11qt_metacallEN11QMetaObject4CallEiPPv @ 240 NONAME
	_ZN11HbScrollBar11qt_metacastEPKc @ 241 NONAME
	_ZN11HbScrollBar11setPageSizeEf @ 242 NONAME
	_ZN11HbScrollBar12valueChangedEfN2Qt11OrientationE @ 243 NONAME
	_ZN11HbScrollBar14mouseMoveEventEP24QGraphicsSceneMouseEvent @ 244 NONAME
	_ZN11HbScrollBar14setInteractiveEb @ 245 NONAME
	_ZN11HbScrollBar14setOrientationEN2Qt11OrientationE @ 246 NONAME
	_ZN11HbScrollBar14updateGeometryEv @ 247 NONAME
	_ZN11HbScrollBar15mousePressEventEP24QGraphicsSceneMouseEvent @ 248 NONAME
	_ZN11HbScrollBar16staticMetaObjectE @ 249 NONAME DATA 16
	_ZN11HbScrollBar16updatePrimitivesEv @ 250 NONAME
	_ZN11HbScrollBar17mouseReleaseEventEP24QGraphicsSceneMouseEvent @ 251 NONAME
	_ZN11HbScrollBar19getStaticMetaObjectEv @ 252 NONAME
	_ZN11HbScrollBar5eventEP6QEvent @ 253 NONAME
	_ZN11HbScrollBar8activateEv @ 254 NONAME ABSENT
	_ZN11HbScrollBar8setValueEf @ 255 NONAME
	_ZN11HbScrollBarC1EN2Qt11OrientationEP13QGraphicsItem @ 256 NONAME
	_ZN11HbScrollBarC1EP13QGraphicsItem @ 257 NONAME
	_ZN11HbScrollBarC2EN2Qt11OrientationEP13QGraphicsItem @ 258 NONAME
	_ZN11HbScrollBarC2EP13QGraphicsItem @ 259 NONAME
	_ZN11HbScrollBarD0Ev @ 260 NONAME
	_ZN11HbScrollBarD1Ev @ 261 NONAME
	_ZN11HbScrollBarD2Ev @ 262 NONAME
	_ZN11HbTouchArea11setGeometryERK6QRectF @ 263 NONAME
	_ZN11HbTouchArea14updateGeometryEv @ 264 NONAME
	_ZN11HbTouchArea5paintEP8QPainterPK24QStyleOptionGraphicsItemP7QWidget @ 265 NONAME
	_ZN11HbTouchArea7setSizeERK6QSizeF @ 266 NONAME
	_ZN11HbTouchAreaC1EP13QGraphicsItem @ 267 NONAME
	_ZN11HbTouchAreaC1ER18HbTouchAreaPrivateP13QGraphicsItem @ 268 NONAME
	_ZN11HbTouchAreaC2EP13QGraphicsItem @ 269 NONAME
	_ZN11HbTouchAreaC2ER18HbTouchAreaPrivateP13QGraphicsItem @ 270 NONAME
	_ZN11HbTouchAreaD0Ev @ 271 NONAME
	_ZN11HbTouchAreaD1Ev @ 272 NONAME
	_ZN11HbTouchAreaD2Ev @ 273 NONAME
	_ZN11HbUrlFilter6filterE5QChar @ 274 NONAME
	_ZN11HbUrlFilter8instanceEv @ 275 NONAME
	_ZN11HbUrlFilterC1Ev @ 276 NONAME
	_ZN11HbUrlFilterC2Ev @ 277 NONAME
	_ZN11HbUrlFilterD0Ev @ 278 NONAME
	_ZN11HbUrlFilterD1Ev @ 279 NONAME
	_ZN11HbUrlFilterD2Ev @ 280 NONAME
	_ZN12HbIconLoader10iconsExistERK7QStringRK11QStringList @ 281 NONAME
	_ZN12HbIconLoader11qt_metacallEN11QMetaObject4CallEiPPv @ 282 NONAME
	_ZN12HbIconLoader11qt_metacastEPKc @ 283 NONAME
	_ZN12HbIconLoader13setResolutionEi @ 284 NONAME
	_ZN12HbIconLoader16staticMetaObjectE @ 285 NONAME DATA 16
	_ZN12HbIconLoader19getStaticMetaObjectEv @ 286 NONAME
	_ZN12HbIconLoader19setSourceResolutionEi @ 287 NONAME
	_ZN12HbIconLoader21updateLayoutDirectionEv @ 288 NONAME
	_ZN12HbIconLoader23isAutomaticallyMirroredERK7QString @ 289 NONAME
	_ZN12HbIconLoader25applyResolutionCorrectionER6QSizeF @ 290 NONAME
	_ZN12HbIconLoader28defaultSizeAdjustmentChangedEv @ 291 NONAME
	_ZN12HbIconLoader6globalEv @ 292 NONAME
	_ZN12HbIconLoader7destroyEv @ 293 NONAME
	_ZN12HbIconLoader8loadIconERK7QStringNS_7PurposeERK6QSizeFN2Qt15AspectRatioModeEN5QIcon4ModeE6QFlagsINS_16IconLoaderOptionEEPP15HbIconAnimation @ 294 NONAME ABSENT
	_ZN12HbIconLoader9iconCacheEv @ 295 NONAME ABSENT
	_ZN12HbIconLoaderC1ERK7QStringP7QObject @ 296 NONAME
	_ZN12HbIconLoaderC2ERK7QStringP7QObject @ 297 NONAME
	_ZN12HbIconLoaderD0Ev @ 298 NONAME
	_ZN12HbIconLoaderD1Ev @ 299 NONAME
	_ZN12HbIconLoaderD2Ev @ 300 NONAME
	_ZN12HbInputUtils19createWrapperWidgetEP15QGraphicsWidget @ 301 NONAME
	_ZN12HbInputUtils19inputPluginInstanceERK7QString @ 302 NONAME ABSENT
	_ZN12HbInputUtils19isCaseSensitiveModeE6QFlagsI19HbInputModeTypeFlagE @ 303 NONAME
	_ZN12HbInputUtils21isRightToLeftLanguageERK15HbInputLanguage @ 304 NONAME ABSENT
	_ZN12HbInputUtils21localisedLanguageNameERK15HbInputLanguageR7QString @ 305 NONAME ABSENT
	_ZN12HbInputUtils22listCustomInputMethodsER17HbInputMethodListRK15HbInputLanguage @ 306 NONAME ABSENT
	_ZN12HbInputUtils23isCaseSensitiveLanguageERK15HbInputLanguage @ 307 NONAME ABSENT
	_ZN12HbInputUtils23isLatinAlphabetLanguageERK15HbInputLanguage @ 308 NONAME ABSENT
	_ZN12HbInputUtils25createGraphicsProxyWidgetEP7QWidget @ 309 NONAME
	_ZN12HbInputUtils25listAvailableInputPluginsER11QStringList @ 310 NONAME ABSENT
	_ZN12HbInputUtils27listSupportedInputLanguagesER5QListI15HbInputLanguageE @ 311 NONAME
	_ZN12HbInputUtils30isInputPluginInPermanentMemoryERK7QString @ 312 NONAME ABSENT
	_ZN12HbInputUtils30languageDatabasePluginInstanceERK7QStringS2_ @ 313 NONAME
	_ZN12HbInputUtils34findFirstNumberCharacterBoundToKeyE6QFlagsI18HbKeyboardTypeFlagEiP12HbKeyMapData16HbInputDigitType @ 314 NONAME ABSENT
	_ZN12HbInputUtils36listAvailableLanguageDatabasePluginsER11QStringListRK7QString @ 315 NONAME
	_ZN12HbKeyMapData10reserved_1Ev @ 316 NONAME ABSENT
	_ZN12HbKeyMapData10reserved_2Ev @ 317 NONAME ABSENT
	_ZN12HbKeyMapDataD0Ev @ 318 NONAME ABSENT
	_ZN12HbKeyMapDataD1Ev @ 319 NONAME ABSENT
	_ZN12HbKeyMapDataD2Ev @ 320 NONAME ABSENT
	_ZN12HbListWidget10insertItemEiP16HbListWidgetItem @ 321 NONAME ABSENT
	_ZN12HbListWidget10insertItemEiRK6HbIconRK7QString @ 322 NONAME ABSENT
	_ZN12HbListWidget10insertItemEiRK7QString @ 323 NONAME ABSENT
	_ZN12HbListWidget11longPressedEP16HbListWidgetItemRK7QPointF @ 324 NONAME ABSENT
	_ZN12HbListWidget11qt_metacallEN11QMetaObject4CallEiPPv @ 325 NONAME ABSENT
	_ZN12HbListWidget11qt_metacastEPKc @ 326 NONAME ABSENT
	_ZN12HbListWidget13setCurrentRowEi @ 327 NONAME ABSENT
	_ZN12HbListWidget14setArrangeModeEb @ 328 NONAME ABSENT
	_ZN12HbListWidget14setCurrentItemEP16HbListWidgetItem @ 329 NONAME ABSENT
	_ZN12HbListWidget16setItemPrototypeEP18HbAbstractViewItem @ 330 NONAME ABSENT
	_ZN12HbListWidget16staticMetaObjectE @ 331 NONAME DATA 16 ABSENT
	_ZN12HbListWidget17setItemPrototypesE5QListIP18HbAbstractViewItemE @ 332 NONAME ABSENT
	_ZN12HbListWidget19getStaticMetaObjectEv @ 333 NONAME ABSENT
	_ZN12HbListWidget20setListItemExpansionEb @ 334 NONAME ABSENT
	_ZN12HbListWidget26itemExpandAnimationTimeoutEf @ 335 NONAME ABSENT
	_ZN12HbListWidget4moveERK11QModelIndexS2_ @ 336 NONAME ABSENT
	_ZN12HbListWidget5clearEv @ 337 NONAME ABSENT
	_ZN12HbListWidget7addItemEP16HbListWidgetItem @ 338 NONAME ABSENT
	_ZN12HbListWidget7addItemERK6HbIconRK7QString @ 339 NONAME ABSENT
	_ZN12HbListWidget7addItemERK7QString @ 340 NONAME ABSENT
	_ZN12HbListWidget7pressedEP16HbListWidgetItem @ 341 NONAME ABSENT
	_ZN12HbListWidget7setIconEiRK6HbIcon @ 342 NONAME ABSENT
	_ZN12HbListWidget7setTextEiRK7QString @ 343 NONAME ABSENT
	_ZN12HbListWidget8releasedEP16HbListWidgetItem @ 344 NONAME ABSENT
	_ZN12HbListWidget8setModelEP18QAbstractItemModelP18HbAbstractViewItem @ 345 NONAME ABSENT
	_ZN12HbListWidget8takeItemEi @ 346 NONAME ABSENT
	_ZN12HbListWidget9activatedEP16HbListWidgetItem @ 347 NONAME ABSENT
	_ZN12HbListWidgetC1EP13QGraphicsItem @ 348 NONAME ABSENT
	_ZN12HbListWidgetC1ER19HbListWidgetPrivateP23HbAbstractItemContainerP13QGraphicsItem @ 349 NONAME ABSENT
	_ZN12HbListWidgetC2EP13QGraphicsItem @ 350 NONAME ABSENT
	_ZN12HbListWidgetC2ER19HbListWidgetPrivateP23HbAbstractItemContainerP13QGraphicsItem @ 351 NONAME ABSENT
	_ZN12HbListWidgetD0Ev @ 352 NONAME ABSENT
	_ZN12HbListWidgetD1Ev @ 353 NONAME ABSENT
	_ZN12HbListWidgetD2Ev @ 354 NONAME ABSENT
	_ZN12HbMainWindow10closeEventEP11QCloseEvent @ 355 NONAME
	_ZN12HbMainWindow10insertViewEiP15QGraphicsWidget @ 356 NONAME
	_ZN12HbMainWindow10removeViewEP15QGraphicsWidget @ 357 NONAME
	_ZN12HbMainWindow10removeViewEi @ 358 NONAME ABSENT
	_ZN12HbMainWindow11changeEventEP6QEvent @ 359 NONAME
	_ZN12HbMainWindow11qt_metacallEN11QMetaObject4CallEiPPv @ 360 NONAME
	_ZN12HbMainWindow11qt_metacastEPKc @ 361 NONAME
	_ZN12HbMainWindow11resizeEventEP12QResizeEvent @ 362 NONAME
	_ZN12HbMainWindow13keyPressEventEP9QKeyEvent @ 363 NONAME
	_ZN12HbMainWindow14broadcastEventEi @ 364 NONAME
	_ZN12HbMainWindow14setCurrentViewEP6HbViewb @ 365 NONAME ABSENT
	_ZN12HbMainWindow14setItemVisibleEN2Hb9SceneItemEb @ 366 NONAME ABSENT
	_ZN12HbMainWindow14setOrientationEN2Qt11OrientationE @ 367 NONAME ABSENT
	_ZN12HbMainWindow15keyReleaseEventEP9QKeyEvent @ 368 NONAME
	_ZN12HbMainWindow16addSoftKeyActionEN2Hb9SoftKeyIdEP8HbAction @ 369 NONAME ABSENT
	_ZN12HbMainWindow16scrollContentsByEii @ 370 NONAME
	_ZN12HbMainWindow16staticMetaObjectE @ 371 NONAME DATA 16
	_ZN12HbMainWindow16unsetOrientationEv @ 372 NONAME ABSENT
	_ZN12HbMainWindow18currentViewChangedEP6HbView @ 373 NONAME
	_ZN12HbMainWindow18orientationChangedEN2Qt11OrientationE @ 374 NONAME
	_ZN12HbMainWindow19getStaticMetaObjectEv @ 375 NONAME
	_ZN12HbMainWindow19removeSoftKeyActionEN2Hb9SoftKeyIdEP8HbAction @ 376 NONAME ABSENT
	_ZN12HbMainWindow19setCurrentViewIndexEi @ 377 NONAME ABSENT
	_ZN12HbMainWindow23currentViewIndexChangedEi @ 378 NONAME ABSENT
	_ZN12HbMainWindow23setViewSwitchingEnabledEb @ 379 NONAME ABSENT
	_ZN12HbMainWindow24aboutToChangeOrientationEv @ 380 NONAME
	_ZN12HbMainWindow7addViewEP15QGraphicsWidget @ 381 NONAME
	_ZN12HbMainWindow9hideItemsE6QFlagsIN2Hb9SceneItemEE @ 382 NONAME ABSENT
	_ZN12HbMainWindow9showItemsE6QFlagsIN2Hb9SceneItemEE @ 383 NONAME ABSENT
	_ZN12HbMainWindowC1EP7QWidget6QFlagsIN2Hb10WindowFlagEE @ 384 NONAME
	_ZN12HbMainWindowC2EP7QWidget6QFlagsIN2Hb10WindowFlagEE @ 385 NONAME
	_ZN12HbMainWindowD0Ev @ 386 NONAME
	_ZN12HbMainWindowD1Ev @ 387 NONAME
	_ZN12HbMainWindowD2Ev @ 388 NONAME
	_ZN12HbScrollArea10itemChangeEN13QGraphicsItem18GraphicsItemChangeERK8QVariant @ 389 NONAME
	_ZN12HbScrollArea10panGestureERK7QPointF @ 390 NONAME
	_ZN12HbScrollArea11downGestureEi @ 391 NONAME
	_ZN12HbScrollArea11eventFilterEP7QObjectP6QEvent @ 392 NONAME
	_ZN12HbScrollArea11leftGestureEi @ 393 NONAME
	_ZN12HbScrollArea11qt_metacallEN11QMetaObject4CallEiPPv @ 394 NONAME
	_ZN12HbScrollArea11qt_metacastEPKc @ 395 NONAME
	_ZN12HbScrollArea12rightGestureEi @ 396 NONAME
	_ZN12HbScrollArea12setAlignmentE6QFlagsIN2Qt13AlignmentFlagEE @ 397 NONAME
	_ZN12HbScrollArea13ensureVisibleERK7QPointFff @ 398 NONAME
	_ZN12HbScrollArea13focusOutEventEP11QFocusEvent @ 399 NONAME
	_ZN12HbScrollArea14scrollByAmountERK7QPointF @ 400 NONAME
	_ZN12HbScrollArea14scrollingEndedEv @ 401 NONAME
	_ZN12HbScrollArea15mousePressEventEP24QGraphicsSceneMouseEvent @ 402 NONAME
	_ZN12HbScrollArea16longPressGestureERK7QPointF @ 403 NONAME
	_ZN12HbScrollArea16scrollContentsToERK7QPointFi @ 404 NONAME
	_ZN12HbScrollArea16scrollingStartedEv @ 405 NONAME
	_ZN12HbScrollArea16setClampingStyleENS_13ClampingStyleE @ 406 NONAME
	_ZN12HbScrollArea16setContentWidgetEP15QGraphicsWidget @ 407 NONAME
	_ZN12HbScrollArea16staticMetaObjectE @ 408 NONAME DATA 16
	_ZN12HbScrollArea17mouseReleaseEventEP24QGraphicsSceneMouseEvent @ 409 NONAME ABSENT
	_ZN12HbScrollArea17setScrollingStyleENS_14ScrollingStyleE @ 410 NONAME
	_ZN12HbScrollArea18setFrictionEnabledEb @ 411 NONAME
	_ZN12HbScrollArea19getStaticMetaObjectEv @ 412 NONAME
	_ZN12HbScrollArea19setLongPressEnabledEb @ 413 NONAME
	_ZN12HbScrollArea19setScrollDirectionsE6QFlagsIN2Qt11OrientationEE @ 414 NONAME
	_ZN12HbScrollArea20setVerticalScrollBarEP11HbScrollBar @ 415 NONAME
	_ZN12HbScrollArea21scrollPositionChangedE7QPointF @ 416 NONAME ABSENT
	_ZN12HbScrollArea22setHorizontalScrollBarEP11HbScrollBar @ 417 NONAME
	_ZN12HbScrollArea23scrollDirectionsChangedE6QFlagsIN2Qt11OrientationEE @ 418 NONAME
	_ZN12HbScrollArea25gestureSceneFilterChangedEP20HbGestureSceneFilter @ 419 NONAME ABSENT
	_ZN12HbScrollArea26setVerticalScrollBarPolicyENS_15ScrollBarPolicyE @ 420 NONAME
	_ZN12HbScrollArea28setHorizontalScrollBarPolicyENS_15ScrollBarPolicyE @ 421 NONAME
	_ZN12HbScrollArea5eventEP6QEvent @ 422 NONAME
	_ZN12HbScrollArea6polishER17HbStyleParameters @ 423 NONAME
	_ZN12HbScrollArea9upGestureEi @ 424 NONAME
	_ZN12HbScrollAreaC1EP13QGraphicsItem @ 425 NONAME
	_ZN12HbScrollAreaC1ER19HbScrollAreaPrivateP13QGraphicsItem @ 426 NONAME
	_ZN12HbScrollAreaC2EP13QGraphicsItem @ 427 NONAME
	_ZN12HbScrollAreaC2ER19HbScrollAreaPrivateP13QGraphicsItem @ 428 NONAME
	_ZN12HbScrollAreaD0Ev @ 429 NONAME
	_ZN12HbScrollAreaD1Ev @ 430 NONAME
	_ZN12HbScrollAreaD2Ev @ 431 NONAME
	_ZN12HbStringUtil15convertDigitsToE7QString9DigitType @ 432 NONAME
	_ZN12HbStringUtil16collationMethodsEv @ 433 NONAME ABSENT
	_ZN12HbStringUtil5copyCER7QStringRKS0_ @ 434 NONAME ABSENT
	_ZN12HbStringUtil5findCERK7QStringS2_i @ 435 NONAME
	_ZN12HbStringUtil5findFERK7QStringS2_ @ 436 NONAME
	_ZN12HbStringUtil6matchCERK7QStringS2_iiii6QFlagsINS_6OptionEEi @ 437 NONAME ABSENT
	_ZN12HbStringUtil6matchFERK7QStringS2_ @ 438 NONAME
	_ZN12HbStringUtil7collateEj @ 439 NONAME ABSENT
	_ZN12HbStringUtil8compareCERK7QStringS2_i6QFlagsINS_6OptionEEi @ 440 NONAME ABSENT
	_ZN12HbStringUtil8compareFERK7QStringS2_ @ 441 NONAME
	_ZN12HbToolButton11qt_metacallEN11QMetaObject4CallEiPPv @ 442 NONAME
	_ZN12HbToolButton11qt_metacastEPKc @ 443 NONAME
	_ZN12HbToolButton11resizeEventEP25QGraphicsSceneResizeEvent @ 444 NONAME
	_ZN12HbToolButton13setBackgroundERK6HbIcon @ 445 NONAME
	_ZN12HbToolButton14nextCheckStateEv @ 446 NONAME
	_ZN12HbToolButton15mousePressEventEP24QGraphicsSceneMouseEvent @ 447 NONAME ABSENT
	_ZN12HbToolButton16staticMetaObjectE @ 448 NONAME DATA 16
	_ZN12HbToolButton16updatePrimitivesEv @ 449 NONAME
	_ZN12HbToolButton17mouseReleaseEventEP24QGraphicsSceneMouseEvent @ 450 NONAME ABSENT
	_ZN12HbToolButton18setToolButtonStyleENS_15ToolButtonStyleE @ 451 NONAME ABSENT
	_ZN12HbToolButton19getStaticMetaObjectEv @ 452 NONAME
	_ZN12HbToolButton5eventEP6QEvent @ 453 NONAME
	_ZN12HbToolButton9setActionEP8HbAction @ 454 NONAME
	_ZN12HbToolButton9triggeredEP8HbAction @ 455 NONAME
	_ZN12HbToolButtonC1EP13QGraphicsItem @ 456 NONAME
	_ZN12HbToolButtonC1EP8HbActionP13QGraphicsItem @ 457 NONAME
	_ZN12HbToolButtonC1ER19HbToolButtonPrivateP13QGraphicsItem @ 458 NONAME
	_ZN12HbToolButtonC2EP13QGraphicsItem @ 459 NONAME
	_ZN12HbToolButtonC2EP8HbActionP13QGraphicsItem @ 460 NONAME
	_ZN12HbToolButtonC2ER19HbToolButtonPrivateP13QGraphicsItem @ 461 NONAME
	_ZN12HbToolButtonD0Ev @ 462 NONAME
	_ZN12HbToolButtonD1Ev @ 463 NONAME
	_ZN12HbToolButtonD2Ev @ 464 NONAME
	_ZN12HbTreeLayout10insertItemEiP19QGraphicsLayoutItemi @ 465 NONAME ABSENT
	_ZN12HbTreeLayout10removeItemEP19QGraphicsLayoutItem @ 466 NONAME ABSENT
	_ZN12HbTreeLayout11setGeometryERK6QRectF @ 467 NONAME ABSENT
	_ZN12HbTreeLayout12setItemLevelEP19QGraphicsLayoutItemi @ 468 NONAME ABSENT
	_ZN12HbTreeLayout14setIndentationEf @ 469 NONAME ABSENT
	_ZN12HbTreeLayout7addItemEP19QGraphicsLayoutItemi @ 470 NONAME ABSENT
	_ZN12HbTreeLayout8removeAtEi @ 471 NONAME ABSENT
	_ZN12HbTreeLayoutC1EP19QGraphicsLayoutItem @ 472 NONAME ABSENT
	_ZN12HbTreeLayoutC2EP19QGraphicsLayoutItem @ 473 NONAME ABSENT
	_ZN12HbTreeLayoutD0Ev @ 474 NONAME ABSENT
	_ZN12HbTreeLayoutD1Ev @ 475 NONAME ABSENT
	_ZN12HbTreeLayoutD2Ev @ 476 NONAME ABSENT
	_ZN13HbApplication12forceRefreshEv @ 477 NONAME ABSENT
	_ZN13HbApplication14s60EventFilterEP8TWsEvent @ 478 NONAME ABSENT
	_ZN13HbApplicationC1ERiPPc @ 479 NONAME ABSENT
	_ZN13HbApplicationC2ERiPPc @ 480 NONAME ABSENT
	_ZN13HbApplicationD0Ev @ 481 NONAME
	_ZN13HbApplicationD1Ev @ 482 NONAME
	_ZN13HbApplicationD2Ev @ 483 NONAME
	_ZN13HbColorScheme5colorEPK15QGraphicsWidgetRK7QStringi @ 484 NONAME ABSENT
	_ZN13HbColorScheme5colorERK7QStringi @ 485 NONAME ABSENT
	_ZN13HbColorSchemeC1Ev @ 486 NONAME ABSENT
	_ZN13HbColorSchemeC2Ev @ 487 NONAME ABSENT
	_ZN13HbColorSchemeD1Ev @ 488 NONAME ABSENT
	_ZN13HbColorSchemeD2Ev @ 489 NONAME ABSENT
	_ZN13HbFrameDrawer12setFrameTypeENS_9FrameTypeE @ 490 NONAME
	_ZN13HbFrameDrawer12themeChangedEv @ 491 NONAME
	_ZN13HbFrameDrawer14setBorderWidthEf @ 492 NONAME
	_ZN13HbFrameDrawer15setBorderWidthsEff @ 493 NONAME
	_ZN13HbFrameDrawer15setBorderWidthsEffff @ 494 NONAME
	_ZN13HbFrameDrawer15setGraphicsItemEP13QGraphicsItem @ 495 NONAME
	_ZN13HbFrameDrawer16setFillWholeRectEb @ 496 NONAME
	_ZN13HbFrameDrawer16setMirroringModeEN6HbIcon13MirroringModeE @ 497 NONAME
	_ZN13HbFrameDrawer18setLayoutDirectionEN2Qt15LayoutDirectionE @ 498 NONAME
	_ZN13HbFrameDrawer20setFrameGraphicsNameERK7QString @ 499 NONAME
	_ZN13HbFrameDrawer21setFileNameSuffixListERK11QStringList @ 500 NONAME
	_ZN13HbFrameDrawer7setMaskERK7QPixmap @ 501 NONAME
	_ZN13HbFrameDrawer7setRectERK6QRectF @ 502 NONAME
	_ZN13HbFrameDrawerC1ERK7QStringNS_9FrameTypeE @ 503 NONAME ABSENT
	_ZN13HbFrameDrawerC1ERKS_ @ 504 NONAME
	_ZN13HbFrameDrawerC1Ev @ 505 NONAME ABSENT
	_ZN13HbFrameDrawerC2ERK7QStringNS_9FrameTypeE @ 506 NONAME ABSENT
	_ZN13HbFrameDrawerC2ERKS_ @ 507 NONAME
	_ZN13HbFrameDrawerC2Ev @ 508 NONAME ABSENT
	_ZN13HbFrameDrawerD1Ev @ 509 NONAME
	_ZN13HbFrameDrawerD2Ev @ 510 NONAME
	_ZN13HbFrameDraweraSERKS_ @ 511 NONAME
	_ZN13HbInputFilter11qt_metacallEN11QMetaObject4CallEiPPv @ 512 NONAME
	_ZN13HbInputFilter11qt_metacastEPKc @ 513 NONAME
	_ZN13HbInputFilter12filterStringERK7QStringRS0_ @ 514 NONAME
	_ZN13HbInputFilter16staticMetaObjectE @ 515 NONAME DATA 16
	_ZN13HbInputFilter19getStaticMetaObjectEv @ 516 NONAME
	_ZN13HbInputMethod11ModifyEventEb @ 517 NONAME ABSENT
	_ZN13HbInputMethod11qt_metacallEN11QMetaObject4CallEiPPv @ 518 NONAME
	_ZN13HbInputMethod11qt_metacastEPKc @ 519 NONAME
	_ZN13HbInputMethod11receiveTextERK7QString @ 520 NONAME ABSENT
	_ZN13HbInputMethod11unlockFocusEv @ 521 NONAME
	_ZN13HbInputMethod11updateStateEv @ 522 NONAME
	_ZN13HbInputMethod12forceUnfocusEv @ 523 NONAME
	_ZN13HbInputMethod12hasInputModeERK11HbInputMode @ 524 NONAME ABSENT
	_ZN13HbInputMethod12releaseFocusEv @ 525 NONAME ABSENT
	_ZN13HbInputMethod13activateStateERK12HbInputState @ 526 NONAME
	_ZN13HbInputMethod13contextSwitchEPS_ @ 527 NONAME ABSENT
	_ZN13HbInputMethod13editorDeletedEv @ 528 NONAME ABSENT
	_ZN13HbInputMethod13focusReceivedEv @ 529 NONAME
	_ZN13HbInputMethod14setFocusObjectEP18HbInputFocusObject @ 530 NONAME
	_ZN13HbInputMethod14setFocusWidgetEP7QWidget @ 531 NONAME
	_ZN13HbInputMethod14setHandleEventEb @ 532 NONAME ABSENT
	_ZN13HbInputMethod15setStateMachineEP19HbInputStateMachine @ 533 NONAME ABSENT
	_ZN13HbInputMethod15widgetDestroyedEP7QWidget @ 534 NONAME
	_ZN13HbInputMethod16staticMetaObjectE @ 535 NONAME DATA 16
	_ZN13HbInputMethod17activateNextStateE20HbInputStateModifier @ 536 NONAME ABSENT
	_ZN13HbInputMethod17activeInputMethodEv @ 537 NONAME
	_ZN13HbInputMethod18inputStateToEditorERK12HbInputState @ 538 NONAME
	_ZN13HbInputMethod18orientationChangedEN2Qt11OrientationE @ 539 NONAME
	_ZN13HbInputMethod19getStaticMetaObjectEv @ 540 NONAME
	_ZN13HbInputMethod19initializeFrameworkER12QApplication @ 541 NONAME
	_ZN13HbInputMethod19inputStateActivatedERK12HbInputState @ 542 NONAME
	_ZN13HbInputMethod19stateMachineRemovedEP19HbInputStateMachine @ 543 NONAME ABSENT
	_ZN13HbInputMethod20activateCustomMethodERK7QString @ 544 NONAME ABSENT
	_ZN13HbInputMethod20activateInputModeSetER7QVectorI11HbInputModeE @ 545 NONAME ABSENT
	_ZN13HbInputMethod20candidatePopupClosedEi @ 546 NONAME ABSENT
	_ZN13HbInputMethod20focusObjectDestroyedEPK18HbInputFocusObject @ 547 NONAME ABSENT
	_ZN13HbInputMethod20inputLanguageChangedERK15HbInputLanguage @ 548 NONAME
	_ZN13HbInputMethod23activeHwKeyboardChangedE6QFlagsI18HbKeyboardTypeFlagE @ 549 NONAME ABSENT
	_ZN13HbInputMethod24orientationAboutToChangeEv @ 550 NONAME
	_ZN13HbInputMethod26activeTouchKeyboardChangedE6QFlagsI18HbKeyboardTypeFlagE @ 551 NONAME ABSENT
	_ZN13HbInputMethod26globalInputLanguageChangedERK15HbInputLanguage @ 552 NONAME
	_ZN13HbInputMethod27predictiveInputStateChangedEi @ 553 NONAME ABSENT
	_ZN13HbInputMethod27showLanguageSelectionDialogEN7QLocale8LanguageE5QListI15HbInputLanguageE @ 554 NONAME ABSENT
	_ZN13HbInputMethod28displaySpecialCharacterTableEP7QObject @ 555 NONAME ABSENT
	_ZN13HbInputMethod28predictiveInputStatusChangedEi @ 556 NONAME ABSENT
	_ZN13HbInputMethod29secondaryInputLanguageChangedERK15HbInputLanguage @ 557 NONAME
	_ZN13HbInputMethod30showInputMethodSelectionDialogERK15HbInputLanguage @ 558 NONAME ABSENT
	_ZN13HbInputMethod34orientationContextSwitchInProgressEv @ 559 NONAME ABSENT
	_ZN13HbInputMethod35globalSecondaryInputLanguageChangedERK15HbInputLanguage @ 560 NONAME
	_ZN13HbInputMethod8newProxyEv @ 561 NONAME ABSENT
	_ZN13HbInputMethod8transferEPS_ @ 562 NONAME ABSENT
	_ZN13HbInputMethod9focusLostEv @ 563 NONAME ABSENT
	_ZN13HbInputMethod9lockFocusEv @ 564 NONAME
	_ZN13HbInputMethodC2Ev @ 565 NONAME
	_ZN13HbInputMethodD0Ev @ 566 NONAME
	_ZN13HbInputMethodD1Ev @ 567 NONAME
	_ZN13HbInputMethodD2Ev @ 568 NONAME
	_ZN13HbLayoutUtils10visualRectEN2Qt15LayoutDirectionER6QRectFRKS2_ @ 569 NONAME
	_ZN13HbLayoutUtils12addChildItemEP15QGraphicsLayoutP19QGraphicsLayoutItem @ 570 NONAME
	_ZN13HbLayoutUtils12parentWidgetEP15QGraphicsLayout @ 571 NONAME
	_ZN13HbLayoutUtils15visualDirectionEP15QGraphicsLayout @ 572 NONAME
	_ZN13HbLayoutUtils20reparentChildWidgetsEP15QGraphicsLayoutP15QGraphicsWidget @ 573 NONAME
	_ZN13HbStyleLoader4loadEP9QIODevice @ 574 NONAME ABSENT
	_ZN13HbStyleLoader4loadERK7QString @ 575 NONAME ABSENT
	_ZN13HbStyleLoader5clearEv @ 576 NONAME ABSENT
	_ZN13HbStyleLoader6unloadEi @ 577 NONAME ABSENT
	_ZN13HbStyleOptionC1ERKS_ @ 578 NONAME
	_ZN13HbStyleOptionC1Eii @ 579 NONAME
	_ZN13HbStyleOptionC2ERKS_ @ 580 NONAME
	_ZN13HbStyleOptionC2Eii @ 581 NONAME
	_ZN13HbStyleOptionD1Ev @ 582 NONAME
	_ZN13HbStyleOptionD2Ev @ 583 NONAME
	_ZN13HbViewPrivateC1Ev @ 584 NONAME
	_ZN13HbViewPrivateC2Ev @ 585 NONAME
	_ZN13HbViewPrivateD0Ev @ 586 NONAME
	_ZN13HbViewPrivateD1Ev @ 587 NONAME
	_ZN13HbViewPrivateD2Ev @ 588 NONAME
	_ZN14FreeBlocksList10initializeEP13QSharedMemoryiii @ 589 NONAME ABSENT
	_ZN14FreeBlocksList14memoryConsumedEv @ 590 NONAME ABSENT
	_ZN14FreeBlocksList3addEi @ 591 NONAME ABSENT
	_ZN14FreeBlocksList3getEv @ 592 NONAME ABSENT
	_ZN14FreeBlocksListC1Ev @ 593 NONAME ABSENT
	_ZN14FreeBlocksListC2Ev @ 594 NONAME ABSENT
	_ZN14FreeBlocksListD1Ev @ 595 NONAME ABSENT
	_ZN14FreeBlocksListD2Ev @ 596 NONAME ABSENT
	_ZN14HbAbstractItem10safeToCastEPK13QGraphicsItem @ 597 NONAME ABSENT
	_ZN14HbAbstractItem15sizeHintChangedEv @ 598 NONAME ABSENT
	_ZN14HbAbstractItem5eventEP6QEvent @ 599 NONAME ABSENT
	_ZN14HbAbstractItemC1EP13QGraphicsItem @ 600 NONAME ABSENT
	_ZN14HbAbstractItemC1ER21HbAbstractItemPrivateP13QGraphicsItem @ 601 NONAME ABSENT
	_ZN14HbAbstractItemC2EP13QGraphicsItem @ 602 NONAME ABSENT
	_ZN14HbAbstractItemC2ER21HbAbstractItemPrivateP13QGraphicsItem @ 603 NONAME ABSENT
	_ZN14HbAbstractItemD0Ev @ 604 NONAME ABSENT
	_ZN14HbAbstractItemD1Ev @ 605 NONAME ABSENT
	_ZN14HbAbstractItemD2Ev @ 606 NONAME ABSENT
	_ZN14HbAnchorLayout10invalidateEv @ 607 NONAME
	_ZN14HbAnchorLayout10removeItemEP19QGraphicsLayoutItem @ 608 NONAME
	_ZN14HbAnchorLayout11setGeometryERK6QRectF @ 609 NONAME
	_ZN14HbAnchorLayout12removeAnchorEP19QGraphicsLayoutItemN2Hb4EdgeES1_S3_ @ 610 NONAME
	_ZN14HbAnchorLayout8removeAtEi @ 611 NONAME
	_ZN14HbAnchorLayout9setAnchorEP19QGraphicsLayoutItemN2Hb4EdgeES1_S3_f @ 612 NONAME
	_ZN14HbAnchorLayoutC1EP19QGraphicsLayoutItem @ 613 NONAME
	_ZN14HbAnchorLayoutC2EP19QGraphicsLayoutItem @ 614 NONAME
	_ZN14HbAnchorLayoutD0Ev @ 615 NONAME
	_ZN14HbAnchorLayoutD1Ev @ 616 NONAME
	_ZN14HbAnchorLayoutD2Ev @ 617 NONAME
	_ZN14HbDeviceDialog11qt_metacallEN11QMetaObject4CallEiPPv @ 618 NONAME
	_ZN14HbDeviceDialog11qt_metacastEPKc @ 619 NONAME
	_ZN14HbDeviceDialog12dataReceivedE4QMapI7QString8QVariantE @ 620 NONAME
	_ZN14HbDeviceDialog13waitForClosedEN10QEventLoop17ProcessEventsFlagE @ 621 NONAME
	_ZN14HbDeviceDialog16staticMetaObjectE @ 622 NONAME DATA 16
	_ZN14HbDeviceDialog18deviceDialogClosedEv @ 623 NONAME
	_ZN14HbDeviceDialog19getStaticMetaObjectEv @ 624 NONAME
	_ZN14HbDeviceDialog4showERK7QStringRK4QMapIS0_8QVariantE @ 625 NONAME
	_ZN14HbDeviceDialog5errorEi @ 626 NONAME
	_ZN14HbDeviceDialog6cancelEv @ 627 NONAME
	_ZN14HbDeviceDialog6updateERK4QMapI7QString8QVariantE @ 628 NONAME
	_ZN14HbDeviceDialogC1E6QFlagsINS_16DeviceDialogFlagEEP7QObject @ 629 NONAME
	_ZN14HbDeviceDialogC1ER21HbDeviceDialogPrivate6QFlagsINS_16DeviceDialogFlagEEP7QObject @ 630 NONAME
	_ZN14HbDeviceDialogC2E6QFlagsINS_16DeviceDialogFlagEEP7QObject @ 631 NONAME
	_ZN14HbDeviceDialogC2ER21HbDeviceDialogPrivate6QFlagsINS_16DeviceDialogFlagEEP7QObject @ 632 NONAME
	_ZN14HbDeviceDialogD0Ev @ 633 NONAME
	_ZN14HbDeviceDialogD1Ev @ 634 NONAME
	_ZN14HbDeviceDialogD2Ev @ 635 NONAME
	_ZN14HbFontProvider11qt_metacallEN11QMetaObject4CallEiPPv @ 636 NONAME ABSENT
	_ZN14HbFontProvider11qt_metacastEPKc @ 637 NONAME ABSENT
	_ZN14HbFontProvider15setPhysicalFontEN10HbFontSpec4RoleERK5QFont @ 638 NONAME ABSENT
	_ZN14HbFontProvider15setPhysicalFontEN2Hb15LogicalFontNameERK5QFont @ 639 NONAME ABSENT
	_ZN14HbFontProvider16staticMetaObjectE @ 640 NONAME DATA 16 ABSENT
	_ZN14HbFontProvider19getStaticMetaObjectEv @ 641 NONAME ABSENT
	_ZN14HbFontProvider19physicalFontChangedEv @ 642 NONAME ABSENT
	_ZN14HbFontProviderC1EP7QObject @ 643 NONAME ABSENT
	_ZN14HbFontProviderC2EP7QObject @ 644 NONAME ABSENT
	_ZN14HbFontProviderD0Ev @ 645 NONAME ABSENT
	_ZN14HbFontProviderD1Ev @ 646 NONAME ABSENT
	_ZN14HbFontProviderD2Ev @ 647 NONAME ABSENT
	_ZN14HbGridViewItem10createItemEv @ 648 NONAME ABSENT
	_ZN14HbGridViewItem11qt_metacallEN11QMetaObject4CallEiPPv @ 649 NONAME ABSENT
	_ZN14HbGridViewItem11qt_metacastEPKc @ 650 NONAME ABSENT
	_ZN14HbGridViewItem16staticMetaObjectE @ 651 NONAME DATA 16 ABSENT
	_ZN14HbGridViewItem16updateChildItemsEv @ 652 NONAME ABSENT
	_ZN14HbGridViewItem16updatePrimitivesEv @ 653 NONAME ABSENT
	_ZN14HbGridViewItem19getStaticMetaObjectEv @ 654 NONAME ABSENT
	_ZN14HbGridViewItemC1EP13QGraphicsItem @ 655 NONAME ABSENT
	_ZN14HbGridViewItemC1ER21HbGridViewItemPrivateP13QGraphicsItem @ 656 NONAME ABSENT
	_ZN14HbGridViewItemC1ERKS_ @ 657 NONAME ABSENT
	_ZN14HbGridViewItemC2EP13QGraphicsItem @ 658 NONAME ABSENT
	_ZN14HbGridViewItemC2ER21HbGridViewItemPrivateP13QGraphicsItem @ 659 NONAME ABSENT
	_ZN14HbGridViewItemC2ERKS_ @ 660 NONAME ABSENT
	_ZN14HbGridViewItemD0Ev @ 661 NONAME ABSENT
	_ZN14HbGridViewItemD1Ev @ 662 NONAME ABSENT
	_ZN14HbGridViewItemD2Ev @ 663 NONAME ABSENT
	_ZN14HbGridViewItemaSERKS_ @ 664 NONAME ABSENT
	_ZN14HbIconAnimator11qt_metacallEN11QMetaObject4CallEiPPv @ 665 NONAME
	_ZN14HbIconAnimator11qt_metacastEPKc @ 666 NONAME
	_ZN14HbIconAnimator13stopAnimationEv @ 667 NONAME
	_ZN14HbIconAnimator14startAnimationEv @ 668 NONAME
	_ZN14HbIconAnimator15setGraphicsItemEP13QGraphicsItem @ 669 NONAME
	_ZN14HbIconAnimator16animationStartedEv @ 670 NONAME
	_ZN14HbIconAnimator16animationStoppedEv @ 671 NONAME
	_ZN14HbIconAnimator16staticMetaObjectE @ 672 NONAME DATA 16
	_ZN14HbIconAnimator17animationFinishedEv @ 673 NONAME
	_ZN14HbIconAnimator19animationProgressedEv @ 674 NONAME
	_ZN14HbIconAnimator19getStaticMetaObjectEv @ 675 NONAME
	_ZN14HbIconAnimatorC1EP12HbIconEngine @ 676 NONAME ABSENT
	_ZN14HbIconAnimatorC2EP12HbIconEngine @ 677 NONAME ABSENT
	_ZN14HbIconAnimatorD0Ev @ 678 NONAME
	_ZN14HbIconAnimatorD1Ev @ 679 NONAME
	_ZN14HbIconAnimatorD2Ev @ 680 NONAME
	_ZN14HbListViewItem10createItemEv @ 681 NONAME ABSENT
	_ZN14HbListViewItem11qt_metacallEN11QMetaObject4CallEiPPv @ 682 NONAME ABSENT
	_ZN14HbListViewItem11qt_metacastEPKc @ 683 NONAME ABSENT
	_ZN14HbListViewItem16staticMetaObjectE @ 684 NONAME DATA 16 ABSENT
	_ZN14HbListViewItem16updateChildItemsEv @ 685 NONAME ABSENT
	_ZN14HbListViewItem19getStaticMetaObjectEv @ 686 NONAME ABSENT
	_ZN14HbListViewItemC1EP13QGraphicsItem @ 687 NONAME ABSENT
	_ZN14HbListViewItemC1ER21HbListViewItemPrivateP13QGraphicsItem @ 688 NONAME ABSENT
	_ZN14HbListViewItemC1ERKS_ @ 689 NONAME ABSENT
	_ZN14HbListViewItemC2EP13QGraphicsItem @ 690 NONAME ABSENT
	_ZN14HbListViewItemC2ER21HbListViewItemPrivateP13QGraphicsItem @ 691 NONAME ABSENT
	_ZN14HbListViewItemC2ERKS_ @ 692 NONAME ABSENT
	_ZN14HbListViewItemD0Ev @ 693 NONAME ABSENT
	_ZN14HbListViewItemD1Ev @ 694 NONAME ABSENT
	_ZN14HbListViewItemD2Ev @ 695 NONAME ABSENT
	_ZN14HbListViewItemaSERKS_ @ 696 NONAME ABSENT
	_ZN14HbPopupPrivate4initEv @ 697 NONAME
	_ZN14HbPopupPrivate8doLayoutEv @ 698 NONAME ABSENT
	_ZN14HbPopupPrivate9setWidgetEiRP15QGraphicsWidgetS1_ @ 699 NONAME ABSENT
	_ZN14HbPopupPrivateC1Ev @ 700 NONAME
	_ZN14HbPopupPrivateC2Ev @ 701 NONAME
	_ZN14HbPopupPrivateD0Ev @ 702 NONAME
	_ZN14HbPopupPrivateD1Ev @ 703 NONAME
	_ZN14HbPopupPrivateD2Ev @ 704 NONAME
	_ZN14HbRichTextItem12setAlignmentE6QFlagsIN2Qt13AlignmentFlagEE @ 705 NONAME
	_ZN14HbRichTextItem12setTextFlagsEi @ 706 NONAME ABSENT
	_ZN14HbRichTextItem18setLayoutDirectionEN2Qt15LayoutDirectionE @ 707 NONAME ABSENT
	_ZN14HbRichTextItem5paintEP8QPainterPK24QStyleOptionGraphicsItemP7QWidget @ 708 NONAME
	_ZN14HbRichTextItem7setFontERK5QFont @ 709 NONAME ABSENT
	_ZN14HbRichTextItem7setTextERK7QString @ 710 NONAME
	_ZN14HbRichTextItemC1EP13QGraphicsItem @ 711 NONAME
	_ZN14HbRichTextItemC1ER21HbRichTextItemPrivateP13QGraphicsItem @ 712 NONAME
	_ZN14HbRichTextItemC1ERK7QStringP13QGraphicsItem @ 713 NONAME
	_ZN14HbRichTextItemC2EP13QGraphicsItem @ 714 NONAME
	_ZN14HbRichTextItemC2ER21HbRichTextItemPrivateP13QGraphicsItem @ 715 NONAME
	_ZN14HbRichTextItemC2ERK7QStringP13QGraphicsItem @ 716 NONAME
	_ZN14HbRichTextItemD0Ev @ 717 NONAME
	_ZN14HbRichTextItemD1Ev @ 718 NONAME
	_ZN14HbRichTextItemD2Ev @ 719 NONAME
	_ZN14HbTreeViewItem10createItemEv @ 720 NONAME ABSENT
	_ZN14HbTreeViewItem11qt_metacallEN11QMetaObject4CallEiPPv @ 721 NONAME ABSENT
	_ZN14HbTreeViewItem11qt_metacastEPKc @ 722 NONAME ABSENT
	_ZN14HbTreeViewItem11setExpandedEb @ 723 NONAME ABSENT
	_ZN14HbTreeViewItem15mousePressEventEP24QGraphicsSceneMouseEvent @ 724 NONAME ABSENT
	_ZN14HbTreeViewItem16staticMetaObjectE @ 725 NONAME DATA 16 ABSENT
	_ZN14HbTreeViewItem16updateChildItemsEv @ 726 NONAME ABSENT
	_ZN14HbTreeViewItem16updateExpandItemEv @ 727 NONAME ABSENT
	_ZN14HbTreeViewItem19getStaticMetaObjectEv @ 728 NONAME ABSENT
	_ZN14HbTreeViewItem8setStateERK4QMapIi8QVariantE @ 729 NONAME ABSENT
	_ZN14HbTreeViewItemC1EP13QGraphicsItem @ 730 NONAME ABSENT
	_ZN14HbTreeViewItemC1ER21HbTreeViewItemPrivateP13QGraphicsItem @ 731 NONAME ABSENT
	_ZN14HbTreeViewItemC1ERKS_ @ 732 NONAME ABSENT
	_ZN14HbTreeViewItemC2EP13QGraphicsItem @ 733 NONAME ABSENT
	_ZN14HbTreeViewItemC2ER21HbTreeViewItemPrivateP13QGraphicsItem @ 734 NONAME ABSENT
	_ZN14HbTreeViewItemC2ERKS_ @ 735 NONAME ABSENT
	_ZN14HbTreeViewItemD0Ev @ 736 NONAME ABSENT
	_ZN14HbTreeViewItemD1Ev @ 737 NONAME ABSENT
	_ZN14HbTreeViewItemD2Ev @ 738 NONAME ABSENT
	_ZN14HbTreeViewItemaSERKS_ @ 739 NONAME ABSENT
	_ZN14HbWidgetParamsC1ERKS_ @ 740 NONAME ABSENT
	_ZN14HbWidgetParamsC1Ev @ 741 NONAME ABSENT
	_ZN14HbWidgetParamsC2ERKS_ @ 742 NONAME ABSENT
	_ZN14HbWidgetParamsC2Ev @ 743 NONAME ABSENT
	_ZN14HbWidgetParamsD0Ev @ 744 NONAME ABSENT
	_ZN14HbWidgetParamsD1Ev @ 745 NONAME ABSENT
	_ZN14HbWidgetParamsD2Ev @ 746 NONAME ABSENT
	_ZN14HbWidgetParamsaSERS_ @ 747 NONAME ABSENT
	_ZN15HbDeviceProfile12profileNamesEv @ 748 NONAME
	_ZN15HbDeviceProfile7currentEv @ 749 NONAME
	_ZN15HbDeviceProfile7profileEPK12HbMainWindow @ 750 NONAME
	_ZN15HbDeviceProfile7profileEPK13QGraphicsItem @ 751 NONAME
	_ZN15HbDeviceProfileC1ERK7QString @ 752 NONAME
	_ZN15HbDeviceProfileC1ERKS_ @ 753 NONAME
	_ZN15HbDeviceProfileC1Ev @ 754 NONAME
	_ZN15HbDeviceProfileC2ERK7QString @ 755 NONAME
	_ZN15HbDeviceProfileC2ERKS_ @ 756 NONAME
	_ZN15HbDeviceProfileC2Ev @ 757 NONAME
	_ZN15HbDeviceProfileD1Ev @ 758 NONAME
	_ZN15HbDeviceProfileD2Ev @ 759 NONAME
	_ZN15HbDeviceProfileaSERKS_ @ 760 NONAME
	_ZN15HbGestureFilter10addGestureEP9HbGesture @ 761 NONAME ABSENT
	_ZN15HbGestureFilter11eventFilterEP7QObjectP6QEvent @ 762 NONAME ABSENT
	_ZN15HbGestureFilter11qt_metacallEN11QMetaObject4CallEiPPv @ 763 NONAME ABSENT
	_ZN15HbGestureFilter11qt_metacastEPKc @ 764 NONAME ABSENT
	_ZN15HbGestureFilter13removeGestureEP9HbGesture @ 765 NONAME ABSENT
	_ZN15HbGestureFilter16staticMetaObjectE @ 766 NONAME DATA 16 ABSENT
	_ZN15HbGestureFilter19getStaticMetaObjectEv @ 767 NONAME ABSENT
	_ZN15HbGestureFilterC1EN2Qt11MouseButtonEP7QObject @ 768 NONAME ABSENT
	_ZN15HbGestureFilterC2EN2Qt11MouseButtonEP7QObject @ 769 NONAME ABSENT
	_ZN15HbGestureFilterD0Ev @ 770 NONAME ABSENT
	_ZN15HbGestureFilterD1Ev @ 771 NONAME ABSENT
	_ZN15HbGestureFilterD2Ev @ 772 NONAME ABSENT
	_ZN15HbGraphicsScene11qt_metacallEN11QMetaObject4CallEiPPv @ 773 NONAME
	_ZN15HbGraphicsScene11qt_metacastEPKc @ 774 NONAME
	_ZN15HbGraphicsScene12focusInEventEP11QFocusEvent @ 775 NONAME
	_ZN15HbGraphicsScene13focusOutEventEP11QFocusEvent @ 776 NONAME
	_ZN15HbGraphicsScene15mousePressEventEP24QGraphicsSceneMouseEvent @ 777 NONAME
	_ZN15HbGraphicsScene16staticMetaObjectE @ 778 NONAME DATA 16
	_ZN15HbGraphicsScene19getStaticMetaObjectEv @ 779 NONAME
	_ZN15HbGraphicsScene5eventEP6QEvent @ 780 NONAME
	_ZN15HbGraphicsScene9drawItemsEP8QPainteriPP13QGraphicsItemPK24QStyleOptionGraphicsItemP7QWidget @ 781 NONAME
	_ZN15HbGraphicsScene9helpEventEP23QGraphicsSceneHelpEvent @ 782 NONAME
	_ZN15HbGraphicsSceneC1EP7QObject @ 783 NONAME
	_ZN15HbGraphicsSceneC2EP7QObject @ 784 NONAME
	_ZN15HbGraphicsSceneD0Ev @ 785 NONAME
	_ZN15HbGraphicsSceneD1Ev @ 786 NONAME
	_ZN15HbGraphicsSceneD2Ev @ 787 NONAME
	_ZN15HbInputLanguage13localisedNameEv @ 788 NONAME
	_ZN15HbItemHighlight11eventFilterEP7QObjectP6QEvent @ 789 NONAME ABSENT
	_ZN15HbItemHighlight11qt_metacallEN11QMetaObject4CallEiPPv @ 790 NONAME ABSENT
	_ZN15HbItemHighlight11qt_metacastEPKc @ 791 NONAME ABSENT
	_ZN15HbItemHighlight11setDurationEi @ 792 NONAME ABSENT
	_ZN15HbItemHighlight11setDurationEiNS_13HighlightModeE @ 793 NONAME ABSENT
	_ZN15HbItemHighlight14animateVisibleEP15QGraphicsWidget @ 794 NONAME ABSENT
	_ZN15HbItemHighlight16animateTransientEP15QGraphicsWidget @ 795 NONAME ABSENT
	_ZN15HbItemHighlight16setHighlightModeENS_13HighlightModeE @ 796 NONAME ABSENT
	_ZN15HbItemHighlight16staticMetaObjectE @ 797 NONAME DATA 16 ABSENT
	_ZN15HbItemHighlight19getStaticMetaObjectEv @ 798 NONAME ABSENT
	_ZN15HbItemHighlight5eventEP6QEvent @ 799 NONAME ABSENT
	_ZN15HbItemHighlight7restoreEP15QGraphicsWidget @ 800 NONAME ABSENT
	_ZN15HbItemHighlight9setTargetEP15QGraphicsWidget @ 801 NONAME ABSENT
	_ZN15HbItemHighlightC1ENS_13HighlightModeEP13QGraphicsItem @ 802 NONAME ABSENT
	_ZN15HbItemHighlightC1EP13QGraphicsItem @ 803 NONAME ABSENT
	_ZN15HbItemHighlightC2ENS_13HighlightModeEP13QGraphicsItem @ 804 NONAME ABSENT
	_ZN15HbItemHighlightC2EP13QGraphicsItem @ 805 NONAME ABSENT
	_ZN15HbItemHighlightD0Ev @ 806 NONAME ABSENT
	_ZN15HbItemHighlightD1Ev @ 807 NONAME ABSENT
	_ZN15HbItemHighlightD2Ev @ 808 NONAME ABSENT
	_ZN15HbKeyMapFactory13closeLanguageEi @ 809 NONAME ABSENT
	_ZN15HbKeyMapFactory13listLanguagesER7QVectorIiE @ 810 NONAME ABSENT
	_ZN15HbKeyMapFactory17closeAllLanguagesEv @ 811 NONAME ABSENT
	_ZN15HbKeyMapFactory21keymapDataForLanguageEi @ 812 NONAME ABSENT
	_ZN15HbKeyMapFactory34isKeyboardDataAvailableForLanguageEi6QFlagsI18HbKeyboardTypeFlagE @ 813 NONAME ABSENT
	_ZN15HbKeyMapFactory8instanceEv @ 814 NONAME ABSENT
	_ZN15HbKeyMapFactoryC1Ev @ 815 NONAME ABSENT
	_ZN15HbKeyMapFactoryC2Ev @ 816 NONAME ABSENT
	_ZN15HbKeyMapFactoryD1Ev @ 817 NONAME ABSENT
	_ZN15HbKeyMapFactoryD2Ev @ 818 NONAME ABSENT
	_ZN15HbMemoryManager15releaseInstanceENS_10MemoryTypeE @ 819 NONAME
	_ZN15HbMemoryManager8instanceENS_10MemoryTypeE @ 820 NONAME ABSENT
	_ZN15HbStackedLayout10insertItemEiP19QGraphicsLayoutItem @ 821 NONAME
	_ZN15HbStackedLayout10invalidateEv @ 822 NONAME
	_ZN15HbStackedLayout10removeItemEP19QGraphicsLayoutItem @ 823 NONAME
	_ZN15HbStackedLayout11setGeometryERK6QRectF @ 824 NONAME
	_ZN15HbStackedLayout7addItemEP19QGraphicsLayoutItem @ 825 NONAME
	_ZN15HbStackedLayout8removeAtEi @ 826 NONAME
	_ZN15HbStackedLayout9alignRectER6QRectFRKS0_ @ 827 NONAME
	_ZN15HbStackedLayoutC1EP19QGraphicsLayoutItem @ 828 NONAME
	_ZN15HbStackedLayoutC2EP19QGraphicsLayoutItem @ 829 NONAME
	_ZN15HbStackedLayoutD0Ev @ 830 NONAME
	_ZN15HbStackedLayoutD1Ev @ 831 NONAME
	_ZN15HbStackedLayoutD2Ev @ 832 NONAME
	_ZN15HbStackedWidget11qt_metacallEN11QMetaObject4CallEiPPv @ 833 NONAME
	_ZN15HbStackedWidget11qt_metacastEPKc @ 834 NONAME
	_ZN15HbStackedWidget11widgetAddedEi @ 835 NONAME
	_ZN15HbStackedWidget12insertWidgetEiP15QGraphicsWidget @ 836 NONAME
	_ZN15HbStackedWidget12removeWidgetEP15QGraphicsWidget @ 837 NONAME
	_ZN15HbStackedWidget13widgetRemovedEP15QGraphicsWidget @ 838 NONAME
	_ZN15HbStackedWidget13widgetRemovedEi @ 839 NONAME
	_ZN15HbStackedWidget14currentChangedEi @ 840 NONAME
	_ZN15HbStackedWidget15setCurrentIndexEi @ 841 NONAME
	_ZN15HbStackedWidget16setCurrentWidgetEP15QGraphicsWidget @ 842 NONAME
	_ZN15HbStackedWidget16staticMetaObjectE @ 843 NONAME DATA 16
	_ZN15HbStackedWidget19getStaticMetaObjectEv @ 844 NONAME
	_ZN15HbStackedWidget8removeAtEi @ 845 NONAME
	_ZN15HbStackedWidget9addWidgetEP15QGraphicsWidget @ 846 NONAME
	_ZN15HbStackedWidgetC1EP13QGraphicsItem @ 847 NONAME
	_ZN15HbStackedWidgetC2EP13QGraphicsItem @ 848 NONAME
	_ZN15HbStackedWidgetD0Ev @ 849 NONAME
	_ZN15HbStackedWidgetD1Ev @ 850 NONAME
	_ZN15HbStackedWidgetD2Ev @ 851 NONAME
	_ZN15HbWidgetPrivate15fontChangeEventEv @ 852 NONAME ABSENT
	_ZN15HbWidgetPrivate17setBackgroundTypeEN7HbStyle9PrimitiveE @ 853 NONAME ABSENT
	_ZN15HbWidgetPrivateC1Ev @ 854 NONAME
	_ZN15HbWidgetPrivateC2Ev @ 855 NONAME
	_ZN15HbWidgetPrivateD0Ev @ 856 NONAME
	_ZN15HbWidgetPrivateD1Ev @ 857 NONAME
	_ZN15HbWidgetPrivateD2Ev @ 858 NONAME
	_ZN16HbAbstractButton10setCheckedEb @ 859 NONAME
	_ZN16HbAbstractButton10timerEventEP11QTimerEvent @ 860 NONAME
	_ZN16HbAbstractButton11changeEventEP6QEvent @ 861 NONAME
	_ZN16HbAbstractButton11qt_metacallEN11QMetaObject4CallEiPPv @ 862 NONAME
	_ZN16HbAbstractButton11qt_metacastEPKc @ 863 NONAME
	_ZN16HbAbstractButton12animateClickEi @ 864 NONAME
	_ZN16HbAbstractButton12focusInEventEP11QFocusEvent @ 865 NONAME
	_ZN16HbAbstractButton12setCheckableEb @ 866 NONAME
	_ZN16HbAbstractButton13checkStateSetEv @ 867 NONAME
	_ZN16HbAbstractButton13keyPressEventEP9QKeyEvent @ 868 NONAME
	_ZN16HbAbstractButton13setAutoRepeatEb @ 869 NONAME
	_ZN16HbAbstractButton14mouseMoveEventEP24QGraphicsSceneMouseEvent @ 870 NONAME ABSENT
	_ZN16HbAbstractButton14nextCheckStateEv @ 871 NONAME
	_ZN16HbAbstractButton15keyReleaseEventEP9QKeyEvent @ 872 NONAME
	_ZN16HbAbstractButton15mousePressEventEP24QGraphicsSceneMouseEvent @ 873 NONAME ABSENT
	_ZN16HbAbstractButton16setAutoExclusiveEb @ 874 NONAME
	_ZN16HbAbstractButton16staticMetaObjectE @ 875 NONAME DATA 16
	_ZN16HbAbstractButton17mouseReleaseEventEP24QGraphicsSceneMouseEvent @ 876 NONAME ABSENT
	_ZN16HbAbstractButton18setAutoRepeatDelayEi @ 877 NONAME
	_ZN16HbAbstractButton19getStaticMetaObjectEv @ 878 NONAME
	_ZN16HbAbstractButton21setAutoRepeatIntervalEi @ 879 NONAME
	_ZN16HbAbstractButton5clickEv @ 880 NONAME
	_ZN16HbAbstractButton5eventEP6QEvent @ 881 NONAME
	_ZN16HbAbstractButton6toggleEv @ 882 NONAME
	_ZN16HbAbstractButton7clickedEb @ 883 NONAME
	_ZN16HbAbstractButton7pressedEv @ 884 NONAME
	_ZN16HbAbstractButton7setDownEb @ 885 NONAME
	_ZN16HbAbstractButton7toggledEb @ 886 NONAME
	_ZN16HbAbstractButton8releasedEv @ 887 NONAME
	_ZN16HbAbstractButtonC1EP13QGraphicsItem @ 888 NONAME
	_ZN16HbAbstractButtonC1ER23HbAbstractButtonPrivateP13QGraphicsItem @ 889 NONAME
	_ZN16HbAbstractButtonC2EP13QGraphicsItem @ 890 NONAME
	_ZN16HbAbstractButtonC2ER23HbAbstractButtonPrivateP13QGraphicsItem @ 891 NONAME
	_ZN16HbAbstractButtonD0Ev @ 892 NONAME
	_ZN16HbAbstractButtonD1Ev @ 893 NONAME
	_ZN16HbAbstractButtonD2Ev @ 894 NONAME
	_ZN16HbEffectInternal3addEP13QGraphicsItemRK7QStringS4_ @ 895 NONAME
	_ZN16HbEffectInternal3addERK7QStringS2_S2_ @ 896 NONAME
	_ZN16HbEffectInternal6removeEP13QGraphicsItem @ 897 NONAME
	_ZN16HbEffectInternal6removeEP13QGraphicsItemRK7QStringS4_ @ 898 NONAME
	_ZN16HbEffectInternal6removeERK7QStringS2_S2_ @ 899 NONAME
	_ZN16HbExtendedLocale11setWorkDaysE7QString @ 900 NONAME ABSENT
	_ZN16HbExtendedLocale11startOfWeekEv @ 901 NONAME ABSENT
	_ZN16HbExtendedLocale12setAmPmSpaceEb @ 902 NONAME
	_ZN16HbExtendedLocale12setDateStyleENS_9DateStyleE @ 903 NONAME
	_ZN16HbExtendedLocale12setTimeStyleENS_9TimeStyleE @ 904 NONAME
	_ZN16HbExtendedLocale12setZeroDigitE9DigitType @ 905 NONAME
	_ZN16HbExtendedLocale14formatCurrencyEx @ 906 NONAME
	_ZN16HbExtendedLocale15setDecimalPointE5QChar @ 907 NONAME
	_ZN16HbExtendedLocale15setUnitsGeneralEN7QLocale17MeasurementSystemE @ 908 NONAME
	_ZN16HbExtendedLocale16setCurrencySpaceEb @ 909 NONAME
	_ZN16HbExtendedLocale16setDateSeparatorE5QChari @ 910 NONAME
	_ZN16HbExtendedLocale16setTimeSeparatorE5QChari @ 911 NONAME
	_ZN16HbExtendedLocale16symbianLangToISOEi @ 912 NONAME
	_ZN16HbExtendedLocale17setCurrencySymbolE7QString @ 913 NONAME ABSENT
	_ZN16HbExtendedLocale17setGroupSeparatorE5QChar @ 914 NONAME
	_ZN16HbExtendedLocale19symbianDateTimeToQtERK7QString @ 915 NONAME
	_ZN16HbExtendedLocale20setUnitsDistanceLongEN7QLocale17MeasurementSystemE @ 916 NONAME
	_ZN16HbExtendedLocale21currencyTriadsAllowedEv @ 917 NONAME ABSENT
	_ZN16HbExtendedLocale21setAmPmSymbolPositionENS_9SymbolPosE @ 918 NONAME
	_ZN16HbExtendedLocale21setUnitsDistanceShortEN7QLocale17MeasurementSystemE @ 919 NONAME
	_ZN16HbExtendedLocale24setCurrencyDecimalPlacesEi @ 920 NONAME
	_ZN16HbExtendedLocale24setCurrencyTriadsAllowedEb @ 921 NONAME
	_ZN16HbExtendedLocale24setNegativeCurrencySpaceEb @ 922 NONAME
	_ZN16HbExtendedLocale25setCurrencySymbolPositionENS_9SymbolPosE @ 923 NONAME
	_ZN16HbExtendedLocale25setNegativeCurrencyFormatENS_22NegativeCurrencyFormatE @ 924 NONAME
	_ZN16HbExtendedLocale33setNegativeCurrencySymbolOppositeEb @ 925 NONAME
	_ZN16HbExtendedLocale6formatE5QDate7QString @ 926 NONAME ABSENT
	_ZN16HbExtendedLocale6formatE5QTime7QString @ 927 NONAME ABSENT
	_ZN16HbExtendedLocale6systemEv @ 928 NONAME
	_ZN16HbExtendedLocale8workDaysEv @ 929 NONAME ABSENT
	_ZN16HbExtendedLocaleC1Ev @ 930 NONAME
	_ZN16HbExtendedLocaleC2Ev @ 931 NONAME
	_ZN16HbInputModeCache11qt_metacallEN11QMetaObject4CallEiPPv @ 932 NONAME
	_ZN16HbInputModeCache11qt_metacastEPKc @ 933 NONAME
	_ZN16HbInputModeCache12setUpModeSetER7QVectorI11HbInputModeE @ 934 NONAME ABSENT
	_ZN16HbInputModeCache13resolvePluginERK11HbInputModeR7QStringS4_ @ 935 NONAME ABSENT
	_ZN16HbInputModeCache14defaultModeSetER7QVectorI11HbInputModeE @ 936 NONAME ABSENT
	_ZN16HbInputModeCache14garbageCollectEv @ 937 NONAME ABSENT
	_ZN16HbInputModeCache15setUpCustomModeERK7QString @ 938 NONAME ABSENT
	_ZN16HbInputModeCache16findStateHandlerERK12HbInputState @ 939 NONAME
	_ZN16HbInputModeCache16staticMetaObjectE @ 940 NONAME DATA 16
	_ZN16HbInputModeCache19buildMasterModeListEP13HbInputMethod @ 941 NONAME ABSENT
	_ZN16HbInputModeCache19getStaticMetaObjectEv @ 942 NONAME
	_ZN16HbInputModeCache21listCustomModePluginsER17HbInputMethodListRK15HbInputLanguage @ 943 NONAME ABSENT
	_ZN16HbInputModeCache27listSupportedInputLanguagesER5QListI15HbInputLanguageE @ 944 NONAME ABSENT
	_ZN16HbInputModeCache5clearEv @ 945 NONAME ABSENT
	_ZN16HbInputModeCache8instanceERK11HbInputMode @ 946 NONAME ABSENT
	_ZN16HbInputModeCache8instanceEv @ 947 NONAME
	_ZN16HbInputModeCache8shutdownEv @ 948 NONAME
	_ZN16HbInputModeCacheC1Ev @ 949 NONAME
	_ZN16HbInputModeCacheC2Ev @ 950 NONAME
	_ZN16HbInputModeCacheD0Ev @ 951 NONAME
	_ZN16HbInputModeCacheD1Ev @ 952 NONAME
	_ZN16HbInputModeCacheD2Ev @ 953 NONAME
	_ZN16HbListWidgetItem10setContentERK8QVariantiNS_14ListItemColumnEiNS_17ContentVisibilityE @ 954 NONAME ABSENT
	_ZN16HbListWidgetItem10setEnabledEb @ 955 NONAME ABSENT
	_ZN16HbListWidgetItem11resetColumnENS_14ListItemColumnE @ 956 NONAME ABSENT
	_ZN16HbListWidgetItem16setSecondaryTextERK7QString @ 957 NONAME ABSENT
	_ZN16HbListWidgetItem17setDecorationIconERK6HbIcon @ 958 NONAME ABSENT
	_ZN16HbListWidgetItem17setDecorationTextERK7QString @ 959 NONAME ABSENT
	_ZN16HbListWidgetItem26setSecondaryDecorationIconERK6HbIcon @ 960 NONAME ABSENT
	_ZN16HbListWidgetItem26setSecondaryDecorationTextERK7QString @ 961 NONAME ABSENT
	_ZN16HbListWidgetItem7addIconERK6HbIconNS_14ListItemColumnENS_15ListContentTypeENS_17ContentVisibilityE @ 962 NONAME ABSENT
	_ZN16HbListWidgetItem7addTextERK7QStringNS_15ListContentTypeENS_17ContentVisibilityE @ 963 NONAME ABSENT
	_ZN16HbListWidgetItem7setDataERK8QVarianti @ 964 NONAME ABSENT
	_ZN16HbListWidgetItem7setIconERK6HbIconNS_14ListItemColumnENS_15ListContentTypeENS_17ContentVisibilityE @ 965 NONAME ABSENT
	_ZN16HbListWidgetItem7setTextERK7QString @ 966 NONAME ABSENT
	_ZN16HbListWidgetItem7setTextERK7QStringiNS_15ListContentTypeENS_17ContentVisibilityE @ 967 NONAME ABSENT
	_ZN16HbListWidgetItem8setIconsERK5QListI6HbIconENS_14ListItemColumnENS_15ListContentTypeENS_17ContentVisibilityE @ 968 NONAME ABSENT
	_ZN16HbListWidgetItemC1Ei @ 969 NONAME ABSENT
	_ZN16HbListWidgetItemC2Ei @ 970 NONAME ABSENT
	_ZN16HbListWidgetItemD0Ev @ 971 NONAME ABSENT
	_ZN16HbListWidgetItemD1Ev @ 972 NONAME ABSENT
	_ZN16HbListWidgetItemD2Ev @ 973 NONAME ABSENT
	_ZN16HbNgNormalNumber11checkingXMLERN7QLocale7CountryER7QStringS4_R5QListIiE @ 974 NONAME ABSENT
	_ZN16HbNgNormalNumber11qt_metacallEN11QMetaObject4CallEiPPv @ 975 NONAME ABSENT
	_ZN16HbNgNormalNumber11qt_metacastEPKc @ 976 NONAME ABSENT
	_ZN16HbNgNormalNumber14checkingNumberER7QStringRiS2_S2_Rb @ 977 NONAME ABSENT
	_ZN16HbNgNormalNumber14formatingGroupER7QStringRiS2_S2_RbS1_S1_R5QListIiE @ 978 NONAME ABSENT
	_ZN16HbNgNormalNumber15checkingPatternER7QString @ 979 NONAME ABSENT
	_ZN16HbNgNormalNumber16staticMetaObjectE @ 980 NONAME DATA 16 ABSENT
	_ZN16HbNgNormalNumber19getStaticMetaObjectEv @ 981 NONAME ABSENT
	_ZN16HbNgNormalNumber20normalNumberGroupingER7QStringRN7QLocale7CountryE @ 982 NONAME ABSENT
	_ZN16HbNumberGrouping11qt_metacallEN11QMetaObject4CallEiPPv @ 983 NONAME ABSENT
	_ZN16HbNumberGrouping11qt_metacastEPKc @ 984 NONAME ABSENT
	_ZN16HbNumberGrouping14numberGroupingE7QStringNS_11NumberStyleEN7QLocale7CountryE @ 985 NONAME ABSENT
	_ZN16HbNumberGrouping16staticMetaObjectE @ 986 NONAME DATA 16 ABSENT
	_ZN16HbNumberGrouping19getStaticMetaObjectEv @ 987 NONAME ABSENT
	_ZN16HbPredictionBase11setLanguageERK15HbInputLanguage6QFlagsI19HbInputModeTypeFlagE @ 988 NONAME
	_ZN16HbPredictionBase22setExtraUserDictionaryEi @ 989 NONAME
	_ZN16HbPredictionBase24setExtraUserDictionariesERK5QListIiE @ 990 NONAME
	_ZN16HbPredictionBaseC2Ev @ 991 NONAME
	_ZN16HbPredictionBaseD0Ev @ 992 NONAME
	_ZN16HbPredictionBaseD1Ev @ 993 NONAME
	_ZN16HbPredictionBaseD2Ev @ 994 NONAME
	_ZN17HbEditorInterface11isConnectedEP7QObject @ 995 NONAME
	_ZN17HbEditorInterface11qt_metacallEN11QMetaObject4CallEiPPv @ 996 NONAME
	_ZN17HbEditorInterface11qt_metacastEPKc @ 997 NONAME
	_ZN17HbEditorInterface11setTextCaseEi @ 998 NONAME ABSENT
	_ZN17HbEditorInterface12insertActionEP8HbActionS1_ @ 999 NONAME
	_ZN17HbEditorInterface12removeActionEP8HbAction @ 1000 NONAME
	_ZN17HbEditorInterface12setInputModeEi @ 1001 NONAME ABSENT
	_ZN17HbEditorInterface14setConstraintsEi @ 1002 NONAME ABSENT
	_ZN17HbEditorInterface14setEditorClassE18HbInputEditorClass @ 1003 NONAME
	_ZN17HbEditorInterface15backendModifiedEv @ 1004 NONAME
	_ZN17HbEditorInterface16setLocalLanguageERK15HbInputLanguage @ 1005 NONAME ABSENT
	_ZN17HbEditorInterface16staticMetaObjectE @ 1006 NONAME DATA 16
	_ZN17HbEditorInterface17setLocalDigitTypeEi @ 1007 NONAME ABSENT
	_ZN17HbEditorInterface19getStaticMetaObjectEv @ 1008 NONAME
	_ZN17HbEditorInterface19setCustomButtonBankEi @ 1009 NONAME ABSENT
	_ZN17HbEditorInterface19setLastFocusedStateERK12HbInputState @ 1010 NONAME
	_ZN17HbEditorInterface20setExtraDictionaryIdEi @ 1011 NONAME
	_ZN17HbEditorInterface21cursorPositionChangedEv @ 1012 NONAME ABSENT
	_ZN17HbEditorInterface24setUpAsPhoneNumberEditorEv @ 1013 NONAME ABSENT
	_ZN17HbEditorInterface25setUpAsCompletingUrlFieldEv @ 1014 NONAME
	_ZN17HbEditorInterface26notifyCursorPositionChangeEii @ 1015 NONAME
	_ZN17HbEditorInterface27setUpAsCompletingEmailFieldEv @ 1016 NONAME
	_ZN17HbEditorInterface30setUpAsLatinAlphabetOnlyEditorEv @ 1017 NONAME
	_ZN17HbEditorInterface8modifiedEv @ 1018 NONAME
	_ZN17HbEditorInterface9addActionEP8HbAction @ 1019 NONAME
	_ZN17HbEditorInterface9setFilterEP13HbInputFilter @ 1020 NONAME
	_ZN17HbEditorInterfaceC1EP7QObject @ 1021 NONAME
	_ZN17HbEditorInterfaceC2EP7QObject @ 1022 NONAME
	_ZN17HbEditorInterfaceD0Ev @ 1023 NONAME
	_ZN17HbEditorInterfaceD1Ev @ 1024 NONAME
	_ZN17HbEditorInterfaceD2Ev @ 1025 NONAME
	_ZN17HbFrameBackground12setFrameTypeEN13HbFrameDrawer9FrameTypeE @ 1026 NONAME
	_ZN17HbFrameBackground20setFrameGraphicsNameERK7QString @ 1027 NONAME
	_ZN17HbFrameBackgroundC1ERK7QStringN13HbFrameDrawer9FrameTypeE @ 1028 NONAME
	_ZN17HbFrameBackgroundC1ERKS_ @ 1029 NONAME
	_ZN17HbFrameBackgroundC1Ev @ 1030 NONAME
	_ZN17HbFrameBackgroundC2ERK7QStringN13HbFrameDrawer9FrameTypeE @ 1031 NONAME
	_ZN17HbFrameBackgroundC2ERKS_ @ 1032 NONAME
	_ZN17HbFrameBackgroundC2Ev @ 1033 NONAME
	_ZN17HbFrameBackgroundD1Ev @ 1034 NONAME
	_ZN17HbFrameBackgroundD2Ev @ 1035 NONAME
	_ZN17HbFrameBackgroundaSERKS_ @ 1036 NONAME
	_ZN17HbInputMethodNull11filterEventEPK6QEvent @ 1037 NONAME
	_ZN17HbInputMethodNull12mouseHandlerEiP11QMouseEvent @ 1038 NONAME
	_ZN17HbInputMethodNull14identifierNameEv @ 1039 NONAME
	_ZN17HbInputMethodNull14listInputModesER7QVectorI11HbInputModeE @ 1040 NONAME ABSENT
	_ZN17HbInputMethodNull5resetEv @ 1041 NONAME
	_ZN17HbInputMethodNull8InstanceEv @ 1042 NONAME
	_ZN17HbInputMethodNull8languageEv @ 1043 NONAME
	_ZN17HbInputMethodNullC1Ev @ 1044 NONAME
	_ZN17HbInputMethodNullC2Ev @ 1045 NONAME
	_ZN17HbInputMethodNullD0Ev @ 1046 NONAME
	_ZN17HbInputMethodNullD1Ev @ 1047 NONAME
	_ZN17HbInputMethodNullD2Ev @ 1048 NONAME
	_ZN17HbListViewPrivate17moveDraggedItemToERK7QPointF @ 1049 NONAME ABSENT
	_ZN17HbListViewPrivate4initEv @ 1050 NONAME ABSENT
	_ZN17HbListViewPrivateC1Ev @ 1051 NONAME ABSENT
	_ZN17HbListViewPrivateC2Ev @ 1052 NONAME ABSENT
	_ZN17HbListViewPrivateD0Ev @ 1053 NONAME ABSENT
	_ZN17HbListViewPrivateD1Ev @ 1054 NONAME ABSENT
	_ZN17HbListViewPrivateD2Ev @ 1055 NONAME ABSENT
	_ZN17HbSignalIndicator11qt_metacallEN11QMetaObject4CallEiPPv @ 1056 NONAME
	_ZN17HbSignalIndicator11qt_metacastEPKc @ 1057 NONAME
	_ZN17HbSignalIndicator16staticMetaObjectE @ 1058 NONAME DATA 16
	_ZN17HbSignalIndicator18setAspectRatioModeEN2Qt15AspectRatioModeE @ 1059 NONAME ABSENT
	_ZN17HbSignalIndicator19getStaticMetaObjectEv @ 1060 NONAME
	_ZN17HbSignalIndicator5paintEP8QPainterPK24QStyleOptionGraphicsItemP7QWidget @ 1061 NONAME ABSENT
	_ZN17HbSignalIndicator8setLevelEi @ 1062 NONAME
	_ZN17HbSignalIndicatorC1EP13QGraphicsItem @ 1063 NONAME
	_ZN17HbSignalIndicatorC2EP13QGraphicsItem @ 1064 NONAME
	_ZN17HbSignalIndicatorD0Ev @ 1065 NONAME
	_ZN17HbSignalIndicatorD1Ev @ 1066 NONAME
	_ZN17HbSignalIndicatorD2Ev @ 1067 NONAME
	_ZN17HbStyleOptionNoteC1ERKS_ @ 1068 NONAME ABSENT
	_ZN17HbStyleOptionNoteC1Ev @ 1069 NONAME ABSENT
	_ZN17HbStyleOptionNoteC2ERKS_ @ 1070 NONAME ABSENT
	_ZN17HbStyleOptionNoteC2Ev @ 1071 NONAME ABSENT
	_ZN17HbStyleOptionNoteD1Ev @ 1072 NONAME ABSENT
	_ZN17HbStyleOptionNoteD2Ev @ 1073 NONAME ABSENT
	_ZN17HbStyleParameters12addParameterERK7QStringRK8QVariant @ 1074 NONAME
	_ZN17HbStyleParameters5countEv @ 1075 NONAME
	_ZN17HbStyleParameters5valueERK7QString @ 1076 NONAME
	_ZN17HbStyleParameters5valueEi @ 1077 NONAME
	_ZN17HbStyleParameters6paramsEv @ 1078 NONAME ABSENT
	_ZN17HbStyleParameters6valuesEv @ 1079 NONAME
	_ZN17HbStyleParameters7indexOfERK7QString @ 1080 NONAME
	_ZN17HbStyleParameters8removeAtEi @ 1081 NONAME
	_ZN17HbStyleParameters8setValueERK7QStringRK8QVariant @ 1082 NONAME
	_ZN17HbStyleParameters8setValueEiRK8QVariant @ 1083 NONAME
	_ZN17HbStyleParameters9parameterEi @ 1084 NONAME
	_ZN17HbStyleParametersC1Ev @ 1085 NONAME
	_ZN17HbStyleParametersC2Ev @ 1086 NONAME
	_ZN17HbStyleParametersD0Ev @ 1087 NONAME
	_ZN17HbStyleParametersD1Ev @ 1088 NONAME
	_ZN17HbStyleParametersD2Ev @ 1089 NONAME
	_ZN18HbAbstractItemView10itemChangeEN13QGraphicsItem18GraphicsItemChangeERK8QVariant @ 1090 NONAME ABSENT
	_ZN18HbAbstractItemView10panGestureERK7QPointF @ 1091 NONAME ABSENT
	_ZN18HbAbstractItemView11dataChangedERK11QModelIndexS2_ @ 1092 NONAME ABSENT
	_ZN18HbAbstractItemView11emitPressedERK11QModelIndex @ 1093 NONAME ABSENT
	_ZN18HbAbstractItemView11longPressedEP18HbAbstractViewItemRK7QPointF @ 1094 NONAME ABSENT
	_ZN18HbAbstractItemView11qt_metacallEN11QMetaObject4CallEiPPv @ 1095 NONAME ABSENT
	_ZN18HbAbstractItemView11qt_metacastEPKc @ 1096 NONAME ABSENT
	_ZN18HbAbstractItemView11rowsRemovedERK11QModelIndexii @ 1097 NONAME ABSENT
	_ZN18HbAbstractItemView12emitReleasedERK11QModelIndex @ 1098 NONAME ABSENT
	_ZN18HbAbstractItemView12focusInEventEP11QFocusEvent @ 1099 NONAME ABSENT
	_ZN18HbAbstractItemView12rowsInsertedERK11QModelIndexii @ 1100 NONAME ABSENT
	_ZN18HbAbstractItemView12setRootIndexERK11QModelIndex @ 1101 NONAME ABSENT
	_ZN18HbAbstractItemView13emitActivatedERK11QModelIndex @ 1102 NONAME ABSENT
	_ZN18HbAbstractItemView13focusOutEventEP11QFocusEvent @ 1103 NONAME ABSENT
	_ZN18HbAbstractItemView13keyPressEventEP9QKeyEvent @ 1104 NONAME ABSENT
	_ZN18HbAbstractItemView13setBufferSizeEi @ 1105 NONAME ABSENT
	_ZN18HbAbstractItemView13setLayoutNameERK7QString @ 1106 NONAME ABSENT
	_ZN18HbAbstractItemView14clearSelectionEv @ 1107 NONAME ABSENT
	_ZN18HbAbstractItemView14columnsRemovedERK11QModelIndexii @ 1108 NONAME ABSENT
	_ZN18HbAbstractItemView14mouseMoveEventEP24QGraphicsSceneMouseEvent @ 1109 NONAME ABSENT
	_ZN18HbAbstractItemView14scrollByAmountERK7QPointF @ 1110 NONAME ABSENT
	_ZN18HbAbstractItemView15columnsInsertedERK11QModelIndexii @ 1111 NONAME ABSENT
	_ZN18HbAbstractItemView15keyReleaseEventEP9QKeyEvent @ 1112 NONAME ABSENT
	_ZN18HbAbstractItemView15mousePressEventEP24QGraphicsSceneMouseEvent @ 1113 NONAME ABSENT
	_ZN18HbAbstractItemView15setCurrentIndexERK11QModelIndex6QFlagsIN19QItemSelectionModel13SelectionFlagEE @ 1114 NONAME ABSENT
	_ZN18HbAbstractItemView16longPressGestureERK7QPointF @ 1115 NONAME ABSENT
	_ZN18HbAbstractItemView16selectionCommandEPK18HbAbstractViewItemPK6QEventb @ 1116 NONAME ABSENT
	_ZN18HbAbstractItemView16setHighlightModeEN15HbItemHighlight13HighlightModeE @ 1117 NONAME ABSENT
	_ZN18HbAbstractItemView16setItemPrototypeEP18HbAbstractViewItem @ 1118 NONAME ABSENT
	_ZN18HbAbstractItemView16setItemRecyclingEb @ 1119 NONAME ABSENT
	_ZN18HbAbstractItemView16setSelectionModeENS_13SelectionModeEb @ 1120 NONAME ABSENT
	_ZN18HbAbstractItemView16staticMetaObjectE @ 1121 NONAME DATA 16 ABSENT
	_ZN18HbAbstractItemView17mouseReleaseEventEP24QGraphicsSceneMouseEvent @ 1122 NONAME ABSENT
	_ZN18HbAbstractItemView17setItemPrototypesERK5QListIP18HbAbstractViewItemE @ 1123 NONAME ABSENT
	_ZN18HbAbstractItemView17setSelectionModelEP19QItemSelectionModel @ 1124 NONAME ABSENT
	_ZN18HbAbstractItemView18orientationChangedEN2Qt11OrientationE @ 1125 NONAME ABSENT
	_ZN18HbAbstractItemView19currentIndexChangedERK11QModelIndexS2_ @ 1126 NONAME ABSENT
	_ZN18HbAbstractItemView19getStaticMetaObjectEv @ 1127 NONAME ABSENT
	_ZN18HbAbstractItemView19setUniformItemSizesEb @ 1128 NONAME ABSENT
	_ZN18HbAbstractItemView20rowsAboutToBeRemovedERK11QModelIndexii @ 1129 NONAME ABSENT
	_ZN18HbAbstractItemView21rowsAboutToBeInsertedERK11QModelIndexii @ 1130 NONAME ABSENT
	_ZN18HbAbstractItemView23columnsAboutToBeRemovedERK11QModelIndexii @ 1131 NONAME ABSENT
	_ZN18HbAbstractItemView23currentSelectionChangedERK14QItemSelectionS2_ @ 1132 NONAME ABSENT
	_ZN18HbAbstractItemView24columnsAboutToBeInsertedERK11QModelIndexii @ 1133 NONAME ABSENT
	_ZN18HbAbstractItemView27orientationAboutToBeChangedEv @ 1134 NONAME ABSENT
	_ZN18HbAbstractItemView5eventEP6QEvent @ 1135 NONAME ABSENT
	_ZN18HbAbstractItemView5resetEv @ 1136 NONAME ABSENT
	_ZN18HbAbstractItemView7pressedERK11QModelIndex @ 1137 NONAME ABSENT
	_ZN18HbAbstractItemView8releasedERK11QModelIndex @ 1138 NONAME ABSENT
	_ZN18HbAbstractItemView8setModelEP18QAbstractItemModelP18HbAbstractViewItem @ 1139 NONAME ABSENT
	_ZN18HbAbstractItemView9activatedERK11QModelIndex @ 1140 NONAME ABSENT
	_ZN18HbAbstractItemView9selectAllEv @ 1141 NONAME ABSENT
	_ZN18HbAbstractItemViewC2ER25HbAbstractItemViewPrivateP23HbAbstractItemContainerP13QGraphicsItem @ 1142 NONAME ABSENT
	_ZN18HbAbstractItemViewD0Ev @ 1143 NONAME ABSENT
	_ZN18HbAbstractItemViewD1Ev @ 1144 NONAME ABSENT
	_ZN18HbAbstractItemViewD2Ev @ 1145 NONAME ABSENT
	_ZN18HbAbstractViewItem11qt_metacallEN11QMetaObject4CallEiPPv @ 1146 NONAME ABSENT
	_ZN18HbAbstractViewItem11qt_metacastEPKc @ 1147 NONAME ABSENT
	_ZN18HbAbstractViewItem11setItemViewEP18HbAbstractItemView @ 1148 NONAME ABSENT
	_ZN18HbAbstractViewItem13receivedFocusEv @ 1149 NONAME ABSENT
	_ZN18HbAbstractViewItem13setCheckStateEN2Qt10CheckStateE @ 1150 NONAME ABSENT
	_ZN18HbAbstractViewItem13setModelIndexERK11QModelIndex @ 1151 NONAME ABSENT
	_ZN18HbAbstractViewItem14mouseMoveEventEP24QGraphicsSceneMouseEvent @ 1152 NONAME ABSENT
	_ZN18HbAbstractViewItem15mousePressEventEP24QGraphicsSceneMouseEvent @ 1153 NONAME ABSENT
	_ZN18HbAbstractViewItem15setDefaultFrameERK17HbFrameBackground @ 1154 NONAME ABSENT
	_ZN18HbAbstractViewItem16staticMetaObjectE @ 1155 NONAME DATA 16 ABSENT
	_ZN18HbAbstractViewItem16updateChildItemsEv @ 1156 NONAME ABSENT
	_ZN18HbAbstractViewItem16updatePrimitivesEv @ 1157 NONAME ABSENT
	_ZN18HbAbstractViewItem17mouseReleaseEventEP24QGraphicsSceneMouseEvent @ 1158 NONAME ABSENT
	_ZN18HbAbstractViewItem19getStaticMetaObjectEv @ 1159 NONAME ABSENT
	_ZN18HbAbstractViewItem19updateSelectionItemERK29HbStyleOptionAbstractViewItem @ 1160 NONAME ABSENT
	_ZN18HbAbstractViewItem5eventEP6QEvent @ 1161 NONAME ABSENT
	_ZN18HbAbstractViewItem6polishER17HbStyleParameters @ 1162 NONAME ABSENT
	_ZN18HbAbstractViewItem8setStateERK4QMapIi8QVariantE @ 1163 NONAME ABSENT
	_ZN18HbAbstractViewItem9lostFocusEv @ 1164 NONAME ABSENT
	_ZN18HbAbstractViewItemC2EP13QGraphicsItem @ 1165 NONAME ABSENT
	_ZN18HbAbstractViewItemC2ER25HbAbstractViewItemPrivateP13QGraphicsItem @ 1166 NONAME ABSENT
	_ZN18HbAbstractViewItemC2ERKS_ @ 1167 NONAME ABSENT
	_ZN18HbAbstractViewItemD0Ev @ 1168 NONAME ABSENT
	_ZN18HbAbstractViewItemD1Ev @ 1169 NONAME ABSENT
	_ZN18HbAbstractViewItemD2Ev @ 1170 NONAME ABSENT
	_ZN18HbAbstractViewItemaSERKS_ @ 1171 NONAME ABSENT
	_ZN18HbBatteryIndicator11qt_metacallEN11QMetaObject4CallEiPPv @ 1172 NONAME
	_ZN18HbBatteryIndicator11qt_metacastEPKc @ 1173 NONAME
	_ZN18HbBatteryIndicator16staticMetaObjectE @ 1174 NONAME DATA 16
	_ZN18HbBatteryIndicator18setAspectRatioModeEN2Qt15AspectRatioModeE @ 1175 NONAME ABSENT
	_ZN18HbBatteryIndicator19getStaticMetaObjectEv @ 1176 NONAME
	_ZN18HbBatteryIndicator5paintEP8QPainterPK24QStyleOptionGraphicsItemP7QWidget @ 1177 NONAME ABSENT
	_ZN18HbBatteryIndicator8setLevelEi @ 1178 NONAME
	_ZN18HbBatteryIndicatorC1EP13QGraphicsItem @ 1179 NONAME
	_ZN18HbBatteryIndicatorC2EP13QGraphicsItem @ 1180 NONAME
	_ZN18HbBatteryIndicatorD0Ev @ 1181 NONAME
	_ZN18HbBatteryIndicatorD1Ev @ 1182 NONAME
	_ZN18HbBatteryIndicatorD2Ev @ 1183 NONAME
	_ZN18HbInputFocusObject10cursorLeftEi @ 1184 NONAME ABSENT
	_ZN18HbInputFocusObject11cursorRightEi @ 1185 NONAME ABSENT
	_ZN18HbInputFocusObject11qt_metacallEN11QMetaObject4CallEiPPv @ 1186 NONAME
	_ZN18HbInputFocusObject11qt_metacastEPKc @ 1187 NONAME
	_ZN18HbInputFocusObject13editorDeletedEv @ 1188 NONAME ABSENT
	_ZN18HbInputFocusObject16staticMetaObjectE @ 1189 NONAME DATA 16
	_ZN18HbInputFocusObject19getStaticMetaObjectEv @ 1190 NONAME
	_ZN18HbInputFocusObject24filterAndCommitCharacterE5QChar @ 1191 NONAME
	_ZN18HbInputFocusObject28filterStringWithEditorFilterERK7QStringRS0_ @ 1192 NONAME
	_ZN18HbInteractionEvent11InteractionE @ 1193 NONAME DATA 4 ABSENT
	_ZN18HbInteractionEventC1EPK7QObjectN2Ia11InteractionE @ 1194 NONAME ABSENT
	_ZN18HbInteractionEventC2EPK7QObjectN2Ia11InteractionE @ 1195 NONAME ABSENT
	_ZN18HbInteractionEventD0Ev @ 1196 NONAME ABSENT
	_ZN18HbInteractionEventD1Ev @ 1197 NONAME ABSENT
	_ZN18HbInteractionEventD2Ev @ 1198 NONAME ABSENT
	_ZN18HbMultiSegmentAlgo10initializeEP13QSharedMemoryi @ 1199 NONAME ABSENT
	_ZN18HbMultiSegmentAlgo4freeEi @ 1200 NONAME ABSENT
	_ZN18HbMultiSegmentAlgo5allocEi @ 1201 NONAME ABSENT
	_ZN18HbMultiSegmentAlgo7cleanupEv @ 1202 NONAME ABSENT
	_ZN18HbMultiSegmentAlgo7reallocEii @ 1203 NONAME ABSENT
	_ZN18HbMultiSegmentAlgoC1Ev @ 1204 NONAME ABSENT
	_ZN18HbMultiSegmentAlgoC2Ev @ 1205 NONAME ABSENT
	_ZN18HbMultiSegmentAlgoD1Ev @ 1206 NONAME ABSENT
	_ZN18HbMultiSegmentAlgoD2Ev @ 1207 NONAME ABSENT
	_ZN18HbPopupBasePrivate11setCenteredEb @ 1208 NONAME ABSENT
	_ZN18HbPopupBasePrivate11setPriorityEh @ 1209 NONAME ABSENT
	_ZN18HbPopupBasePrivate12timeoutValueEN11HbPopupBase14DefaultTimeoutE @ 1210 NONAME ABSENT
	_ZN18HbPopupBasePrivate13doCenterPopupEv @ 1211 NONAME ABSENT
	_ZN18HbPopupBasePrivate14_q_delayedHideEN8HbEffect12EffectStatusE @ 1212 NONAME ABSENT
	_ZN18HbPopupBasePrivate14handleKeyEventEP9QKeyEvent @ 1213 NONAME ABSENT
	_ZN18HbPopupBasePrivate18_q_timeoutFinishedEv @ 1214 NONAME ABSENT
	_ZN18HbPopupBasePrivate31handleBackgroundMousePressEventEv @ 1215 NONAME ABSENT
	_ZN18HbPopupBasePrivate33handleBackgroundMouseReleaseEventEP24QGraphicsSceneMouseEvent @ 1216 NONAME ABSENT
	_ZN18HbPopupBasePrivate4initEv @ 1217 NONAME ABSENT
	_ZN18HbPopupBasePrivate9forceHideEv @ 1218 NONAME ABSENT
	_ZN18HbPopupBasePrivateC1Ev @ 1219 NONAME ABSENT
	_ZN18HbPopupBasePrivateC2Ev @ 1220 NONAME ABSENT
	_ZN18HbPopupBasePrivateD0Ev @ 1221 NONAME ABSENT
	_ZN18HbPopupBasePrivateD1Ev @ 1222 NONAME ABSENT
	_ZN18HbPopupBasePrivateD2Ev @ 1223 NONAME ABSENT
	_ZN18HbPredictionEngine13enableFeatureEN16HbPredictionBase24HbInputPredictionFeatureE @ 1224 NONAME ABSENT
	_ZN18HbPredictionEngine14disableFeatureEN16HbPredictionBase24HbInputPredictionFeatureE @ 1225 NONAME ABSENT
	_ZN18HbPredictionEngine16isFeatureEnabledEN16HbPredictionBase24HbInputPredictionFeatureE @ 1226 NONAME ABSENT
	_ZN18HbPredictionEngine20setSecondaryLanguageERK15HbInputLanguage @ 1227 NONAME
	_ZN18HbPredictionEngine21nextWordCandidateListEP20HbPredictionCallback @ 1228 NONAME
	_ZN18HbPredictionEngine23setErrorCorrectionLevelENS_22HbErrorCorrectionLevelE @ 1229 NONAME
	_ZN18HbStyleOptionLabelC1ERKS_ @ 1230 NONAME
	_ZN18HbStyleOptionLabelC1Ev @ 1231 NONAME
	_ZN18HbStyleOptionLabelC2ERKS_ @ 1232 NONAME
	_ZN18HbStyleOptionLabelC2Ev @ 1233 NONAME
	_ZN18HbStyleOptionLabelD1Ev @ 1234 NONAME
	_ZN18HbStyleOptionLabelD2Ev @ 1235 NONAME
	_ZN18HbStyleOptionPopupC1ERKS_ @ 1236 NONAME
	_ZN18HbStyleOptionPopupC1Ev @ 1237 NONAME
	_ZN18HbStyleOptionPopupC2ERKS_ @ 1238 NONAME
	_ZN18HbStyleOptionPopupC2Ev @ 1239 NONAME
	_ZN18HbStyleOptionPopupD1Ev @ 1240 NONAME
	_ZN18HbStyleOptionPopupD2Ev @ 1241 NONAME
	_ZN18HbToolBarExtension11qt_metacallEN11QMetaObject4CallEiPPv @ 1242 NONAME
	_ZN18HbToolBarExtension11qt_metacastEPKc @ 1243 NONAME
	_ZN18HbToolBarExtension16staticMetaObjectE @ 1244 NONAME DATA 16
	_ZN18HbToolBarExtension19getStaticMetaObjectEv @ 1245 NONAME
	_ZN18HbToolBarExtension5eventEP6QEvent @ 1246 NONAME
	_ZN18HbToolBarExtension6polishER17HbStyleParameters @ 1247 NONAME
	_ZN18HbToolBarExtension9addActionERK6HbIconRK7QString @ 1248 NONAME
	_ZN18HbToolBarExtension9addActionERK6HbIconRK7QStringPK7QObjectPKc @ 1249 NONAME
	_ZN18HbToolBarExtension9addActionERK7QString @ 1250 NONAME
	_ZN18HbToolBarExtension9addActionERK7QStringPK7QObjectPKc @ 1251 NONAME
	_ZN18HbToolBarExtensionC1EP13QGraphicsItem @ 1252 NONAME
	_ZN18HbToolBarExtensionC1ER25HbToolBarExtensionPrivateP13QGraphicsItem @ 1253 NONAME
	_ZN18HbToolBarExtensionC2EP13QGraphicsItem @ 1254 NONAME
	_ZN18HbToolBarExtensionC2ER25HbToolBarExtensionPrivateP13QGraphicsItem @ 1255 NONAME
	_ZN18HbToolBarExtensionD0Ev @ 1256 NONAME
	_ZN18HbToolBarExtensionD1Ev @ 1257 NONAME
	_ZN18HbToolBarExtensionD2Ev @ 1258 NONAME
	_ZN19HbAnchorLayoutDebug10getAnchorsEP14HbAnchorLayout @ 1259 NONAME ABSENT
	_ZN19HbFocusObjectWidget10editorFontEv @ 1260 NONAME ABSENT
	_ZN19HbFocusObjectWidget11qt_metacallEN11QMetaObject4CallEiPPv @ 1261 NONAME ABSENT
	_ZN19HbFocusObjectWidget11qt_metacastEPKc @ 1262 NONAME ABSENT
	_ZN19HbFocusObjectWidget12releaseFocusEv @ 1263 NONAME ABSENT
	_ZN19HbFocusObjectWidget15editorDestroyedEP7QObject @ 1264 NONAME ABSENT
	_ZN19HbFocusObjectWidget16isReadOnlyWidgetEP7QWidget @ 1265 NONAME ABSENT
	_ZN19HbFocusObjectWidget16sendCommitStringERK7QString @ 1266 NONAME ABSENT
	_ZN19HbFocusObjectWidget16staticMetaObjectE @ 1267 NONAME DATA 16 ABSENT
	_ZN19HbFocusObjectWidget17sendPreEditStringERK7QString @ 1268 NONAME ABSENT
	_ZN19HbFocusObjectWidget19editorTextSelectionEv @ 1269 NONAME ABSENT
	_ZN19HbFocusObjectWidget19getStaticMetaObjectEv @ 1270 NONAME ABSENT
	_ZN19HbFocusObjectWidget19syncEditorInterfaceEv @ 1271 NONAME ABSENT
	_ZN19HbFocusObjectWidget20editorCursorPositionEv @ 1272 NONAME ABSENT
	_ZN19HbFocusObjectWidget21editorSurroundingTextEv @ 1273 NONAME ABSENT
	_ZN19HbFocusObjectWidget7reFocusEv @ 1274 NONAME ABSENT
	_ZN19HbFocusObjectWidget7setHostEP13HbInputMethod @ 1275 NONAME ABSENT
	_ZN19HbFocusObjectWidget9sendEventER6QEvent @ 1276 NONAME ABSENT
	_ZN19HbFocusObjectWidgetC1EP7QWidgetP13HbInputMethodP20QGraphicsProxyWidget @ 1277 NONAME ABSENT
	_ZN19HbFocusObjectWidgetC2EP7QWidgetP13HbInputMethodP20QGraphicsProxyWidget @ 1278 NONAME ABSENT
	_ZN19HbFocusObjectWidgetD0Ev @ 1279 NONAME ABSENT
	_ZN19HbFocusObjectWidgetD1Ev @ 1280 NONAME ABSENT
	_ZN19HbFocusObjectWidgetD2Ev @ 1281 NONAME ABSENT
	_ZN19HbHeapMemoryManager10memManagerE @ 1282 NONAME DATA 4 ABSENT
	_ZN19HbHeapMemoryManager15releaseInstanceEv @ 1283 NONAME ABSENT
	_ZN19HbHeapMemoryManager4freeEi @ 1284 NONAME
	_ZN19HbHeapMemoryManager5allocEi @ 1285 NONAME
	_ZN19HbHeapMemoryManager7reallocEii @ 1286 NONAME
	_ZN19HbHeapMemoryManager8instanceEv @ 1287 NONAME ABSENT
	_ZN19HbHeapMemoryManagerC1Ev @ 1288 NONAME
	_ZN19HbHeapMemoryManagerC2Ev @ 1289 NONAME
	_ZN19HbInputContextProxy11filterEventEPK6QEvent @ 1290 NONAME
	_ZN19HbInputContextProxy11qt_metacallEN11QMetaObject4CallEiPPv @ 1291 NONAME
	_ZN19HbInputContextProxy11qt_metacastEPKc @ 1292 NONAME
	_ZN19HbInputContextProxy12mouseHandlerEiP11QMouseEvent @ 1293 NONAME
	_ZN19HbInputContextProxy14identifierNameEv @ 1294 NONAME
	_ZN19HbInputContextProxy14setFocusWidgetEP7QWidget @ 1295 NONAME
	_ZN19HbInputContextProxy15widgetDestroyedEP7QWidget @ 1296 NONAME
	_ZN19HbInputContextProxy16staticMetaObjectE @ 1297 NONAME DATA 16
	_ZN19HbInputContextProxy19getStaticMetaObjectEv @ 1298 NONAME
	_ZN19HbInputContextProxy5resetEv @ 1299 NONAME
	_ZN19HbInputContextProxy6updateEv @ 1300 NONAME
	_ZN19HbInputContextProxy7actionsEv @ 1301 NONAME
	_ZN19HbInputContextProxy8languageEv @ 1302 NONAME
	_ZN19HbInputContextProxy9sendEventERK17QInputMethodEvent @ 1303 NONAME
	_ZN19HbInputContextProxyC1EP13QInputContext @ 1304 NONAME ABSENT
	_ZN19HbInputContextProxyC2EP13QInputContext @ 1305 NONAME ABSENT
	_ZN19HbInputContextProxyD0Ev @ 1306 NONAME
	_ZN19HbInputContextProxyD1Ev @ 1307 NONAME
	_ZN19HbInputContextProxyD2Ev @ 1308 NONAME
	_ZN19HbInputCustomButton10setTooltipERK7QString @ 1309 NONAME ABSENT
	_ZN19HbInputCustomButton11compositionEv @ 1310 NONAME ABSENT
	_ZN19HbInputCustomButton11setIconFileERK7QString @ 1311 NONAME ABSENT
	_ZN19HbInputCustomButton13setButtonTypeENS_18HbCustomButtonTypeE @ 1312 NONAME ABSENT
	_ZN19HbInputCustomButton5setIdEi @ 1313 NONAME ABSENT
	_ZN19HbInputCustomButton7setTextERK7QString @ 1314 NONAME ABSENT
	_ZN19HbInputCustomButton8setFlagsEi @ 1315 NONAME ABSENT
	_ZN19HbInputCustomButton8setTitleERK7QString @ 1316 NONAME ABSENT
	_ZN19HbInputCustomButtonC1EP26HbInputCustomButtonPrivate @ 1317 NONAME ABSENT
	_ZN19HbInputCustomButtonC1Ei @ 1318 NONAME ABSENT
	_ZN19HbInputCustomButtonC1EiiRK7QStringS2_S2_ @ 1319 NONAME ABSENT
	_ZN19HbInputCustomButtonC1Ev @ 1320 NONAME ABSENT
	_ZN19HbInputCustomButtonC2EP26HbInputCustomButtonPrivate @ 1321 NONAME ABSENT
	_ZN19HbInputCustomButtonC2Ei @ 1322 NONAME ABSENT
	_ZN19HbInputCustomButtonC2EiiRK7QStringS2_S2_ @ 1323 NONAME ABSENT
	_ZN19HbInputCustomButtonC2Ev @ 1324 NONAME ABSENT
	_ZN19HbInputCustomButtonD0Ev @ 1325 NONAME ABSENT
	_ZN19HbInputCustomButtonD1Ev @ 1326 NONAME ABSENT
	_ZN19HbInputCustomButtonD2Ev @ 1327 NONAME ABSENT
	_ZN19HbInputSettingProxy11qt_metacallEN11QMetaObject4CallEiPPv @ 1328 NONAME
	_ZN19HbInputSettingProxy11qt_metacastEPKc @ 1329 NONAME
	_ZN19HbInputSettingProxy12resourcePathEv @ 1330 NONAME ABSENT
	_ZN19HbInputSettingProxy12writablePathEv @ 1331 NONAME
	_ZN19HbInputSettingProxy14dictionaryPathEv @ 1332 NONAME
	_ZN19HbInputSettingProxy16customPluginNameER7QString @ 1333 NONAME ABSENT
	_ZN19HbInputSettingProxy16staticMetaObjectE @ 1334 NONAME DATA 16
	_ZN19HbInputSettingProxy16togglePredictionEv @ 1335 NONAME
	_ZN19HbInputSettingProxy17keymapPluginPathsEv @ 1336 NONAME
	_ZN19HbInputSettingProxy17screenOrientationEv @ 1337 NONAME ABSENT
	_ZN19HbInputSettingProxy18orientationChangedEN2Qt11OrientationE @ 1338 NONAME ABSENT
	_ZN19HbInputSettingProxy18setGlobalDigitTypeE16HbInputDigitType @ 1339 NONAME
	_ZN19HbInputSettingProxy19extraDictionaryPathEv @ 1340 NONAME
	_ZN19HbInputSettingProxy19getStaticMetaObjectEv @ 1341 NONAME
	_ZN19HbInputSettingProxy19setActiveHwKeyboardE6QFlagsI18HbKeyboardTypeFlagE @ 1342 NONAME ABSENT
	_ZN19HbInputSettingProxy19setCustomPluginNameERK7QString @ 1343 NONAME ABSENT
	_ZN19HbInputSettingProxy20languageDatabasePathEv @ 1344 NONAME
	_ZN19HbInputSettingProxy20setCustomMethodInUseEb @ 1345 NONAME ABSENT
	_ZN19HbInputSettingProxy20setScreenOrientationEN2Qt11OrientationE @ 1346 NONAME ABSENT
	_ZN19HbInputSettingProxy20specialCharacterUsedE5QChar @ 1347 NONAME ABSENT
	_ZN19HbInputSettingProxy21predictionEnginePathsEv @ 1348 NONAME
	_ZN19HbInputSettingProxy22connectObservingObjectEP7QObject @ 1349 NONAME
	_ZN19HbInputSettingProxy22inputMethodPluginPathsEv @ 1350 NONAME
	_ZN19HbInputSettingProxy22setActiveTouchKeyboardE6QFlagsI18HbKeyboardTypeFlagE @ 1351 NONAME ABSENT
	_ZN19HbInputSettingProxy22setGlobalInputLanguageERK15HbInputLanguage @ 1352 NONAME
	_ZN19HbInputSettingProxy23activeHwKeyboardChangedE6QFlagsI18HbKeyboardTypeFlagE @ 1353 NONAME ABSENT
	_ZN19HbInputSettingProxy24orientationAboutToChangeEv @ 1354 NONAME ABSENT
	_ZN19HbInputSettingProxy24setPredictiveInputStatusEi @ 1355 NONAME ABSENT
	_ZN19HbInputSettingProxy25disconnectObservingObjectEP7QObject @ 1356 NONAME
	_ZN19HbInputSettingProxy25mostUsedSpecialCharactersEiR7QStringP13HbInputFilter @ 1357 NONAME ABSENT
	_ZN19HbInputSettingProxy26activeTouchKeyboardChangedE6QFlagsI18HbKeyboardTypeFlagE @ 1358 NONAME ABSENT
	_ZN19HbInputSettingProxy26globalInputLanguageChangedERK15HbInputLanguage @ 1359 NONAME
	_ZN19HbInputSettingProxy27predictiveInputStateChangedEi @ 1360 NONAME ABSENT
	_ZN19HbInputSettingProxy28automaticTextCasingForQwertyEv @ 1361 NONAME
	_ZN19HbInputSettingProxy28setCharacterPreviewForQwertyEb @ 1362 NONAME
	_ZN19HbInputSettingProxy29notifyScreenOrientationChangeEv @ 1363 NONAME ABSENT
	_ZN19HbInputSettingProxy31setAutomaticTextCasingForQwertyEb @ 1364 NONAME
	_ZN19HbInputSettingProxy31setGlobalSecondaryInputLanguageERK15HbInputLanguage @ 1365 NONAME
	_ZN19HbInputSettingProxy34isCharacterPreviewForQwertyEnabledEv @ 1366 NONAME
	_ZN19HbInputSettingProxy35globalSecondaryInputLanguageChangedERK15HbInputLanguage @ 1367 NONAME
	_ZN19HbInputSettingProxy8instanceEv @ 1368 NONAME
	_ZN19HbInputSettingProxy8shutdownEv @ 1369 NONAME
	_ZN19HbInputSettingProxyC1Ev @ 1370 NONAME
	_ZN19HbInputSettingProxyC2Ev @ 1371 NONAME
	_ZN19HbInputSettingProxyD0Ev @ 1372 NONAME
	_ZN19HbInputSettingProxyD1Ev @ 1373 NONAME
	_ZN19HbInputSettingProxyD2Ev @ 1374 NONAME
	_ZN19HbInputStateMachine8validateEv @ 1375 NONAME ABSENT
	_ZN19HbInteractionPlugin11qt_metacallEN11QMetaObject4CallEiPPv @ 1376 NONAME ABSENT
	_ZN19HbInteractionPlugin11qt_metacastEPKc @ 1377 NONAME ABSENT
	_ZN19HbInteractionPlugin14setFeatureNameERK7QString @ 1378 NONAME ABSENT
	_ZN19HbInteractionPlugin16staticMetaObjectE @ 1379 NONAME DATA 16 ABSENT
	_ZN19HbInteractionPlugin19getStaticMetaObjectEv @ 1380 NONAME ABSENT
	_ZN19HbInteractionPluginC2ERK7QString @ 1381 NONAME ABSENT
	_ZN19HbInteractionPluginC2Ev @ 1382 NONAME ABSENT
	_ZN19HbInteractionPluginD0Ev @ 1383 NONAME ABSENT
	_ZN19HbInteractionPluginD1Ev @ 1384 NONAME ABSENT
	_ZN19HbInteractionPluginD2Ev @ 1385 NONAME ABSENT
	_ZN19HbListItemContainer11itemRemovedEP18HbAbstractViewItem @ 1386 NONAME ABSENT
	_ZN19HbListItemContainer11viewResizedERK6QSizeF @ 1387 NONAME ABSENT
	_ZN19HbListItemContainer12recycleItemsERK7QPointF @ 1388 NONAME ABSENT
	_ZN19HbListItemContainer9itemAddedEiP18HbAbstractViewItem @ 1389 NONAME ABSENT
	_ZN19HbListItemContainerC1EP13QGraphicsItem @ 1390 NONAME ABSENT
	_ZN19HbListItemContainerC1ER26HbListItemContainerPrivateP13QGraphicsItem @ 1391 NONAME ABSENT
	_ZN19HbListItemContainerC2EP13QGraphicsItem @ 1392 NONAME ABSENT
	_ZN19HbListItemContainerC2ER26HbListItemContainerPrivateP13QGraphicsItem @ 1393 NONAME ABSENT
	_ZN19HbListItemContainerD0Ev @ 1394 NONAME ABSENT
	_ZN19HbListItemContainerD1Ev @ 1395 NONAME ABSENT
	_ZN19HbListItemContainerD2Ev @ 1396 NONAME ABSENT
	_ZN19HbPhoneNumberFilter6filterE5QChar @ 1397 NONAME
	_ZN19HbPhoneNumberFilter8instanceEv @ 1398 NONAME
	_ZN19HbPhoneNumberFilterC1Ev @ 1399 NONAME
	_ZN19HbPhoneNumberFilterC2Ev @ 1400 NONAME
	_ZN19HbPhoneNumberFilterD0Ev @ 1401 NONAME
	_ZN19HbPhoneNumberFilterD1Ev @ 1402 NONAME
	_ZN19HbPhoneNumberFilterD2Ev @ 1403 NONAME
	_ZN19HbPredictionFactory10initializeEv @ 1404 NONAME
	_ZN19HbPredictionFactory11qt_metacallEN11QMetaObject4CallEiPPv @ 1405 NONAME
	_ZN19HbPredictionFactory11qt_metacastEPKc @ 1406 NONAME
	_ZN19HbPredictionFactory12createEngineERK7QString @ 1407 NONAME
	_ZN19HbPredictionFactory12createEngineEi @ 1408 NONAME
	_ZN19HbPredictionFactory15clearEngineDataEv @ 1409 NONAME
	_ZN19HbPredictionFactory16staticMetaObjectE @ 1410 NONAME DATA 16
	_ZN19HbPredictionFactory19getStaticMetaObjectEv @ 1411 NONAME
	_ZN19HbPredictionFactory20allPredictionEnginesEv @ 1412 NONAME
	_ZN19HbPredictionFactory27predictionEngineForLanguageERK15HbInputLanguage @ 1413 NONAME
	_ZN19HbPredictionFactory31allPredictionEnginesForLanguageERK15HbInputLanguage @ 1414 NONAME
	_ZN19HbPredictionFactory8instanceEv @ 1415 NONAME
	_ZN19HbPredictionFactory8shutDownEv @ 1416 NONAME
	_ZN19HbPredictionFactoryC1Ev @ 1417 NONAME
	_ZN19HbPredictionFactoryC2Ev @ 1418 NONAME
	_ZN19HbPredictionFactoryD0Ev @ 1419 NONAME
	_ZN19HbPredictionFactoryD1Ev @ 1420 NONAME
	_ZN19HbPredictionFactoryD2Ev @ 1421 NONAME
	_ZN19HbScrollAreaPrivate13adjustContentEv @ 1422 NONAME
	_ZN19HbScrollAreaPrivate13animateScrollE7QPointF @ 1423 NONAME
	_ZN19HbScrollAreaPrivate13ensureVisibleE7QPointFff @ 1424 NONAME ABSENT
	_ZN19HbScrollAreaPrivate13stopAnimatingEv @ 1425 NONAME
	_ZN19HbScrollAreaPrivate13stopScrollingEv @ 1426 NONAME
	_ZN19HbScrollAreaPrivate14scrollByAmountERK7QPointF @ 1427 NONAME
	_ZN19HbScrollAreaPrivate14updateGesturesEv @ 1428 NONAME ABSENT
	_ZN19HbScrollAreaPrivate15mousePressEventEP24QGraphicsSceneMouseEvent @ 1429 NONAME ABSENT
	_ZN19HbScrollAreaPrivate15updateScrollBarEN2Qt11OrientationE @ 1430 NONAME
	_ZN19HbScrollAreaPrivate16displayScrollBarEN2Qt11OrientationE @ 1431 NONAME
	_ZN19HbScrollAreaPrivate16replaceScrollBarEN2Qt11OrientationEP11HbScrollBar @ 1432 NONAME
	_ZN19HbScrollAreaPrivate17_q_hideScrollBarsEv @ 1433 NONAME
	_ZN19HbScrollAreaPrivate17calculateVelocityEfffff @ 1434 NONAME
	_ZN19HbScrollAreaPrivate17clampToBoundariesERffff @ 1435 NONAME
	_ZN19HbScrollAreaPrivate17mouseReleaseEventEP24QGraphicsSceneMouseEvent @ 1436 NONAME ABSENT
	_ZN19HbScrollAreaPrivate17prepareScrollBarsEv @ 1437 NONAME
	_ZN19HbScrollAreaPrivate18addPositionToQueueERK7QPointFfb @ 1438 NONAME ABSENT
	_ZN19HbScrollAreaPrivate18setContentPositionERK7QPointF @ 1439 NONAME
	_ZN19HbScrollAreaPrivate18setScrollBarPolicyEN2Qt11OrientationEN12HbScrollArea15ScrollBarPolicyE @ 1440 NONAME
	_ZN19HbScrollAreaPrivate19positionOutOfBoundsEv @ 1441 NONAME
	_ZN19HbScrollAreaPrivate19setScrollBarMetricsEN2Qt11OrientationE @ 1442 NONAME
	_ZN19HbScrollAreaPrivate19updateScrollMetricsEv @ 1443 NONAME
	_ZN19HbScrollAreaPrivate20startTargetAnimationE7QPointFi @ 1444 NONAME ABSENT
	_ZN19HbScrollAreaPrivate21changeLayoutDirectionEN2Qt15LayoutDirectionE @ 1445 NONAME
	_ZN19HbScrollAreaPrivate23_q_animateScrollTimeoutEv @ 1446 NONAME
	_ZN19HbScrollAreaPrivate23_q_thumbPositionChangedEfN2Qt11OrientationE @ 1447 NONAME
	_ZN19HbScrollAreaPrivate4initEv @ 1448 NONAME
	_ZN19HbScrollAreaPrivateC1Ev @ 1449 NONAME ABSENT
	_ZN19HbScrollAreaPrivateC2Ev @ 1450 NONAME ABSENT
	_ZN19HbScrollAreaPrivateD0Ev @ 1451 NONAME
	_ZN19HbScrollAreaPrivateD1Ev @ 1452 NONAME
	_ZN19HbScrollAreaPrivateD2Ev @ 1453 NONAME
	_ZN19HbStyleOptionSliderC1ERKS_ @ 1454 NONAME
	_ZN19HbStyleOptionSliderC1Ev @ 1455 NONAME
	_ZN19HbStyleOptionSliderC2ERKS_ @ 1456 NONAME
	_ZN19HbStyleOptionSliderC2Ev @ 1457 NONAME
	_ZN19HbStyleOptionSliderD1Ev @ 1458 NONAME
	_ZN19HbStyleOptionSliderD2Ev @ 1459 NONAME
	_ZN19HbWidgetStyleLoader10addFileSetERK7QStringN20HbLayeredStyleLoader7ConcernENS3_13LayerPriorityE @ 1460 NONAME ABSENT
	_ZN19HbWidgetStyleLoader12loadWidgetMLEP8HbWidgetRK7QStringS4_S4_ @ 1461 NONAME ABSENT
	_ZN19HbWidgetStyleLoader13removeFileSetERK7QString @ 1462 NONAME ABSENT
	_ZN19HbWidgetStyleLoader18clearLayerFileListEN20HbLayeredStyleLoader7ConcernENS0_13LayerPriorityE @ 1463 NONAME
	_ZN19HbWidgetStyleLoader20clearConcernFileListEN20HbLayeredStyleLoader7ConcernE @ 1464 NONAME
	_ZN19HbWidgetStyleLoader7loadCssEPK8HbWidget @ 1465 NONAME
	_ZN19HbWidgetStyleLoader8instanceEv @ 1466 NONAME
	_ZN20HbDeviceDialogPlugin11qt_metacallEN11QMetaObject4CallEiPPv @ 1467 NONAME
	_ZN20HbDeviceDialogPlugin11qt_metacastEPKc @ 1468 NONAME
	_ZN20HbDeviceDialogPlugin16staticMetaObjectE @ 1469 NONAME DATA 16
	_ZN20HbDeviceDialogPlugin19getStaticMetaObjectEv @ 1470 NONAME
	_ZN20HbDeviceDialogPluginC2Ev @ 1471 NONAME
	_ZN20HbDeviceDialogPluginD0Ev @ 1472 NONAME
	_ZN20HbDeviceDialogPluginD1Ev @ 1473 NONAME
	_ZN20HbDeviceDialogPluginD2Ev @ 1474 NONAME
	_ZN20HbDeviceDialogServer11qt_metacallEN11QMetaObject4CallEiPPv @ 1475 NONAME
	_ZN20HbDeviceDialogServer11qt_metacastEPKc @ 1476 NONAME
	_ZN20HbDeviceDialogServer16indicatorRemovedERK5QListI19IndicatorClientInfoE @ 1477 NONAME
	_ZN20HbDeviceDialogServer16showDeviceDialogERK7QStringRK4QMapIS0_8QVariantERi @ 1478 NONAME ABSENT
	_ZN20HbDeviceDialogServer16staticMetaObjectE @ 1479 NONAME DATA 16
	_ZN20HbDeviceDialogServer17activateIndicatorERK7QStringRK8QVariant @ 1480 NONAME ABSENT
	_ZN20HbDeviceDialogServer17closeDeviceDialogEi @ 1481 NONAME
	_ZN20HbDeviceDialogServer18deviceDialogClosedEii @ 1482 NONAME
	_ZN20HbDeviceDialogServer18indicatorActivatedERK5QListI19IndicatorClientInfoE @ 1483 NONAME
	_ZN20HbDeviceDialogServer18updateDeviceDialogEiRK4QMapI7QString8QVariantE @ 1484 NONAME
	_ZN20HbDeviceDialogServer19deactivateIndicatorERK7QStringRK8QVariant @ 1485 NONAME ABSENT
	_ZN20HbDeviceDialogServer19getStaticMetaObjectEv @ 1486 NONAME
	_ZN20HbDeviceDialogServerC1Ev @ 1487 NONAME
	_ZN20HbDeviceDialogServerC2Ev @ 1488 NONAME
	_ZN20HbDeviceDialogServerD0Ev @ 1489 NONAME
	_ZN20HbDeviceDialogServerD1Ev @ 1490 NONAME
	_ZN20HbDeviceDialogServerD2Ev @ 1491 NONAME
	_ZN20HbEmailAddressFilter6filterE5QChar @ 1492 NONAME
	_ZN20HbEmailAddressFilter8instanceEv @ 1493 NONAME
	_ZN20HbEmailAddressFilterC1Ev @ 1494 NONAME
	_ZN20HbEmailAddressFilterC2Ev @ 1495 NONAME
	_ZN20HbEmailAddressFilterD0Ev @ 1496 NONAME
	_ZN20HbEmailAddressFilterD1Ev @ 1497 NONAME
	_ZN20HbEmailAddressFilterD2Ev @ 1498 NONAME
	_ZN20HbGestureSceneFilter10addGestureEP9HbGesture @ 1499 NONAME ABSENT
	_ZN20HbGestureSceneFilter11qt_metacallEN11QMetaObject4CallEiPPv @ 1500 NONAME ABSENT
	_ZN20HbGestureSceneFilter11qt_metacastEPKc @ 1501 NONAME ABSENT
	_ZN20HbGestureSceneFilter13removeGestureEP9HbGesture @ 1502 NONAME ABSENT
	_ZN20HbGestureSceneFilter15cancelLongPressEv @ 1503 NONAME ABSENT
	_ZN20HbGestureSceneFilter16sceneEventFilterEP13QGraphicsItemP6QEvent @ 1504 NONAME ABSENT
	_ZN20HbGestureSceneFilter16staticMetaObjectE @ 1505 NONAME DATA 16 ABSENT
	_ZN20HbGestureSceneFilter17completeLongPressEv @ 1506 NONAME ABSENT
	_ZN20HbGestureSceneFilter19getStaticMetaObjectEv @ 1507 NONAME ABSENT
	_ZN20HbGestureSceneFilter21setLongpressAnimationEb @ 1508 NONAME ABSENT
	_ZN20HbGestureSceneFilter21startLongPressCounterEv @ 1509 NONAME ABSENT
	_ZN20HbGestureSceneFilter21startLongPressWatcherEv @ 1510 NONAME ABSENT
	_ZN20HbGestureSceneFilter5countEv @ 1511 NONAME ABSENT
	_ZN20HbGestureSceneFilterC1EN2Qt11MouseButtonEP13QGraphicsItem @ 1512 NONAME ABSENT
	_ZN20HbGestureSceneFilterC2EN2Qt11MouseButtonEP13QGraphicsItem @ 1513 NONAME ABSENT
	_ZN20HbGestureSceneFilterD0Ev @ 1514 NONAME ABSENT
	_ZN20HbGestureSceneFilterD1Ev @ 1515 NONAME ABSENT
	_ZN20HbGestureSceneFilterD2Ev @ 1516 NONAME ABSENT
	_ZN20HbGraphicsPixmapItem11qt_metacallEN11QMetaObject4CallEiPPv @ 1517 NONAME ABSENT
	_ZN20HbGraphicsPixmapItem11qt_metacastEPKc @ 1518 NONAME ABSENT
	_ZN20HbGraphicsPixmapItem11updateThemeEv @ 1519 NONAME ABSENT
	_ZN20HbGraphicsPixmapItem16staticMetaObjectE @ 1520 NONAME DATA 16 ABSENT
	_ZN20HbGraphicsPixmapItem19getStaticMetaObjectEv @ 1521 NONAME ABSENT
	_ZN20HbGraphicsPixmapItem28handleLayoutDirectionChangedEN2Qt15LayoutDirectionE @ 1522 NONAME ABSENT
	_ZN20HbGraphicsPixmapItem4initEv @ 1523 NONAME ABSENT
	_ZN20HbGraphicsPixmapItem9setPixmapERK7QStringRK6QSizeFN2Qt15AspectRatioModeE @ 1524 NONAME ABSENT
	_ZN20HbGraphicsPixmapItemC1EP13QGraphicsItem @ 1525 NONAME ABSENT
	_ZN20HbGraphicsPixmapItemC1ERK7QPixmapP13QGraphicsItem @ 1526 NONAME ABSENT
	_ZN20HbGraphicsPixmapItemC1ERK7QStringP13QGraphicsItem @ 1527 NONAME ABSENT
	_ZN20HbGraphicsPixmapItemC1ERK7QStringRK6QSizeFN2Qt15AspectRatioModeEP13QGraphicsItem @ 1528 NONAME ABSENT
	_ZN20HbGraphicsPixmapItemC2EP13QGraphicsItem @ 1529 NONAME ABSENT
	_ZN20HbGraphicsPixmapItemC2ERK7QPixmapP13QGraphicsItem @ 1530 NONAME ABSENT
	_ZN20HbGraphicsPixmapItemC2ERK7QStringP13QGraphicsItem @ 1531 NONAME ABSENT
	_ZN20HbGraphicsPixmapItemC2ERK7QStringRK6QSizeFN2Qt15AspectRatioModeEP13QGraphicsItem @ 1532 NONAME ABSENT
	_ZN20HbGraphicsPixmapItemD0Ev @ 1533 NONAME ABSENT
	_ZN20HbGraphicsPixmapItemD1Ev @ 1534 NONAME ABSENT
	_ZN20HbGraphicsPixmapItemD2Ev @ 1535 NONAME ABSENT
	_ZN20HbIndicatorInterface10deactivateEv @ 1536 NONAME
	_ZN20HbIndicatorInterface11dataChangedEv @ 1537 NONAME
	_ZN20HbIndicatorInterface11qt_metacallEN11QMetaObject4CallEiPPv @ 1538 NONAME
	_ZN20HbIndicatorInterface11qt_metacastEPKc @ 1539 NONAME
	_ZN20HbIndicatorInterface16staticMetaObjectE @ 1540 NONAME DATA 16
	_ZN20HbIndicatorInterface17handleInteractionENS_15InteractionTypeE @ 1541 NONAME
	_ZN20HbIndicatorInterface19getStaticMetaObjectEv @ 1542 NONAME
	_ZN20HbIndicatorInterface19handleClientRequestENS_11RequestTypeERK8QVariant @ 1543 NONAME
	_ZN20HbIndicatorInterface20processClientRequestENS_11RequestTypeERK8QVariant @ 1544 NONAME
	_ZN20HbIndicatorInterfaceC2ERK7QStringNS_13GroupPriorityE6QFlagsINS_15InteractionTypeEE @ 1545 NONAME ABSENT
	_ZN20HbIndicatorInterfaceD0Ev @ 1546 NONAME
	_ZN20HbIndicatorInterfaceD1Ev @ 1547 NONAME
	_ZN20HbIndicatorInterfaceD2Ev @ 1548 NONAME
	_ZN20HbInteractionManager11qt_metacallEN11QMetaObject4CallEiPPv @ 1549 NONAME ABSENT
	_ZN20HbInteractionManager11qt_metacastEPKc @ 1550 NONAME ABSENT
	_ZN20HbInteractionManager14gestureStoppedEPK7QObjectN2Ia7GestureE @ 1551 NONAME ABSENT
	_ZN20HbInteractionManager16gestureTriggeredEPK7QObjectN2Ia7GestureE7QPointF @ 1552 NONAME ABSENT
	_ZN20HbInteractionManager16staticMetaObjectE @ 1553 NONAME DATA 16 ABSENT
	_ZN20HbInteractionManager19getStaticMetaObjectEv @ 1554 NONAME ABSENT
	_ZN20HbInteractionManager21registerCustomGestureEv @ 1555 NONAME ABSENT
	_ZN20HbInteractionManager25registerCustomInteractionEv @ 1556 NONAME ABSENT
	_ZN20HbInteractionManager3addEP21HbInteractionListener @ 1557 NONAME ABSENT
	_ZN20HbInteractionManager6removeEP21HbInteractionListener @ 1558 NONAME ABSENT
	_ZN20HbInteractionManager7pluginsEv @ 1559 NONAME ABSENT
	_ZN20HbInteractionManager8containsEP21HbInteractionListener @ 1560 NONAME ABSENT
	_ZN20HbInteractionManager9triggeredEPK7QObjectN2Ia11InteractionE @ 1561 NONAME ABSENT
	_ZN20HbInteractionManagerC1EP7QObject @ 1562 NONAME ABSENT
	_ZN20HbInteractionManagerC2EP7QObject @ 1563 NONAME ABSENT
	_ZN20HbInteractionManagerD0Ev @ 1564 NONAME ABSENT
	_ZN20HbInteractionManagerD1Ev @ 1565 NONAME ABSENT
	_ZN20HbInteractionManagerD2Ev @ 1566 NONAME ABSENT
	_ZN20HbListWidgetViewItem10createItemEv @ 1567 NONAME ABSENT
	_ZN20HbListWidgetViewItem11qt_metacallEN11QMetaObject4CallEiPPv @ 1568 NONAME ABSENT
	_ZN20HbListWidgetViewItem11qt_metacastEPKc @ 1569 NONAME ABSENT
	_ZN20HbListWidgetViewItem11setExpandedEb @ 1570 NONAME ABSENT
	_ZN20HbListWidgetViewItem13receivedFocusEv @ 1571 NONAME ABSENT
	_ZN20HbListWidgetViewItem15addItemToLayoutEP19QGraphicsLayoutItemiN16HbListWidgetItem14ListItemColumnEi @ 1572 NONAME ABSENT
	_ZN20HbListWidgetViewItem15expandAnimationEf @ 1573 NONAME ABSENT
	_ZN20HbListWidgetViewItem16staticMetaObjectE @ 1574 NONAME DATA 16 ABSENT
	_ZN20HbListWidgetViewItem16updateChildItemsEv @ 1575 NONAME ABSENT
	_ZN20HbListWidgetViewItem17createContentItemERK8QVariantiiN16HbListWidgetItem14ListItemColumnE @ 1576 NONAME ABSENT
	_ZN20HbListWidgetViewItem17deleteContentItemEP19QGraphicsLayoutItem @ 1577 NONAME ABSENT
	_ZN20HbListWidgetViewItem17updateContentItemEP19QGraphicsLayoutItemRK8QVariantiiN16HbListWidgetItem14ListItemColumnE @ 1578 NONAME ABSENT
	_ZN20HbListWidgetViewItem19getStaticMetaObjectEv @ 1579 NONAME ABSENT
	_ZN20HbListWidgetViewItem22expandAnimationTimeOutEf @ 1580 NONAME ABSENT
	_ZN20HbListWidgetViewItem23expandAnimationFinishedEv @ 1581 NONAME ABSENT
	_ZN20HbListWidgetViewItem8setStateERK4QMapIi8QVariantE @ 1582 NONAME ABSENT
	_ZN20HbListWidgetViewItem9lostFocusEv @ 1583 NONAME ABSENT
	_ZN20HbListWidgetViewItemC1EP13QGraphicsItem @ 1584 NONAME ABSENT
	_ZN20HbListWidgetViewItemC1ER27HbListWidgetViewItemPrivateP13QGraphicsItem @ 1585 NONAME ABSENT
	_ZN20HbListWidgetViewItemC1ERKS_ @ 1586 NONAME ABSENT
	_ZN20HbListWidgetViewItemC2EP13QGraphicsItem @ 1587 NONAME ABSENT
	_ZN20HbListWidgetViewItemC2ER27HbListWidgetViewItemPrivateP13QGraphicsItem @ 1588 NONAME ABSENT
	_ZN20HbListWidgetViewItemC2ERKS_ @ 1589 NONAME ABSENT
	_ZN20HbListWidgetViewItemD0Ev @ 1590 NONAME ABSENT
	_ZN20HbListWidgetViewItemD1Ev @ 1591 NONAME ABSENT
	_ZN20HbListWidgetViewItemD2Ev @ 1592 NONAME ABSENT
	_ZN20HbListWidgetViewItemaSERKS_ @ 1593 NONAME ABSENT
	_ZN20HbStyleOptionSoftKeyC1ERKS_ @ 1594 NONAME ABSENT
	_ZN20HbStyleOptionSoftKeyC1Ev @ 1595 NONAME ABSENT
	_ZN20HbStyleOptionSoftKeyC2ERKS_ @ 1596 NONAME ABSENT
	_ZN20HbStyleOptionSoftKeyC2Ev @ 1597 NONAME ABSENT
	_ZN20HbStyleOptionSoftKeyD1Ev @ 1598 NONAME ABSENT
	_ZN20HbStyleOptionSoftKeyD2Ev @ 1599 NONAME ABSENT
	_ZN20HbStyleOptionToolTipC1ERKS_ @ 1600 NONAME
	_ZN20HbStyleOptionToolTipC1Ev @ 1601 NONAME
	_ZN20HbStyleOptionToolTipC2ERKS_ @ 1602 NONAME
	_ZN20HbStyleOptionToolTipC2Ev @ 1603 NONAME
	_ZN20HbStyleOptionToolTipD1Ev @ 1604 NONAME
	_ZN20HbStyleOptionToolTipD2Ev @ 1605 NONAME
	_ZN21HbAbstractItemPrivateC1Ev @ 1606 NONAME ABSENT
	_ZN21HbAbstractItemPrivateC2Ev @ 1607 NONAME ABSENT
	_ZN21HbAbstractItemPrivateD0Ev @ 1608 NONAME ABSENT
	_ZN21HbAbstractItemPrivateD1Ev @ 1609 NONAME ABSENT
	_ZN21HbAbstractItemPrivateD2Ev @ 1610 NONAME ABSENT
	_ZN21HbExtraUserDictionary10removeWordERK7QString @ 1611 NONAME
	_ZN21HbExtraUserDictionary11findMatchesERK7QStringbN2Qt15CaseSensitivityE @ 1612 NONAME
	_ZN21HbExtraUserDictionary13setHostEngineEP16HbPredictionBase @ 1613 NONAME
	_ZN21HbExtraUserDictionary17incrementUseCountERK7QString @ 1614 NONAME
	_ZN21HbExtraUserDictionary4loadERK7QString @ 1615 NONAME
	_ZN21HbExtraUserDictionary4nameEv @ 1616 NONAME
	_ZN21HbExtraUserDictionary4saveERK7QString @ 1617 NONAME
	_ZN21HbExtraUserDictionary5clearEv @ 1618 NONAME
	_ZN21HbExtraUserDictionary5setIdEi @ 1619 NONAME
	_ZN21HbExtraUserDictionary6attachEv @ 1620 NONAME
	_ZN21HbExtraUserDictionary7addWordERK7QStringP20HbPredictionCallback @ 1621 NONAME
	_ZN21HbExtraUserDictionary8addWordsERK11QStringList @ 1622 NONAME
	_ZN21HbExtraUserDictionary8fileNameEv @ 1623 NONAME
	_ZN21HbExtraUserDictionary9listWordsEv @ 1624 NONAME
	_ZN21HbExtraUserDictionaryC1Ei @ 1625 NONAME
	_ZN21HbExtraUserDictionaryC1Ev @ 1626 NONAME
	_ZN21HbExtraUserDictionaryC2Ei @ 1627 NONAME
	_ZN21HbExtraUserDictionaryC2Ev @ 1628 NONAME
	_ZN21HbExtraUserDictionaryD0Ev @ 1629 NONAME
	_ZN21HbExtraUserDictionaryD1Ev @ 1630 NONAME
	_ZN21HbExtraUserDictionaryD2Ev @ 1631 NONAME
	_ZN21HbGridViewItemPrivate14updateIconItemERK17HbGridViewPrivate @ 1632 NONAME ABSENT
	_ZN21HbGridViewItemPrivate14updateTextItemERK17HbGridViewPrivate @ 1633 NONAME ABSENT
	_ZN21HbGridViewItemPrivate4iconERK8QVariant @ 1634 NONAME ABSENT
	_ZN21HbGridViewItemPrivate4textERK8QVariant @ 1635 NONAME ABSENT
	_ZN21HbGridViewItemPrivateC1EP18HbAbstractViewItem @ 1636 NONAME ABSENT
	_ZN21HbGridViewItemPrivateC2EP18HbAbstractViewItem @ 1637 NONAME ABSENT
	_ZN21HbGridViewItemPrivateD0Ev @ 1638 NONAME ABSENT
	_ZN21HbGridViewItemPrivateD1Ev @ 1639 NONAME ABSENT
	_ZN21HbGridViewItemPrivateD2Ev @ 1640 NONAME ABSENT
	_ZN21HbInteractionListener10setManagerEP20HbInteractionManager @ 1641 NONAME ABSENT
	_ZN21HbInteractionListener11draggedOverEPK7QObject @ 1642 NONAME ABSENT
	_ZN21HbInteractionListener11focusGainedEPK7QObject @ 1643 NONAME ABSENT
	_ZN21HbInteractionListener11keyRepeatedEPK7QObject @ 1644 NONAME ABSENT
	_ZN21HbInteractionListener11longPressedEPK7QObject @ 1645 NONAME ABSENT
	_ZN21HbInteractionListener11popupClosedEPK7QObject @ 1646 NONAME ABSENT
	_ZN21HbInteractionListener11popupOpenedEPK7QObject @ 1647 NONAME ABSENT
	_ZN21HbInteractionListener11qt_metacallEN11QMetaObject4CallEiPPv @ 1648 NONAME ABSENT
	_ZN21HbInteractionListener11qt_metacastEPKc @ 1649 NONAME ABSENT
	_ZN21HbInteractionListener14gestureStoppedEPK7QObjectN2Ia7GestureE @ 1650 NONAME ABSENT
	_ZN21HbInteractionListener15boundaryReachedEPK7QObject @ 1651 NONAME ABSENT
	_ZN21HbInteractionListener15customTriggeredEPK7QObjectN2Ia11InteractionE @ 1652 NONAME ABSENT
	_ZN21HbInteractionListener15listenerEnabledEv @ 1653 NONAME ABSENT
	_ZN21HbInteractionListener16gestureTriggeredEPK7QObjectN2Ia7GestureE7QPointF @ 1654 NONAME ABSENT
	_ZN21HbInteractionListener16listenerDisabledEv @ 1655 NONAME ABSENT
	_ZN21HbInteractionListener16rotated90DegreesEPK7QObject @ 1656 NONAME ABSENT
	_ZN21HbInteractionListener16selectionChangedEPK7QObject @ 1657 NONAME ABSENT
	_ZN21HbInteractionListener16staticMetaObjectE @ 1658 NONAME DATA 16 ABSENT
	_ZN21HbInteractionListener19getStaticMetaObjectEv @ 1659 NONAME ABSENT
	_ZN21HbInteractionListener19multitouchActivatedEPK7QObject @ 1660 NONAME ABSENT
	_ZN21HbInteractionListener5eventEP6QEvent @ 1661 NONAME ABSENT
	_ZN21HbInteractionListener6enableEv @ 1662 NONAME ABSENT
	_ZN21HbInteractionListener6swipedEPK7QObject @ 1663 NONAME ABSENT
	_ZN21HbInteractionListener7clickedEPK7QObject @ 1664 NONAME ABSENT
	_ZN21HbInteractionListener7disableEv @ 1665 NONAME ABSENT
	_ZN21HbInteractionListener7pressedEPK7QObject @ 1666 NONAME ABSENT
	_ZN21HbInteractionListener8releasedEPK7QObject @ 1667 NONAME ABSENT
	_ZN21HbInteractionListener9focusLostEPK7QObject @ 1668 NONAME ABSENT
	_ZN21HbInteractionListener9isEnabledEv @ 1669 NONAME ABSENT
	_ZN21HbInteractionListener9triggeredEPK7QObjectN2Ia11InteractionE @ 1670 NONAME ABSENT
	_ZN21HbInteractionListenerC1EP20HbInteractionManager @ 1671 NONAME ABSENT
	_ZN21HbInteractionListenerC1Ev @ 1672 NONAME ABSENT
	_ZN21HbInteractionListenerC2EP20HbInteractionManager @ 1673 NONAME ABSENT
	_ZN21HbInteractionListenerC2Ev @ 1674 NONAME ABSENT
	_ZN21HbInteractionListenerD0Ev @ 1675 NONAME ABSENT
	_ZN21HbInteractionListenerD1Ev @ 1676 NONAME ABSENT
	_ZN21HbInteractionListenerD2Ev @ 1677 NONAME ABSENT
	_ZN21HbListViewItemPrivate10deleteItemEP19QGraphicsLayoutItem @ 1678 NONAME ABSENT
	_ZN21HbListViewItemPrivate14setDisplayRoleE7QStringP25HbStyleOptionListViewItemi @ 1679 NONAME ABSENT
	_ZN21HbListViewItemPrivate17setDecorationRoleE8QVariantP25HbStyleOptionListViewItemi @ 1680 NONAME ABSENT
	_ZN21HbListViewItemPrivate4initEv @ 1681 NONAME ABSENT
	_ZN21HbListViewItemPrivateC1EP14HbListViewItem @ 1682 NONAME ABSENT
	_ZN21HbListViewItemPrivateC1ERKS_ @ 1683 NONAME ABSENT
	_ZN21HbListViewItemPrivateC2EP14HbListViewItem @ 1684 NONAME ABSENT
	_ZN21HbListViewItemPrivateC2ERKS_ @ 1685 NONAME ABSENT
	_ZN21HbListViewItemPrivateD0Ev @ 1686 NONAME ABSENT
	_ZN21HbListViewItemPrivateD1Ev @ 1687 NONAME ABSENT
	_ZN21HbListViewItemPrivateD2Ev @ 1688 NONAME ABSENT
	_ZN21HbListViewItemPrivateaSERKS_ @ 1689 NONAME ABSENT
	_ZN21HbMenuListViewPrivateC1Ev @ 1690 NONAME ABSENT
	_ZN21HbMenuListViewPrivateC2Ev @ 1691 NONAME ABSENT
	_ZN21HbMenuListViewPrivateD0Ev @ 1692 NONAME ABSENT
	_ZN21HbMenuListViewPrivateD1Ev @ 1693 NONAME ABSENT
	_ZN21HbMenuListViewPrivateD2Ev @ 1694 NONAME ABSENT
	_ZN21HbSharedMemoryManager10initializeEv @ 1695 NONAME
	_ZN21HbSharedMemoryManager10memManagerE @ 1696 NONAME DATA 4 ABSENT
	_ZN21HbSharedMemoryManager15releaseInstanceEv @ 1697 NONAME ABSENT
	_ZN21HbSharedMemoryManager4baseEv @ 1698 NONAME
	_ZN21HbSharedMemoryManager4freeEi @ 1699 NONAME
	_ZN21HbSharedMemoryManager5allocEi @ 1700 NONAME
	_ZN21HbSharedMemoryManager7reallocEii @ 1701 NONAME
	_ZN21HbSharedMemoryManager8instanceEv @ 1702 NONAME ABSENT
	_ZN21HbSharedMemoryManagerC1Ev @ 1703 NONAME
	_ZN21HbSharedMemoryManagerC2Ev @ 1704 NONAME
	_ZN21HbSharedMemoryManagerD0Ev @ 1705 NONAME
	_ZN21HbSharedMemoryManagerD1Ev @ 1706 NONAME
	_ZN21HbSharedMemoryManagerD2Ev @ 1707 NONAME
	_ZN21HbStyleOptionCheckBoxC1ERKS_ @ 1708 NONAME
	_ZN21HbStyleOptionCheckBoxC1Ev @ 1709 NONAME
	_ZN21HbStyleOptionCheckBoxC2ERKS_ @ 1710 NONAME
	_ZN21HbStyleOptionCheckBoxC2Ev @ 1711 NONAME
	_ZN21HbStyleOptionCheckBoxD1Ev @ 1712 NONAME
	_ZN21HbStyleOptionCheckBoxD2Ev @ 1713 NONAME
	_ZN21HbStyleOptionDataFormC1ERKS_ @ 1714 NONAME
	_ZN21HbStyleOptionDataFormC1Ev @ 1715 NONAME
	_ZN21HbStyleOptionDataFormC2ERKS_ @ 1716 NONAME
	_ZN21HbStyleOptionDataFormC2Ev @ 1717 NONAME
	_ZN21HbStyleOptionDataFormD1Ev @ 1718 NONAME
	_ZN21HbStyleOptionDataFormD2Ev @ 1719 NONAME
	_ZN21HbStyleOptionDataItemC1ERKS_ @ 1720 NONAME ABSENT
	_ZN21HbStyleOptionDataItemC1Ev @ 1721 NONAME ABSENT
	_ZN21HbStyleOptionDataItemC2ERKS_ @ 1722 NONAME ABSENT
	_ZN21HbStyleOptionDataItemC2Ev @ 1723 NONAME ABSENT
	_ZN21HbStyleOptionDataItemD1Ev @ 1724 NONAME ABSENT
	_ZN21HbStyleOptionDataItemD2Ev @ 1725 NONAME ABSENT
	_ZN21HbStyleOptionMenuItemC1ERKS_ @ 1726 NONAME ABSENT
	_ZN21HbStyleOptionMenuItemC1Ev @ 1727 NONAME ABSENT
	_ZN21HbStyleOptionMenuItemC2ERKS_ @ 1728 NONAME ABSENT
	_ZN21HbStyleOptionMenuItemC2Ev @ 1729 NONAME ABSENT
	_ZN21HbStyleOptionMenuItemD1Ev @ 1730 NONAME ABSENT
	_ZN21HbStyleOptionMenuItemD2Ev @ 1731 NONAME ABSENT
	_ZN21HbTestabilitySignal_p11qt_metacallEN11QMetaObject4CallEiPPv @ 1732 NONAME
	_ZN21HbTestabilitySignal_p11qt_metacastEPKc @ 1733 NONAME
	_ZN21HbTestabilitySignal_p12enableSignalEb @ 1734 NONAME
	_ZN21HbTestabilitySignal_p15propertyChangesEN13QGraphicsItem18GraphicsItemChangeERK8QVariant @ 1735 NONAME
	_ZN21HbTestabilitySignal_p16staticMetaObjectE @ 1736 NONAME DATA 16
	_ZN21HbTestabilitySignal_p19getStaticMetaObjectEv @ 1737 NONAME
	_ZN21HbTestabilitySignal_pC1EP7QObject @ 1738 NONAME
	_ZN21HbTestabilitySignal_pC2EP7QObject @ 1739 NONAME
	_ZN21HbTestabilitySignal_pD0Ev @ 1740 NONAME
	_ZN21HbTestabilitySignal_pD1Ev @ 1741 NONAME
	_ZN21HbTestabilitySignal_pD2Ev @ 1742 NONAME
	_ZN22HbIconAnimationManager13addDefinitionERK7QStringRK25HbIconAnimationDefinition @ 1743 NONAME
	_ZN22HbIconAnimationManager13getDefinitionERK7QString @ 1744 NONAME
	_ZN22HbIconAnimationManager16removeDefinitionERK7QString @ 1745 NONAME
	_ZN22HbIconAnimationManager17addDefinitionFileERK7QString @ 1746 NONAME
	_ZN22HbIconAnimationManager20removeDefinitionFileERK7QString @ 1747 NONAME
	_ZN22HbIconAnimationManager6globalEv @ 1748 NONAME
	_ZN22HbIconAnimationManagerC1Ev @ 1749 NONAME
	_ZN22HbIconAnimationManagerC2Ev @ 1750 NONAME
	_ZN22HbIconAnimationManagerD1Ev @ 1751 NONAME
	_ZN22HbIconAnimationManagerD2Ev @ 1752 NONAME
	_ZN22HbInputLowerCaseFilter6filterE5QChar @ 1753 NONAME
	_ZN22HbInputLowerCaseFilter8instanceEv @ 1754 NONAME
	_ZN22HbInputUpperCaseFilter6filterE5QChar @ 1755 NONAME
	_ZN22HbInputUpperCaseFilter8instanceEv @ 1756 NONAME
	_ZN22HbStyleOptionDataGroupC1ERKS_ @ 1757 NONAME
	_ZN22HbStyleOptionDataGroupC1Ev @ 1758 NONAME
	_ZN22HbStyleOptionDataGroupC2ERKS_ @ 1759 NONAME
	_ZN22HbStyleOptionDataGroupC2Ev @ 1760 NONAME
	_ZN22HbStyleOptionDataGroupD1Ev @ 1761 NONAME
	_ZN22HbStyleOptionDataGroupD2Ev @ 1762 NONAME
	_ZN22HbStyleOptionDataQueryC1ERKS_ @ 1763 NONAME ABSENT
	_ZN22HbStyleOptionDataQueryC1Ev @ 1764 NONAME ABSENT
	_ZN22HbStyleOptionDataQueryC2ERKS_ @ 1765 NONAME ABSENT
	_ZN22HbStyleOptionDataQueryC2Ev @ 1766 NONAME ABSENT
	_ZN22HbStyleOptionDataQueryD1Ev @ 1767 NONAME ABSENT
	_ZN22HbStyleOptionDataQueryD2Ev @ 1768 NONAME ABSENT
	_ZN22HbStyleOptionDecoratorC1ERKS_ @ 1769 NONAME ABSENT
	_ZN22HbStyleOptionDecoratorC1Ev @ 1770 NONAME ABSENT
	_ZN22HbStyleOptionDecoratorC2ERKS_ @ 1771 NONAME ABSENT
	_ZN22HbStyleOptionDecoratorC2Ev @ 1772 NONAME ABSENT
	_ZN22HbStyleOptionDecoratorD1Ev @ 1773 NONAME ABSENT
	_ZN22HbStyleOptionDecoratorD2Ev @ 1774 NONAME ABSENT
	_ZN22HbStyleOptionScrollBarC1ERKS_ @ 1775 NONAME ABSENT
	_ZN22HbStyleOptionScrollBarC1Ev @ 1776 NONAME ABSENT
	_ZN22HbStyleOptionScrollBarC2ERKS_ @ 1777 NONAME ABSENT
	_ZN22HbStyleOptionScrollBarC2Ev @ 1778 NONAME ABSENT
	_ZN22HbStyleOptionScrollBarD1Ev @ 1779 NONAME ABSENT
	_ZN22HbStyleOptionScrollBarD2Ev @ 1780 NONAME ABSENT
	_ZN22HbStyleOptionTitlePaneC1ERKS_ @ 1781 NONAME
	_ZN22HbStyleOptionTitlePaneC1Ev @ 1782 NONAME
	_ZN22HbStyleOptionTitlePaneC2ERKS_ @ 1783 NONAME
	_ZN22HbStyleOptionTitlePaneC2Ev @ 1784 NONAME
	_ZN22HbStyleOptionTitlePaneD1Ev @ 1785 NONAME
	_ZN22HbStyleOptionTitlePaneD2Ev @ 1786 NONAME
	_ZN23HbAbstractButtonPrivate11emitClickedEv @ 1787 NONAME
	_ZN23HbAbstractButtonPrivate11emitPressedEv @ 1788 NONAME
	_ZN23HbAbstractButtonPrivate12emitReleasedEv @ 1789 NONAME
	_ZN23HbAbstractButtonPrivate13notifyCheckedEv @ 1790 NONAME
	_ZN23HbAbstractButtonPrivate14fixFocusPolicyEv @ 1791 NONAME
	_ZN23HbAbstractButtonPrivate4initEv @ 1792 NONAME
	_ZN23HbAbstractButtonPrivate5clickEv @ 1793 NONAME
	_ZN23HbAbstractButtonPrivate7refreshEv @ 1794 NONAME
	_ZN23HbAbstractButtonPrivate9moveFocusEi @ 1795 NONAME
	_ZN23HbAbstractButtonPrivateC1EN11QSizePolicy11ControlTypeE @ 1796 NONAME
	_ZN23HbAbstractButtonPrivateC2EN11QSizePolicy11ControlTypeE @ 1797 NONAME
	_ZN23HbAbstractButtonPrivateD0Ev @ 1798 NONAME
	_ZN23HbAbstractButtonPrivateD1Ev @ 1799 NONAME
	_ZN23HbAbstractButtonPrivateD2Ev @ 1800 NONAME
	_ZN23HbAbstractItemContainer10insertItemEiRK11QModelIndex @ 1801 NONAME ABSENT
	_ZN23HbAbstractItemContainer10itemChangeEN13QGraphicsItem18GraphicsItemChangeERK8QVariant @ 1802 NONAME ABSENT
	_ZN23HbAbstractItemContainer10removeItemERK11QModelIndex @ 1803 NONAME ABSENT
	_ZN23HbAbstractItemContainer10removeItemEi @ 1804 NONAME ABSENT
	_ZN23HbAbstractItemContainer11eventFilterEP7QObjectP6QEvent @ 1805 NONAME ABSENT
	_ZN23HbAbstractItemContainer11qt_metacallEN11QMetaObject4CallEiPPv @ 1806 NONAME ABSENT
	_ZN23HbAbstractItemContainer11qt_metacastEPKc @ 1807 NONAME ABSENT
	_ZN23HbAbstractItemContainer11removeItemsEv @ 1808 NONAME ABSENT
	_ZN23HbAbstractItemContainer11setItemViewEP18HbAbstractItemView @ 1809 NONAME ABSENT
	_ZN23HbAbstractItemContainer12recycleItemsERK7QPointF @ 1810 NONAME ABSENT
	_ZN23HbAbstractItemContainer12setItemStateERK11QModelIndex4QMapIi8QVariantE @ 1811 NONAME ABSENT
	_ZN23HbAbstractItemContainer13setBufferSizeEi @ 1812 NONAME ABSENT
	_ZN23HbAbstractItemContainer15setModelIndexesERK11QModelIndex @ 1813 NONAME ABSENT
	_ZN23HbAbstractItemContainer16removeItemStatesEv @ 1814 NONAME ABSENT
	_ZN23HbAbstractItemContainer16setItemPrototypeEP18HbAbstractViewItem @ 1815 NONAME ABSENT
	_ZN23HbAbstractItemContainer16setItemRecyclingEb @ 1816 NONAME ABSENT
	_ZN23HbAbstractItemContainer16staticMetaObjectE @ 1817 NONAME DATA 16 ABSENT
	_ZN23HbAbstractItemContainer17setItemModelIndexEP18HbAbstractViewItemRK11QModelIndex @ 1818 NONAME ABSENT
	_ZN23HbAbstractItemContainer17setItemPrototypesERK5QListIP18HbAbstractViewItemE @ 1819 NONAME ABSENT
	_ZN23HbAbstractItemContainer17setItemStateValueERK11QModelIndexi8QVariant @ 1820 NONAME ABSENT
	_ZN23HbAbstractItemContainer19getStaticMetaObjectEv @ 1821 NONAME ABSENT
	_ZN23HbAbstractItemContainer19setUniformItemSizesEb @ 1822 NONAME ABSENT
	_ZN23HbAbstractItemContainer5eventEP6QEvent @ 1823 NONAME ABSENT
	_ZN23HbAbstractItemContainer5resetEv @ 1824 NONAME ABSENT
	_ZN23HbAbstractItemContainer7addItemERK11QModelIndex @ 1825 NONAME ABSENT
	_ZN23HbAbstractItemContainerC2EP13QGraphicsItem @ 1826 NONAME ABSENT
	_ZN23HbAbstractItemContainerC2ER30HbAbstractItemContainerPrivateP13QGraphicsItem @ 1827 NONAME ABSENT
	_ZN23HbAbstractItemContainerD0Ev @ 1828 NONAME ABSENT
	_ZN23HbAbstractItemContainerD1Ev @ 1829 NONAME ABSENT
	_ZN23HbAbstractItemContainerD2Ev @ 1830 NONAME ABSENT
	_ZN23HbConverterNumberFilter6filterE5QChar @ 1831 NONAME ABSENT
	_ZN23HbConverterNumberFilter8instanceEv @ 1832 NONAME ABSENT
	_ZN23HbConverterNumberFilterC1Ev @ 1833 NONAME ABSENT
	_ZN23HbConverterNumberFilterC2Ev @ 1834 NONAME ABSENT
	_ZN23HbConverterNumberFilterD0Ev @ 1835 NONAME ABSENT
	_ZN23HbConverterNumberFilterD1Ev @ 1836 NONAME ABSENT
	_ZN23HbConverterNumberFilterD2Ev @ 1837 NONAME ABSENT
	_ZN23HbInputCustomButtonBank10buttonCodeEP19HbInputCustomButton @ 1838 NONAME ABSENT
	_ZN23HbInputCustomButtonBank11qt_metacallEN11QMetaObject4CallEiPPv @ 1839 NONAME ABSENT
	_ZN23HbInputCustomButtonBank11qt_metacastEPKc @ 1840 NONAME ABSENT
	_ZN23HbInputCustomButtonBank12removeButtonEP19HbInputCustomButton @ 1841 NONAME ABSENT
	_ZN23HbInputCustomButtonBank16findByButtonCodeEi @ 1842 NONAME ABSENT
	_ZN23HbInputCustomButtonBank16staticMetaObjectE @ 1843 NONAME DATA 16 ABSENT
	_ZN23HbInputCustomButtonBank18isCustomButtonCodeEi @ 1844 NONAME ABSENT
	_ZN23HbInputCustomButtonBank19customButtonPressedEi @ 1845 NONAME ABSENT
	_ZN23HbInputCustomButtonBank19getStaticMetaObjectEv @ 1846 NONAME ABSENT
	_ZN23HbInputCustomButtonBank19notifyButtonPressedEi @ 1847 NONAME ABSENT
	_ZN23HbInputCustomButtonBank9addButtonEP19HbInputCustomButton @ 1848 NONAME ABSENT
	_ZN23HbInputCustomButtonBankC1Ei @ 1849 NONAME ABSENT
	_ZN23HbInputCustomButtonBankC2Ei @ 1850 NONAME ABSENT
	_ZN23HbInputCustomButtonBankD0Ev @ 1851 NONAME ABSENT
	_ZN23HbInputCustomButtonBankD1Ev @ 1852 NONAME ABSENT
	_ZN23HbInputCustomButtonBankD2Ev @ 1853 NONAME ABSENT
	_ZN23HbStyleOptionCommonNoteC1ERKS_ @ 1854 NONAME ABSENT
	_ZN23HbStyleOptionCommonNoteC1Ev @ 1855 NONAME ABSENT
	_ZN23HbStyleOptionCommonNoteC2ERKS_ @ 1856 NONAME ABSENT
	_ZN23HbStyleOptionCommonNoteC2Ev @ 1857 NONAME ABSENT
	_ZN23HbStyleOptionCommonNoteD1Ev @ 1858 NONAME ABSENT
	_ZN23HbStyleOptionCommonNoteD2Ev @ 1859 NONAME ABSENT
	_ZN23HbStyleOptionMessageBoxC1ERKS_ @ 1860 NONAME
	_ZN23HbStyleOptionMessageBoxC1Ev @ 1861 NONAME
	_ZN23HbStyleOptionMessageBoxC2ERKS_ @ 1862 NONAME
	_ZN23HbStyleOptionMessageBoxC2Ev @ 1863 NONAME
	_ZN23HbStyleOptionMessageBoxD1Ev @ 1864 NONAME
	_ZN23HbStyleOptionMessageBoxD2Ev @ 1865 NONAME
	_ZN23HbStyleOptionPushButtonC1ERKS_ @ 1866 NONAME
	_ZN23HbStyleOptionPushButtonC1Ev @ 1867 NONAME
	_ZN23HbStyleOptionPushButtonC2ERKS_ @ 1868 NONAME
	_ZN23HbStyleOptionPushButtonC2Ev @ 1869 NONAME
	_ZN23HbStyleOptionPushButtonD1Ev @ 1870 NONAME
	_ZN23HbStyleOptionPushButtonD2Ev @ 1871 NONAME
	_ZN23HbStyleOptionToolButtonC1ERKS_ @ 1872 NONAME
	_ZN23HbStyleOptionToolButtonC1Ev @ 1873 NONAME
	_ZN23HbStyleOptionToolButtonC2ERKS_ @ 1874 NONAME
	_ZN23HbStyleOptionToolButtonC2Ev @ 1875 NONAME
	_ZN23HbStyleOptionToolButtonD1Ev @ 1876 NONAME
	_ZN23HbStyleOptionToolButtonD2Ev @ 1877 NONAME
	_ZN24HbDirectoryNameLocalizer10m_instanceE @ 1878 NONAME DATA 4 ABSENT
	_ZN24HbDirectoryNameLocalizer8instanceEv @ 1879 NONAME ABSENT
	_ZN24HbDirectoryNameLocalizerC1Ev @ 1880 NONAME
	_ZN24HbDirectoryNameLocalizerC2Ev @ 1881 NONAME
	_ZN24HbDirectoryNameLocalizerD1Ev @ 1882 NONAME
	_ZN24HbDirectoryNameLocalizerD2Ev @ 1883 NONAME
	_ZN24HbExtraDictionaryFactory11qt_metacallEN11QMetaObject4CallEiPPv @ 1884 NONAME
	_ZN24HbExtraDictionaryFactory11qt_metacastEPKc @ 1885 NONAME
	_ZN24HbExtraDictionaryFactory16createDictionaryEiRK11QStringList @ 1886 NONAME
	_ZN24HbExtraDictionaryFactory16staticMetaObjectE @ 1887 NONAME DATA 16
	_ZN24HbExtraDictionaryFactory18existingDictionaryEi @ 1888 NONAME
	_ZN24HbExtraDictionaryFactory19getStaticMetaObjectEv @ 1889 NONAME
	_ZN24HbExtraDictionaryFactory8instanceEv @ 1890 NONAME
	_ZN24HbExtraDictionaryFactory8shutdownEv @ 1891 NONAME
	_ZN24HbExtraDictionaryFactoryC1Ev @ 1892 NONAME
	_ZN24HbExtraDictionaryFactoryC2Ev @ 1893 NONAME
	_ZN24HbExtraDictionaryFactoryD0Ev @ 1894 NONAME
	_ZN24HbExtraDictionaryFactoryD1Ev @ 1895 NONAME
	_ZN24HbExtraDictionaryFactoryD2Ev @ 1896 NONAME
	_ZN24HbInputCustomButtonStore10removeBankEi @ 1897 NONAME ABSENT
	_ZN24HbInputCustomButtonStore4bankEi @ 1898 NONAME ABSENT
	_ZN24HbInputCustomButtonStore6buttonEii @ 1899 NONAME ABSENT
	_ZN24HbInputCustomButtonStore7newBankEv @ 1900 NONAME ABSENT
	_ZN24HbInputCustomButtonStore8instanceEv @ 1901 NONAME ABSENT
	_ZN24HbInputCustomButtonStoreC1Ev @ 1902 NONAME ABSENT
	_ZN24HbInputCustomButtonStoreC2Ev @ 1903 NONAME ABSENT
	_ZN24HbInputCustomButtonStoreD0Ev @ 1904 NONAME ABSENT
	_ZN24HbInputCustomButtonStoreD1Ev @ 1905 NONAME ABSENT
	_ZN24HbInputCustomButtonStoreD2Ev @ 1906 NONAME ABSENT
	_ZN24HbInputStateMachineLatin8instanceEv @ 1907 NONAME ABSENT
	_ZN24HbInputStateMachineLatin9nextStateERK12HbInputStateRS0_20HbInputStateModifier @ 1908 NONAME ABSENT
	_ZN24HbInteractionPluginGroup11loadPluginsE7QString @ 1909 NONAME ABSENT
	_ZN24HbInteractionPluginGroup11loadPluginsEv @ 1910 NONAME ABSENT
	_ZN24HbInteractionPluginGroup11qt_metacallEN11QMetaObject4CallEiPPv @ 1911 NONAME ABSENT
	_ZN24HbInteractionPluginGroup11qt_metacastEPKc @ 1912 NONAME ABSENT
	_ZN24HbInteractionPluginGroup13enableFeatureE7QString @ 1913 NONAME ABSENT
	_ZN24HbInteractionPluginGroup14disableFeatureE7QString @ 1914 NONAME ABSENT
	_ZN24HbInteractionPluginGroup16isFeatureEnabledE7QString @ 1915 NONAME ABSENT
	_ZN24HbInteractionPluginGroup16staticMetaObjectE @ 1916 NONAME DATA 16 ABSENT
	_ZN24HbInteractionPluginGroup18isFeatureSupportedE7QString @ 1917 NONAME ABSENT
	_ZN24HbInteractionPluginGroup19getStaticMetaObjectEv @ 1918 NONAME ABSENT
	_ZN24HbInteractionPluginGroup9addPluginEP19HbInteractionPlugin @ 1919 NONAME ABSENT
	_ZN24HbInteractionPluginGroupC1ER20HbInteractionManager @ 1920 NONAME ABSENT
	_ZN24HbInteractionPluginGroupC2ER20HbInteractionManager @ 1921 NONAME ABSENT
	_ZN24HbInteractionPluginGroupD0Ev @ 1922 NONAME ABSENT
	_ZN24HbInteractionPluginGroupD1Ev @ 1923 NONAME ABSENT
	_ZN24HbInteractionPluginGroupD2Ev @ 1924 NONAME ABSENT
	_ZN24HbListItemStandardLayout11setGeometryERK6QRectF @ 1925 NONAME ABSENT
	_ZN24HbListItemStandardLayout11widgetEventEP6QEvent @ 1926 NONAME ABSENT
	_ZN24HbListItemStandardLayout14updateGeometryEv @ 1927 NONAME ABSENT
	_ZN24HbListItemStandardLayout6insertEP19QGraphicsLayoutItemiii @ 1928 NONAME ABSENT
	_ZN24HbListItemStandardLayout8removeAtEi @ 1929 NONAME ABSENT
	_ZN24HbListItemStandardLayoutC1EP19QGraphicsLayoutItemP12HbListParams @ 1930 NONAME ABSENT
	_ZN24HbListItemStandardLayoutC2EP19QGraphicsLayoutItemP12HbListParams @ 1931 NONAME ABSENT
	_ZN24HbListItemStandardLayoutD0Ev @ 1932 NONAME ABSENT
	_ZN24HbListItemStandardLayoutD1Ev @ 1933 NONAME ABSENT
	_ZN24HbListItemStandardLayoutD2Ev @ 1934 NONAME ABSENT
	_ZN24HbStyleOptionProgressBarC1ERKS_ @ 1935 NONAME
	_ZN24HbStyleOptionProgressBarC1Ev @ 1936 NONAME
	_ZN24HbStyleOptionProgressBarC2ERKS_ @ 1937 NONAME
	_ZN24HbStyleOptionProgressBarC2Ev @ 1938 NONAME
	_ZN24HbStyleOptionProgressBarD1Ev @ 1939 NONAME
	_ZN24HbStyleOptionProgressBarD2Ev @ 1940 NONAME
	_ZN24HbStyleOptionSettingFormC1ERKS_ @ 1941 NONAME ABSENT
	_ZN24HbStyleOptionSettingFormC1Ev @ 1942 NONAME ABSENT
	_ZN24HbStyleOptionSettingFormC2ERKS_ @ 1943 NONAME ABSENT
	_ZN24HbStyleOptionSettingFormC2Ev @ 1944 NONAME ABSENT
	_ZN24HbStyleOptionSettingFormD1Ev @ 1945 NONAME ABSENT
	_ZN24HbStyleOptionSettingFormD2Ev @ 1946 NONAME ABSENT
	_ZN24HbStyleOptionSettingItemC1ERKS_ @ 1947 NONAME ABSENT
	_ZN24HbStyleOptionSettingItemC1Ev @ 1948 NONAME ABSENT
	_ZN24HbStyleOptionSettingItemC2ERKS_ @ 1949 NONAME ABSENT
	_ZN24HbStyleOptionSettingItemC2Ev @ 1950 NONAME ABSENT
	_ZN24HbStyleOptionSettingItemD1Ev @ 1951 NONAME ABSENT
	_ZN24HbStyleOptionSettingItemD2Ev @ 1952 NONAME ABSENT
	_ZN25HbAbstractItemViewPrivate10revealItemEPK18HbAbstractViewItem @ 1953 NONAME ABSENT
	_ZN25HbAbstractItemViewPrivate11scrollToTopEPK18HbAbstractViewItem @ 1954 NONAME ABSENT
	_ZN25HbAbstractItemViewPrivate11updateItemsEv @ 1955 NONAME ABSENT
	_ZN25HbAbstractItemViewPrivate13scrollByItemsEbi @ 1956 NONAME ABSENT
	_ZN25HbAbstractItemViewPrivate14pixelsToScrollEPK18HbAbstractViewItem @ 1957 NONAME ABSENT
	_ZN25HbAbstractItemViewPrivate15handleScrollBarEN2Qt11OrientationE @ 1958 NONAME ABSENT
	_ZN25HbAbstractItemViewPrivate15updateScrollBarEN2Qt11OrientationE @ 1959 NONAME ABSENT
	_ZN25HbAbstractItemViewPrivate16_q_layoutChangedEv @ 1960 NONAME ABSENT
	_ZN25HbAbstractItemViewPrivate17_q_modelDestroyedEv @ 1961 NONAME ABSENT
	_ZN25HbAbstractItemViewPrivate17clearCurrentModelEv @ 1962 NONAME ABSENT
	_ZN25HbAbstractItemViewPrivate17setSelectionModelEP19QItemSelectionModel @ 1963 NONAME ABSENT
	_ZN25HbAbstractItemViewPrivate18initializeNewModelEv @ 1964 NONAME ABSENT
	_ZN25HbAbstractItemViewPrivate19setScrollBarMetricsEN2Qt11OrientationE @ 1965 NONAME ABSENT
	_ZN25HbAbstractItemViewPrivate21multiSelectionCommandEPK18HbAbstractViewItemPK6QEvent @ 1966 NONAME ABSENT
	_ZN25HbAbstractItemViewPrivate23resetContiguousSettingsEv @ 1967 NONAME ABSENT
	_ZN25HbAbstractItemViewPrivate24refreshContainerGeometryEv @ 1968 NONAME ABSENT
	_ZN25HbAbstractItemViewPrivate26contiguousSelectionCommandEPK18HbAbstractViewItemPK6QEventb @ 1969 NONAME ABSENT
	_ZN25HbAbstractItemViewPrivate35updateScrollBarForUniformSizedItemsEv @ 1970 NONAME ABSENT
	_ZN25HbAbstractItemViewPrivate36updateScrollBarForVariableSizedItemsEv @ 1971 NONAME ABSENT
	_ZN25HbAbstractItemViewPrivate38saveIndexMadeVisibleAfterMetricsChangeEv @ 1972 NONAME ABSENT
	_ZN25HbAbstractItemViewPrivate4initEP23HbAbstractItemContainer @ 1973 NONAME ABSENT
	_ZN25HbAbstractItemViewPrivate8setModelEP18QAbstractItemModel @ 1974 NONAME ABSENT
	_ZN25HbAbstractItemViewPrivateC1Ev @ 1975 NONAME ABSENT
	_ZN25HbAbstractItemViewPrivateC2Ev @ 1976 NONAME ABSENT
	_ZN25HbAbstractItemViewPrivateD0Ev @ 1977 NONAME ABSENT
	_ZN25HbAbstractItemViewPrivateD1Ev @ 1978 NONAME ABSENT
	_ZN25HbAbstractItemViewPrivateD2Ev @ 1979 NONAME ABSENT
	_ZN25HbAbstractViewItemPrivate4initEv @ 1980 NONAME ABSENT
	_ZN25HbGraphicsSceneMouseEvent9LongPressE @ 1981 NONAME DATA 4 ABSENT
	_ZN25HbGraphicsSceneMouseEventC1Ei @ 1982 NONAME ABSENT
	_ZN25HbGraphicsSceneMouseEventC2Ei @ 1983 NONAME ABSENT
	_ZN25HbIconAnimationDefinition11setPlayModeENS_8PlayModeE @ 1984 NONAME
	_ZN25HbIconAnimationDefinition12setFrameListERK5QListINS_14AnimationFrameEE @ 1985 NONAME
	_ZN25HbIconAnimationDefinitionC1ERKS_ @ 1986 NONAME
	_ZN25HbIconAnimationDefinitionC1Ev @ 1987 NONAME
	_ZN25HbIconAnimationDefinitionC2ERKS_ @ 1988 NONAME
	_ZN25HbIconAnimationDefinitionC2Ev @ 1989 NONAME
	_ZN25HbIconAnimationDefinitionD1Ev @ 1990 NONAME
	_ZN25HbIconAnimationDefinitionD2Ev @ 1991 NONAME
	_ZN25HbIconAnimationDefinitionaSERKS_ @ 1992 NONAME
	_ZN25HbInteractionGestureEvent11GestureStopE @ 1993 NONAME DATA 4 ABSENT
	_ZN25HbInteractionGestureEvent7GestureE @ 1994 NONAME DATA 4 ABSENT
	_ZN25HbInteractionGestureEventC1EiPK7QObjectN2Ia7GestureE7QPointF @ 1995 NONAME ABSENT
	_ZN25HbInteractionGestureEventC2EiPK7QObjectN2Ia7GestureE7QPointF @ 1996 NONAME ABSENT
	_ZN25HbInteractionGestureEventD0Ev @ 1997 NONAME ABSENT
	_ZN25HbInteractionGestureEventD1Ev @ 1998 NONAME ABSENT
	_ZN25HbInteractionGestureEventD2Ev @ 1999 NONAME ABSENT
	_ZN25HbLayoutDirectionNotifier11qt_metacallEN11QMetaObject4CallEiPPv @ 2000 NONAME
	_ZN25HbLayoutDirectionNotifier11qt_metacastEPKc @ 2001 NONAME
	_ZN25HbLayoutDirectionNotifier16staticMetaObjectE @ 2002 NONAME DATA 16
	_ZN25HbLayoutDirectionNotifier19getStaticMetaObjectEv @ 2003 NONAME
	_ZN25HbLayoutDirectionNotifier22layoutDirectionChangedEN2Qt15LayoutDirectionE @ 2004 NONAME ABSENT
	_ZN25HbLayoutDirectionNotifier27notifyLayoutDirectionChangeEv @ 2005 NONAME
	_ZN25HbLayoutDirectionNotifier28layoutDirectionChangeStartedEv @ 2006 NONAME
	_ZN25HbLayoutDirectionNotifier29layoutDirectionChangeFinishedEv @ 2007 NONAME
	_ZN25HbLayoutDirectionNotifier8instanceEv @ 2008 NONAME
	_ZN25HbLayoutDirectionNotifierC1Ev @ 2009 NONAME
	_ZN25HbLayoutDirectionNotifierC2Ev @ 2010 NONAME
	_ZN25HbLayoutDirectionNotifierD0Ev @ 2011 NONAME
	_ZN25HbLayoutDirectionNotifierD1Ev @ 2012 NONAME
	_ZN25HbLayoutDirectionNotifierD2Ev @ 2013 NONAME
	_ZN25HbStyleOptionGridViewItemC1ERKS_ @ 2014 NONAME ABSENT
	_ZN25HbStyleOptionGridViewItemC1Ev @ 2015 NONAME ABSENT
	_ZN25HbStyleOptionGridViewItemC2ERKS_ @ 2016 NONAME ABSENT
	_ZN25HbStyleOptionGridViewItemC2Ev @ 2017 NONAME ABSENT
	_ZN25HbStyleOptionGridViewItemD1Ev @ 2018 NONAME ABSENT
	_ZN25HbStyleOptionGridViewItemD2Ev @ 2019 NONAME ABSENT
	_ZN25HbStyleOptionListViewItemC1ERKS_ @ 2020 NONAME ABSENT
	_ZN25HbStyleOptionListViewItemC1Ev @ 2021 NONAME ABSENT
	_ZN25HbStyleOptionListViewItemC2ERKS_ @ 2022 NONAME ABSENT
	_ZN25HbStyleOptionListViewItemC2Ev @ 2023 NONAME ABSENT
	_ZN25HbStyleOptionListViewItemD1Ev @ 2024 NONAME ABSENT
	_ZN25HbStyleOptionListViewItemD2Ev @ 2025 NONAME ABSENT
	_ZN25HbStyleOptionProgressNoteC1ERKS_ @ 2026 NONAME ABSENT
	_ZN25HbStyleOptionProgressNoteC1Ev @ 2027 NONAME ABSENT
	_ZN25HbStyleOptionProgressNoteC2ERKS_ @ 2028 NONAME ABSENT
	_ZN25HbStyleOptionProgressNoteC2Ev @ 2029 NONAME ABSENT
	_ZN25HbStyleOptionProgressNoteD1Ev @ 2030 NONAME ABSENT
	_ZN25HbStyleOptionProgressNoteD2Ev @ 2031 NONAME ABSENT
	_ZN25HbStyleOptionSettingGroupC1ERKS_ @ 2032 NONAME ABSENT
	_ZN25HbStyleOptionSettingGroupC1Ev @ 2033 NONAME ABSENT
	_ZN25HbStyleOptionSettingGroupC2ERKS_ @ 2034 NONAME ABSENT
	_ZN25HbStyleOptionSettingGroupC2Ev @ 2035 NONAME ABSENT
	_ZN25HbStyleOptionSettingGroupD1Ev @ 2036 NONAME ABSENT
	_ZN25HbStyleOptionSettingGroupD2Ev @ 2037 NONAME ABSENT
	_ZN25HbStyleOptionTreeViewItemC1ERKS_ @ 2038 NONAME ABSENT
	_ZN25HbStyleOptionTreeViewItemC1Ev @ 2039 NONAME ABSENT
	_ZN25HbStyleOptionTreeViewItemC2ERKS_ @ 2040 NONAME ABSENT
	_ZN25HbStyleOptionTreeViewItemC2Ev @ 2041 NONAME ABSENT
	_ZN25HbStyleOptionTreeViewItemD1Ev @ 2042 NONAME ABSENT
	_ZN25HbStyleOptionTreeViewItemD2Ev @ 2043 NONAME ABSENT
	_ZN25HbWidgetParams_PushButtonC1Ev @ 2044 NONAME ABSENT
	_ZN25HbWidgetParams_PushButtonC2Ev @ 2045 NONAME ABSENT
	_ZN25HbWidgetParams_PushButtonD0Ev @ 2046 NONAME ABSENT
	_ZN25HbWidgetParams_PushButtonD1Ev @ 2047 NONAME ABSENT
	_ZN25HbWidgetParams_PushButtonD2Ev @ 2048 NONAME ABSENT
	_ZN25HbXmlLoaderAbstractSyntax12readDocumentEv @ 2049 NONAME ABSENT
	_ZN25HbXmlLoaderAbstractSyntax13processLayoutEv @ 2050 NONAME ABSENT
	_ZN25HbXmlLoaderAbstractSyntax15processDocumentEv @ 2051 NONAME ABSENT
	_ZN25HbXmlLoaderAbstractSyntax16processContainerEv @ 2052 NONAME ABSENT
	_ZN25HbXmlLoaderAbstractSyntax16readAlienSectionEv @ 2053 NONAME ABSENT
	_ZN25HbXmlLoaderAbstractSyntax17readLayoutEndItemEv @ 2054 NONAME ABSENT
	_ZN25HbXmlLoaderAbstractSyntax17readTargetSectionEv @ 2055 NONAME ABSENT
	_ZN25HbXmlLoaderAbstractSyntax18readGeneralEndItemEv @ 2056 NONAME ABSENT
	_ZN25HbXmlLoaderAbstractSyntax19readLayoutStartItemEv @ 2057 NONAME ABSENT
	_ZN25HbXmlLoaderAbstractSyntax20readContainerEndItemEv @ 2058 NONAME ABSENT
	_ZN25HbXmlLoaderAbstractSyntax20readGeneralStartItemEv @ 2059 NONAME ABSENT
	_ZN25HbXmlLoaderAbstractSyntax22readContainerStartItemEv @ 2060 NONAME ABSENT
	_ZN25HbXmlLoaderAbstractSyntax26checkEndElementCorrectnessEv @ 2061 NONAME ABSENT
	_ZN25HbXmlLoaderAbstractSyntax4loadEP9QIODeviceRK7QString @ 2062 NONAME
	_ZN25HbXmlLoaderAbstractSyntaxC1EP26HbXmlLoaderAbstractActions @ 2063 NONAME
	_ZN25HbXmlLoaderAbstractSyntaxC2EP26HbXmlLoaderAbstractActions @ 2064 NONAME
	_ZN25HbXmlLoaderAbstractSyntaxD0Ev @ 2065 NONAME
	_ZN25HbXmlLoaderAbstractSyntaxD1Ev @ 2066 NONAME
	_ZN25HbXmlLoaderAbstractSyntaxD2Ev @ 2067 NONAME
	_ZN26HbInputStateMachineFactory11qt_metacallEN11QMetaObject4CallEiPPv @ 2068 NONAME ABSENT
	_ZN26HbInputStateMachineFactory11qt_metacastEPKc @ 2069 NONAME ABSENT
	_ZN26HbInputStateMachineFactory15addStateMachineERK15HbInputLanguage6QFlagsI18HbKeyboardTypeFlagEP19HbInputStateMachine20HbInputStateModifier @ 2070 NONAME ABSENT
	_ZN26HbInputStateMachineFactory16staticMetaObjectE @ 2071 NONAME DATA 16 ABSENT
	_ZN26HbInputStateMachineFactory18removeStateMachineEP19HbInputStateMachine @ 2072 NONAME ABSENT
	_ZN26HbInputStateMachineFactory19getStaticMetaObjectEv @ 2073 NONAME ABSENT
	_ZN26HbInputStateMachineFactory19stateMachineRemovedEP19HbInputStateMachine @ 2074 NONAME ABSENT
	_ZN26HbInputStateMachineFactory8instanceEv @ 2075 NONAME ABSENT
	_ZN26HbInputStateMachineFactoryC1Ev @ 2076 NONAME ABSENT
	_ZN26HbInputStateMachineFactoryC2Ev @ 2077 NONAME ABSENT
	_ZN26HbInputStateMachineFactoryD0Ev @ 2078 NONAME ABSENT
	_ZN26HbInputStateMachineFactoryD1Ev @ 2079 NONAME ABSENT
	_ZN26HbInputStateMachineFactoryD2Ev @ 2080 NONAME ABSENT
	_ZN26HbInteractionManagerStatic14gestureStoppedEPK8HbWidgetN2Ia7GestureE @ 2081 NONAME ABSENT
	_ZN26HbInteractionManagerStatic16gestureTriggeredEPK8HbWidgetN2Ia7GestureE7QPointF @ 2082 NONAME ABSENT
	_ZN26HbInteractionManagerStatic9triggeredEPK8HbWidgetN2Ia11InteractionE @ 2083 NONAME ABSENT
	_ZN26HbSliderTickmarksItemLabel17updateStyleOptionEP12QStyleOption @ 2084 NONAME ABSENT
	_ZN26HbSliderTickmarksItemLabel18setMajorTickLabelsERK11QStringList @ 2085 NONAME ABSENT
	_ZN26HbSliderTickmarksItemLabel18setMinorTickLabelsERK11QStringList @ 2086 NONAME ABSENT
	_ZN26HbSliderTickmarksItemLabel5paintEP8QPainterPK24QStyleOptionGraphicsItemP7QWidget @ 2087 NONAME ABSENT
	_ZN26HbSliderTickmarksItemLabelC1EP13QGraphicsItem @ 2088 NONAME ABSENT
	_ZN26HbSliderTickmarksItemLabelC2EP13QGraphicsItem @ 2089 NONAME ABSENT
	_ZN26HbSliderTickmarksItemLabelD0Ev @ 2090 NONAME ABSENT
	_ZN26HbSliderTickmarksItemLabelD1Ev @ 2091 NONAME ABSENT
	_ZN26HbSliderTickmarksItemLabelD2Ev @ 2092 NONAME ABSENT
	_ZN26HbXmlLoaderAbstractActions10findObjectERK7QString @ 2093 NONAME ABSENT
	_ZN26HbXmlLoaderAbstractActions10findWidgetERK7QString @ 2094 NONAME ABSENT
	_ZN26HbXmlLoaderAbstractActions12createObjectERK7QStringS2_S2_ @ 2095 NONAME ABSENT
	_ZN26HbXmlLoaderAbstractActions12pushDocumentERK7QString @ 2096 NONAME
	_ZN26HbXmlLoaderAbstractActions13getAnchorEdgeERK7QString @ 2097 NONAME ABSENT
	_ZN26HbXmlLoaderAbstractActions13setObjectTreeE5QListIP7QObjectE @ 2098 NONAME ABSENT
	_ZN26HbXmlLoaderAbstractActions14addToObjectMapE5QListIP13QGraphicsItemE @ 2099 NONAME ABSENT
	_ZN26HbXmlLoaderAbstractActions14addToObjectMapE5QListIP7QObjectE @ 2100 NONAME ABSENT
	_ZN26HbXmlLoaderAbstractActions14removeChildrenE8QPointerI7QObjectE @ 2101 NONAME ABSENT
	_ZN26HbXmlLoaderAbstractActions3popE11ElementType @ 2102 NONAME ABSENT
	_ZN26HbXmlLoaderAbstractActions5resetEv @ 2103 NONAME
	_ZN26HbXmlLoaderAbstractActions6lookUpERK7QStringS2_S2_ @ 2104 NONAME ABSENT
	_ZN26HbXmlLoaderAbstractActions7cleanUpEv @ 2105 NONAME
	_ZN26HbXmlLoaderAbstractActions7takeAllEv @ 2106 NONAME ABSENT
	_ZN26HbXmlLoaderAbstractActions9deleteAllEv @ 2107 NONAME
	_ZN26HbXmlLoaderAbstractActions9translateERK7QStringS2_ @ 2108 NONAME ABSENT
	_ZN26HbXmlLoaderAbstractActionsC1Ev @ 2109 NONAME
	_ZN26HbXmlLoaderAbstractActionsC2Ev @ 2110 NONAME
	_ZN26HbXmlLoaderAbstractActionsD0Ev @ 2111 NONAME
	_ZN26HbXmlLoaderAbstractActionsD1Ev @ 2112 NONAME
	_ZN26HbXmlLoaderAbstractActionsD2Ev @ 2113 NONAME
	_ZN27HbExtraDictionaryCollection11findMatchesERK7QStringN2Qt15CaseSensitivityE @ 2114 NONAME
	_ZN27HbExtraDictionaryCollection13addDictionaryEP21HbExtraUserDictionary @ 2115 NONAME
	_ZN27HbExtraDictionaryCollection13addDictionaryEi @ 2116 NONAME
	_ZN27HbExtraDictionaryCollection16enableDictionaryEi @ 2117 NONAME
	_ZN27HbExtraDictionaryCollection16removeDictionaryEP21HbExtraUserDictionary @ 2118 NONAME
	_ZN27HbExtraDictionaryCollection16removeDictionaryEi @ 2119 NONAME
	_ZN27HbExtraDictionaryCollection17disableDictionaryEi @ 2120 NONAME
	_ZN27HbExtraDictionaryCollection17incrementUseCountERK7QString @ 2121 NONAME
	_ZN27HbExtraDictionaryCollectionC1E5QListIiE @ 2122 NONAME
	_ZN27HbExtraDictionaryCollectionC1Ev @ 2123 NONAME
	_ZN27HbExtraDictionaryCollectionC2E5QListIiE @ 2124 NONAME
	_ZN27HbExtraDictionaryCollectionC2Ev @ 2125 NONAME
	_ZN27HbExtraDictionaryCollectionD1Ev @ 2126 NONAME
	_ZN27HbExtraDictionaryCollectionD2Ev @ 2127 NONAME
	_ZN27HbFocusObjectGraphicsWidget10editorFontEv @ 2128 NONAME ABSENT
	_ZN27HbFocusObjectGraphicsWidget11qt_metacallEN11QMetaObject4CallEiPPv @ 2129 NONAME ABSENT
	_ZN27HbFocusObjectGraphicsWidget11qt_metacastEPKc @ 2130 NONAME ABSENT
	_ZN27HbFocusObjectGraphicsWidget12releaseFocusEv @ 2131 NONAME ABSENT
	_ZN27HbFocusObjectGraphicsWidget15editorDestroyedEP7QObject @ 2132 NONAME ABSENT
	_ZN27HbFocusObjectGraphicsWidget16sendCommitStringERK7QString @ 2133 NONAME ABSENT
	_ZN27HbFocusObjectGraphicsWidget16setPreEditStringERK7QString @ 2134 NONAME ABSENT
	_ZN27HbFocusObjectGraphicsWidget16staticMetaObjectE @ 2135 NONAME DATA 16 ABSENT
	_ZN27HbFocusObjectGraphicsWidget17sendPreEditStringERK7QString @ 2136 NONAME ABSENT
	_ZN27HbFocusObjectGraphicsWidget19editorTextSelectionEv @ 2137 NONAME ABSENT
	_ZN27HbFocusObjectGraphicsWidget19getStaticMetaObjectEv @ 2138 NONAME ABSENT
	_ZN27HbFocusObjectGraphicsWidget19syncEditorInterfaceEv @ 2139 NONAME ABSENT
	_ZN27HbFocusObjectGraphicsWidget20editorCursorPositionEv @ 2140 NONAME ABSENT
	_ZN27HbFocusObjectGraphicsWidget21editorSurroundingTextEv @ 2141 NONAME ABSENT
	_ZN27HbFocusObjectGraphicsWidget7reFocusEv @ 2142 NONAME ABSENT
	_ZN27HbFocusObjectGraphicsWidget7setHostEP13HbInputMethod @ 2143 NONAME ABSENT
	_ZN27HbFocusObjectGraphicsWidget9sendEventER6QEvent @ 2144 NONAME ABSENT
	_ZN27HbFocusObjectGraphicsWidgetC1EP15QGraphicsWidget @ 2145 NONAME ABSENT
	_ZN27HbFocusObjectGraphicsWidgetC2EP15QGraphicsWidget @ 2146 NONAME ABSENT
	_ZN27HbFocusObjectGraphicsWidgetD0Ev @ 2147 NONAME ABSENT
	_ZN27HbFocusObjectGraphicsWidgetD1Ev @ 2148 NONAME ABSENT
	_ZN27HbFocusObjectGraphicsWidgetD2Ev @ 2149 NONAME ABSENT
	_ZN27HbLanguageDatabaseInterface11qt_metacallEN11QMetaObject4CallEiPPv @ 2150 NONAME
	_ZN27HbLanguageDatabaseInterface11qt_metacastEPKc @ 2151 NONAME
	_ZN27HbLanguageDatabaseInterface16staticMetaObjectE @ 2152 NONAME DATA 16
	_ZN27HbLanguageDatabaseInterface19getStaticMetaObjectEv @ 2153 NONAME
	_ZN27HbListWidgetViewItemPrivate16deleteChildItemsEb @ 2154 NONAME ABSENT
	_ZN27HbListWidgetViewItemPrivate4initEv @ 2155 NONAME ABSENT
	_ZN27HbListWidgetViewItemPrivateC1EP20HbListWidgetViewItem @ 2156 NONAME ABSENT
	_ZN27HbListWidgetViewItemPrivateC1ERKS_ @ 2157 NONAME ABSENT
	_ZN27HbListWidgetViewItemPrivateC2EP20HbListWidgetViewItem @ 2158 NONAME ABSENT
	_ZN27HbListWidgetViewItemPrivateC2ERKS_ @ 2159 NONAME ABSENT
	_ZN27HbListWidgetViewItemPrivateD0Ev @ 2160 NONAME ABSENT
	_ZN27HbListWidgetViewItemPrivateD1Ev @ 2161 NONAME ABSENT
	_ZN27HbListWidgetViewItemPrivateD2Ev @ 2162 NONAME ABSENT
	_ZN27HbListWidgetViewItemPrivateaSERKS_ @ 2163 NONAME ABSENT
	_ZN27HbStyleOptionIndicatorGroupC1ERKS_ @ 2164 NONAME
	_ZN27HbStyleOptionIndicatorGroupC1Ev @ 2165 NONAME
	_ZN27HbStyleOptionIndicatorGroupC2ERKS_ @ 2166 NONAME
	_ZN27HbStyleOptionIndicatorGroupC2Ev @ 2167 NONAME
	_ZN27HbStyleOptionIndicatorGroupD1Ev @ 2168 NONAME
	_ZN27HbStyleOptionIndicatorGroupD2Ev @ 2169 NONAME
	_ZN27HbStyleOptionIndicatorPopupC1ERKS_ @ 2170 NONAME ABSENT
	_ZN27HbStyleOptionIndicatorPopupC1Ev @ 2171 NONAME ABSENT
	_ZN27HbStyleOptionIndicatorPopupC2ERKS_ @ 2172 NONAME ABSENT
	_ZN27HbStyleOptionIndicatorPopupC2Ev @ 2173 NONAME ABSENT
	_ZN27HbStyleOptionIndicatorPopupD1Ev @ 2174 NONAME ABSENT
	_ZN27HbStyleOptionIndicatorPopupD2Ev @ 2175 NONAME ABSENT
	_ZN28HbDeviceDialogMessageHandler14messageHandlerE9QtMsgTypePKc @ 2176 NONAME
	_ZN28HbDeviceDialogMessageHandler21installMessageHandlerERK7QStringb @ 2177 NONAME
	_ZN28HbDeviceDialogMessageHandler23uninstallMessageHandlerEv @ 2178 NONAME
	_ZN28HbInputStateMachineHKChinese8instanceEv @ 2179 NONAME ABSENT
	_ZN28HbInputStateMachineHKChinese9nextStateERK12HbInputStateRS0_20HbInputStateModifier @ 2180 NONAME ABSENT
	_ZN29HbInputStateMachinePrcChinese8instanceEv @ 2181 NONAME ABSENT
	_ZN29HbInputStateMachinePrcChinese9nextStateERK12HbInputStateRS0_20HbInputStateModifier @ 2182 NONAME ABSENT
	_ZN29HbStyleOptionAbstractViewItemC1ERKS_ @ 2183 NONAME ABSENT
	_ZN29HbStyleOptionAbstractViewItemC1Ev @ 2184 NONAME ABSENT
	_ZN29HbStyleOptionAbstractViewItemC2ERKS_ @ 2185 NONAME ABSENT
	_ZN29HbStyleOptionAbstractViewItemC2Ev @ 2186 NONAME ABSENT
	_ZN29HbStyleOptionAbstractViewItemD1Ev @ 2187 NONAME ABSENT
	_ZN29HbStyleOptionAbstractViewItemD2Ev @ 2188 NONAME ABSENT
	_ZN29HbStyleOptionSelectionControlC1ERKS_ @ 2189 NONAME ABSENT
	_ZN29HbStyleOptionSelectionControlC1Ev @ 2190 NONAME ABSENT
	_ZN29HbStyleOptionSelectionControlC2ERKS_ @ 2191 NONAME ABSENT
	_ZN29HbStyleOptionSelectionControlC2Ev @ 2192 NONAME ABSENT
	_ZN29HbStyleOptionSelectionControlD1Ev @ 2193 NONAME ABSENT
	_ZN29HbStyleOptionSelectionControlD2Ev @ 2194 NONAME ABSENT
	_ZN29HbStyleOptionToolBarExtensionC1ERKS_ @ 2195 NONAME ABSENT
	_ZN29HbStyleOptionToolBarExtensionC1Ev @ 2196 NONAME ABSENT
	_ZN29HbStyleOptionToolBarExtensionC2ERKS_ @ 2197 NONAME ABSENT
	_ZN29HbStyleOptionToolBarExtensionC2Ev @ 2198 NONAME ABSENT
	_ZN29HbStyleOptionToolBarExtensionD1Ev @ 2199 NONAME ABSENT
	_ZN29HbStyleOptionToolBarExtensionD2Ev @ 2200 NONAME ABSENT
	_ZN2Hb16staticMetaObjectE @ 2201 NONAME DATA 16
	_ZN2Hb19getStaticMetaObjectEv @ 2202 NONAME
	_ZN30HbInputCustomButtonComposition11compositionEv @ 2203 NONAME ABSENT
	_ZN30HbInputCustomButtonComposition12removeButtonEP19HbInputCustomButton @ 2204 NONAME ABSENT
	_ZN30HbInputCustomButtonComposition9addButtonEP19HbInputCustomButton @ 2205 NONAME ABSENT
	_ZN30HbInputCustomButtonCompositionC1EP37HbInputCustomButtonCompositionPrivate @ 2206 NONAME ABSENT
	_ZN30HbInputCustomButtonCompositionC1Ev @ 2207 NONAME ABSENT
	_ZN30HbInputCustomButtonCompositionC2EP37HbInputCustomButtonCompositionPrivate @ 2208 NONAME ABSENT
	_ZN30HbInputCustomButtonCompositionC2Ev @ 2209 NONAME ABSENT
	_ZN30HbInputCustomButtonCompositionD0Ev @ 2210 NONAME ABSENT
	_ZN30HbInputCustomButtonCompositionD1Ev @ 2211 NONAME ABSENT
	_ZN30HbInputCustomButtonCompositionD2Ev @ 2212 NONAME ABSENT
	_ZN30HbInputStateMachineLatinFinger8instanceEv @ 2213 NONAME ABSENT
	_ZN30HbInputStateMachineLatinFinger9nextStateERK12HbInputStateRS0_20HbInputStateModifier @ 2214 NONAME ABSENT
	_ZN30HbStyleOptionColorGridViewItemC1ERKS_ @ 2215 NONAME ABSENT
	_ZN30HbStyleOptionColorGridViewItemC1Ev @ 2216 NONAME ABSENT
	_ZN30HbStyleOptionColorGridViewItemC2ERKS_ @ 2217 NONAME ABSENT
	_ZN30HbStyleOptionColorGridViewItemC2Ev @ 2218 NONAME ABSENT
	_ZN30HbStyleOptionColorGridViewItemD1Ev @ 2219 NONAME ABSENT
	_ZN30HbStyleOptionColorGridViewItemD2Ev @ 2220 NONAME ABSENT
	_ZN31HbStyleOptionNotificationDialogC1ERKS_ @ 2221 NONAME
	_ZN31HbStyleOptionNotificationDialogC1Ev @ 2222 NONAME
	_ZN31HbStyleOptionNotificationDialogC2ERKS_ @ 2223 NONAME
	_ZN31HbStyleOptionNotificationDialogC2Ev @ 2224 NONAME
	_ZN31HbStyleOptionNotificationDialogD1Ev @ 2225 NONAME
	_ZN31HbStyleOptionNotificationDialogD2Ev @ 2226 NONAME
	_ZN32HbInputStateMachineTaiwanChinese8instanceEv @ 2227 NONAME ABSENT
	_ZN32HbInputStateMachineTaiwanChinese9nextStateERK12HbInputStateRS0_20HbInputStateModifier @ 2228 NONAME ABSENT
	_ZN34HbInputStateMachineHKChineseFinger8instanceEv @ 2229 NONAME ABSENT
	_ZN34HbInputStateMachineHKChineseFinger9nextStateERK12HbInputStateRS0_20HbInputStateModifier @ 2230 NONAME ABSENT
	_ZN35HbInputStateMachineLatinWithEditKey8instanceEv @ 2231 NONAME ABSENT
	_ZN35HbInputStateMachineLatinWithEditKey9nextStateERK12HbInputStateRS0_20HbInputStateModifier @ 2232 NONAME ABSENT
	_ZN35HbInputStateMachinePrcChineseFinger8instanceEv @ 2233 NONAME ABSENT
	_ZN35HbInputStateMachinePrcChineseFinger9nextStateERK12HbInputStateRS0_20HbInputStateModifier @ 2234 NONAME ABSENT
	_ZN38HbInputStateMachineTaiwanChineseFinger8instanceEv @ 2235 NONAME ABSENT
	_ZN38HbInputStateMachineTaiwanChineseFinger9nextStateERK12HbInputStateRS0_20HbInputStateModifier @ 2236 NONAME ABSENT
	_ZN5HbCss14ValueExtractor10extractBoxEPfS1_S1_ @ 2237 NONAME ABSENT
	_ZN5HbCss14ValueExtractor10sizeValuesERKNS_11DeclarationEP5QSize @ 2238 NONAME ABSENT
	_ZN5HbCss14ValueExtractor11borderValueERKNS_11DeclarationEPfPNS_11BorderStyleEP6QBrush @ 2239 NONAME ABSENT
	_ZN5HbCss14ValueExtractor11extractFontEP5QFontP10HbFontSpecPi @ 2240 NONAME ABSENT
	_ZN5HbCss14ValueExtractor11extractFontEP5QFontPN2Hb15LogicalFontNameEPi @ 2241 NONAME ABSENT
	_ZN5HbCss14ValueExtractor11extractFontEv @ 2242 NONAME ABSENT
	_ZN5HbCss14ValueExtractor11lengthValueERKNS_11DeclarationE @ 2243 NONAME ABSENT
	_ZN5HbCss14ValueExtractor11lengthValueERKNS_5ValueE @ 2244 NONAME ABSENT
	_ZN5HbCss14ValueExtractor12asSizePolicyERKNS_11DeclarationE @ 2245 NONAME ABSENT
	_ZN5HbCss14ValueExtractor12extractImageEP5QIconP6QFlagsIN2Qt13AlignmentFlagEEP5QSize @ 2246 NONAME ABSENT
	_ZN5HbCss14ValueExtractor12lengthValuesERKNS_11DeclarationEPi @ 2247 NONAME ABSENT
	_ZN5HbCss14ValueExtractor13extractBorderEPfP6QBrushPNS_11BorderStyleEP5QSize @ 2248 NONAME ABSENT
	_ZN5HbCss14ValueExtractor13extractLayoutEP7QStringS2_ @ 2249 NONAME ABSENT
	_ZN5HbCss14ValueExtractor14extractOutlineEPfP6QBrushPNS_11BorderStyleEP5QSizeS1_ @ 2250 NONAME ABSENT
	_ZN5HbCss14ValueExtractor14extractPaletteEP6QBrushS2_S2_S2_ @ 2251 NONAME ABSENT
	_ZN5HbCss14ValueExtractor15extractGeometryEPfS1_S1_S1_S1_S1_P11QSizePolicyP6QFlagsINS_16GeometryAttrFlagEE @ 2252 NONAME ABSENT
	_ZN5HbCss14ValueExtractor15extractPositionEPfS1_S1_S1_S1_S1_PNS_6OriginEP6QFlagsIN2Qt13AlignmentFlagEEPNS_12PositionModeES8_PS4_INS_16PositionAttrFlagEE @ 2253 NONAME ABSENT
	_ZN5HbCss14ValueExtractor17extractBackgroundEP6QBrushP7QStringPNS_6RepeatEP6QFlagsIN2Qt13AlignmentFlagEEPNS_6OriginEPNS_10AttachmentESD_ @ 2254 NONAME ABSENT
	_ZN5HbCss14ValueExtractor17extractListParamsEP12HbListParams @ 2255 NONAME ABSENT
	_ZN5HbCss14ValueExtractor17extractParametersERK5QListI7QStringERS1_I8QVariantE @ 2256 NONAME ABSENT
	_ZN5HbCss14ValueExtractor19extractWidgetParamsEP14HbWidgetParams @ 2257 NONAME ABSENT
	_ZN5HbCss14ValueExtractor20extractStyleFeaturesEv @ 2258 NONAME ABSENT
	_ZN5HbCss14ValueExtractor22extractAspectRatioModeEPN2Qt15AspectRatioModeE @ 2259 NONAME ABSENT
	_ZN5HbCss14ValueExtractor24extractProgressBarParamsEP19HbProgressBarParams @ 2260 NONAME ABSENT
	_ZN5HbCss14ValueExtractor6asBoolERKNS_11DeclarationE @ 2261 NONAME ABSENT
	_ZN5HbCss14ValueExtractor6asRealERKNS_11DeclarationE @ 2262 NONAME ABSENT
	_ZN5HbCss14ValueExtractor6asRealERKNS_5ValueE @ 2263 NONAME ABSENT
	_ZN5HbCss14ValueExtractor7asRealsERKNS_11DeclarationEPf @ 2264 NONAME ABSENT
	_ZN5HbCss14ValueExtractor8asPolicyERKNS_5ValueE @ 2265 NONAME ABSENT
	_ZN5HbCss14ValueExtractor9sizeValueERKNS_11DeclarationE @ 2266 NONAME ABSENT
	_ZN5HbCss14ValueExtractorC1ERK7QVectorINS_11DeclarationEERK15HbDeviceProfileRK8QPalette @ 2267 NONAME ABSENT
	_ZN5HbCss14ValueExtractorC1ERK7QVectorINS_11DeclarationEEb @ 2268 NONAME ABSENT
	_ZN5HbCss14ValueExtractorC2ERK7QVectorINS_11DeclarationEERK15HbDeviceProfileRK8QPalette @ 2269 NONAME ABSENT
	_ZN5HbCss14ValueExtractorC2ERK7QVectorINS_11DeclarationEEb @ 2270 NONAME ABSENT
	_ZN5HbCss6Parser10lexemUntilENS_9TokenTypeE @ 2271 NONAME
	_ZN5HbCss6Parser10parseClassEP8HbString @ 2272 NONAME
	_ZN5HbCss6Parser10parseMediaEPNS_9MediaRuleE @ 2273 NONAME
	_ZN5HbCss6Parser11errorSymbolEv @ 2274 NONAME
	_ZN5HbCss6Parser11parseAttribEPNS_17AttributeSelectorE @ 2275 NONAME
	_ZN5HbCss6Parser11parseImportEPNS_10ImportRuleE @ 2276 NONAME
	_ZN5HbCss6Parser11parseMediumEP14HbStringVector @ 2277 NONAME
	_ZN5HbCss6Parser11parsePseudoEPNS_6PseudoE @ 2278 NONAME
	_ZN5HbCss6Parser12parseRulesetEPNS_9StyleRuleE @ 2279 NONAME
	_ZN5HbCss6Parser13parseFunctionEP8HbStringS2_ @ 2280 NONAME
	_ZN5HbCss6Parser13parseHexColorEP6QColor @ 2281 NONAME
	_ZN5HbCss6Parser13parsePropertyEPNS_11DeclarationE @ 2282 NONAME
	_ZN5HbCss6Parser13parseSelectorEPNS_8SelectorE @ 2283 NONAME
	_ZN5HbCss6Parser15parseCombinatorEPNS_13BasicSelector8RelationE @ 2284 NONAME
	_ZN5HbCss6Parser15parsePseudoPageEP8HbString @ 2285 NONAME
	_ZN5HbCss6Parser15testAndParseUriEP8HbString @ 2286 NONAME
	_ZN5HbCss6Parser16parseElementNameEP8HbString @ 2287 NONAME
	_ZN5HbCss6Parser16parseVariablesetEPNS_12VariableRuleE @ 2288 NONAME
	_ZN5HbCss6Parser17parseNextOperatorEPNS_5ValueE @ 2289 NONAME
	_ZN5HbCss6Parser18testSimpleSelectorEv @ 2290 NONAME
	_ZN5HbCss6Parser19parseSimpleSelectorEPNS_13BasicSelectorE @ 2291 NONAME
	_ZN5HbCss6Parser20parseNextDeclarationEPNS_11DeclarationE @ 2292 NONAME
	_ZN5HbCss6Parser20testTokenAndEndsWithENS_9TokenTypeERK13QLatin1String @ 2293 NONAME
	_ZN5HbCss6Parser4initERK7QStringb @ 2294 NONAME
	_ZN5HbCss6Parser4nextENS_9TokenTypeE @ 2295 NONAME
	_ZN5HbCss6Parser4testENS_9TokenTypeE @ 2296 NONAME
	_ZN5HbCss6Parser5parseEPNS_10StyleSheetE @ 2297 NONAME
	_ZN5HbCss6Parser5untilENS_9TokenTypeES1_ @ 2298 NONAME
	_ZN5HbCss6Parser8testPrioEv @ 2299 NONAME
	_ZN5HbCss6Parser8testTermEv @ 2300 NONAME
	_ZN5HbCss6Parser9parseExprEP8HbVectorINS_5ValueEE @ 2301 NONAME
	_ZN5HbCss6Parser9parsePageEPNS_8PageRuleE @ 2302 NONAME
	_ZN5HbCss6Parser9parsePrioEPNS_11DeclarationE @ 2303 NONAME
	_ZN5HbCss6Parser9parseTermEPNS_5ValueE @ 2304 NONAME
	_ZN5HbCss6ParserC1ERK7QStringb @ 2305 NONAME
	_ZN5HbCss6ParserC1Ev @ 2306 NONAME
	_ZN5HbCss6ParserC2ERK7QStringb @ 2307 NONAME
	_ZN5HbCss6ParserC2Ev @ 2308 NONAME
	_ZN6HbIcon11setIconNameERK7QString @ 2309 NONAME
	_ZN6HbIcon11setIconNameERK7QStringN5QIcon4ModeENS3_5StateE @ 2310 NONAME
	_ZN6HbIcon16setMirroringModeENS_13MirroringModeE @ 2311 NONAME
	_ZN6HbIcon5clearEv @ 2312 NONAME
	_ZN6HbIcon6pixmapEv @ 2313 NONAME
	_ZN6HbIcon7setSizeERK6QSizeF @ 2314 NONAME
	_ZN6HbIcon8animatorEv @ 2315 NONAME ABSENT
	_ZN6HbIcon8setFlagsE6QFlagsINS_4FlagEE @ 2316 NONAME
	_ZN6HbIcon8setWidthEf @ 2317 NONAME
	_ZN6HbIcon9setHeightEf @ 2318 NONAME
	_ZN6HbIconC1ERK5QIcon @ 2319 NONAME
	_ZN6HbIconC1ERK7QString @ 2320 NONAME
	_ZN6HbIconC1ERKS_ @ 2321 NONAME
	_ZN6HbIconC1Ev @ 2322 NONAME
	_ZN6HbIconC2ERK5QIcon @ 2323 NONAME
	_ZN6HbIconC2ERK7QString @ 2324 NONAME
	_ZN6HbIconC2ERKS_ @ 2325 NONAME
	_ZN6HbIconC2Ev @ 2326 NONAME
	_ZN6HbIconD1Ev @ 2327 NONAME
	_ZN6HbIconD2Ev @ 2328 NONAME
	_ZN6HbIconaSERKS_ @ 2329 NONAME
	_ZN6HbMenu10insertMenuEP8HbActionPS_ @ 2330 NONAME
	_ZN6HbMenu11qt_metacallEN11QMetaObject4CallEiPPv @ 2331 NONAME
	_ZN6HbMenu11qt_metacastEPKc @ 2332 NONAME
	_ZN6HbMenu12addSeparatorEv @ 2333 NONAME
	_ZN6HbMenu13keyPressEventEP9QKeyEvent @ 2334 NONAME ABSENT
	_ZN6HbMenu15insertSeparatorEP8HbAction @ 2335 NONAME
	_ZN6HbMenu15keyReleaseEventEP9QKeyEvent @ 2336 NONAME ABSENT
	_ZN6HbMenu15setActiveActionEP8HbAction @ 2337 NONAME
	_ZN6HbMenu16staticMetaObjectE @ 2338 NONAME DATA 16
	_ZN6HbMenu19getStaticMetaObjectEv @ 2339 NONAME
	_ZN6HbMenu4execERK7QPointFP8HbAction @ 2340 NONAME ABSENT
	_ZN6HbMenu5eventEP6QEvent @ 2341 NONAME
	_ZN6HbMenu7addMenuEPS_ @ 2342 NONAME
	_ZN6HbMenu7addMenuERK7QString @ 2343 NONAME
	_ZN6HbMenu8setTitleERK7QString @ 2344 NONAME
	_ZN6HbMenu9addActionERK7QString @ 2345 NONAME
	_ZN6HbMenu9addActionERK7QStringPK7QObjectPKc @ 2346 NONAME
	_ZN6HbMenu9triggeredEP8HbAction @ 2347 NONAME
	_ZN6HbMenuC1EP13QGraphicsItem @ 2348 NONAME
	_ZN6HbMenuC1ER13HbMenuPrivateP13QGraphicsItem @ 2349 NONAME
	_ZN6HbMenuC1ERK7QStringP13QGraphicsItem @ 2350 NONAME
	_ZN6HbMenuC2EP13QGraphicsItem @ 2351 NONAME
	_ZN6HbMenuC2ER13HbMenuPrivateP13QGraphicsItem @ 2352 NONAME
	_ZN6HbMenuC2ERK7QStringP13QGraphicsItem @ 2353 NONAME
	_ZN6HbMenuD0Ev @ 2354 NONAME
	_ZN6HbMenuD1Ev @ 2355 NONAME
	_ZN6HbMenuD2Ev @ 2356 NONAME
	_ZN6HbView10setToolBarEP9HbToolBar @ 2357 NONAME
	_ZN6HbView10takeWidgetEv @ 2358 NONAME
	_ZN6HbView11iconChangedERK6HbIcon @ 2359 NONAME
	_ZN6HbView11qt_metacallEN11QMetaObject4CallEiPPv @ 2360 NONAME
	_ZN6HbView11qt_metacastEPKc @ 2361 NONAME
	_ZN6HbView12titleChangedERK7QString @ 2362 NONAME
	_ZN6HbView14setItemVisibleEN2Hb9SceneItemEb @ 2363 NONAME
	_ZN6HbView14toolBarChangedEv @ 2364 NONAME
	_ZN6HbView16staticMetaObjectE @ 2365 NONAME DATA 16
	_ZN6HbView17unsetVisibleItemsEv @ 2366 NONAME ABSENT
	_ZN6HbView19getStaticMetaObjectEv @ 2367 NONAME
	_ZN6HbView19visibleItemsChangedEv @ 2368 NONAME
	_ZN6HbView20setContentFullScreenEb @ 2369 NONAME
	_ZN6HbView24contentFullScreenChangedEv @ 2370 NONAME
	_ZN6HbView5eventEP6QEvent @ 2371 NONAME
	_ZN6HbView7setIconERK6HbIcon @ 2372 NONAME
	_ZN6HbView7setMenuEP6HbMenu @ 2373 NONAME
	_ZN6HbView8setTitleERK7QString @ 2374 NONAME
	_ZN6HbView8takeMenuEv @ 2375 NONAME
	_ZN6HbView9addActionEP8HbActionNS_15ActionContainerE @ 2376 NONAME
	_ZN6HbView9hideItemsE6QFlagsIN2Hb9SceneItemEE @ 2377 NONAME
	_ZN6HbView9setWidgetEP15QGraphicsWidget @ 2378 NONAME
	_ZN6HbView9showItemsE6QFlagsIN2Hb9SceneItemEE @ 2379 NONAME
	_ZN6HbViewC1EP13QGraphicsItem @ 2380 NONAME
	_ZN6HbViewC1ER13HbViewPrivateP13QGraphicsItem @ 2381 NONAME
	_ZN6HbViewC2EP13QGraphicsItem @ 2382 NONAME
	_ZN6HbViewC2ER13HbViewPrivateP13QGraphicsItem @ 2383 NONAME
	_ZN6HbViewD0Ev @ 2384 NONAME
	_ZN6HbViewD1Ev @ 2385 NONAME
	_ZN6HbViewD2Ev @ 2386 NONAME
	_ZN7HbEvent12ChildFocusInE @ 2387 NONAME DATA 4
	_ZN7HbEvent12ThemeChangedE @ 2388 NONAME DATA 4
	_ZN7HbEvent13ChildFocusOutE @ 2389 NONAME DATA 4
	_ZN7HbEvent13SleepModeExitE @ 2390 NONAME DATA 4
	_ZN7HbEvent14SleepModeEnterE @ 2391 NONAME DATA 4
	_ZN7HbEvent20DeviceProfileChangedE @ 2392 NONAME DATA 4
	_ZN7HbEventC1Ei @ 2393 NONAME
	_ZN7HbEventC2Ei @ 2394 NONAME
	_ZN7HbLabel11changeEventEP6QEvent @ 2395 NONAME ABSENT
	_ZN7HbLabel11qt_metacallEN11QMetaObject4CallEiPPv @ 2396 NONAME ABSENT
	_ZN7HbLabel11qt_metacastEPKc @ 2397 NONAME ABSENT
	_ZN7HbLabel11resizeEventEP25QGraphicsSceneResizeEvent @ 2398 NONAME ABSENT
	_ZN7HbLabel11setGeometryERK6QRectF @ 2399 NONAME ABSENT
	_ZN7HbLabel11toggleStateEv @ 2400 NONAME ABSENT
	_ZN7HbLabel12setAlignmentE6QFlagsIN2Qt13AlignmentFlagEE @ 2401 NONAME ABSENT
	_ZN7HbLabel12setElideModeEN2Qt13TextElideModeE @ 2402 NONAME ABSENT
	_ZN7HbLabel12setIconFlagsE6QFlagsIN6HbIcon4FlagEE @ 2403 NONAME ABSENT
	_ZN7HbLabel12setTextFlagsEi @ 2404 NONAME ABSENT
	_ZN7HbLabel13setTextFormatEN2Qt10TextFormatE @ 2405 NONAME ABSENT
	_ZN7HbLabel14setLogicalFontEN2Hb15LogicalFontNameE @ 2406 NONAME ABSENT
	_ZN7HbLabel16setMirroringModeEN6HbIcon13MirroringModeE @ 2407 NONAME ABSENT
	_ZN7HbLabel16staticMetaObjectE @ 2408 NONAME DATA 16 ABSENT
	_ZN7HbLabel16updatePrimitivesEv @ 2409 NONAME ABSENT
	_ZN7HbLabel18setAspectRatioModeEN2Qt15AspectRatioModeE @ 2410 NONAME ABSENT
	_ZN7HbLabel19getStaticMetaObjectEv @ 2411 NONAME ABSENT
	_ZN7HbLabel6setNumEf @ 2412 NONAME ABSENT
	_ZN7HbLabel6setNumEi @ 2413 NONAME ABSENT
	_ZN7HbLabel7setIconERK6HbIcon @ 2414 NONAME ABSENT
	_ZN7HbLabel7setModeEN5QIcon4ModeE @ 2415 NONAME ABSENT
	_ZN7HbLabel7setTextERK7QString @ 2416 NONAME ABSENT
	_ZN7HbLabel8setColorERK6QColor @ 2417 NONAME ABSENT
	_ZN7HbLabel8setStateEN5QIcon5StateE @ 2418 NONAME ABSENT
	_ZN7HbLabelC1EP13QGraphicsItem @ 2419 NONAME ABSENT
	_ZN7HbLabelC1ER14HbLabelPrivateP13QGraphicsItem @ 2420 NONAME ABSENT
	_ZN7HbLabelC1ERK7QStringP13QGraphicsItem @ 2421 NONAME ABSENT
	_ZN7HbLabelC2EP13QGraphicsItem @ 2422 NONAME ABSENT
	_ZN7HbLabelC2ER14HbLabelPrivateP13QGraphicsItem @ 2423 NONAME ABSENT
	_ZN7HbLabelC2ERK7QStringP13QGraphicsItem @ 2424 NONAME ABSENT
	_ZN7HbLabelD0Ev @ 2425 NONAME ABSENT
	_ZN7HbLabelD1Ev @ 2426 NONAME ABSENT
	_ZN7HbLabelD2Ev @ 2427 NONAME ABSENT
	_ZN7HbPopup10closeEventEP11QCloseEvent @ 2428 NONAME
	_ZN7HbPopup11changeEventEP6QEvent @ 2429 NONAME ABSENT
	_ZN7HbPopup11qt_metacallEN11QMetaObject4CallEiPPv @ 2430 NONAME
	_ZN7HbPopup11qt_metacastEPKc @ 2431 NONAME
	_ZN7HbPopup12focusInEventEP11QFocusEvent @ 2432 NONAME ABSENT
	_ZN7HbPopup16setContentWidgetEP15QGraphicsWidget @ 2433 NONAME ABSENT
	_ZN7HbPopup16setHeadingWidgetEP15QGraphicsWidget @ 2434 NONAME ABSENT
	_ZN7HbPopup16setPrimaryActionEP8HbAction @ 2435 NONAME ABSENT
	_ZN7HbPopup16staticMetaObjectE @ 2436 NONAME DATA 16
	_ZN7HbPopup18setSecondaryActionEP8HbAction @ 2437 NONAME ABSENT
	_ZN7HbPopup19getStaticMetaObjectEv @ 2438 NONAME
	_ZN7HbPopup4execEv @ 2439 NONAME ABSENT
	_ZN7HbPopup5eventEP6QEvent @ 2440 NONAME
	_ZN7HbPopupC1EP13QGraphicsItem @ 2441 NONAME
	_ZN7HbPopupC1ER14HbPopupPrivateP13QGraphicsItem @ 2442 NONAME
	_ZN7HbPopupC2EP13QGraphicsItem @ 2443 NONAME
	_ZN7HbPopupC2ER14HbPopupPrivateP13QGraphicsItem @ 2444 NONAME
	_ZN7HbPopupD0Ev @ 2445 NONAME
	_ZN7HbPopupD1Ev @ 2446 NONAME
	_ZN7HbPopupD2Ev @ 2447 NONAME
	_ZN7HbStyle11qt_metacallEN11QMetaObject4CallEiPPv @ 2448 NONAME
	_ZN7HbStyle11qt_metacastEPKc @ 2449 NONAME
	_ZN7HbStyle11setItemNameEP13QGraphicsItemRK7QString @ 2450 NONAME
	_ZN7HbStyle14registerPluginE7QString @ 2451 NONAME ABSENT
	_ZN7HbStyle16staticMetaObjectE @ 2452 NONAME DATA 16
	_ZN7HbStyle16unregisterPluginE7QString @ 2453 NONAME ABSENT
	_ZN7HbStyle19getStaticMetaObjectEv @ 2454 NONAME
	_ZN7HbStyle6polishEP8HbWidgetR17HbStyleParameters @ 2455 NONAME
	_ZN7HbStyle8itemNameEPK13QGraphicsItem @ 2456 NONAME
	_ZN7HbStyleC1Ev @ 2457 NONAME
	_ZN7HbStyleC2Ev @ 2458 NONAME
	_ZN7HbStyleD0Ev @ 2459 NONAME
	_ZN7HbStyleD1Ev @ 2460 NONAME
	_ZN7HbStyleD2Ev @ 2461 NONAME
	_ZN7HbTheme11qt_metacallEN11QMetaObject4CallEiPPv @ 2462 NONAME
	_ZN7HbTheme11qt_metacastEPKc @ 2463 NONAME
	_ZN7HbTheme14changeFinishedEv @ 2464 NONAME
	_ZN7HbTheme16staticMetaObjectE @ 2465 NONAME DATA 16
	_ZN7HbTheme19getStaticMetaObjectEv @ 2466 NONAME
	_ZN7HbTheme7changedEv @ 2467 NONAME
	_ZN7HbThemeC1Ev @ 2468 NONAME
	_ZN7HbThemeC2Ev @ 2469 NONAME
	_ZN7HbThemeD0Ev @ 2470 NONAME
	_ZN7HbThemeD1Ev @ 2471 NONAME
	_ZN7HbThemeD2Ev @ 2472 NONAME
	_ZN8HbAction11qt_metacallEN11QMetaObject4CallEiPPv @ 2473 NONAME
	_ZN8HbAction11qt_metacastEPKc @ 2474 NONAME
	_ZN8HbAction14setCommandRoleENS_11CommandRoleE @ 2475 NONAME
	_ZN8HbAction16staticMetaObjectE @ 2476 NONAME DATA 16
	_ZN8HbAction19getStaticMetaObjectEv @ 2477 NONAME
	_ZN8HbAction19setToolBarExtensionEP18HbToolBarExtension @ 2478 NONAME
	_ZN8HbAction7setIconERK6HbIcon @ 2479 NONAME
	_ZN8HbAction7setMenuEP6HbMenu @ 2480 NONAME
	_ZN8HbActionC1EN2Hb13SoftKeyActionEP7QObject @ 2481 NONAME ABSENT
	_ZN8HbActionC1EP7QObject @ 2482 NONAME
	_ZN8HbActionC1ERK6HbIconRK7QStringP7QObject @ 2483 NONAME
	_ZN8HbActionC1ERK7QStringP7QObject @ 2484 NONAME
	_ZN8HbActionC2EN2Hb13SoftKeyActionEP7QObject @ 2485 NONAME ABSENT
	_ZN8HbActionC2EP7QObject @ 2486 NONAME
	_ZN8HbActionC2ERK6HbIconRK7QStringP7QObject @ 2487 NONAME
	_ZN8HbActionC2ERK7QStringP7QObject @ 2488 NONAME
	_ZN8HbActionD0Ev @ 2489 NONAME
	_ZN8HbActionD1Ev @ 2490 NONAME
	_ZN8HbActionD2Ev @ 2491 NONAME
	_ZN8HbAnchorC1EP19QGraphicsLayoutItemN2Hb4EdgeES1_S3_f @ 2492 NONAME
	_ZN8HbAnchorC1ERKS_ @ 2493 NONAME ABSENT
	_ZN8HbAnchorC1Ev @ 2494 NONAME ABSENT
	_ZN8HbAnchorC2EP19QGraphicsLayoutItemN2Hb4EdgeES1_S3_f @ 2495 NONAME
	_ZN8HbAnchorC2ERKS_ @ 2496 NONAME ABSENT
	_ZN8HbAnchorC2Ev @ 2497 NONAME ABSENT
	_ZN8HbAnchoraSERKS_ @ 2498 NONAME
	_ZN8HbEffect13effectRunningEP13QGraphicsItemRK7QString @ 2499 NONAME
	_ZN8HbEffect3addEP13QGraphicsItemRK7QStringS4_ @ 2500 NONAME
	_ZN8HbEffect3addERK7QStringS2_S2_ @ 2501 NONAME
	_ZN8HbEffect5startEP13QGraphicsItemRK7QStringP7QObjectPKcRK8QVariantRK6QRectF @ 2502 NONAME
	_ZN8HbEffect5startEP13QGraphicsItemRK7QStringS4_P7QObjectPKcRK8QVariantRK6QRectF @ 2503 NONAME
	_ZN8HbEffect5startERK5QListIP13QGraphicsItemERK7QStringS8_P7QObjectPKcRK8QVariant @ 2504 NONAME
	_ZN8HbEffect6cancelEP13QGraphicsItemRK7QStringbb @ 2505 NONAME ABSENT
	_ZN8HbEffect6enableEP13QGraphicsItem @ 2506 NONAME
	_ZN8HbEffect6removeEP13QGraphicsItem @ 2507 NONAME
	_ZN8HbEffect6removeEP13QGraphicsItemRK7QStringS4_ @ 2508 NONAME
	_ZN8HbEffect6removeERK7QStringS2_S2_ @ 2509 NONAME
	_ZN8HbEffect7disableEP13QGraphicsItem @ 2510 NONAME
	_ZN8HbString10copyStringEPK5QChari @ 2511 NONAME ABSENT
	_ZN8HbString4chopEi @ 2512 NONAME
	_ZN8HbString5clearEv @ 2513 NONAME
	_ZN8HbString6appendERK7QString @ 2514 NONAME
	_ZN8HbString6detachEi @ 2515 NONAME
	_ZN8HbString6removeEii @ 2516 NONAME
	_ZN8HbString7prependERK7QString @ 2517 NONAME
	_ZN8HbStringC1EN15HbMemoryManager10MemoryTypeE @ 2518 NONAME
	_ZN8HbStringC1ERK7QStringN15HbMemoryManager10MemoryTypeE @ 2519 NONAME
	_ZN8HbStringC1ERKS_ @ 2520 NONAME
	_ZN8HbStringC2EN15HbMemoryManager10MemoryTypeE @ 2521 NONAME
	_ZN8HbStringC2ERK7QStringN15HbMemoryManager10MemoryTypeE @ 2522 NONAME
	_ZN8HbStringC2ERKS_ @ 2523 NONAME
	_ZN8HbStringD1Ev @ 2524 NONAME
	_ZN8HbStringD2Ev @ 2525 NONAME
	_ZN8HbStringaSERK13QLatin1String @ 2526 NONAME
	_ZN8HbStringaSERK7QString @ 2527 NONAME
	_ZN8HbStringaSERKS_ @ 2528 NONAME
	_ZN8HbWidget10itemChangeEN13QGraphicsItem18GraphicsItemChangeERK8QVariant @ 2529 NONAME
	_ZN8HbWidget11changeEventEP6QEvent @ 2530 NONAME
	_ZN8HbWidget11polishEventEv @ 2531 NONAME
	_ZN8HbWidget11qt_metacallEN11QMetaObject4CallEiPPv @ 2532 NONAME
	_ZN8HbWidget11qt_metacastEPKc @ 2533 NONAME
	_ZN8HbWidget11resizeEventEP25QGraphicsSceneResizeEvent @ 2534 NONAME
	_ZN8HbWidget11setFontSpecERK10HbFontSpec @ 2535 NONAME ABSENT
	_ZN8HbWidget12clearActionsEv @ 2536 NONAME
	_ZN8HbWidget12focusInEventEP11QFocusEvent @ 2537 NONAME
	_ZN8HbWidget12setAttributeEN2Hb15WidgetAttributeEb @ 2538 NONAME ABSENT
	_ZN8HbWidget12setAttributeEN2Qt15WidgetAttributeEb @ 2539 NONAME ABSENT
	_ZN8HbWidget13focusOutEventEP11QFocusEvent @ 2540 NONAME
	_ZN8HbWidget15setPluginBaseIdEi @ 2541 NONAME ABSENT
	_ZN8HbWidget16staticMetaObjectE @ 2542 NONAME DATA 16
	_ZN8HbWidget16updatePrimitivesEv @ 2543 NONAME
	_ZN8HbWidget19getStaticMetaObjectEv @ 2544 NONAME
	_ZN8HbWidget5eventEP6QEvent @ 2545 NONAME
	_ZN8HbWidget6polishER17HbStyleParameters @ 2546 NONAME
	_ZN8HbWidget8repolishEv @ 2547 NONAME
	_ZN8HbWidget8setStyleEP7HbStyle @ 2548 NONAME
	_ZN8HbWidgetC1EP13QGraphicsItem6QFlagsIN2Qt10WindowTypeEE @ 2549 NONAME
	_ZN8HbWidgetC1ER15HbWidgetPrivateP13QGraphicsItem6QFlagsIN2Qt10WindowTypeEE @ 2550 NONAME
	_ZN8HbWidgetC2EP13QGraphicsItem6QFlagsIN2Qt10WindowTypeEE @ 2551 NONAME
	_ZN8HbWidgetC2ER15HbWidgetPrivateP13QGraphicsItem6QFlagsIN2Qt10WindowTypeEE @ 2552 NONAME
	_ZN8HbWidgetD0Ev @ 2553 NONAME
	_ZN8HbWidgetD1Ev @ 2554 NONAME
	_ZN8HbWidgetD2Ev @ 2555 NONAME
	_ZN9HbGesture11panCallbackE7QPointF @ 2556 NONAME ABSENT
	_ZN9HbGesture11qt_metacallEN11QMetaObject4CallEiPPv @ 2557 NONAME ABSENT
	_ZN9HbGesture11qt_metacastEPKc @ 2558 NONAME ABSENT
	_ZN9HbGesture16staticMetaObjectE @ 2559 NONAME DATA 16 ABSENT
	_ZN9HbGesture17longPressCallbackE7QPointF @ 2560 NONAME ABSENT
	_ZN9HbGesture19getStaticMetaObjectEv @ 2561 NONAME ABSENT
	_ZN9HbGesture6pannedE7QPointF @ 2562 NONAME ABSENT
	_ZN9HbGesture8callbackEi @ 2563 NONAME ABSENT
	_ZN9HbGesture9longPressE7QPointF @ 2564 NONAME ABSENT
	_ZN9HbGesture9triggeredEi @ 2565 NONAME ABSENT
	_ZN9HbGestureC1ENS_9DirectionEiP7QObject @ 2566 NONAME ABSENT
	_ZN9HbGestureC2ENS_9DirectionEiP7QObject @ 2567 NONAME ABSENT
	_ZN9HbGestureD0Ev @ 2568 NONAME ABSENT
	_ZN9HbGestureD1Ev @ 2569 NONAME ABSENT
	_ZN9HbGestureD2Ev @ 2570 NONAME ABSENT
	_ZN9HbSoftKey11qt_metacallEN11QMetaObject4CallEiPPv @ 2571 NONAME ABSENT
	_ZN9HbSoftKey11qt_metacastEPKc @ 2572 NONAME ABSENT
	_ZN9HbSoftKey11resizeEventEP25QGraphicsSceneResizeEvent @ 2573 NONAME ABSENT
	_ZN9HbSoftKey12removeActionEP8HbAction @ 2574 NONAME ABSENT
	_ZN9HbSoftKey16staticMetaObjectE @ 2575 NONAME DATA 16 ABSENT
	_ZN9HbSoftKey16updatePrimitivesEv @ 2576 NONAME ABSENT
	_ZN9HbSoftKey19getStaticMetaObjectEv @ 2577 NONAME ABSENT
	_ZN9HbSoftKey5eventEP6QEvent @ 2578 NONAME ABSENT
	_ZN9HbSoftKey9addActionEP8HbAction @ 2579 NONAME ABSENT
	_ZN9HbSoftKey9softKeyIdEv @ 2580 NONAME ABSENT
	_ZN9HbSoftKeyC1EN2Hb9SoftKeyIdEP13QGraphicsItem @ 2581 NONAME ABSENT
	_ZN9HbSoftKeyC1ER16HbSoftKeyPrivateN2Hb9SoftKeyIdEP13QGraphicsItem @ 2582 NONAME ABSENT
	_ZN9HbSoftKeyC2EN2Hb9SoftKeyIdEP13QGraphicsItem @ 2583 NONAME ABSENT
	_ZN9HbSoftKeyC2ER16HbSoftKeyPrivateN2Hb9SoftKeyIdEP13QGraphicsItem @ 2584 NONAME ABSENT
	_ZN9HbSoftKeyD0Ev @ 2585 NONAME ABSENT
	_ZN9HbSoftKeyD1Ev @ 2586 NONAME ABSENT
	_ZN9HbSoftKeyD2Ev @ 2587 NONAME ABSENT
	_ZN9HbToolBar10itemChangeEN13QGraphicsItem18GraphicsItemChangeERK8QVariant @ 2588 NONAME
	_ZN9HbToolBar11changeEventEP6QEvent @ 2589 NONAME
	_ZN9HbToolBar11qt_metacallEN11QMetaObject4CallEiPPv @ 2590 NONAME
	_ZN9HbToolBar11qt_metacastEPKc @ 2591 NONAME
	_ZN9HbToolBar11resizeEventEP25QGraphicsSceneResizeEvent @ 2592 NONAME
	_ZN9HbToolBar12addExtensionEP18HbToolBarExtension @ 2593 NONAME
	_ZN9HbToolBar14mouseMoveEventEP24QGraphicsSceneMouseEvent @ 2594 NONAME ABSENT
	_ZN9HbToolBar14setOrientationEN2Qt11OrientationE @ 2595 NONAME
	_ZN9HbToolBar15insertExtensionEP8HbActionP18HbToolBarExtension @ 2596 NONAME
	_ZN9HbToolBar16staticMetaObjectE @ 2597 NONAME DATA 16
	_ZN9HbToolBar16unsetOrientationEv @ 2598 NONAME ABSENT
	_ZN9HbToolBar17mouseReleaseEventEP24QGraphicsSceneMouseEvent @ 2599 NONAME ABSENT
	_ZN9HbToolBar19getStaticMetaObjectEv @ 2600 NONAME
	_ZN9HbToolBar5eventEP6QEvent @ 2601 NONAME
	_ZN9HbToolBar9addActionERK6HbIconRK7QString @ 2602 NONAME
	_ZN9HbToolBar9addActionERK6HbIconRK7QStringPK7QObjectPKc @ 2603 NONAME
	_ZN9HbToolBar9addActionERK7QString @ 2604 NONAME
	_ZN9HbToolBar9addActionERK7QStringPK7QObjectPKc @ 2605 NONAME
	_ZN9HbToolBarC1EP13QGraphicsItem @ 2606 NONAME
	_ZN9HbToolBarC1ER16HbToolBarPrivateP13QGraphicsItem @ 2607 NONAME
	_ZN9HbToolBarC2EP13QGraphicsItem @ 2608 NONAME
	_ZN9HbToolBarC2ER16HbToolBarPrivateP13QGraphicsItem @ 2609 NONAME
	_ZN9HbToolBarD0Ev @ 2610 NONAME
	_ZN9HbToolBarD1Ev @ 2611 NONAME
	_ZN9HbToolBarD2Ev @ 2612 NONAME
	_ZN9HbToolTip4textEPK15HbGraphicsScene @ 2613 NONAME
	_ZN9HbToolTip8hideTextEP15HbGraphicsScene @ 2614 NONAME
	_ZN9HbToolTip8showTextERK7QStringP13QGraphicsItem6QFlagsIN2Qt13AlignmentFlagEE @ 2615 NONAME
	_ZN9HbToolTip8showTextERK7QStringP13QGraphicsItemRK6QRectF6QFlagsIN2Qt13AlignmentFlagEE @ 2616 NONAME
	_ZN9HbToolTip9isVisibleEPK15HbGraphicsScene @ 2617 NONAME
	_ZN9HbVariant13fillColorDataERK6QColor @ 2618 NONAME
	_ZN9HbVariant14fillStringDataERK7QString @ 2619 NONAME ABSENT
	_ZN9HbVariant14initializeDataEv @ 2620 NONAME
	_ZN9HbVariant5clearEv @ 2621 NONAME
	_ZN9HbVariant6detachEv @ 2622 NONAME
	_ZN9HbVariant7convertENS_4TypeE @ 2623 NONAME
	_ZN9HbVariantC1EN15HbMemoryManager10MemoryTypeE @ 2624 NONAME
	_ZN9HbVariantC1EPKcN15HbMemoryManager10MemoryTypeE @ 2625 NONAME
	_ZN9HbVariantC1ERK6QColorN15HbMemoryManager10MemoryTypeE @ 2626 NONAME
	_ZN9HbVariantC1ERK7QStringN15HbMemoryManager10MemoryTypeE @ 2627 NONAME
	_ZN9HbVariantC1ERKS_ @ 2628 NONAME
	_ZN9HbVariantC1EdN15HbMemoryManager10MemoryTypeE @ 2629 NONAME
	_ZN9HbVariantC1EiN15HbMemoryManager10MemoryTypeE @ 2630 NONAME
	_ZN9HbVariantC2EN15HbMemoryManager10MemoryTypeE @ 2631 NONAME
	_ZN9HbVariantC2EPKcN15HbMemoryManager10MemoryTypeE @ 2632 NONAME
	_ZN9HbVariantC2ERK6QColorN15HbMemoryManager10MemoryTypeE @ 2633 NONAME
	_ZN9HbVariantC2ERK7QStringN15HbMemoryManager10MemoryTypeE @ 2634 NONAME
	_ZN9HbVariantC2ERKS_ @ 2635 NONAME
	_ZN9HbVariantC2EdN15HbMemoryManager10MemoryTypeE @ 2636 NONAME
	_ZN9HbVariantC2EiN15HbMemoryManager10MemoryTypeE @ 2637 NONAME
	_ZN9HbVariantD1Ev @ 2638 NONAME
	_ZN9HbVariantD2Ev @ 2639 NONAME
	_ZN9HbVariantaSERK11QStringList @ 2640 NONAME
	_ZN9HbVariantaSERK6QColor @ 2641 NONAME
	_ZN9HbVariantaSERK7QString @ 2642 NONAME
	_ZN9HbVariantaSERK8HbString @ 2643 NONAME
	_ZN9HbVariantaSERKS_ @ 2644 NONAME
	_ZN9HbVariantaSEd @ 2645 NONAME
	_ZN9HbVariantaSEi @ 2646 NONAME
	_ZN9HbVkbHost10attachHostEPS_P7QObject @ 2647 NONAME
	_ZN9HbVkbHost10detachHostEP7QObject @ 2648 NONAME
	_ZN9HbVkbHost10getVkbHostEP7QObject @ 2649 NONAME
	_ZN9HbVkbHost11qt_metacallEN11QMetaObject4CallEiPPv @ 2650 NONAME
	_ZN9HbVkbHost11qt_metacastEPKc @ 2651 NONAME
	_ZN9HbVkbHost12keypadClosedEv @ 2652 NONAME
	_ZN9HbVkbHost12keypadOpenedEv @ 2653 NONAME
	_ZN9HbVkbHost16staticMetaObjectE @ 2654 NONAME DATA 16
	_ZN9HbVkbHost19getStaticMetaObjectEv @ 2655 NONAME
	_ZNK10HbFontSpec14textPaneHeightEv @ 2656 NONAME ABSENT
	_ZNK10HbFontSpec4fontEv @ 2657 NONAME
	_ZNK10HbFontSpec4roleEv @ 2658 NONAME
	_ZNK10HbFontSpec6isNullEv @ 2659 NONAME
	_ZNK10HbFontSpec9fontDeltaEv @ 2660 NONAME ABSENT
	_ZNK10HbFontSpec9pixelSizeEv @ 2661 NONAME ABSENT
	_ZNK10HbFontSpec9pointSizeEv @ 2662 NONAME ABSENT
	_ZNK10HbFontSpeccv8QVariantEv @ 2663 NONAME
	_ZNK10HbGridView10metaObjectEv @ 2664 NONAME ABSENT
	_ZNK10HbGridView11columnCountEv @ 2665 NONAME ABSENT
	_ZNK10HbGridView11iconVisibleEv @ 2666 NONAME ABSENT
	_ZNK10HbGridView11textVisibleEv @ 2667 NONAME ABSENT
	_ZNK10HbGridView6itemAtEi @ 2668 NONAME ABSENT
	_ZNK10HbGridView6itemAtEii @ 2669 NONAME ABSENT
	_ZNK10HbGridView8rowCountEv @ 2670 NONAME ABSENT
	_ZNK10HbIconItem11defaultSizeEv @ 2671 NONAME
	_ZNK10HbIconItem12iconItemSizeEv @ 2672 NONAME
	_ZNK10HbIconItem13mirroringModeEv @ 2673 NONAME
	_ZNK10HbIconItem15aspectRatioModeEv @ 2674 NONAME
	_ZNK10HbIconItem4iconEv @ 2675 NONAME
	_ZNK10HbIconItem4modeEv @ 2676 NONAME
	_ZNK10HbIconItem5brushEv @ 2677 NONAME
	_ZNK10HbIconItem5flagsEv @ 2678 NONAME
	_ZNK10HbIconItem5stateEv @ 2679 NONAME
	_ZNK10HbIconItem6isNullEv @ 2680 NONAME
	_ZNK10HbIconItem8iconNameEN5QIcon4ModeENS0_5StateE @ 2681 NONAME
	_ZNK10HbIconItem8iconNameEv @ 2682 NONAME
	_ZNK10HbIconItem8isTypeOfEi @ 2683 NONAME ABSENT
	_ZNK10HbIconItem8sizeHintEN2Qt8SizeHintERK6QSizeF @ 2684 NONAME ABSENT
	_ZNK10HbIconItem9alignmentEv @ 2685 NONAME
	_ZNK10HbInstance11orientationEv @ 2686 NONAME ABSENT
	_ZNK10HbInstance12fontProviderEv @ 2687 NONAME ABSENT
	_ZNK10HbInstance12typefaceInfoEv @ 2688 NONAME ABSENT
	_ZNK10HbInstance13primaryWindowEv @ 2689 NONAME ABSENT
	_ZNK10HbInstance14allMainWindowsEv @ 2690 NONAME
	_ZNK10HbInstance5sceneEv @ 2691 NONAME ABSENT
	_ZNK10HbInstance5styleEv @ 2692 NONAME
	_ZNK10HbInstance5themeEv @ 2693 NONAME
	_ZNK10HbListView10currentRowEv @ 2694 NONAME ABSENT
	_ZNK10HbListView10metaObjectEv @ 2695 NONAME ABSENT
	_ZNK10HbListView11arrangeModeEv @ 2696 NONAME ABSENT
	_ZNK10HbListView4rowsEv @ 2697 NONAME ABSENT
	_ZNK10HbListView4typeEv @ 2698 NONAME ABSENT
	_ZNK10HbListView8viewItemEi @ 2699 NONAME ABSENT
	_ZNK10HbStyleOld10metaObjectEv @ 2700 NONAME ABSENT
	_ZNK10HbStyleOld11pixelMetricEN6QStyle11PixelMetricEPK24QStyleOptionGraphicsItemPK7QWidget @ 2701 NONAME ABSENT
	_ZNK10HbStyleOld12widgetParamsEPK8HbWidgetPK13HbStyleOption @ 2702 NONAME ABSENT
	_ZNK10HbStyleOld13drawPrimitiveEN6QStyle16PrimitiveElementEPK12QStyleOptionP8QPainterPK7QWidget @ 2703 NONAME ABSENT
	_ZNK10HbStyleOld15standardPaletteEv @ 2704 NONAME ABSENT
	_ZNK10HbStyleOld8maskRectEffR7QPixmap @ 2705 NONAME ABSENT
	_ZNK10HbTextItem11logicalFontEv @ 2706 NONAME ABSENT
	_ZNK10HbTextItem13effectiveFontEv @ 2707 NONAME ABSENT
	_ZNK10HbTextItem15layoutDirectionEv @ 2708 NONAME ABSENT
	_ZNK10HbTextItem4fontEv @ 2709 NONAME ABSENT
	_ZNK10HbTextItem4textEv @ 2710 NONAME
	_ZNK10HbTextItem7paletteEv @ 2711 NONAME ABSENT
	_ZNK10HbTextItem8fontSpecEv @ 2712 NONAME ABSENT
	_ZNK10HbTextItem8isTypeOfEi @ 2713 NONAME ABSENT
	_ZNK10HbTextItem8sizeHintEN2Qt8SizeHintERK6QSizeF @ 2714 NONAME
	_ZNK10HbTextItem9alignmentEv @ 2715 NONAME
	_ZNK10HbTextItem9elideModeEv @ 2716 NONAME
	_ZNK10HbTextItem9textColorEv @ 2717 NONAME
	_ZNK10HbTextItem9textFlagsEv @ 2718 NONAME ABSENT
	_ZNK10HbTreeView10indexCountEv @ 2719 NONAME ABSENT
	_ZNK10HbTreeView10isExpandedERK11QModelIndex @ 2720 NONAME ABSENT
	_ZNK10HbTreeView10metaObjectEv @ 2721 NONAME ABSENT
	_ZNK10HbTreeView13indexPositionERK11QModelIndex @ 2722 NONAME ABSENT
	_ZNK10HbTreeView13previousIndexERK11QModelIndex @ 2723 NONAME ABSENT
	_ZNK10HbTreeView9nextIndexERK11QModelIndex @ 2724 NONAME ABSENT
	_ZNK11HbDecorator10metaObjectEv @ 2725 NONAME ABSENT
	_ZNK11HbDecorator13decoratorTypeEv @ 2726 NONAME ABSENT
	_ZNK11HbDecorator15initStyleOptionEP22HbStyleOptionDecorator @ 2727 NONAME ABSENT
	_ZNK11HbFrameItem11frameDrawerEv @ 2728 NONAME
	_ZNK11HbFrameItem8isTypeOfEi @ 2729 NONAME ABSENT
	_ZNK11HbIndicator10metaObjectEv @ 2730 NONAME
	_ZNK11HbIndicator5errorEv @ 2731 NONAME
	_ZNK11HbListModel10metaObjectEv @ 2732 NONAME ABSENT
	_ZNK11HbListModel4dataERK11QModelIndexi @ 2733 NONAME ABSENT
	_ZNK11HbListModel4itemEi @ 2734 NONAME ABSENT
	_ZNK11HbListModel5flagsERK11QModelIndex @ 2735 NONAME ABSENT
	_ZNK11HbListModel5indexEP16HbListWidgetItem @ 2736 NONAME ABSENT
	_ZNK11HbListModel5indexEiiRK11QModelIndex @ 2737 NONAME ABSENT
	_ZNK11HbListModel8rowCountERK11QModelIndex @ 2738 NONAME ABSENT
	_ZNK11HbPopupBase10metaObjectEv @ 2739 NONAME ABSENT
	_ZNK11HbPopupBase13dismissPolicyEv @ 2740 NONAME ABSENT
	_ZNK11HbPopupBase17isBackgroundFadedEv @ 2741 NONAME ABSENT
	_ZNK11HbPopupBase7isModalEv @ 2742 NONAME ABSENT
	_ZNK11HbPopupBase7timeoutEv @ 2743 NONAME ABSENT
	_ZNK11HbScrollBar10metaObjectEv @ 2744 NONAME
	_ZNK11HbScrollBar11interactiveEv @ 2745 NONAME ABSENT
	_ZNK11HbScrollBar11orientationEv @ 2746 NONAME
	_ZNK11HbScrollBar15initStyleOptionEP22HbStyleOptionScrollBar @ 2747 NONAME ABSENT
	_ZNK11HbScrollBar5valueEv @ 2748 NONAME
	_ZNK11HbScrollBar8pageSizeEv @ 2749 NONAME
	_ZNK11HbTouchArea8isTypeOfEi @ 2750 NONAME ABSENT
	_ZNK11HbTouchArea8sizeHintEN2Qt8SizeHintERK6QSizeF @ 2751 NONAME
	_ZNK12HbIconLoader10metaObjectEv @ 2752 NONAME
	_ZNK12HbIconLoader10resolutionEv @ 2753 NONAME
	_ZNK12HbIconLoader11defaultSizeERK7QStringS2_6QFlagsINS_16IconLoaderOptionEE @ 2754 NONAME ABSENT
	_ZNK12HbIconLoader16sourceResolutionEv @ 2755 NONAME
	_ZNK12HbKeyMapData10dataForKeyE6QFlagsI18HbKeyboardTypeFlagERii @ 2756 NONAME ABSENT
	_ZNK12HbKeyMapData10dataForKeyE6QFlagsI18HbKeyboardTypeFlagERiiS0_I10HbModifierE @ 2757 NONAME ABSENT
	_ZNK12HbKeyMapData10hasKeyDataE6QFlagsI18HbKeyboardTypeFlagE @ 2758 NONAME ABSENT
	_ZNK12HbKeyMapData11hasDeadKeysE6QFlagsI18HbKeyboardTypeFlagE @ 2759 NONAME ABSENT
	_ZNK12HbKeyMapData12numberOfKeysE6QFlagsI18HbKeyboardTypeFlagE @ 2760 NONAME ABSENT
	_ZNK12HbKeyMapData14rawDeadKeyDataE6QFlagsI18HbKeyboardTypeFlagERi @ 2761 NONAME ABSENT
	_ZNK12HbKeyMapData15keyForCharacterE6QFlagsI18HbKeyboardTypeFlagE5QChar @ 2762 NONAME ABSENT
	_ZNK12HbKeyMapData15vkbNumericTableE6QFlagsI18HbKeyboardTypeFlagERi @ 2763 NONAME ABSENT
	_ZNK12HbKeyMapData16hasFnKeyBindingsE6QFlagsI18HbKeyboardTypeFlagE @ 2764 NONAME ABSENT
	_ZNK12HbKeyMapData17deadKeyDataForKeyE6QFlagsI18HbKeyboardTypeFlagERiiS0_I10HbModifierE @ 2765 NONAME ABSENT
	_ZNK12HbKeyMapData17hasVowelSequencesE6QFlagsI18HbKeyboardTypeFlagE @ 2766 NONAME ABSENT
	_ZNK12HbKeyMapData18vowelSequenceTableE6QFlagsI18HbKeyboardTypeFlagERi @ 2767 NONAME ABSENT
	_ZNK12HbKeyMapData19indexInBindingTableE6QFlagsI18HbKeyboardTypeFlagEiS0_I10HbModifierE @ 2768 NONAME ABSENT
	_ZNK12HbKeyMapData20specialCharacterDataE6QFlagsI18HbKeyboardTypeFlagE @ 2769 NONAME ABSENT
	_ZNK12HbKeyMapData22keyBindingForCharacterE6QFlagsI18HbKeyboardTypeFlagE5QChar @ 2770 NONAME ABSENT
	_ZNK12HbKeyMapData23rawSpecialCharacterDataE6QFlagsI18HbKeyboardTypeFlagERi @ 2771 NONAME ABSENT
	_ZNK12HbKeyMapData31numericModeSpecialCharacterDataE6QFlagsI18HbKeyboardTypeFlagE @ 2772 NONAME ABSENT
	_ZNK12HbKeyMapData34rawNumericModeSpecialCharacterDataE6QFlagsI18HbKeyboardTypeFlagERi @ 2773 NONAME ABSENT
	_ZNK12HbKeyMapData8vkbTableE6QFlagsI18HbKeyboardTypeFlagERi @ 2774 NONAME ABSENT
	_ZNK12HbListWidget10currentRowEv @ 2775 NONAME ABSENT
	_ZNK12HbListWidget10metaObjectEv @ 2776 NONAME ABSENT
	_ZNK12HbListWidget11currentItemEv @ 2777 NONAME ABSENT
	_ZNK12HbListWidget20hasListItemExpansionEv @ 2778 NONAME ABSENT
	_ZNK12HbListWidget3rowEPK16HbListWidgetItem @ 2779 NONAME ABSENT
	_ZNK12HbListWidget4itemEi @ 2780 NONAME ABSENT
	_ZNK12HbListWidget4textEi @ 2781 NONAME ABSENT
	_ZNK12HbListWidget5countEv @ 2782 NONAME ABSENT
	_ZNK12HbMainWindow10metaObjectEv @ 2783 NONAME
	_ZNK12HbMainWindow11currentViewEv @ 2784 NONAME
	_ZNK12HbMainWindow11indexOfViewEP6HbView @ 2785 NONAME ABSENT
	_ZNK12HbMainWindow11orientationEv @ 2786 NONAME
	_ZNK12HbMainWindow12visibleItemsEv @ 2787 NONAME ABSENT
	_ZNK12HbMainWindow13isItemVisibleEN2Hb9SceneItemE @ 2788 NONAME ABSENT
	_ZNK12HbMainWindow13softKeyActionEN2Hb9SoftKeyIdE @ 2789 NONAME ABSENT
	_ZNK12HbMainWindow16currentViewIndexEv @ 2790 NONAME ABSENT
	_ZNK12HbMainWindow22isViewSwitchingEnabledEv @ 2791 NONAME ABSENT
	_ZNK12HbMainWindow6viewAtEi @ 2792 NONAME ABSENT
	_ZNK12HbMainWindow9viewCountEv @ 2793 NONAME ABSENT
	_ZNK12HbScrollArea10isDraggingEv @ 2794 NONAME
	_ZNK12HbScrollArea10metaObjectEv @ 2795 NONAME
	_ZNK12HbScrollArea11isScrollingEv @ 2796 NONAME
	_ZNK12HbScrollArea13clampingStyleEv @ 2797 NONAME
	_ZNK12HbScrollArea13contentWidgetEv @ 2798 NONAME
	_ZNK12HbScrollArea14scrollingStyleEv @ 2799 NONAME
	_ZNK12HbScrollArea15frictionEnabledEv @ 2800 NONAME
	_ZNK12HbScrollArea16longPressEnabledEv @ 2801 NONAME
	_ZNK12HbScrollArea16scrollDirectionsEv @ 2802 NONAME
	_ZNK12HbScrollArea17verticalScrollBarEv @ 2803 NONAME
	_ZNK12HbScrollArea19horizontalScrollBarEv @ 2804 NONAME
	_ZNK12HbScrollArea23verticalScrollBarPolicyEv @ 2805 NONAME
	_ZNK12HbScrollArea25horizontalScrollBarPolicyEv @ 2806 NONAME
	_ZNK12HbScrollArea8sizeHintEN2Qt8SizeHintERK6QSizeF @ 2807 NONAME
	_ZNK12HbScrollArea9alignmentEv @ 2808 NONAME
	_ZNK12HbToolButton10backgroundEv @ 2809 NONAME
	_ZNK12HbToolButton10metaObjectEv @ 2810 NONAME
	_ZNK12HbToolButton15initStyleOptionEP23HbStyleOptionToolButton @ 2811 NONAME ABSENT
	_ZNK12HbToolButton15toolButtonStyleEv @ 2812 NONAME ABSENT
	_ZNK12HbToolButton6actionEv @ 2813 NONAME
	_ZNK12HbToolButton9primitiveEN7HbStyle9PrimitiveE @ 2814 NONAME ABSENT
	_ZNK12HbTreeLayout11indentationEv @ 2815 NONAME ABSENT
	_ZNK12HbTreeLayout17uniformSizedItemsEv @ 2816 NONAME ABSENT
	_ZNK12HbTreeLayout5countEv @ 2817 NONAME ABSENT
	_ZNK12HbTreeLayout6itemAtEi @ 2818 NONAME ABSENT
	_ZNK12HbTreeLayout7indexOfEP19QGraphicsLayoutItem @ 2819 NONAME ABSENT
	_ZNK12HbTreeLayout8sizeHintEN2Qt8SizeHintERK6QSizeF @ 2820 NONAME ABSENT
	_ZNK13HbFrameDrawer12borderWidthsERfS0_S0_S0_ @ 2821 NONAME
	_ZNK13HbFrameDrawer13fillWholeRectEv @ 2822 NONAME
	_ZNK13HbFrameDrawer13mirroringModeEv @ 2823 NONAME
	_ZNK13HbFrameDrawer17frameGraphicsNameEv @ 2824 NONAME
	_ZNK13HbFrameDrawer18fileNameSuffixListEv @ 2825 NONAME
	_ZNK13HbFrameDrawer4maskEv @ 2826 NONAME
	_ZNK13HbFrameDrawer4rectEv @ 2827 NONAME
	_ZNK13HbFrameDrawer5paintEP8QPainterRK6QRectF @ 2828 NONAME
	_ZNK13HbFrameDrawer6isNullEv @ 2829 NONAME
	_ZNK13HbFrameDrawer9frameSizeEv @ 2830 NONAME
	_ZNK13HbFrameDrawer9frameTypeEv @ 2831 NONAME
	_ZNK13HbInputFilter10metaObjectEv @ 2832 NONAME
	_ZNK13HbInputMethod10inputStateEv @ 2833 NONAME
	_ZNK13HbInputMethod10metaObjectEv @ 2834 NONAME
	_ZNK13HbInputMethod11focusObjectEv @ 2835 NONAME
	_ZNK13HbInputMethod11handleEventEv @ 2836 NONAME ABSENT
	_ZNK13HbInputMethod14activeLanguageEv @ 2837 NONAME
	_ZNK13HbInputMethod14isActiveMethodEv @ 2838 NONAME
	_ZNK13HbInputMethod19modeAllowedInEditorE6QFlagsI19HbInputModeTypeFlagE @ 2839 NONAME
	_ZNK13HbInputMethod21stateChangeInProgressEv @ 2840 NONAME
	_ZNK13HbInputMethod23automaticTextCaseNeededEv @ 2841 NONAME
	_ZNK13HbInputMethod28allowPermanentToBeOverriddenERK11HbInputMode @ 2842 NONAME ABSENT
	_ZNK13HbInputMethod29isKeyEventModificationAllowedEv @ 2843 NONAME ABSENT
	_ZNK14HbAbstractItem8isTypeOfEi @ 2844 NONAME ABSENT
	_ZNK14HbAnchorLayout5countEv @ 2845 NONAME
	_ZNK14HbAnchorLayout6itemAtEi @ 2846 NONAME
	_ZNK14HbAnchorLayout7indexOfEPK19QGraphicsLayoutItem @ 2847 NONAME
	_ZNK14HbAnchorLayout7isValidEv @ 2848 NONAME
	_ZNK14HbAnchorLayout8sizeHintEN2Qt8SizeHintERK6QSizeF @ 2849 NONAME
	_ZNK14HbDeviceDialog10metaObjectEv @ 2850 NONAME
	_ZNK14HbDeviceDialog12receivedDataEv @ 2851 NONAME
	_ZNK14HbDeviceDialog5errorEv @ 2852 NONAME
	_ZNK14HbFontProvider10metaObjectEv @ 2853 NONAME ABSENT
	_ZNK14HbFontProvider12physicalFontEN10HbFontSpec4RoleE @ 2854 NONAME ABSENT
	_ZNK14HbFontProvider12physicalFontEN2Hb15LogicalFontNameE @ 2855 NONAME ABSENT
	_ZNK14HbGridViewItem10metaObjectEv @ 2856 NONAME ABSENT
	_ZNK14HbGridViewItem15initStyleOptionEP25HbStyleOptionGridViewItem @ 2857 NONAME ABSENT
	_ZNK14HbGridViewItem4typeEv @ 2858 NONAME ABSENT
	_ZNK14HbGridViewItem5shapeEv @ 2859 NONAME ABSENT
	_ZNK14HbGridViewItem9primitiveEN7HbStyle9PrimitiveE @ 2860 NONAME ABSENT
	_ZNK14HbIconAnimator10metaObjectEv @ 2861 NONAME
	_ZNK14HbListViewItem10metaObjectEv @ 2862 NONAME ABSENT
	_ZNK14HbListViewItem23contiguousSelectionAreaEv @ 2863 NONAME ABSENT
	_ZNK14HbListViewItem4typeEv @ 2864 NONAME ABSENT
	_ZNK14HbRichTextItem15layoutDirectionEv @ 2865 NONAME ABSENT
	_ZNK14HbRichTextItem4fontEv @ 2866 NONAME ABSENT
	_ZNK14HbRichTextItem4textEv @ 2867 NONAME
	_ZNK14HbRichTextItem8isTypeOfEi @ 2868 NONAME ABSENT
	_ZNK14HbRichTextItem9alignmentEv @ 2869 NONAME
	_ZNK14HbRichTextItem9textFlagsEv @ 2870 NONAME ABSENT
	_ZNK14HbTreeViewItem10isExpandedEv @ 2871 NONAME ABSENT
	_ZNK14HbTreeViewItem10metaObjectEv @ 2872 NONAME ABSENT
	_ZNK14HbTreeViewItem15initStyleOptionEP25HbStyleOptionTreeViewItem @ 2873 NONAME ABSENT
	_ZNK14HbTreeViewItem4typeEv @ 2874 NONAME ABSENT
	_ZNK14HbTreeViewItem5stateEv @ 2875 NONAME ABSENT
	_ZNK14HbTreeViewItem9primitiveEN7HbStyle9PrimitiveE @ 2876 NONAME ABSENT
	_ZNK15HbDeviceProfile11logicalSizeEv @ 2877 NONAME
	_ZNK15HbDeviceProfile11orientationEv @ 2878 NONAME
	_ZNK15HbDeviceProfile12physicalSizeEv @ 2879 NONAME
	_ZNK15HbDeviceProfile20alternateProfileNameEv @ 2880 NONAME
	_ZNK15HbDeviceProfile4nameEv @ 2881 NONAME
	_ZNK15HbDeviceProfile5touchEv @ 2882 NONAME
	_ZNK15HbDeviceProfile6isNullEv @ 2883 NONAME
	_ZNK15HbDeviceProfile8ppmValueEv @ 2884 NONAME
	_ZNK15HbDeviceProfile9unitValueEv @ 2885 NONAME
	_ZNK15HbGestureFilter10metaObjectEv @ 2886 NONAME ABSENT
	_ZNK15HbGraphicsScene10metaObjectEv @ 2887 NONAME
	_ZNK15HbInputLanguage21isRightToLeftLanguageEv @ 2888 NONAME
	_ZNK15HbInputLanguage23isCaseSensitiveLanguageEv @ 2889 NONAME
	_ZNK15HbInputLanguage23isLatinAlphabetLanguageEv @ 2890 NONAME
	_ZNK15HbItemHighlight10metaObjectEv @ 2891 NONAME ABSENT
	_ZNK15HbItemHighlight13highlightModeEv @ 2892 NONAME ABSENT
	_ZNK15HbItemHighlight17animationTimeLineEv @ 2893 NONAME ABSENT
	_ZNK15HbItemHighlight4typeEv @ 2894 NONAME ABSENT
	_ZNK15HbItemHighlight6targetEv @ 2895 NONAME ABSENT
	_ZNK15HbItemHighlight8durationENS_13HighlightModeE @ 2896 NONAME ABSENT
	_ZNK15HbItemHighlight8durationEv @ 2897 NONAME ABSENT
	_ZNK15HbStackedLayout5countEv @ 2898 NONAME
	_ZNK15HbStackedLayout6itemAtEi @ 2899 NONAME
	_ZNK15HbStackedLayout7indexOfEP19QGraphicsLayoutItem @ 2900 NONAME
	_ZNK15HbStackedLayout8sizeHintEN2Qt8SizeHintERK6QSizeF @ 2901 NONAME
	_ZNK15HbStackedWidget10metaObjectEv @ 2902 NONAME
	_ZNK15HbStackedWidget12currentIndexEv @ 2903 NONAME
	_ZNK15HbStackedWidget13currentWidgetEv @ 2904 NONAME
	_ZNK15HbStackedWidget5countEv @ 2905 NONAME
	_ZNK15HbStackedWidget7indexOfEP15QGraphicsWidget @ 2906 NONAME
	_ZNK15HbStackedWidget8widgetAtEi @ 2907 NONAME
	_ZNK15HbWidgetPrivate19backgroundPrimitiveEv @ 2908 NONAME ABSENT
	_ZNK16HbAbstractButton10autoRepeatEv @ 2909 NONAME
	_ZNK16HbAbstractButton10metaObjectEv @ 2910 NONAME
	_ZNK16HbAbstractButton11isCheckableEv @ 2911 NONAME
	_ZNK16HbAbstractButton13autoExclusiveEv @ 2912 NONAME
	_ZNK16HbAbstractButton15autoRepeatDelayEv @ 2913 NONAME
	_ZNK16HbAbstractButton15initStyleOptionEP13HbStyleOption @ 2914 NONAME
	_ZNK16HbAbstractButton18autoRepeatIntervalEv @ 2915 NONAME
	_ZNK16HbAbstractButton6isDownEv @ 2916 NONAME
	_ZNK16HbAbstractButton9hitButtonERK7QPointF @ 2917 NONAME
	_ZNK16HbAbstractButton9isCheckedEv @ 2918 NONAME
	_ZNK16HbExtendedLocale13currencySpaceEv @ 2919 NONAME
	_ZNK16HbExtendedLocale13dateSeparatorEi @ 2920 NONAME
	_ZNK16HbExtendedLocale13timeSeparatorEi @ 2921 NONAME
	_ZNK16HbExtendedLocale14currencySymbolEv @ 2922 NONAME
	_ZNK16HbExtendedLocale17unitsDistanceLongEv @ 2923 NONAME
	_ZNK16HbExtendedLocale18amPmSymbolPositionEv @ 2924 NONAME
	_ZNK16HbExtendedLocale18unitsDistanceShortEv @ 2925 NONAME
	_ZNK16HbExtendedLocale21currencyDecimalPlacesEv @ 2926 NONAME
	_ZNK16HbExtendedLocale21negativeCurrencySpaceEv @ 2927 NONAME
	_ZNK16HbExtendedLocale22currencySymbolPositionEv @ 2928 NONAME
	_ZNK16HbExtendedLocale22negativeCurrencyFormatEv @ 2929 NONAME
	_ZNK16HbExtendedLocale30negativeCurrencySymbolOppositeEv @ 2930 NONAME
	_ZNK16HbExtendedLocale9amPmSpaceEv @ 2931 NONAME
	_ZNK16HbExtendedLocale9dateStyleEv @ 2932 NONAME
	_ZNK16HbExtendedLocale9timeStyleEv @ 2933 NONAME
	_ZNK16HbInputModeCache10metaObjectEv @ 2934 NONAME
	_ZNK16HbInputModeCache12activeMethodEv @ 2935 NONAME ABSENT
	_ZNK16HbListWidgetItem13secondaryTextEv @ 2936 NONAME ABSENT
	_ZNK16HbListWidgetItem14decorationIconEv @ 2937 NONAME ABSENT
	_ZNK16HbListWidgetItem14decorationTextEv @ 2938 NONAME ABSENT
	_ZNK16HbListWidgetItem23secondaryDecorationIconEv @ 2939 NONAME ABSENT
	_ZNK16HbListWidgetItem23secondaryDecorationTextEv @ 2940 NONAME ABSENT
	_ZNK16HbListWidgetItem4dataEi @ 2941 NONAME ABSENT
	_ZNK16HbListWidgetItem4textEv @ 2942 NONAME ABSENT
	_ZNK16HbListWidgetItem4typeEv @ 2943 NONAME ABSENT
	_ZNK16HbListWidgetItem5textsENS_14ListItemColumnE @ 2944 NONAME ABSENT
	_ZNK16HbListWidgetItem7contentENS_14ListItemColumnEiNS_17ContentVisibilityE @ 2945 NONAME ABSENT
	_ZNK16HbListWidgetItem8rowCountENS_14ListItemColumnE @ 2946 NONAME ABSENT
	_ZNK16HbListWidgetItem9isEnabledEv @ 2947 NONAME ABSENT
	_ZNK16HbNgNormalNumber10metaObjectEv @ 2948 NONAME ABSENT
	_ZNK16HbNumberGrouping10metaObjectEv @ 2949 NONAME ABSENT
	_ZNK16HbPredictionBase14userDictionaryEv @ 2950 NONAME
	_ZNK16HbPredictionBase8languageEv @ 2951 NONAME
	_ZNK17HbEditorInterface10metaObjectEv @ 2952 NONAME
	_ZNK17HbEditorInterface11constraintsEv @ 2953 NONAME ABSENT
	_ZNK17HbEditorInterface11editorClassEv @ 2954 NONAME
	_ZNK17HbEditorInterface13localLanguageEv @ 2955 NONAME ABSENT
	_ZNK17HbEditorInterface14localDigitTypeEv @ 2956 NONAME ABSENT
	_ZNK17HbEditorInterface15isNumericEditorEv @ 2957 NONAME
	_ZNK17HbEditorInterface16customButtonBankEv @ 2958 NONAME ABSENT
	_ZNK17HbEditorInterface16lastFocusedStateER12HbInputState @ 2959 NONAME
	_ZNK17HbEditorInterface17extraDictionaryIdEv @ 2960 NONAME
	_ZNK17HbEditorInterface6editorEv @ 2961 NONAME
	_ZNK17HbEditorInterface6filterEv @ 2962 NONAME
	_ZNK17HbEditorInterface7actionsEv @ 2963 NONAME
	_ZNK17HbEditorInterface8textCaseEv @ 2964 NONAME
	_ZNK17HbEditorInterface9inputModeEv @ 2965 NONAME ABSENT
	_ZNK17HbEditorInterfaceeqERKS_ @ 2966 NONAME
	_ZNK17HbEditorInterfaceneERKS_ @ 2967 NONAME
	_ZNK17HbFrameBackground17frameGraphicsNameEv @ 2968 NONAME
	_ZNK17HbFrameBackground6isNullEv @ 2969 NONAME
	_ZNK17HbFrameBackground9frameTypeEv @ 2970 NONAME
	_ZNK17HbFrameBackgroundcv8QVariantEv @ 2971 NONAME
	_ZNK17HbFrameBackgroundeqERKS_ @ 2972 NONAME
	_ZNK17HbFrameBackgroundneERKS_ @ 2973 NONAME
	_ZNK17HbInputMethodNull11isComposingEv @ 2974 NONAME
	_ZNK17HbSignalIndicator10metaObjectEv @ 2975 NONAME
	_ZNK17HbSignalIndicator8sizeHintEN2Qt8SizeHintERK6QSizeF @ 2976 NONAME ABSENT
	_ZNK18HbAbstractItemView10bufferSizeEv @ 2977 NONAME ABSENT
	_ZNK18HbAbstractItemView10indexCountEv @ 2978 NONAME ABSENT
	_ZNK18HbAbstractItemView10layoutNameEv @ 2979 NONAME ABSENT
	_ZNK18HbAbstractItemView10metaObjectEv @ 2980 NONAME ABSENT
	_ZNK18HbAbstractItemView11itemByIndexERK11QModelIndex @ 2981 NONAME ABSENT
	_ZNK18HbAbstractItemView12currentIndexEv @ 2982 NONAME ABSENT
	_ZNK18HbAbstractItemView12visibleItemsEv @ 2983 NONAME ABSENT
	_ZNK18HbAbstractItemView13highlightModeEv @ 2984 NONAME ABSENT
	_ZNK18HbAbstractItemView13indexPositionERK11QModelIndex @ 2985 NONAME ABSENT
	_ZNK18HbAbstractItemView13itemRecyclingEv @ 2986 NONAME ABSENT
	_ZNK18HbAbstractItemView13previousIndexERK11QModelIndex @ 2987 NONAME ABSENT
	_ZNK18HbAbstractItemView13selectionModeEv @ 2988 NONAME ABSENT
	_ZNK18HbAbstractItemView14itemAtPositionERK7QPointF @ 2989 NONAME ABSENT
	_ZNK18HbAbstractItemView14itemPrototypesEv @ 2990 NONAME ABSENT
	_ZNK18HbAbstractItemView14selectionModelEv @ 2991 NONAME ABSENT
	_ZNK18HbAbstractItemView15currentViewItemEv @ 2992 NONAME ABSENT
	_ZNK18HbAbstractItemView16uniformItemSizesEv @ 2993 NONAME ABSENT
	_ZNK18HbAbstractItemView4typeEv @ 2994 NONAME ABSENT
	_ZNK18HbAbstractItemView5modelEv @ 2995 NONAME ABSENT
	_ZNK18HbAbstractItemView9containerEv @ 2996 NONAME ABSENT
	_ZNK18HbAbstractItemView9highlightEv @ 2997 NONAME ABSENT
	_ZNK18HbAbstractItemView9isVisibleEP18HbAbstractViewItem @ 2998 NONAME ABSENT
	_ZNK18HbAbstractItemView9isVisibleERK11QModelIndex @ 2999 NONAME ABSENT
	_ZNK18HbAbstractItemView9nextIndexERK11QModelIndex @ 3000 NONAME ABSENT
	_ZNK18HbAbstractItemView9rootIndexEv @ 3001 NONAME ABSENT
	_ZNK18HbAbstractViewItem10checkStateEv @ 3002 NONAME ABSENT
	_ZNK18HbAbstractViewItem10metaObjectEv @ 3003 NONAME ABSENT
	_ZNK18HbAbstractViewItem10modelIndexEv @ 3004 NONAME ABSENT
	_ZNK18HbAbstractViewItem12defaultFrameEv @ 3005 NONAME ABSENT
	_ZNK18HbAbstractViewItem15initStyleOptionEP29HbStyleOptionAbstractViewItem @ 3006 NONAME ABSENT
	_ZNK18HbAbstractViewItem16canSetModelIndexERK11QModelIndex @ 3007 NONAME ABSENT
	_ZNK18HbAbstractViewItem23contiguousSelectionAreaEv @ 3008 NONAME ABSENT
	_ZNK18HbAbstractViewItem4typeEv @ 3009 NONAME ABSENT
	_ZNK18HbAbstractViewItem5stateEv @ 3010 NONAME ABSENT
	_ZNK18HbAbstractViewItem8itemViewEv @ 3011 NONAME ABSENT
	_ZNK18HbAbstractViewItem8sizeHintEN2Qt8SizeHintERK6QSizeF @ 3012 NONAME ABSENT
	_ZNK18HbAbstractViewItem9isFocusedEv @ 3013 NONAME ABSENT
	_ZNK18HbAbstractViewItem9primitiveEN7HbStyle9PrimitiveE @ 3014 NONAME ABSENT
	_ZNK18HbAbstractViewItem9prototypeEv @ 3015 NONAME ABSENT
	_ZNK18HbBatteryIndicator10metaObjectEv @ 3016 NONAME
	_ZNK18HbBatteryIndicator8sizeHintEN2Qt8SizeHintERK6QSizeF @ 3017 NONAME ABSENT
	_ZNK18HbInputFocusObject10metaObjectEv @ 3018 NONAME
	_ZNK18HbInputFocusObject21stringAllowedInEditorERK7QString @ 3019 NONAME
	_ZNK18HbInputFocusObject24characterAllowedInEditorE5QChar @ 3020 NONAME
	_ZNK18HbInputFocusObject8scenePosEv @ 3021 NONAME
	_ZNK18HbMultiSegmentAlgo12segmentIndexEi @ 3022 NONAME ABSENT
	_ZNK18HbMultiSegmentAlgo19lastOffsetBeingUsedEv @ 3023 NONAME ABSENT
	_ZNK18HbMultiSegmentAlgo19totalMemoryConsumedEv @ 3024 NONAME ABSENT
	_ZNK18HbMultiSegmentAlgo20maxCellSizeSupportedEv @ 3025 NONAME ABSENT
	_ZNK18HbPredictionEngine11currentWordEv @ 3026 NONAME
	_ZNK18HbPredictionEngine17secondaryLanguageEv @ 3027 NONAME
	_ZNK18HbPredictionEngine20errorCorrectionLevelEv @ 3028 NONAME
	_ZNK18HbToolBarExtension10metaObjectEv @ 3029 NONAME
	_ZNK18HbToolBarExtension15extensionActionEv @ 3030 NONAME
	_ZNK19HbFocusObjectWidget10metaObjectEv @ 3031 NONAME ABSENT
	_ZNK19HbFocusObjectWidget10microFocusEv @ 3032 NONAME ABSENT
	_ZNK19HbFocusObjectWidget11findVkbHostEv @ 3033 NONAME ABSENT
	_ZNK19HbFocusObjectWidget11isConnectedEv @ 3034 NONAME ABSENT
	_ZNK19HbFocusObjectWidget13focusedWidgetEv @ 3035 NONAME ABSENT
	_ZNK19HbFocusObjectWidget13preEditStringEv @ 3036 NONAME ABSENT
	_ZNK19HbFocusObjectWidget14editorGeometryEv @ 3037 NONAME ABSENT
	_ZNK19HbFocusObjectWidget15editorInterfaceEv @ 3038 NONAME ABSENT
	_ZNK19HbFocusObjectWidget15focusObjectTypeEv @ 3039 NONAME ABSENT
	_ZNK19HbFocusObjectWidget16inputMethodQueryEN2Qt16InputMethodQueryE @ 3040 NONAME ABSENT
	_ZNK19HbFocusObjectWidget8scenePosEv @ 3041 NONAME ABSENT
	_ZNK19HbInputContextProxy10metaObjectEv @ 3042 NONAME
	_ZNK19HbInputContextProxy11isComposingEv @ 3043 NONAME
	_ZNK19HbInputContextProxy4fontEv @ 3044 NONAME
	_ZNK19HbInputCustomButton10buttonTypeEv @ 3045 NONAME ABSENT
	_ZNK19HbInputCustomButton2idEv @ 3046 NONAME ABSENT
	_ZNK19HbInputCustomButton4textEv @ 3047 NONAME ABSENT
	_ZNK19HbInputCustomButton5flagsEv @ 3048 NONAME ABSENT
	_ZNK19HbInputCustomButton5titleEv @ 3049 NONAME ABSENT
	_ZNK19HbInputCustomButton7tooltipEv @ 3050 NONAME ABSENT
	_ZNK19HbInputCustomButton8iconFileEv @ 3051 NONAME ABSENT
	_ZNK19HbInputSettingProxy10metaObjectEv @ 3052 NONAME
	_ZNK19HbInputSettingProxy15globalDigitTypeEv @ 3053 NONAME
	_ZNK19HbInputSettingProxy16activeHwKeyboardEv @ 3054 NONAME ABSENT
	_ZNK19HbInputSettingProxy17customMethodInUseEv @ 3055 NONAME ABSENT
	_ZNK19HbInputSettingProxy19activeTouchKeyboardEv @ 3056 NONAME ABSENT
	_ZNK19HbInputSettingProxy19availableHwKeyboardER5QListI6QFlagsI18HbKeyboardTypeFlagEE @ 3057 NONAME
	_ZNK19HbInputSettingProxy19globalInputLanguageEv @ 3058 NONAME
	_ZNK19HbInputSettingProxy21predictiveInputStatusEv @ 3059 NONAME ABSENT
	_ZNK19HbInputSettingProxy26orientationChangeCompletedEv @ 3060 NONAME ABSENT
	_ZNK19HbInputSettingProxy28globalSecondaryInputLanguageEv @ 3061 NONAME
	_ZNK19HbInteractionPlugin10metaObjectEv @ 3062 NONAME ABSENT
	_ZNK19HbInteractionPlugin11featureNameEv @ 3063 NONAME ABSENT
	_ZNK19HbListItemContainer12maxItemCountEv @ 3064 NONAME ABSENT
	_ZNK19HbPredictionFactory10metaObjectEv @ 3065 NONAME
	_ZNK20HbDeviceDialogPlugin10metaObjectEv @ 3066 NONAME
	_ZNK20HbDeviceDialogServer10metaObjectEv @ 3067 NONAME
	_ZNK20HbDeviceDialogServer18deviceDialogUpdateEiRK4QMapI7QString8QVariantE @ 3068 NONAME
	_ZNK20HbDeviceDialogServer23indicatorClientInfoListEv @ 3069 NONAME
	_ZNK20HbGestureSceneFilter10metaObjectEv @ 3070 NONAME ABSENT
	_ZNK20HbGraphicsPixmapItem10metaObjectEv @ 3071 NONAME ABSENT
	_ZNK20HbIndicatorInterface10metaObjectEv @ 3072 NONAME
	_ZNK20HbIndicatorInterface13groupPriorityEv @ 3073 NONAME ABSENT
	_ZNK20HbIndicatorInterface13indicatorTypeEv @ 3074 NONAME
	_ZNK20HbIndicatorInterface16interactionTypesEv @ 3075 NONAME
	_ZNK20HbInteractionManager10metaObjectEv @ 3076 NONAME ABSENT
	_ZNK20HbListWidgetViewItem10isExpandedEv @ 3077 NONAME ABSENT
	_ZNK20HbListWidgetViewItem10listParamsEv @ 3078 NONAME ABSENT
	_ZNK20HbListWidgetViewItem10listWidgetEv @ 3079 NONAME ABSENT
	_ZNK20HbListWidgetViewItem10metaObjectEv @ 3080 NONAME ABSENT
	_ZNK20HbListWidgetViewItem13childItemListEiN16HbListWidgetItem14ListItemColumnE @ 3081 NONAME ABSENT
	_ZNK20HbListWidgetViewItem13childItemListEiN16HbListWidgetItem14ListItemColumnEi @ 3082 NONAME ABSENT
	_ZNK20HbListWidgetViewItem16canSetModelIndexERK11QModelIndex @ 3083 NONAME ABSENT
	_ZNK20HbListWidgetViewItem4typeEv @ 3084 NONAME ABSENT
	_ZNK20HbListWidgetViewItem8sizeHintEN2Qt8SizeHintERK6QSizeF @ 3085 NONAME ABSENT
	_ZNK20HbListWidgetViewItem9childItemEiN16HbListWidgetItem14ListItemColumnEi @ 3086 NONAME ABSENT
	_ZNK20HbListWidgetViewItem9childItemEiN16HbListWidgetItem14ListItemColumnEii @ 3087 NONAME ABSENT
	_ZNK20HbListWidgetViewItem9childItemEiN16HbListWidgetItem14ListItemColumnEiii @ 3088 NONAME ABSENT
	_ZNK21HbExtraUserDictionary10hostEngineEv @ 3089 NONAME
	_ZNK21HbExtraUserDictionary11rawDataAreaEv @ 3090 NONAME
	_ZNK21HbExtraUserDictionary13numberOfWordsEv @ 3091 NONAME
	_ZNK21HbExtraUserDictionary15rawDataAreaSizeEv @ 3092 NONAME
	_ZNK21HbExtraUserDictionary17isAlreadyInMemoryEv @ 3093 NONAME
	_ZNK21HbExtraUserDictionary2idEv @ 3094 NONAME
	_ZNK21HbExtraUserDictionary6wordAtEi @ 3095 NONAME
	_ZNK21HbExtraUserDictionary7hasWordERK7QString @ 3096 NONAME ABSENT
	_ZNK21HbExtraUserDictionary9directoryEv @ 3097 NONAME
	_ZNK21HbGridViewItemPrivate11isIconValidERK8QVariant @ 3098 NONAME ABSENT
	_ZNK21HbGridViewItemPrivate11isTextValidERK8QVariant @ 3099 NONAME ABSENT
	_ZNK21HbInteractionListener10metaObjectEv @ 3100 NONAME ABSENT
	_ZNK21HbInteractionListener7managerEv @ 3101 NONAME ABSENT
	_ZNK21HbTestabilitySignal_p10metaObjectEv @ 3102 NONAME
	_ZNK21HbTestabilitySignal_p13signalEnabledEv @ 3103 NONAME
	_ZNK23HbAbstractButtonPrivate15queryButtonListEv @ 3104 NONAME
	_ZNK23HbAbstractButtonPrivate18queryCheckedButtonEv @ 3105 NONAME
	_ZNK23HbAbstractItemContainer10bufferSizeEv @ 3106 NONAME ABSENT
	_ZNK23HbAbstractItemContainer10metaObjectEv @ 3107 NONAME ABSENT
	_ZNK23HbAbstractItemContainer11itemByIndexERK11QModelIndex @ 3108 NONAME ABSENT
	_ZNK23HbAbstractItemContainer12maxItemCountEv @ 3109 NONAME ABSENT
	_ZNK23HbAbstractItemContainer13itemRecyclingEv @ 3110 NONAME ABSENT
	_ZNK23HbAbstractItemContainer13lastItemIndexEv @ 3111 NONAME ABSENT
	_ZNK23HbAbstractItemContainer14firstItemIndexEv @ 3112 NONAME ABSENT
	_ZNK23HbAbstractItemContainer14itemPrototypesEv @ 3113 NONAME ABSENT
	_ZNK23HbAbstractItemContainer16uniformItemSizesEv @ 3114 NONAME ABSENT
	_ZNK23HbAbstractItemContainer29firstAndLastVisibleModelIndexER11QModelIndexS1_b @ 3115 NONAME ABSENT
	_ZNK23HbAbstractItemContainer4typeEv @ 3116 NONAME ABSENT
	_ZNK23HbAbstractItemContainer5itemsEv @ 3117 NONAME ABSENT
	_ZNK23HbAbstractItemContainer8itemViewEv @ 3118 NONAME ABSENT
	_ZNK23HbAbstractItemContainer9itemStateERK11QModelIndex @ 3119 NONAME ABSENT
	_ZNK23HbInputCustomButtonBank10metaObjectEv @ 3120 NONAME ABSENT
	_ZNK23HbInputCustomButtonBank2atEi @ 3121 NONAME ABSENT
	_ZNK23HbInputCustomButtonBank2idEv @ 3122 NONAME ABSENT
	_ZNK23HbInputCustomButtonBank4findEi @ 3123 NONAME ABSENT
	_ZNK23HbInputCustomButtonBank5countEv @ 3124 NONAME ABSENT
	_ZNK24HbDirectoryNameLocalizer9translateEPKc @ 3125 NONAME ABSENT
	_ZNK24HbExtraDictionaryFactory10metaObjectEv @ 3126 NONAME
	_ZNK24HbInputStateMachineLatin10firstStateER12HbInputState @ 3127 NONAME ABSENT
	_ZNK24HbInputStateMachineLatin12isKnownStateERK12HbInputState @ 3128 NONAME ABSENT
	_ZNK24HbInteractionPluginGroup10metaObjectEv @ 3129 NONAME ABSENT
	_ZNK24HbInteractionPluginGroup17supportedFeaturesEv @ 3130 NONAME ABSENT
	_ZNK24HbInteractionPluginGroup7pluginsEv @ 3131 NONAME ABSENT
	_ZNK24HbListItemStandardLayout5countEv @ 3132 NONAME ABSENT
	_ZNK24HbListItemStandardLayout6itemAtEi @ 3133 NONAME ABSENT
	_ZNK24HbListItemStandardLayout7indexOfEPK19QGraphicsLayoutItem @ 3134 NONAME ABSENT
	_ZNK24HbListItemStandardLayout8sizeHintEN2Qt8SizeHintERK6QSizeF @ 3135 NONAME ABSENT
	_ZNK25HbAbstractItemViewPrivate11currentItemEv @ 3136 NONAME ABSENT
	_ZNK25HbAbstractItemViewPrivate16itemBoundingRectEPK13QGraphicsItem @ 3137 NONAME ABSENT
	_ZNK25HbAbstractItemViewPrivate6itemAtERK7QPointF @ 3138 NONAME ABSENT
	_ZNK25HbAbstractItemViewPrivate7visibleEP18HbAbstractViewItemb @ 3139 NONAME ABSENT
	_ZNK25HbAbstractItemViewPrivate8viewItemEP13QGraphicsItem @ 3140 NONAME ABSENT
	_ZNK25HbAbstractViewItemPrivate13modelItemTypeEv @ 3141 NONAME ABSENT
	_ZNK25HbIconAnimationDefinition6isNullEv @ 3142 NONAME
	_ZNK25HbIconAnimationDefinition8playModeEv @ 3143 NONAME
	_ZNK25HbIconAnimationDefinition9frameListEv @ 3144 NONAME
	_ZNK25HbLayoutDirectionNotifier10metaObjectEv @ 3145 NONAME
	_ZNK25HbXmlLoaderAbstractSyntax11elementTypeE10QStringRef @ 3146 NONAME ABSENT
	_ZNK25HbXmlLoaderAbstractSyntax6toRealERK7QStringRf @ 3147 NONAME
	_ZNK25HbXmlLoaderAbstractSyntax8toPixelsERK7QStringRf @ 3148 NONAME ABSENT
	_ZNK25HbXmlLoaderAbstractSyntax9attributeENS_14DocumentLexemsE @ 3149 NONAME ABSENT
	_ZNK26HbInputStateMachineFactory10metaObjectEv @ 3150 NONAME ABSENT
	_ZNK26HbInputStateMachineFactory16findStateMachineERK15HbInputLanguage6QFlagsI18HbKeyboardTypeFlagE20HbInputStateModifier @ 3151 NONAME ABSENT
	_ZNK26HbSliderTickmarksItemLabel15majorTickLabelsEv @ 3152 NONAME ABSENT
	_ZNK26HbSliderTickmarksItemLabel15minorTickLabelsEv @ 3153 NONAME ABSENT
	_ZNK26HbSliderTickmarksItemLabel8isTypeOfEi @ 3154 NONAME ABSENT
	_ZNK26HbXmlLoaderAbstractActions13findFromStackEPb @ 3155 NONAME ABSENT
	_ZNK27HbExtraDictionaryCollection10isDisabledEi @ 3156 NONAME
	_ZNK27HbExtraDictionaryCollection12dictionariesEv @ 3157 NONAME
	_ZNK27HbExtraDictionaryCollection13numberOfWordsEv @ 3158 NONAME
	_ZNK27HbExtraDictionaryCollection18totalNumberOfWordsEv @ 3159 NONAME
	_ZNK27HbExtraDictionaryCollection6wordAtEi @ 3160 NONAME
	_ZNK27HbExtraDictionaryCollection7hasWordERK7QString @ 3161 NONAME
	_ZNK27HbFocusObjectGraphicsWidget10metaObjectEv @ 3162 NONAME ABSENT
	_ZNK27HbFocusObjectGraphicsWidget10microFocusEv @ 3163 NONAME ABSENT
	_ZNK27HbFocusObjectGraphicsWidget11findVkbHostEv @ 3164 NONAME ABSENT
	_ZNK27HbFocusObjectGraphicsWidget11isConnectedEv @ 3165 NONAME ABSENT
	_ZNK27HbFocusObjectGraphicsWidget13focusedWidgetEv @ 3166 NONAME ABSENT
	_ZNK27HbFocusObjectGraphicsWidget13preEditStringEv @ 3167 NONAME ABSENT
	_ZNK27HbFocusObjectGraphicsWidget14editorGeometryEv @ 3168 NONAME ABSENT
	_ZNK27HbFocusObjectGraphicsWidget15editorInterfaceEv @ 3169 NONAME ABSENT
	_ZNK27HbFocusObjectGraphicsWidget15focusObjectTypeEv @ 3170 NONAME ABSENT
	_ZNK27HbFocusObjectGraphicsWidget16inputMethodQueryEN2Qt16InputMethodQueryE @ 3171 NONAME ABSENT
	_ZNK27HbFocusObjectGraphicsWidget8scenePosEv @ 3172 NONAME ABSENT
	_ZNK27HbLanguageDatabaseInterface10metaObjectEv @ 3173 NONAME
	_ZNK27HbListWidgetViewItemPrivate10childItemsEiN16HbListWidgetItem14ListItemColumnEbibii @ 3174 NONAME ABSENT
	_ZNK27HbListWidgetViewItemPrivate14mapToPrimitiveEiRK8QVariant @ 3175 NONAME ABSENT
	_ZNK27HbListWidgetViewItemPrivate9childItemEiN16HbListWidgetItem14ListItemColumnEbibii @ 3176 NONAME ABSENT
	_ZNK28HbInputStateMachineHKChinese10firstStateER12HbInputState @ 3177 NONAME ABSENT
	_ZNK28HbInputStateMachineHKChinese12isKnownStateERK12HbInputState @ 3178 NONAME ABSENT
	_ZNK29HbInputStateMachinePrcChinese10firstStateER12HbInputState @ 3179 NONAME ABSENT
	_ZNK29HbInputStateMachinePrcChinese12isKnownStateERK12HbInputState @ 3180 NONAME ABSENT
	_ZNK30HbInputCustomButtonComposition11buttonIndexEP19HbInputCustomButton @ 3181 NONAME ABSENT
	_ZNK30HbInputCustomButtonComposition20totalNumberOfButtonsEv @ 3182 NONAME ABSENT
	_ZNK30HbInputStateMachineLatinFinger10firstStateER12HbInputState @ 3183 NONAME ABSENT
	_ZNK30HbInputStateMachineLatinFinger12isKnownStateERK12HbInputState @ 3184 NONAME ABSENT
	_ZNK32HbInputStateMachineTaiwanChinese10firstStateER12HbInputState @ 3185 NONAME ABSENT
	_ZNK32HbInputStateMachineTaiwanChinese12isKnownStateERK12HbInputState @ 3186 NONAME ABSENT
	_ZNK34HbInputStateMachineHKChineseFinger10firstStateER12HbInputState @ 3187 NONAME ABSENT
	_ZNK34HbInputStateMachineHKChineseFinger12isKnownStateERK12HbInputState @ 3188 NONAME ABSENT
	_ZNK35HbInputStateMachineLatinWithEditKey10firstStateER12HbInputState @ 3189 NONAME ABSENT
	_ZNK35HbInputStateMachineLatinWithEditKey12isKnownStateERK12HbInputState @ 3190 NONAME ABSENT
	_ZNK35HbInputStateMachinePrcChineseFinger10firstStateER12HbInputState @ 3191 NONAME ABSENT
	_ZNK35HbInputStateMachinePrcChineseFinger12isKnownStateERK12HbInputState @ 3192 NONAME ABSENT
	_ZNK38HbInputStateMachineTaiwanChineseFinger10firstStateER12HbInputState @ 3193 NONAME ABSENT
	_ZNK38HbInputStateMachineTaiwanChineseFinger12isKnownStateERK12HbInputState @ 3194 NONAME ABSENT
	_ZNK5HbCss11Declaration10brushValueERK8QPalette @ 3195 NONAME ABSENT
	_ZNK5HbCss11Declaration10colorValueERK8QPalette @ 3196 NONAME ABSENT
	_ZNK5HbCss11Declaration10styleValueEv @ 3197 NONAME ABSENT
	_ZNK5HbCss11Declaration11brushValuesEP6QBrushRK8QPalette @ 3198 NONAME ABSENT
	_ZNK5HbCss11Declaration11colorValuesEP6QColorRK8QPalette @ 3199 NONAME ABSENT
	_ZNK5HbCss11Declaration11originValueEv @ 3200 NONAME ABSENT
	_ZNK5HbCss11Declaration11repeatValueEv @ 3201 NONAME ABSENT
	_ZNK5HbCss11Declaration11styleValuesEPNS_11BorderStyleE @ 3202 NONAME ABSENT
	_ZNK5HbCss11Declaration13positionValueEv @ 3203 NONAME ABSENT
	_ZNK5HbCss11Declaration14alignmentValueEv @ 3204 NONAME ABSENT
	_ZNK5HbCss11Declaration15attachmentValueEv @ 3205 NONAME ABSENT
	_ZNK5HbCss11Declaration16borderImageValueEP7QStringPiPNS_8TileModeES5_ @ 3206 NONAME ABSENT
	_ZNK5HbCss11Declaration18styleFeaturesValueEv @ 3207 NONAME ABSENT
	_ZNK5HbCss11Declaration8intValueEPiPKc @ 3208 NONAME ABSENT
	_ZNK5HbCss11Declaration8uriValueEv @ 3209 NONAME ABSENT
	_ZNK5HbCss11Declaration9iconValueEv @ 3210 NONAME ABSENT
	_ZNK5HbCss11Declaration9realValueEPfPKc @ 3211 NONAME ABSENT
	_ZNK5HbCss11Declaration9rectValueEv @ 3212 NONAME ABSENT
	_ZNK5HbCss11Declaration9sizeValueEv @ 3213 NONAME ABSENT
	_ZNK5HbCss14ValueExtractor12extractValueERK7QStringR7QVectorINS_5ValueEE @ 3214 NONAME ABSENT
	_ZNK5HbCss6Parser13unquotedLexemEv @ 3215 NONAME
	_ZNK5HbCss6Symbol5lexemEv @ 3216 NONAME
	_ZNK5HbCss8Selector11pseudoClassEPy @ 3217 NONAME
	_ZNK5HbCss8Selector11specificityEv @ 3218 NONAME
	_ZNK5HbCss8Selector13pseudoElementEv @ 3219 NONAME
	_ZNK6HbIcon11defaultSizeEv @ 3220 NONAME
	_ZNK6HbIcon13mirroringModeEv @ 3221 NONAME
	_ZNK6HbIcon4sizeEv @ 3222 NONAME
	_ZNK6HbIcon5flagsEv @ 3223 NONAME
	_ZNK6HbIcon5paintEP8QPainterRK6QRectFN2Qt15AspectRatioModeE6QFlagsINS5_13AlignmentFlagEEN5QIcon4ModeENSA_5StateE @ 3224 NONAME
	_ZNK6HbIcon5qiconEv @ 3225 NONAME
	_ZNK6HbIcon5widthEv @ 3226 NONAME
	_ZNK6HbIcon6heightEv @ 3227 NONAME
	_ZNK6HbIcon6isNullEv @ 3228 NONAME
	_ZNK6HbIcon8iconNameEN5QIcon4ModeENS0_5StateE @ 3229 NONAME
	_ZNK6HbIcon8iconNameEv @ 3230 NONAME
	_ZNK6HbIconcv8QVariantEv @ 3231 NONAME
	_ZNK6HbIconeqERKS_ @ 3232 NONAME
	_ZNK6HbIconneERKS_ @ 3233 NONAME
	_ZNK6HbMenu10menuActionEv @ 3234 NONAME
	_ZNK6HbMenu10metaObjectEv @ 3235 NONAME
	_ZNK6HbMenu12activeActionEv @ 3236 NONAME
	_ZNK6HbMenu5titleEv @ 3237 NONAME
	_ZNK6HbMenu7isEmptyEv @ 3238 NONAME
	_ZNK6HbView10metaObjectEv @ 3239 NONAME
	_ZNK6HbView12visibleItemsEv @ 3240 NONAME
	_ZNK6HbView13isItemVisibleEN2Hb9SceneItemE @ 3241 NONAME
	_ZNK6HbView19isContentFullScreenEv @ 3242 NONAME
	_ZNK6HbView4iconEv @ 3243 NONAME
	_ZNK6HbView4menuEv @ 3244 NONAME
	_ZNK6HbView5titleEv @ 3245 NONAME
	_ZNK6HbView6widgetEv @ 3246 NONAME
	_ZNK6HbView7toolBarEv @ 3247 NONAME
	_ZNK6HbView8sizeHintEN2Qt8SizeHintERK6QSizeF @ 3248 NONAME ABSENT
	_ZNK7HbLabel10metaObjectEv @ 3249 NONAME ABSENT
	_ZNK7HbLabel10textFormatEv @ 3250 NONAME ABSENT
	_ZNK7HbLabel11logicalFontEv @ 3251 NONAME ABSENT
	_ZNK7HbLabel13effectiveFontEv @ 3252 NONAME ABSENT
	_ZNK7HbLabel15aspectRatioModeEv @ 3253 NONAME ABSENT
	_ZNK7HbLabel15initStyleOptionEP18HbStyleOptionLabel @ 3254 NONAME ABSENT
	_ZNK7HbLabel4iconEv @ 3255 NONAME ABSENT
	_ZNK7HbLabel4modeEv @ 3256 NONAME ABSENT
	_ZNK7HbLabel4textEv @ 3257 NONAME ABSENT
	_ZNK7HbLabel4typeEv @ 3258 NONAME ABSENT
	_ZNK7HbLabel5colorEv @ 3259 NONAME ABSENT
	_ZNK7HbLabel5stateEv @ 3260 NONAME ABSENT
	_ZNK7HbLabel6isNullEv @ 3261 NONAME ABSENT
	_ZNK7HbLabel9alignmentEv @ 3262 NONAME ABSENT
	_ZNK7HbLabel9elideModeEv @ 3263 NONAME ABSENT
	_ZNK7HbLabel9primitiveEN7HbStyle9PrimitiveE @ 3264 NONAME ABSENT
	_ZNK7HbLabel9textFlagsEv @ 3265 NONAME ABSENT
	_ZNK7HbPopup10metaObjectEv @ 3266 NONAME
	_ZNK7HbPopup13contentWidgetEv @ 3267 NONAME ABSENT
	_ZNK7HbPopup13headingWidgetEv @ 3268 NONAME ABSENT
	_ZNK7HbPopup13primaryActionEv @ 3269 NONAME ABSENT
	_ZNK7HbPopup15secondaryActionEv @ 3270 NONAME ABSENT
	_ZNK7HbStyle10metaObjectEv @ 3271 NONAME
	_ZNK7HbStyle15createPrimitiveENS_9PrimitiveEP13QGraphicsItem @ 3272 NONAME ABSENT
	_ZNK7HbStyle15updatePrimitiveEP13QGraphicsItemNS_9PrimitiveEPK12QStyleOption @ 3273 NONAME ABSENT
	_ZNK7HbTheme10metaObjectEv @ 3274 NONAME
	_ZNK7HbTheme11descriptionEv @ 3275 NONAME
	_ZNK7HbTheme4nameEv @ 3276 NONAME
	_ZNK8HbAction10metaObjectEv @ 3277 NONAME
	_ZNK8HbAction11commandRoleEv @ 3278 NONAME
	_ZNK8HbAction16toolBarExtensionEv @ 3279 NONAME
	_ZNK8HbAction4iconEv @ 3280 NONAME
	_ZNK8HbAction4menuEv @ 3281 NONAME
	_ZNK8HbString10startsWithERK11QLatin1CharN2Qt15CaseSensitivityE @ 3282 NONAME
	_ZNK8HbString13compareStringEPK5QChari @ 3283 NONAME
	_ZNK8HbString6lengthEv @ 3284 NONAME
	_ZNK8HbString7compareERK13QLatin1String @ 3285 NONAME
	_ZNK8HbString7isEmptyEv @ 3286 NONAME
	_ZNK8HbString7toLowerEv @ 3287 NONAME
	_ZNK8HbString8containsERK5QChar @ 3288 NONAME
	_ZNK8HbString8toLatin1Ev @ 3289 NONAME
	_ZNK8HbString9constDataEv @ 3290 NONAME
	_ZNK8HbStringcv7QStringEv @ 3291 NONAME
	_ZNK8HbStringeqERK13QLatin1String @ 3292 NONAME
	_ZNK8HbStringeqERK7QString @ 3293 NONAME
	_ZNK8HbStringeqERKS_ @ 3294 NONAME
	_ZNK8HbStringneERK13QLatin1String @ 3295 NONAME
	_ZNK8HbStringneERK7QString @ 3296 NONAME
	_ZNK8HbStringneERKS_ @ 3297 NONAME
	_ZNK8HbWidget10mainWindowEv @ 3298 NONAME
	_ZNK8HbWidget10metaObjectEv @ 3299 NONAME
	_ZNK8HbWidget12pluginBaseIdEv @ 3300 NONAME ABSENT
	_ZNK8HbWidget13testAttributeEN2Hb15WidgetAttributeE @ 3301 NONAME ABSENT
	_ZNK8HbWidget13testAttributeEN2Qt15WidgetAttributeE @ 3302 NONAME ABSENT
	_ZNK8HbWidget15initStyleOptionEP13HbStyleOption @ 3303 NONAME ABSENT
	_ZNK8HbWidget5styleEv @ 3304 NONAME
	_ZNK8HbWidget8fontSpecEv @ 3305 NONAME ABSENT
	_ZNK8HbWidget9primitiveEN7HbStyle9PrimitiveE @ 3306 NONAME
	_ZNK9HbGesture10metaObjectEv @ 3307 NONAME ABSENT
	_ZNK9HbGesture11minDistanceEv @ 3308 NONAME ABSENT
	_ZNK9HbGesture9directionEv @ 3309 NONAME ABSENT
	_ZNK9HbSoftKey10metaObjectEv @ 3310 NONAME ABSENT
	_ZNK9HbSoftKey15initStyleOptionEP20HbStyleOptionSoftKey @ 3311 NONAME ABSENT
	_ZNK9HbSoftKey6actionEv @ 3312 NONAME ABSENT
	_ZNK9HbToolBar10metaObjectEv @ 3313 NONAME
	_ZNK9HbToolBar11orientationEv @ 3314 NONAME
	_ZNK9HbVariant10canConvertENS_4TypeE @ 3315 NONAME
	_ZNK9HbVariant12toStringListEv @ 3316 NONAME
	_ZNK9HbVariant5toIntEv @ 3317 NONAME
	_ZNK9HbVariant7toColorEv @ 3318 NONAME
	_ZNK9HbVariant8getColorEv @ 3319 NONAME
	_ZNK9HbVariant8toDoubleEv @ 3320 NONAME
	_ZNK9HbVariant8toStringEv @ 3321 NONAME
	_ZNK9HbVariant9getStringEv @ 3322 NONAME
	_ZNK9HbVariantcv8QVariantEv @ 3323 NONAME
	_ZNK9HbVkbHost10metaObjectEv @ 3324 NONAME
	_ZTI10HbGridView @ 3325 NONAME ABSENT
	_ZTI10HbIconItem @ 3326 NONAME
	_ZTI10HbListView @ 3327 NONAME ABSENT
	_ZTI10HbStyleOld @ 3328 NONAME ABSENT
	_ZTI10HbTextItem @ 3329 NONAME
	_ZTI10HbTreeView @ 3330 NONAME ABSENT
	_ZTI11HbDecorator @ 3331 NONAME ABSENT
	_ZTI11HbFrameItem @ 3332 NONAME
	_ZTI11HbIndicator @ 3333 NONAME
	_ZTI11HbListModel @ 3334 NONAME ABSENT
	_ZTI11HbPopupBase @ 3335 NONAME ABSENT
	_ZTI11HbScrollBar @ 3336 NONAME
	_ZTI11HbTouchArea @ 3337 NONAME
	_ZTI11HbUrlFilter @ 3338 NONAME
	_ZTI12HbIconLoader @ 3339 NONAME
	_ZTI12HbKeyMapData @ 3340 NONAME ABSENT
	_ZTI12HbListWidget @ 3341 NONAME ABSENT
	_ZTI12HbMainWindow @ 3342 NONAME
	_ZTI12HbScrollArea @ 3343 NONAME
	_ZTI12HbToolButton @ 3344 NONAME
	_ZTI12HbTreeLayout @ 3345 NONAME ABSENT
	_ZTI13HbApplication @ 3346 NONAME
	_ZTI13HbInputFilter @ 3347 NONAME
	_ZTI13HbInputMethod @ 3348 NONAME
	_ZTI13HbViewPrivate @ 3349 NONAME
	_ZTI14HbAbstractItem @ 3350 NONAME ABSENT
	_ZTI14HbAnchorLayout @ 3351 NONAME
	_ZTI14HbDeviceDialog @ 3352 NONAME
	_ZTI14HbFontProvider @ 3353 NONAME ABSENT
	_ZTI14HbGridViewItem @ 3354 NONAME ABSENT
	_ZTI14HbIconAnimator @ 3355 NONAME
	_ZTI14HbListViewItem @ 3356 NONAME ABSENT
	_ZTI14HbPopupPrivate @ 3357 NONAME
	_ZTI14HbRichTextItem @ 3358 NONAME
	_ZTI14HbTreeViewItem @ 3359 NONAME ABSENT
	_ZTI14HbWidgetParams @ 3360 NONAME ABSENT
	_ZTI15HbGestureFilter @ 3361 NONAME ABSENT
	_ZTI15HbGraphicsScene @ 3362 NONAME
	_ZTI15HbItemHighlight @ 3363 NONAME ABSENT
	_ZTI15HbMemoryManager @ 3364 NONAME
	_ZTI15HbStackedLayout @ 3365 NONAME
	_ZTI15HbStackedWidget @ 3366 NONAME
	_ZTI15HbWidgetPrivate @ 3367 NONAME
	_ZTI16HbAbstractButton @ 3368 NONAME
	_ZTI16HbInputModeCache @ 3369 NONAME
	_ZTI16HbListWidgetItem @ 3370 NONAME ABSENT
	_ZTI16HbNgNormalNumber @ 3371 NONAME ABSENT
	_ZTI16HbNumberGrouping @ 3372 NONAME ABSENT
	_ZTI16HbPredictionBase @ 3373 NONAME
	_ZTI16HbUserDictionary @ 3374 NONAME
	_ZTI17HbEditorInterface @ 3375 NONAME
	_ZTI17HbInputMethodNull @ 3376 NONAME
	_ZTI17HbListViewPrivate @ 3377 NONAME ABSENT
	_ZTI17HbSignalIndicator @ 3378 NONAME
	_ZTI17HbStyleParameters @ 3379 NONAME
	_ZTI18HbAbstractItemView @ 3380 NONAME ABSENT
	_ZTI18HbAbstractViewItem @ 3381 NONAME ABSENT
	_ZTI18HbBatteryIndicator @ 3382 NONAME
	_ZTI18HbInputFocusObject @ 3383 NONAME
	_ZTI18HbInteractionEvent @ 3384 NONAME ABSENT
	_ZTI18HbPopupBasePrivate @ 3385 NONAME ABSENT
	_ZTI18HbPredictionEngine @ 3386 NONAME
	_ZTI18HbToolBarExtension @ 3387 NONAME
	_ZTI19HbFocusObjectWidget @ 3388 NONAME ABSENT
	_ZTI19HbHeapMemoryManager @ 3389 NONAME
	_ZTI19HbInputContextProxy @ 3390 NONAME
	_ZTI19HbInputCustomButton @ 3391 NONAME ABSENT
	_ZTI19HbInputSettingProxy @ 3392 NONAME
	_ZTI19HbInputStateMachine @ 3393 NONAME ABSENT
	_ZTI19HbInteractionPlugin @ 3394 NONAME ABSENT
	_ZTI19HbListItemContainer @ 3395 NONAME ABSENT
	_ZTI19HbPhoneNumberFilter @ 3396 NONAME
	_ZTI19HbPredictionFactory @ 3397 NONAME
	_ZTI19HbScrollAreaPrivate @ 3398 NONAME
	_ZTI20HbDeviceDialogPlugin @ 3399 NONAME
	_ZTI20HbDeviceDialogServer @ 3400 NONAME
	_ZTI20HbEmailAddressFilter @ 3401 NONAME
	_ZTI20HbGestureSceneFilter @ 3402 NONAME ABSENT
	_ZTI20HbGraphicsPixmapItem @ 3403 NONAME ABSENT
	_ZTI20HbIndicatorInterface @ 3404 NONAME
	_ZTI20HbInteractionManager @ 3405 NONAME ABSENT
	_ZTI20HbListWidgetViewItem @ 3406 NONAME ABSENT
	_ZTI21HbAbstractItemPrivate @ 3407 NONAME ABSENT
	_ZTI21HbExtraUserDictionary @ 3408 NONAME
	_ZTI21HbGridViewItemPrivate @ 3409 NONAME ABSENT
	_ZTI21HbInteractionListener @ 3410 NONAME ABSENT
	_ZTI21HbListViewItemPrivate @ 3411 NONAME ABSENT
	_ZTI21HbMenuListViewPrivate @ 3412 NONAME ABSENT
	_ZTI21HbSharedMemoryManager @ 3413 NONAME
	_ZTI21HbTestabilitySignal_p @ 3414 NONAME
	_ZTI22HbInputLowerCaseFilter @ 3415 NONAME
	_ZTI22HbInputUpperCaseFilter @ 3416 NONAME
	_ZTI23HbAbstractButtonPrivate @ 3417 NONAME
	_ZTI23HbAbstractItemContainer @ 3418 NONAME ABSENT
	_ZTI23HbConverterNumberFilter @ 3419 NONAME ABSENT
	_ZTI23HbInputCustomButtonBank @ 3420 NONAME ABSENT
	_ZTI24HbExtraDictionaryFactory @ 3421 NONAME
	_ZTI24HbInputCustomButtonStore @ 3422 NONAME ABSENT
	_ZTI24HbInputStateMachineLatin @ 3423 NONAME ABSENT
	_ZTI24HbInteractionPluginGroup @ 3424 NONAME ABSENT
	_ZTI24HbListItemStandardLayout @ 3425 NONAME ABSENT
	_ZTI25HbAbstractItemViewPrivate @ 3426 NONAME ABSENT
	_ZTI25HbAbstractViewItemPrivate @ 3427 NONAME ABSENT
	_ZTI25HbGraphicsSceneMouseEvent @ 3428 NONAME ABSENT
	_ZTI25HbInteractionGestureEvent @ 3429 NONAME ABSENT
	_ZTI25HbLayoutDirectionNotifier @ 3430 NONAME
	_ZTI25HbWidgetParams_PushButton @ 3431 NONAME ABSENT
	_ZTI25HbXmlLoaderAbstractSyntax @ 3432 NONAME
	_ZTI26HbIndicatorPluginInterface @ 3433 NONAME ABSENT
	_ZTI26HbInputStateMachineFactory @ 3434 NONAME ABSENT
	_ZTI26HbSliderTickmarksItemLabel @ 3435 NONAME ABSENT
	_ZTI26HbXmlLoaderAbstractActions @ 3436 NONAME
	_ZTI27HbFocusObjectGraphicsWidget @ 3437 NONAME ABSENT
	_ZTI27HbLanguageDatabaseInterface @ 3438 NONAME
	_ZTI27HbListWidgetViewItemPrivate @ 3439 NONAME ABSENT
	_ZTI28HbInputStateMachineHKChinese @ 3440 NONAME ABSENT
	_ZTI29HbInputStateMachinePrcChinese @ 3441 NONAME ABSENT
	_ZTI30HbInputCustomButtonComposition @ 3442 NONAME ABSENT
	_ZTI30HbInputStateMachineLatinFinger @ 3443 NONAME ABSENT
	_ZTI32HbInputStateMachineTaiwanChinese @ 3444 NONAME ABSENT
	_ZTI34HbInputStateMachineHKChineseFinger @ 3445 NONAME ABSENT
	_ZTI35HbInputStateMachineLatinWithEditKey @ 3446 NONAME ABSENT
	_ZTI35HbInputStateMachinePrcChineseFinger @ 3447 NONAME ABSENT
	_ZTI38HbInputStateMachineTaiwanChineseFinger @ 3448 NONAME ABSENT
	_ZTI6HbMenu @ 3449 NONAME
	_ZTI6HbView @ 3450 NONAME
	_ZTI7HbEvent @ 3451 NONAME
	_ZTI7HbLabel @ 3452 NONAME ABSENT
	_ZTI7HbPopup @ 3453 NONAME
	_ZTI7HbStyle @ 3454 NONAME
	_ZTI7HbTheme @ 3455 NONAME
	_ZTI8HbAction @ 3456 NONAME
	_ZTI8HbWidget @ 3457 NONAME
	_ZTI9HbGesture @ 3458 NONAME ABSENT
	_ZTI9HbSoftKey @ 3459 NONAME ABSENT
	_ZTI9HbToolBar @ 3460 NONAME
	_ZTI9HbVkbHost @ 3461 NONAME
	_ZTV10HbGridView @ 3462 NONAME ABSENT
	_ZTV10HbIconItem @ 3463 NONAME
	_ZTV10HbListView @ 3464 NONAME ABSENT
	_ZTV10HbStyleOld @ 3465 NONAME ABSENT
	_ZTV10HbTextItem @ 3466 NONAME
	_ZTV10HbTreeView @ 3467 NONAME ABSENT
	_ZTV11HbDecorator @ 3468 NONAME ABSENT
	_ZTV11HbFrameItem @ 3469 NONAME
	_ZTV11HbIndicator @ 3470 NONAME
	_ZTV11HbListModel @ 3471 NONAME ABSENT
	_ZTV11HbPopupBase @ 3472 NONAME ABSENT
	_ZTV11HbScrollBar @ 3473 NONAME
	_ZTV11HbTouchArea @ 3474 NONAME
	_ZTV11HbUrlFilter @ 3475 NONAME
	_ZTV12HbIconLoader @ 3476 NONAME
	_ZTV12HbKeyMapData @ 3477 NONAME ABSENT
	_ZTV12HbListWidget @ 3478 NONAME ABSENT
	_ZTV12HbMainWindow @ 3479 NONAME
	_ZTV12HbScrollArea @ 3480 NONAME
	_ZTV12HbToolButton @ 3481 NONAME
	_ZTV12HbTreeLayout @ 3482 NONAME ABSENT
	_ZTV13HbApplication @ 3483 NONAME
	_ZTV13HbInputFilter @ 3484 NONAME
	_ZTV13HbInputMethod @ 3485 NONAME
	_ZTV13HbViewPrivate @ 3486 NONAME
	_ZTV14HbAbstractItem @ 3487 NONAME ABSENT
	_ZTV14HbAnchorLayout @ 3488 NONAME
	_ZTV14HbDeviceDialog @ 3489 NONAME
	_ZTV14HbFontProvider @ 3490 NONAME ABSENT
	_ZTV14HbGridViewItem @ 3491 NONAME ABSENT
	_ZTV14HbIconAnimator @ 3492 NONAME
	_ZTV14HbListViewItem @ 3493 NONAME ABSENT
	_ZTV14HbPopupPrivate @ 3494 NONAME
	_ZTV14HbRichTextItem @ 3495 NONAME
	_ZTV14HbTreeViewItem @ 3496 NONAME ABSENT
	_ZTV14HbWidgetParams @ 3497 NONAME ABSENT
	_ZTV15HbGestureFilter @ 3498 NONAME ABSENT
	_ZTV15HbGraphicsScene @ 3499 NONAME
	_ZTV15HbItemHighlight @ 3500 NONAME ABSENT
	_ZTV15HbStackedLayout @ 3501 NONAME
	_ZTV15HbStackedWidget @ 3502 NONAME
	_ZTV15HbWidgetPrivate @ 3503 NONAME
	_ZTV16HbAbstractButton @ 3504 NONAME
	_ZTV16HbInputModeCache @ 3505 NONAME
	_ZTV16HbListWidgetItem @ 3506 NONAME ABSENT
	_ZTV16HbNgNormalNumber @ 3507 NONAME ABSENT
	_ZTV16HbNumberGrouping @ 3508 NONAME ABSENT
	_ZTV16HbPredictionBase @ 3509 NONAME
	_ZTV17HbEditorInterface @ 3510 NONAME
	_ZTV17HbInputMethodNull @ 3511 NONAME
	_ZTV17HbListViewPrivate @ 3512 NONAME ABSENT
	_ZTV17HbSignalIndicator @ 3513 NONAME
	_ZTV17HbStyleParameters @ 3514 NONAME
	_ZTV18HbAbstractItemView @ 3515 NONAME ABSENT
	_ZTV18HbAbstractViewItem @ 3516 NONAME ABSENT
	_ZTV18HbBatteryIndicator @ 3517 NONAME
	_ZTV18HbInputFocusObject @ 3518 NONAME
	_ZTV18HbInteractionEvent @ 3519 NONAME ABSENT
	_ZTV18HbPopupBasePrivate @ 3520 NONAME ABSENT
	_ZTV18HbPredictionEngine @ 3521 NONAME
	_ZTV18HbToolBarExtension @ 3522 NONAME
	_ZTV19HbFocusObjectWidget @ 3523 NONAME ABSENT
	_ZTV19HbHeapMemoryManager @ 3524 NONAME
	_ZTV19HbInputContextProxy @ 3525 NONAME
	_ZTV19HbInputCustomButton @ 3526 NONAME ABSENT
	_ZTV19HbInputSettingProxy @ 3527 NONAME
	_ZTV19HbInteractionPlugin @ 3528 NONAME ABSENT
	_ZTV19HbListItemContainer @ 3529 NONAME ABSENT
	_ZTV19HbPhoneNumberFilter @ 3530 NONAME
	_ZTV19HbPredictionFactory @ 3531 NONAME
	_ZTV19HbScrollAreaPrivate @ 3532 NONAME
	_ZTV20HbDeviceDialogPlugin @ 3533 NONAME
	_ZTV20HbDeviceDialogServer @ 3534 NONAME
	_ZTV20HbEmailAddressFilter @ 3535 NONAME
	_ZTV20HbGestureSceneFilter @ 3536 NONAME ABSENT
	_ZTV20HbGraphicsPixmapItem @ 3537 NONAME ABSENT
	_ZTV20HbIndicatorInterface @ 3538 NONAME
	_ZTV20HbInteractionManager @ 3539 NONAME ABSENT
	_ZTV20HbListWidgetViewItem @ 3540 NONAME ABSENT
	_ZTV21HbAbstractItemPrivate @ 3541 NONAME ABSENT
	_ZTV21HbExtraUserDictionary @ 3542 NONAME
	_ZTV21HbGridViewItemPrivate @ 3543 NONAME ABSENT
	_ZTV21HbInteractionListener @ 3544 NONAME ABSENT
	_ZTV21HbListViewItemPrivate @ 3545 NONAME ABSENT
	_ZTV21HbMenuListViewPrivate @ 3546 NONAME ABSENT
	_ZTV21HbSharedMemoryManager @ 3547 NONAME
	_ZTV21HbTestabilitySignal_p @ 3548 NONAME
	_ZTV22HbInputLowerCaseFilter @ 3549 NONAME
	_ZTV22HbInputUpperCaseFilter @ 3550 NONAME
	_ZTV23HbAbstractButtonPrivate @ 3551 NONAME
	_ZTV23HbAbstractItemContainer @ 3552 NONAME ABSENT
	_ZTV23HbConverterNumberFilter @ 3553 NONAME ABSENT
	_ZTV23HbInputCustomButtonBank @ 3554 NONAME ABSENT
	_ZTV24HbExtraDictionaryFactory @ 3555 NONAME
	_ZTV24HbInputCustomButtonStore @ 3556 NONAME ABSENT
	_ZTV24HbInputStateMachineLatin @ 3557 NONAME ABSENT
	_ZTV24HbInteractionPluginGroup @ 3558 NONAME ABSENT
	_ZTV24HbListItemStandardLayout @ 3559 NONAME ABSENT
	_ZTV25HbAbstractItemViewPrivate @ 3560 NONAME ABSENT
	_ZTV25HbAbstractViewItemPrivate @ 3561 NONAME ABSENT
	_ZTV25HbGraphicsSceneMouseEvent @ 3562 NONAME ABSENT
	_ZTV25HbInteractionGestureEvent @ 3563 NONAME ABSENT
	_ZTV25HbLayoutDirectionNotifier @ 3564 NONAME
	_ZTV25HbWidgetParams_PushButton @ 3565 NONAME ABSENT
	_ZTV25HbXmlLoaderAbstractSyntax @ 3566 NONAME
	_ZTV26HbInputStateMachineFactory @ 3567 NONAME ABSENT
	_ZTV26HbSliderTickmarksItemLabel @ 3568 NONAME ABSENT
	_ZTV26HbXmlLoaderAbstractActions @ 3569 NONAME
	_ZTV27HbFocusObjectGraphicsWidget @ 3570 NONAME ABSENT
	_ZTV27HbLanguageDatabaseInterface @ 3571 NONAME
	_ZTV27HbListWidgetViewItemPrivate @ 3572 NONAME ABSENT
	_ZTV28HbInputStateMachineHKChinese @ 3573 NONAME ABSENT
	_ZTV29HbInputStateMachinePrcChinese @ 3574 NONAME ABSENT
	_ZTV30HbInputCustomButtonComposition @ 3575 NONAME ABSENT
	_ZTV30HbInputStateMachineLatinFinger @ 3576 NONAME ABSENT
	_ZTV32HbInputStateMachineTaiwanChinese @ 3577 NONAME ABSENT
	_ZTV34HbInputStateMachineHKChineseFinger @ 3578 NONAME ABSENT
	_ZTV35HbInputStateMachineLatinWithEditKey @ 3579 NONAME ABSENT
	_ZTV35HbInputStateMachinePrcChineseFinger @ 3580 NONAME ABSENT
	_ZTV38HbInputStateMachineTaiwanChineseFinger @ 3581 NONAME ABSENT
	_ZTV6HbMenu @ 3582 NONAME
	_ZTV6HbView @ 3583 NONAME
	_ZTV7HbEvent @ 3584 NONAME
	_ZTV7HbLabel @ 3585 NONAME ABSENT
	_ZTV7HbPopup @ 3586 NONAME
	_ZTV7HbStyle @ 3587 NONAME
	_ZTV7HbTheme @ 3588 NONAME
	_ZTV8HbAction @ 3589 NONAME
	_ZTV8HbWidget @ 3590 NONAME
	_ZTV9HbGesture @ 3591 NONAME ABSENT
	_ZTV9HbSoftKey @ 3592 NONAME ABSENT
	_ZTV9HbToolBar @ 3593 NONAME
	_ZTV9HbVkbHost @ 3594 NONAME
	_ZThn16_N10HbGridViewD0Ev @ 3595 NONAME ABSENT
	_ZThn16_N10HbGridViewD1Ev @ 3596 NONAME ABSENT
	_ZThn16_N10HbIconItem11setGeometryERK6QRectF @ 3597 NONAME
	_ZThn16_N10HbIconItem14updateGeometryEv @ 3598 NONAME ABSENT
	_ZThn16_N10HbIconItemD0Ev @ 3599 NONAME
	_ZThn16_N10HbIconItemD1Ev @ 3600 NONAME
	_ZThn16_N10HbListViewD0Ev @ 3601 NONAME ABSENT
	_ZThn16_N10HbListViewD1Ev @ 3602 NONAME ABSENT
	_ZThn16_N10HbTextItemD0Ev @ 3603 NONAME
	_ZThn16_N10HbTextItemD1Ev @ 3604 NONAME
	_ZThn16_N10HbTreeViewD0Ev @ 3605 NONAME ABSENT
	_ZThn16_N10HbTreeViewD1Ev @ 3606 NONAME ABSENT
	_ZThn16_N11HbDecoratorD0Ev @ 3607 NONAME ABSENT
	_ZThn16_N11HbDecoratorD1Ev @ 3608 NONAME ABSENT
	_ZThn16_N11HbFrameItemD0Ev @ 3609 NONAME
	_ZThn16_N11HbFrameItemD1Ev @ 3610 NONAME
	_ZThn16_N11HbPopupBaseD0Ev @ 3611 NONAME ABSENT
	_ZThn16_N11HbPopupBaseD1Ev @ 3612 NONAME ABSENT
	_ZThn16_N11HbScrollBar14updateGeometryEv @ 3613 NONAME
	_ZThn16_N11HbScrollBarD0Ev @ 3614 NONAME
	_ZThn16_N11HbScrollBarD1Ev @ 3615 NONAME
	_ZThn16_N11HbTouchArea11setGeometryERK6QRectF @ 3616 NONAME
	_ZThn16_N11HbTouchArea14updateGeometryEv @ 3617 NONAME
	_ZThn16_N11HbTouchAreaD0Ev @ 3618 NONAME
	_ZThn16_N11HbTouchAreaD1Ev @ 3619 NONAME
	_ZThn16_N12HbListWidgetD0Ev @ 3620 NONAME ABSENT
	_ZThn16_N12HbListWidgetD1Ev @ 3621 NONAME ABSENT
	_ZThn16_N12HbScrollAreaD0Ev @ 3622 NONAME
	_ZThn16_N12HbScrollAreaD1Ev @ 3623 NONAME
	_ZThn16_N12HbToolButtonD0Ev @ 3624 NONAME
	_ZThn16_N12HbToolButtonD1Ev @ 3625 NONAME
	_ZThn16_N14HbAbstractItemD0Ev @ 3626 NONAME ABSENT
	_ZThn16_N14HbAbstractItemD1Ev @ 3627 NONAME ABSENT
	_ZThn16_N14HbGridViewItemD0Ev @ 3628 NONAME ABSENT
	_ZThn16_N14HbGridViewItemD1Ev @ 3629 NONAME ABSENT
	_ZThn16_N14HbListViewItemD0Ev @ 3630 NONAME ABSENT
	_ZThn16_N14HbListViewItemD1Ev @ 3631 NONAME ABSENT
	_ZThn16_N14HbRichTextItemD0Ev @ 3632 NONAME
	_ZThn16_N14HbRichTextItemD1Ev @ 3633 NONAME
	_ZThn16_N14HbTreeViewItemD0Ev @ 3634 NONAME ABSENT
	_ZThn16_N14HbTreeViewItemD1Ev @ 3635 NONAME ABSENT
	_ZThn16_N15HbItemHighlightD0Ev @ 3636 NONAME ABSENT
	_ZThn16_N15HbItemHighlightD1Ev @ 3637 NONAME ABSENT
	_ZThn16_N15HbStackedWidgetD0Ev @ 3638 NONAME
	_ZThn16_N15HbStackedWidgetD1Ev @ 3639 NONAME
	_ZThn16_N16HbAbstractButtonD0Ev @ 3640 NONAME
	_ZThn16_N16HbAbstractButtonD1Ev @ 3641 NONAME
	_ZThn16_N17HbSignalIndicatorD0Ev @ 3642 NONAME
	_ZThn16_N17HbSignalIndicatorD1Ev @ 3643 NONAME
	_ZThn16_N18HbAbstractItemViewD0Ev @ 3644 NONAME ABSENT
	_ZThn16_N18HbAbstractItemViewD1Ev @ 3645 NONAME ABSENT
	_ZThn16_N18HbAbstractViewItemD0Ev @ 3646 NONAME ABSENT
	_ZThn16_N18HbAbstractViewItemD1Ev @ 3647 NONAME ABSENT
	_ZThn16_N18HbBatteryIndicatorD0Ev @ 3648 NONAME
	_ZThn16_N18HbBatteryIndicatorD1Ev @ 3649 NONAME
	_ZThn16_N18HbToolBarExtensionD0Ev @ 3650 NONAME
	_ZThn16_N18HbToolBarExtensionD1Ev @ 3651 NONAME
	_ZThn16_N19HbListItemContainerD0Ev @ 3652 NONAME ABSENT
	_ZThn16_N19HbListItemContainerD1Ev @ 3653 NONAME ABSENT
	_ZThn16_N20HbGestureSceneFilterD0Ev @ 3654 NONAME ABSENT
	_ZThn16_N20HbGestureSceneFilterD1Ev @ 3655 NONAME ABSENT
	_ZThn16_N20HbListWidgetViewItemD0Ev @ 3656 NONAME ABSENT
	_ZThn16_N20HbListWidgetViewItemD1Ev @ 3657 NONAME ABSENT
	_ZThn16_N23HbAbstractItemContainerD0Ev @ 3658 NONAME ABSENT
	_ZThn16_N23HbAbstractItemContainerD1Ev @ 3659 NONAME ABSENT
	_ZThn16_N26HbSliderTickmarksItemLabelD0Ev @ 3660 NONAME ABSENT
	_ZThn16_N26HbSliderTickmarksItemLabelD1Ev @ 3661 NONAME ABSENT
	_ZThn16_N6HbMenuD0Ev @ 3662 NONAME
	_ZThn16_N6HbMenuD1Ev @ 3663 NONAME
	_ZThn16_N6HbViewD0Ev @ 3664 NONAME
	_ZThn16_N6HbViewD1Ev @ 3665 NONAME
	_ZThn16_N7HbLabel11setGeometryERK6QRectF @ 3666 NONAME ABSENT
	_ZThn16_N7HbLabelD0Ev @ 3667 NONAME ABSENT
	_ZThn16_N7HbLabelD1Ev @ 3668 NONAME ABSENT
	_ZThn16_N7HbPopupD0Ev @ 3669 NONAME
	_ZThn16_N7HbPopupD1Ev @ 3670 NONAME
	_ZThn16_N8HbWidgetD0Ev @ 3671 NONAME
	_ZThn16_N8HbWidgetD1Ev @ 3672 NONAME
	_ZThn16_N9HbSoftKeyD0Ev @ 3673 NONAME ABSENT
	_ZThn16_N9HbSoftKeyD1Ev @ 3674 NONAME ABSENT
	_ZThn16_N9HbToolBarD0Ev @ 3675 NONAME
	_ZThn16_N9HbToolBarD1Ev @ 3676 NONAME
	_ZThn16_NK10HbIconItem8sizeHintEN2Qt8SizeHintERK6QSizeF @ 3677 NONAME ABSENT
	_ZThn16_NK10HbTextItem8sizeHintEN2Qt8SizeHintERK6QSizeF @ 3678 NONAME
	_ZThn16_NK11HbTouchArea8sizeHintEN2Qt8SizeHintERK6QSizeF @ 3679 NONAME
	_ZThn16_NK12HbScrollArea8sizeHintEN2Qt8SizeHintERK6QSizeF @ 3680 NONAME
	_ZThn16_NK17HbSignalIndicator8sizeHintEN2Qt8SizeHintERK6QSizeF @ 3681 NONAME ABSENT
	_ZThn16_NK18HbAbstractViewItem8sizeHintEN2Qt8SizeHintERK6QSizeF @ 3682 NONAME ABSENT
	_ZThn16_NK18HbBatteryIndicator8sizeHintEN2Qt8SizeHintERK6QSizeF @ 3683 NONAME ABSENT
	_ZThn16_NK20HbListWidgetViewItem8sizeHintEN2Qt8SizeHintERK6QSizeF @ 3684 NONAME ABSENT
	_ZThn16_NK6HbView8sizeHintEN2Qt8SizeHintERK6QSizeF @ 3685 NONAME ABSENT
	_ZThn8_N10HbGridView14mouseMoveEventEP24QGraphicsSceneMouseEvent @ 3686 NONAME ABSENT
	_ZThn8_N10HbGridViewD0Ev @ 3687 NONAME ABSENT
	_ZThn8_N10HbGridViewD1Ev @ 3688 NONAME ABSENT
	_ZThn8_N10HbIconItem10itemChangeEN13QGraphicsItem18GraphicsItemChangeERK8QVariant @ 3689 NONAME
	_ZThn8_N10HbIconItem5paintEP8QPainterPK24QStyleOptionGraphicsItemP7QWidget @ 3690 NONAME
	_ZThn8_N10HbIconItemD0Ev @ 3691 NONAME
	_ZThn8_N10HbIconItemD1Ev @ 3692 NONAME
	_ZThn8_N10HbListView14mouseMoveEventEP24QGraphicsSceneMouseEvent @ 3693 NONAME ABSENT
	_ZThn8_N10HbListView15mousePressEventEP24QGraphicsSceneMouseEvent @ 3694 NONAME ABSENT
	_ZThn8_N10HbListView17mouseReleaseEventEP24QGraphicsSceneMouseEvent @ 3695 NONAME ABSENT
	_ZThn8_N10HbListViewD0Ev @ 3696 NONAME ABSENT
	_ZThn8_N10HbListViewD1Ev @ 3697 NONAME ABSENT
	_ZThn8_N10HbTextItem5paintEP8QPainterPK24QStyleOptionGraphicsItemP7QWidget @ 3698 NONAME
	_ZThn8_N10HbTextItemD0Ev @ 3699 NONAME
	_ZThn8_N10HbTextItemD1Ev @ 3700 NONAME
	_ZThn8_N10HbTreeViewD0Ev @ 3701 NONAME ABSENT
	_ZThn8_N10HbTreeViewD1Ev @ 3702 NONAME ABSENT
	_ZThn8_N11HbDecorator10itemChangeEN13QGraphicsItem18GraphicsItemChangeERK8QVariant @ 3703 NONAME ABSENT
	_ZThn8_N11HbDecorator14mouseMoveEventEP24QGraphicsSceneMouseEvent @ 3704 NONAME ABSENT
	_ZThn8_N11HbDecorator15mousePressEventEP24QGraphicsSceneMouseEvent @ 3705 NONAME ABSENT
	_ZThn8_N11HbDecorator17mouseReleaseEventEP24QGraphicsSceneMouseEvent @ 3706 NONAME ABSENT
	_ZThn8_N11HbDecoratorD0Ev @ 3707 NONAME ABSENT
	_ZThn8_N11HbDecoratorD1Ev @ 3708 NONAME ABSENT
	_ZThn8_N11HbFrameItem5paintEP8QPainterPK24QStyleOptionGraphicsItemP7QWidget @ 3709 NONAME
	_ZThn8_N11HbFrameItemD0Ev @ 3710 NONAME
	_ZThn8_N11HbFrameItemD1Ev @ 3711 NONAME
	_ZThn8_N11HbPopupBase10itemChangeEN13QGraphicsItem18GraphicsItemChangeERK8QVariant @ 3712 NONAME ABSENT
	_ZThn8_N11HbPopupBase13keyPressEventEP9QKeyEvent @ 3713 NONAME ABSENT
	_ZThn8_N11HbPopupBase15mousePressEventEP24QGraphicsSceneMouseEvent @ 3714 NONAME ABSENT
	_ZThn8_N11HbPopupBase17mouseReleaseEventEP24QGraphicsSceneMouseEvent @ 3715 NONAME ABSENT
	_ZThn8_N11HbPopupBaseD0Ev @ 3716 NONAME ABSENT
	_ZThn8_N11HbPopupBaseD1Ev @ 3717 NONAME ABSENT
	_ZThn8_N11HbScrollBar10itemChangeEN13QGraphicsItem18GraphicsItemChangeERK8QVariant @ 3718 NONAME
	_ZThn8_N11HbScrollBar14mouseMoveEventEP24QGraphicsSceneMouseEvent @ 3719 NONAME
	_ZThn8_N11HbScrollBar15mousePressEventEP24QGraphicsSceneMouseEvent @ 3720 NONAME
	_ZThn8_N11HbScrollBar17mouseReleaseEventEP24QGraphicsSceneMouseEvent @ 3721 NONAME
	_ZThn8_N11HbScrollBarD0Ev @ 3722 NONAME
	_ZThn8_N11HbScrollBarD1Ev @ 3723 NONAME
	_ZThn8_N11HbTouchArea5paintEP8QPainterPK24QStyleOptionGraphicsItemP7QWidget @ 3724 NONAME
	_ZThn8_N11HbTouchAreaD0Ev @ 3725 NONAME
	_ZThn8_N11HbTouchAreaD1Ev @ 3726 NONAME
	_ZThn8_N12HbListWidgetD0Ev @ 3727 NONAME ABSENT
	_ZThn8_N12HbListWidgetD1Ev @ 3728 NONAME ABSENT
	_ZThn8_N12HbMainWindowD0Ev @ 3729 NONAME
	_ZThn8_N12HbMainWindowD1Ev @ 3730 NONAME
	_ZThn8_N12HbScrollArea10itemChangeEN13QGraphicsItem18GraphicsItemChangeERK8QVariant @ 3731 NONAME
	_ZThn8_N12HbScrollArea13focusOutEventEP11QFocusEvent @ 3732 NONAME
	_ZThn8_N12HbScrollArea15mousePressEventEP24QGraphicsSceneMouseEvent @ 3733 NONAME
	_ZThn8_N12HbScrollArea17mouseReleaseEventEP24QGraphicsSceneMouseEvent @ 3734 NONAME ABSENT
	_ZThn8_N12HbScrollAreaD0Ev @ 3735 NONAME
	_ZThn8_N12HbScrollAreaD1Ev @ 3736 NONAME
	_ZThn8_N12HbToolButton15mousePressEventEP24QGraphicsSceneMouseEvent @ 3737 NONAME ABSENT
	_ZThn8_N12HbToolButton17mouseReleaseEventEP24QGraphicsSceneMouseEvent @ 3738 NONAME ABSENT
	_ZThn8_N12HbToolButtonD0Ev @ 3739 NONAME
	_ZThn8_N12HbToolButtonD1Ev @ 3740 NONAME
	_ZThn8_N14HbAbstractItemD0Ev @ 3741 NONAME ABSENT
	_ZThn8_N14HbAbstractItemD1Ev @ 3742 NONAME ABSENT
	_ZThn8_N14HbGridViewItemD0Ev @ 3743 NONAME ABSENT
	_ZThn8_N14HbGridViewItemD1Ev @ 3744 NONAME ABSENT
	_ZThn8_N14HbListViewItemD0Ev @ 3745 NONAME ABSENT
	_ZThn8_N14HbListViewItemD1Ev @ 3746 NONAME ABSENT
	_ZThn8_N14HbRichTextItem5paintEP8QPainterPK24QStyleOptionGraphicsItemP7QWidget @ 3747 NONAME
	_ZThn8_N14HbRichTextItemD0Ev @ 3748 NONAME
	_ZThn8_N14HbRichTextItemD1Ev @ 3749 NONAME
	_ZThn8_N14HbTreeViewItem15mousePressEventEP24QGraphicsSceneMouseEvent @ 3750 NONAME ABSENT
	_ZThn8_N14HbTreeViewItemD0Ev @ 3751 NONAME ABSENT
	_ZThn8_N14HbTreeViewItemD1Ev @ 3752 NONAME ABSENT
	_ZThn8_N15HbItemHighlightD0Ev @ 3753 NONAME ABSENT
	_ZThn8_N15HbItemHighlightD1Ev @ 3754 NONAME ABSENT
	_ZThn8_N15HbStackedWidgetD0Ev @ 3755 NONAME
	_ZThn8_N15HbStackedWidgetD1Ev @ 3756 NONAME
	_ZThn8_N16HbAbstractButton12focusInEventEP11QFocusEvent @ 3757 NONAME
	_ZThn8_N16HbAbstractButton13keyPressEventEP9QKeyEvent @ 3758 NONAME
	_ZThn8_N16HbAbstractButton14mouseMoveEventEP24QGraphicsSceneMouseEvent @ 3759 NONAME ABSENT
	_ZThn8_N16HbAbstractButton15keyReleaseEventEP9QKeyEvent @ 3760 NONAME
	_ZThn8_N16HbAbstractButton15mousePressEventEP24QGraphicsSceneMouseEvent @ 3761 NONAME ABSENT
	_ZThn8_N16HbAbstractButton17mouseReleaseEventEP24QGraphicsSceneMouseEvent @ 3762 NONAME ABSENT
	_ZThn8_N16HbAbstractButtonD0Ev @ 3763 NONAME
	_ZThn8_N16HbAbstractButtonD1Ev @ 3764 NONAME
	_ZThn8_N17HbSignalIndicator5paintEP8QPainterPK24QStyleOptionGraphicsItemP7QWidget @ 3765 NONAME ABSENT
	_ZThn8_N17HbSignalIndicatorD0Ev @ 3766 NONAME
	_ZThn8_N17HbSignalIndicatorD1Ev @ 3767 NONAME
	_ZThn8_N18HbAbstractItemView10itemChangeEN13QGraphicsItem18GraphicsItemChangeERK8QVariant @ 3768 NONAME ABSENT
	_ZThn8_N18HbAbstractItemView12focusInEventEP11QFocusEvent @ 3769 NONAME ABSENT
	_ZThn8_N18HbAbstractItemView13focusOutEventEP11QFocusEvent @ 3770 NONAME ABSENT
	_ZThn8_N18HbAbstractItemView13keyPressEventEP9QKeyEvent @ 3771 NONAME ABSENT
	_ZThn8_N18HbAbstractItemView14mouseMoveEventEP24QGraphicsSceneMouseEvent @ 3772 NONAME ABSENT
	_ZThn8_N18HbAbstractItemView15keyReleaseEventEP9QKeyEvent @ 3773 NONAME ABSENT
	_ZThn8_N18HbAbstractItemView15mousePressEventEP24QGraphicsSceneMouseEvent @ 3774 NONAME ABSENT
	_ZThn8_N18HbAbstractItemView17mouseReleaseEventEP24QGraphicsSceneMouseEvent @ 3775 NONAME ABSENT
	_ZThn8_N18HbAbstractItemViewD0Ev @ 3776 NONAME ABSENT
	_ZThn8_N18HbAbstractItemViewD1Ev @ 3777 NONAME ABSENT
	_ZThn8_N18HbAbstractViewItem14mouseMoveEventEP24QGraphicsSceneMouseEvent @ 3778 NONAME ABSENT
	_ZThn8_N18HbAbstractViewItem15mousePressEventEP24QGraphicsSceneMouseEvent @ 3779 NONAME ABSENT
	_ZThn8_N18HbAbstractViewItem17mouseReleaseEventEP24QGraphicsSceneMouseEvent @ 3780 NONAME ABSENT
	_ZThn8_N18HbAbstractViewItemD0Ev @ 3781 NONAME ABSENT
	_ZThn8_N18HbAbstractViewItemD1Ev @ 3782 NONAME ABSENT
	_ZThn8_N18HbBatteryIndicator5paintEP8QPainterPK24QStyleOptionGraphicsItemP7QWidget @ 3783 NONAME ABSENT
	_ZThn8_N18HbBatteryIndicatorD0Ev @ 3784 NONAME
	_ZThn8_N18HbBatteryIndicatorD1Ev @ 3785 NONAME
	_ZThn8_N18HbToolBarExtensionD0Ev @ 3786 NONAME
	_ZThn8_N18HbToolBarExtensionD1Ev @ 3787 NONAME
	_ZThn8_N19HbInteractionPluginD0Ev @ 3788 NONAME ABSENT
	_ZThn8_N19HbInteractionPluginD1Ev @ 3789 NONAME ABSENT
	_ZThn8_N19HbListItemContainerD0Ev @ 3790 NONAME ABSENT
	_ZThn8_N19HbListItemContainerD1Ev @ 3791 NONAME ABSENT
	_ZThn8_N20HbDeviceDialogPluginD0Ev @ 3792 NONAME
	_ZThn8_N20HbDeviceDialogPluginD1Ev @ 3793 NONAME
	_ZThn8_N20HbGestureSceneFilter16sceneEventFilterEP13QGraphicsItemP6QEvent @ 3794 NONAME ABSENT
	_ZThn8_N20HbGestureSceneFilterD0Ev @ 3795 NONAME ABSENT
	_ZThn8_N20HbGestureSceneFilterD1Ev @ 3796 NONAME ABSENT
	_ZThn8_N20HbGraphicsPixmapItemD0Ev @ 3797 NONAME ABSENT
	_ZThn8_N20HbGraphicsPixmapItemD1Ev @ 3798 NONAME ABSENT
	_ZThn8_N20HbListWidgetViewItemD0Ev @ 3799 NONAME ABSENT
	_ZThn8_N20HbListWidgetViewItemD1Ev @ 3800 NONAME ABSENT
	_ZThn8_N23HbAbstractItemContainer10itemChangeEN13QGraphicsItem18GraphicsItemChangeERK8QVariant @ 3801 NONAME ABSENT
	_ZThn8_N23HbAbstractItemContainerD0Ev @ 3802 NONAME ABSENT
	_ZThn8_N23HbAbstractItemContainerD1Ev @ 3803 NONAME ABSENT
	_ZThn8_N26HbSliderTickmarksItemLabel5paintEP8QPainterPK24QStyleOptionGraphicsItemP7QWidget @ 3804 NONAME ABSENT
	_ZThn8_N26HbSliderTickmarksItemLabelD0Ev @ 3805 NONAME ABSENT
	_ZThn8_N26HbSliderTickmarksItemLabelD1Ev @ 3806 NONAME ABSENT
	_ZThn8_N6HbMenu13keyPressEventEP9QKeyEvent @ 3807 NONAME ABSENT
	_ZThn8_N6HbMenu15keyReleaseEventEP9QKeyEvent @ 3808 NONAME ABSENT
	_ZThn8_N6HbMenuD0Ev @ 3809 NONAME
	_ZThn8_N6HbMenuD1Ev @ 3810 NONAME
	_ZThn8_N6HbViewD0Ev @ 3811 NONAME
	_ZThn8_N6HbViewD1Ev @ 3812 NONAME
	_ZThn8_N7HbLabelD0Ev @ 3813 NONAME ABSENT
	_ZThn8_N7HbLabelD1Ev @ 3814 NONAME ABSENT
	_ZThn8_N7HbPopup12focusInEventEP11QFocusEvent @ 3815 NONAME ABSENT
	_ZThn8_N7HbPopupD0Ev @ 3816 NONAME
	_ZThn8_N7HbPopupD1Ev @ 3817 NONAME
	_ZThn8_N8HbWidget10itemChangeEN13QGraphicsItem18GraphicsItemChangeERK8QVariant @ 3818 NONAME
	_ZThn8_N8HbWidget12focusInEventEP11QFocusEvent @ 3819 NONAME
	_ZThn8_N8HbWidget13focusOutEventEP11QFocusEvent @ 3820 NONAME
	_ZThn8_N8HbWidgetD0Ev @ 3821 NONAME
	_ZThn8_N8HbWidgetD1Ev @ 3822 NONAME
	_ZThn8_N9HbSoftKeyD0Ev @ 3823 NONAME ABSENT
	_ZThn8_N9HbSoftKeyD1Ev @ 3824 NONAME ABSENT
	_ZThn8_N9HbToolBar10itemChangeEN13QGraphicsItem18GraphicsItemChangeERK8QVariant @ 3825 NONAME
	_ZThn8_N9HbToolBar14mouseMoveEventEP24QGraphicsSceneMouseEvent @ 3826 NONAME ABSENT
	_ZThn8_N9HbToolBar17mouseReleaseEventEP24QGraphicsSceneMouseEvent @ 3827 NONAME ABSENT
	_ZThn8_N9HbToolBarD0Ev @ 3828 NONAME
	_ZThn8_N9HbToolBarD1Ev @ 3829 NONAME
	_ZThn8_NK10HbListView4typeEv @ 3830 NONAME ABSENT
	_ZThn8_NK14HbGridViewItem4typeEv @ 3831 NONAME ABSENT
	_ZThn8_NK14HbGridViewItem5shapeEv @ 3832 NONAME ABSENT
	_ZThn8_NK14HbListViewItem4typeEv @ 3833 NONAME ABSENT
	_ZThn8_NK14HbTreeViewItem4typeEv @ 3834 NONAME ABSENT
	_ZThn8_NK15HbItemHighlight4typeEv @ 3835 NONAME ABSENT
	_ZThn8_NK18HbAbstractItemView4typeEv @ 3836 NONAME ABSENT
	_ZThn8_NK18HbAbstractViewItem4typeEv @ 3837 NONAME ABSENT
	_ZThn8_NK19HbInteractionPlugin11featureNameEv @ 3838 NONAME ABSENT
	_ZThn8_NK20HbListWidgetViewItem4typeEv @ 3839 NONAME ABSENT
	_ZThn8_NK23HbAbstractItemContainer4typeEv @ 3840 NONAME ABSENT
	_ZThn8_NK7HbLabel4typeEv @ 3841 NONAME ABSENT
	_ZlsR11QDataStreamRK6HbIcon @ 3842 NONAME
	_ZlsR11QDataStreamRK8HbString @ 3843 NONAME
	_ZrsR11QDataStreamR6HbIcon @ 3844 NONAME
	_ZrsR11QDataStreamR8HbString @ 3845 NONAME
	_ZN10HbIconItem11changeEventEP6QEvent @ 3846 NONAME
	_ZN10HbIconItem8setColorERK6QColor @ 3847 NONAME
	_ZN10HbTextItem11resizeEventEP25QGraphicsSceneResizeEvent @ 3848 NONAME
	_ZN10HbTextItem11setGeometryERK6QRectF @ 3849 NONAME
	_ZN10HbTitleBar11gestureLeftEi @ 3850 NONAME ABSENT
	_ZN10HbTitleBar11qt_metacallEN11QMetaObject4CallEiPPv @ 3851 NONAME
	_ZN10HbTitleBar11qt_metacastEPKc @ 3852 NONAME
	_ZN10HbTitleBar12gestureRightEi @ 3853 NONAME ABSENT
	_ZN10HbTitleBar14effectFinishedERKN8HbEffect12EffectStatusE @ 3854 NONAME
	_ZN10HbTitleBar16staticMetaObjectE @ 3855 NONAME DATA 16
	_ZN10HbTitleBar18orientationChangedEN2Qt11OrientationE @ 3856 NONAME ABSENT
	_ZN10HbTitleBar19getStaticMetaObjectEv @ 3857 NONAME
	_ZN10HbTitleBar21changeContentGeometryEv @ 3858 NONAME ABSENT
	_ZN10HbTitleBar24aboutToChangeOrientationEv @ 3859 NONAME ABSENT
	_ZN10HbTitleBarC1EP12HbMainWindowP13QGraphicsItem @ 3860 NONAME
	_ZN10HbTitleBarC1ER17HbTitleBarPrivateP12HbMainWindowP13QGraphicsItem @ 3861 NONAME
	_ZN10HbTitleBarC2EP12HbMainWindowP13QGraphicsItem @ 3862 NONAME
	_ZN10HbTitleBarC2ER17HbTitleBarPrivateP12HbMainWindowP13QGraphicsItem @ 3863 NONAME
	_ZN10HbTitleBarD0Ev @ 3864 NONAME
	_ZN10HbTitleBarD1Ev @ 3865 NONAME
	_ZN10HbTitleBarD2Ev @ 3866 NONAME
	_ZN11HbScrollBar20valueChangeRequestedEfN2Qt11OrientationE @ 3867 NONAME
	_ZN12HbDockWidget10itemChangeEN13QGraphicsItem18GraphicsItemChangeERK8QVariant @ 3868 NONAME
	_ZN12HbDockWidget11qt_metacallEN11QMetaObject4CallEiPPv @ 3869 NONAME
	_ZN12HbDockWidget11qt_metacastEPKc @ 3870 NONAME
	_ZN12HbDockWidget16staticMetaObjectE @ 3871 NONAME DATA 16
	_ZN12HbDockWidget19getStaticMetaObjectEv @ 3872 NONAME
	_ZN12HbDockWidget9setWidgetEP15QGraphicsWidget @ 3873 NONAME
	_ZN12HbDockWidgetC1EP13QGraphicsItem @ 3874 NONAME
	_ZN12HbDockWidgetC1ER19HbDockWidgetPrivateP13QGraphicsItem @ 3875 NONAME
	_ZN12HbDockWidgetC2EP13QGraphicsItem @ 3876 NONAME
	_ZN12HbDockWidgetC2ER19HbDockWidgetPrivateP13QGraphicsItem @ 3877 NONAME
	_ZN12HbDockWidgetD0Ev @ 3878 NONAME
	_ZN12HbDockWidgetD1Ev @ 3879 NONAME
	_ZN12HbDockWidgetD2Ev @ 3880 NONAME
	_ZN12HbEffectInfo13setEffectDataE16HbEffectFxmlData @ 3881 NONAME
	_ZN12HbEffectInfoC1Ev @ 3882 NONAME
	_ZN12HbEffectInfoC2Ev @ 3883 NONAME
	_ZN12HbEffectInfoD1Ev @ 3884 NONAME
	_ZN12HbEffectInfoD2Ev @ 3885 NONAME
	_ZN12HbFocusGroup10removeItemEP13QGraphicsItem @ 3886 NONAME
	_ZN12HbFocusGroup12registerItemEP13QGraphicsItem @ 3887 NONAME
	_ZN12HbFocusGroup12setFocusModeEN8HbWidget9FocusModeE @ 3888 NONAME
	_ZN12HbFocusGroup13delegateFocusEP11QFocusEvent @ 3889 NONAME
	_ZN12HbFocusGroup13setFocusOrderEP13QGraphicsItemS1_ @ 3890 NONAME
	_ZN12HbFocusGroup14unregisterItemEP13QGraphicsItem @ 3891 NONAME
	_ZN12HbFocusGroup15changeFocusModeEv @ 3892 NONAME
	_ZN12HbFocusGroup15setFocusLoopingEb @ 3893 NONAME
	_ZN12HbFocusGroup16registerChildrenEP13QGraphicsItem @ 3894 NONAME
	_ZN12HbFocusGroup18setFocusDelegationEN8HbWidget15FocusDelegationE @ 3895 NONAME
	_ZN12HbFocusGroup18setKeyForFocusModeERK12QKeySequence @ 3896 NONAME
	_ZN12HbFocusGroup18stopHighlightTimerEP8HbWidgetb @ 3897 NONAME
	_ZN12HbFocusGroup18unregisterChildrenEP13QGraphicsItem @ 3898 NONAME
	_ZN12HbFocusGroup19startHighlightTimerEP8HbWidget @ 3899 NONAME
	_ZN12HbFocusGroup23setKeyForFocusNextChildERK12QKeySequence @ 3900 NONAME
	_ZN12HbFocusGroup23updateCurrentFocusChildEP13QGraphicsItem @ 3901 NONAME
	_ZN12HbFocusGroup27setKeyForFocusPreviousChildERK12QKeySequence @ 3902 NONAME
	_ZN12HbFocusGroupC1EP15QGraphicsWidget @ 3903 NONAME
	_ZN12HbFocusGroupC2EP15QGraphicsWidget @ 3904 NONAME
	_ZN12HbFocusGroupD0Ev @ 3905 NONAME
	_ZN12HbFocusGroupD1Ev @ 3906 NONAME
	_ZN12HbFocusGroupD2Ev @ 3907 NONAME
	_ZN12HbIconLoader10unLoadIconERK7QStringRK6QSizeFN2Qt15AspectRatioModeEN5QIcon4ModeEb6QFlagsINS_16IconLoaderOptionEERK6QColor @ 3908 NONAME ABSENT
	_ZN12HbIconLoader18findSharedResourceERK7QStringN2Hb12ResourceTypeE @ 3909 NONAME
	_ZN12HbIconLoader8loadIconERK7QStringNS_12IconDataTypeENS_7PurposeERK6QSizeFN2Qt15AspectRatioModeEN5QIcon4ModeE6QFlagsINS_16IconLoaderOptionEEPP15HbIconAnimationRK6QColor @ 3910 NONAME ABSENT
	_ZN12HbIconLoader8loadIconERK7QStringNS_7PurposeERK6QSizeFN2Qt15AspectRatioModeEN5QIcon4ModeE6QFlagsINS_16IconLoaderOptionEEPP15HbIconAnimationRK6QColor @ 3911 NONAME ABSENT
	_ZN12HbScrollArea21scrollPositionChangedERK7QPointF @ 3912 NONAME
	_ZN12HbScrollArea25setContinuationIndicatorsEb @ 3913 NONAME
	_ZN12HbWidgetBase11qt_metacallEN11QMetaObject4CallEiPPv @ 3914 NONAME
	_ZN12HbWidgetBase11qt_metacastEPKc @ 3915 NONAME
	_ZN12HbWidgetBase16staticMetaObjectE @ 3916 NONAME DATA 16
	_ZN12HbWidgetBase19getStaticMetaObjectEv @ 3917 NONAME
	_ZN12HbWidgetBaseC1EP13QGraphicsItem6QFlagsIN2Qt10WindowTypeEE @ 3918 NONAME
	_ZN12HbWidgetBaseC1ER19HbWidgetBasePrivateP13QGraphicsItem6QFlagsIN2Qt10WindowTypeEE @ 3919 NONAME
	_ZN12HbWidgetBaseC2EP13QGraphicsItem6QFlagsIN2Qt10WindowTypeEE @ 3920 NONAME
	_ZN12HbWidgetBaseC2ER19HbWidgetBasePrivateP13QGraphicsItem6QFlagsIN2Qt10WindowTypeEE @ 3921 NONAME
	_ZN12HbWidgetBaseD0Ev @ 3922 NONAME
	_ZN12HbWidgetBaseD1Ev @ 3923 NONAME
	_ZN12HbWidgetBaseD2Ev @ 3924 NONAME
	_ZN14HbListViewItem13setTextFormatEN2Qt10TextFormatE @ 3925 NONAME ABSENT
	_ZN14HbListViewItem16updatePrimitivesEv @ 3926 NONAME ABSENT
	_ZN14HbTreeViewItem16updatePrimitivesEv @ 3927 NONAME ABSENT
	_ZN14HbTreeViewItem17mouseReleaseEventEP24QGraphicsSceneMouseEvent @ 3928 NONAME ABSENT
	_ZN15HbDialogPrivate4initEv @ 3929 NONAME ABSENT
	_ZN15HbDialogPrivate8doLayoutEv @ 3930 NONAME
	_ZN15HbDialogPrivate9setWidgetEiRP15QGraphicsWidgetS1_ @ 3931 NONAME ABSENT
	_ZN15HbDialogPrivateC1Ev @ 3932 NONAME
	_ZN15HbDialogPrivateC2Ev @ 3933 NONAME
	_ZN15HbDialogPrivateD0Ev @ 3934 NONAME
	_ZN15HbDialogPrivateD1Ev @ 3935 NONAME
	_ZN15HbDialogPrivateD2Ev @ 3936 NONAME
	_ZN15HbWidgetPrivate16focusChangeEventEN8HbWidget14FocusHighlightE @ 3937 NONAME
	_ZN15HbWidgetPrivate23updateCurrentFocusChildEv @ 3938 NONAME
	_ZN16HbAbstractButton6polishER17HbStyleParameters @ 3939 NONAME
	_ZN16HbEffectFxmlData15appendParamDataERK21HbEffectFxmlParamData @ 3940 NONAME
	_ZN16HbEffectFxmlData16appendFilterDataERK22HbEffectFxmlFilterData @ 3941 NONAME
	_ZN16HbEffectFxmlDataC1EN15HbMemoryManager10MemoryTypeE @ 3942 NONAME
	_ZN16HbEffectFxmlDataC2EN15HbMemoryManager10MemoryTypeE @ 3943 NONAME
	_ZN16HbEffectFxmlDataD1Ev @ 3944 NONAME
	_ZN16HbEffectFxmlDataD2Ev @ 3945 NONAME
	_ZN16HbEffectInternal15reloadFxmlFilesEv @ 3946 NONAME
	_ZN16HbExtendedLocale11setWorkDaysERK7QString @ 3947 NONAME
	_ZN16HbExtendedLocale17setCurrencySymbolERK7QString @ 3948 NONAME
	_ZN16HbExtendedLocale6formatERK5QDateRK7QString @ 3949 NONAME
	_ZN16HbExtendedLocale6formatERK5QTimeRK7QString @ 3950 NONAME
	_ZN16HbNumberGrouping13formatGenericER7QStringN7QLocale7CountryE @ 3951 NONAME ABSENT
	_ZN16HbNumberGrouping14formatCurrencyER7QStringN7QLocale7CountryE @ 3952 NONAME ABSENT
	_ZN16HbNumberGrouping17formatPhoneNumberER7QStringN7QLocale7CountryE @ 3953 NONAME ABSENT
	_ZN16HbTitleBarHandle11qt_metacallEN11QMetaObject4CallEiPPv @ 3954 NONAME
	_ZN16HbTitleBarHandle11qt_metacastEPKc @ 3955 NONAME
	_ZN16HbTitleBarHandle16staticMetaObjectE @ 3956 NONAME DATA 16
	_ZN16HbTitleBarHandle19getStaticMetaObjectEv @ 3957 NONAME
	_ZN16HbTitleBarHandle5paintEP8QPainterPK24QStyleOptionGraphicsItemP7QWidget @ 3958 NONAME
	_ZN16HbTitleBarHandleC1EP13QGraphicsItem @ 3959 NONAME
	_ZN16HbTitleBarHandleC2EP13QGraphicsItem @ 3960 NONAME
	_ZN16HbTitleBarHandleD0Ev @ 3961 NONAME
	_ZN16HbTitleBarHandleD1Ev @ 3962 NONAME
	_ZN16HbTitleBarHandleD2Ev @ 3963 NONAME
	_ZN17HbEffectXmlParser11readVisualsEv @ 3964 NONAME
	_ZN17HbEffectXmlParser13readParamDataEv @ 3965 NONAME
	_ZN17HbEffectXmlParser14readFilterDataEv @ 3966 NONAME
	_ZN17HbEffectXmlParser14readVisualDataEv @ 3967 NONAME
	_ZN17HbEffectXmlParser18readUnknownElementEv @ 3968 NONAME
	_ZN17HbEffectXmlParser19readBlendingElementEv @ 3969 NONAME
	_ZN17HbEffectXmlParser4readEP9QIODeviceP16HbEffectFxmlData @ 3970 NONAME
	_ZN17HbEffectXmlParserC1Ev @ 3971 NONAME
	_ZN17HbEffectXmlParserC2Ev @ 3972 NONAME
	_ZN17HbEffectXmlParserD1Ev @ 3973 NONAME
	_ZN17HbEffectXmlParserD2Ev @ 3974 NONAME
	_ZN17HbPluginNameCache10removePathERK7QString @ 3975 NONAME
	_ZN17HbPluginNameCache11qt_metacallEN11QMetaObject4CallEiPPv @ 3976 NONAME
	_ZN17HbPluginNameCache11qt_metacastEPKc @ 3977 NONAME
	_ZN17HbPluginNameCache12addWatchPathERK7QString @ 3978 NONAME ABSENT
	_ZN17HbPluginNameCache13directoryPathERK7QString @ 3979 NONAME
	_ZN17HbPluginNameCache13scanDirectoryERK7QString @ 3980 NONAME ABSENT
	_ZN17HbPluginNameCache15removeWatchPathERK7QString @ 3981 NONAME
	_ZN17HbPluginNameCache16directoryChangedERK7QString @ 3982 NONAME
	_ZN17HbPluginNameCache16staticMetaObjectE @ 3983 NONAME DATA 16
	_ZN17HbPluginNameCache19getStaticMetaObjectEv @ 3984 NONAME
	_ZN17HbPluginNameCache20pluginFileNameFilterEv @ 3985 NONAME
	_ZN17HbPluginNameCache4findERK7QString @ 3986 NONAME ABSENT
	_ZN17HbPluginNameCache5printEv @ 3987 NONAME
	_ZN17HbPluginNameCache6insertERK11QStringListRK7QString @ 3988 NONAME ABSENT
	_ZN17HbPluginNameCache6removeERK7QString @ 3989 NONAME ABSENT
	_ZN17HbPluginNameCacheC1EPF11QStringListP7QObjectES2_ @ 3990 NONAME ABSENT
	_ZN17HbPluginNameCacheC2EPF11QStringListP7QObjectES2_ @ 3991 NONAME ABSENT
	_ZN17HbPluginNameCacheD0Ev @ 3992 NONAME
	_ZN17HbPluginNameCacheD1Ev @ 3993 NONAME
	_ZN17HbPluginNameCacheD2Ev @ 3994 NONAME
	_ZN18HbAbstractItemView11downGestureEi @ 3995 NONAME ABSENT
	_ZN18HbAbstractItemView11leftGestureEi @ 3996 NONAME ABSENT
	_ZN18HbAbstractItemView12rightGestureEi @ 3997 NONAME ABSENT
	_ZN18HbAbstractItemView9upGestureEi @ 3998 NONAME ABSENT
	_ZN18HbAbstractViewItem10setPressedEbb @ 3999 NONAME ABSENT
	_ZN18HbAbstractViewItem17pressStateChangedEb @ 4000 NONAME ABSENT
	_ZN18HbEffectController10removeFXMLEP13QGraphicsItem @ 4001 NONAME
	_ZN18HbEffectController10removeFXMLEP13QGraphicsItemRK7QStringS4_ @ 4002 NONAME
	_ZN18HbEffectController10removeFXMLERK7QStringS2_S2_ @ 4003 NONAME
	_ZN18HbEffectController10setSharingEb @ 4004 NONAME
	_ZN18HbEffectController12unsetSharingEv @ 4005 NONAME
	_ZN18HbEffectController14expandFileNameERK7QStringPbS3_ @ 4006 NONAME
	_ZN18HbEffectController23addEffectDefinitionFileERK7QStringP13QGraphicsItemS2_S2_b @ 4007 NONAME
	_ZN18HbEffectController7addFXMLEP13QGraphicsItemRK7QStringS4_b @ 4008 NONAME
	_ZN18HbEffectController7addFXMLERK7QStringS2_S2_b @ 4009 NONAME
	_ZN18HbEffectControllerC1Ev @ 4010 NONAME
	_ZN18HbEffectControllerC2Ev @ 4011 NONAME
	_ZN18HbEffectControllerD1Ev @ 4012 NONAME
	_ZN18HbEffectControllerD2Ev @ 4013 NONAME
	_ZN18HbPredictionEngine13enableFeatureE6QFlagsI28HbInputPredictionFeatureFlagE @ 4014 NONAME
	_ZN18HbPredictionEngine14disableFeatureE6QFlagsI28HbInputPredictionFeatureFlagE @ 4015 NONAME
	_ZN18HbPredictionEngine16isFeatureEnabledE6QFlagsI28HbInputPredictionFeatureFlagE @ 4016 NONAME
	_ZN19HbFocusObjectWidget19setInputMethodHintsE6QFlagsIN2Qt15InputMethodHintEE @ 4017 NONAME ABSENT
	_ZN19HbInputSettingProxy21initializeOrientationEN2Qt11OrientationE @ 4018 NONAME ABSENT
	_ZN19HbScrollAreaPrivate16_q_groovePressedEfN2Qt11OrientationE @ 4019 NONAME
	_ZN19HbScrollAreaPrivate16createPrimitivesEv @ 4020 NONAME
	_ZN19HbScrollAreaPrivate16updateIndicatorsE7QPointF @ 4021 NONAME ABSENT
	_ZN19HbScrollAreaPrivate16updatePrimitivesEv @ 4022 NONAME
	_ZN19HbViewActionManager11qt_metacallEN11QMetaObject4CallEiPPv @ 4023 NONAME
	_ZN19HbViewActionManager11qt_metacastEPKc @ 4024 NONAME
	_ZN19HbViewActionManager12addGuideItemERKNS_9GuideItemE @ 4025 NONAME
	_ZN19HbViewActionManager12removeActionEP8HbAction @ 4026 NONAME ABSENT
	_ZN19HbViewActionManager12removeActionEP8HbActionb @ 4027 NONAME ABSENT
	_ZN19HbViewActionManager13replaceActionEP8HbActionS1_ @ 4028 NONAME ABSENT
	_ZN19HbViewActionManager14createTemplateEv @ 4029 NONAME
	_ZN19HbViewActionManager15actualContainerEP8HbActionN6HbView15ActionContainerE @ 4030 NONAME ABSENT
	_ZN19HbViewActionManager16containerActionsEN6HbView15ActionContainerE @ 4031 NONAME
	_ZN19HbViewActionManager16moveActionToMenuEv @ 4032 NONAME
	_ZN19HbViewActionManager16staticMetaObjectE @ 4033 NONAME DATA 16
	_ZN19HbViewActionManager18orientationChangedEN2Qt11OrientationE @ 4034 NONAME
	_ZN19HbViewActionManager18setToolBarmaxCountEi @ 4035 NONAME
	_ZN19HbViewActionManager19getStaticMetaObjectEv @ 4036 NONAME
	_ZN19HbViewActionManager19setDefaultContainerERK7QString @ 4037 NONAME
	_ZN19HbViewActionManager9addActionEP8HbActionN6HbView15ActionContainerE @ 4038 NONAME ABSENT
	_ZN19HbViewActionManagerC1EP6HbView @ 4039 NONAME
	_ZN19HbViewActionManagerC2EP6HbView @ 4040 NONAME
	_ZN19HbViewActionManagerD0Ev @ 4041 NONAME
	_ZN19HbViewActionManagerD1Ev @ 4042 NONAME
	_ZN19HbViewActionManagerD2Ev @ 4043 NONAME
	_ZN19HbWidgetBasePrivateC1Ev @ 4044 NONAME
	_ZN19HbWidgetBasePrivateC2Ev @ 4045 NONAME
	_ZN19HbWidgetBasePrivateD0Ev @ 4046 NONAME
	_ZN19HbWidgetBasePrivateD1Ev @ 4047 NONAME
	_ZN19HbWidgetBasePrivateD2Ev @ 4048 NONAME
	_ZN19HbWidgetStyleLoader12loadWidgetMLEP8HbWidgetRK7QStringS4_ @ 4049 NONAME
	_ZN20HbDeviceDialogServer16indicatorUpdatedERK5QListI19IndicatorClientInfoE @ 4050 NONAME
	_ZN20HbGraphicsPixmapItem28handleLayoutDirectionChangedEv @ 4051 NONAME ABSENT
	_ZN20HbInteractionManager14gestureStoppedEPK8HbWidgetN2Ia7GestureE @ 4052 NONAME ABSENT
	_ZN20HbInteractionManager16gestureTriggeredEPK8HbWidgetN2Ia7GestureE7QPointF @ 4053 NONAME ABSENT
	_ZN20HbInteractionManager8instanceEv @ 4054 NONAME ABSENT
	_ZN20HbInteractionManager9triggeredEPK8HbWidgetN2Ia11InteractionE6QFlagsINS3_8ModifierEE @ 4055 NONAME ABSENT
	_ZN21HbEffectFxmlParamData11setDurationERK7QString @ 4056 NONAME
	_ZN21HbEffectFxmlParamData11setStartRefERK7QString @ 4057 NONAME
	_ZN21HbEffectFxmlParamData12setAttributeERK7QStringS2_ @ 4058 NONAME
	_ZN21HbEffectFxmlParamData6appendERK10HbKeyFrame @ 4059 NONAME
	_ZN21HbEffectFxmlParamData7setNameERK7QString @ 4060 NONAME
	_ZN21HbEffectFxmlParamData8setValueERK7QString @ 4061 NONAME
	_ZN21HbEffectFxmlParamData9setEndRefERK7QString @ 4062 NONAME
	_ZN21HbEffectFxmlParamDataC1EN15HbMemoryManager10MemoryTypeE @ 4063 NONAME
	_ZN21HbEffectFxmlParamDataC2EN15HbMemoryManager10MemoryTypeE @ 4064 NONAME
	_ZN21HbEffectFxmlParamDataD1Ev @ 4065 NONAME
	_ZN21HbEffectFxmlParamDataD2Ev @ 4066 NONAME
	_ZN21HbGridViewItemPrivate4initEv @ 4067 NONAME ABSENT
	_ZN21HbInteractionListener11draggedOverEPK8HbWidget @ 4068 NONAME ABSENT
	_ZN21HbInteractionListener11keyRepeatedEPK8HbWidget @ 4069 NONAME ABSENT
	_ZN21HbInteractionListener11longPressedEPK8HbWidget @ 4070 NONAME ABSENT
	_ZN21HbInteractionListener11popupClosedEPK8HbWidget @ 4071 NONAME ABSENT
	_ZN21HbInteractionListener11popupOpenedEPK8HbWidget @ 4072 NONAME ABSENT
	_ZN21HbInteractionListener14gestureStoppedEPK8HbWidgetN2Ia7GestureE @ 4073 NONAME ABSENT
	_ZN21HbInteractionListener15boundaryReachedEPK8HbWidget @ 4074 NONAME ABSENT
	_ZN21HbInteractionListener15customTriggeredEPK8HbWidgetN2Ia11InteractionE @ 4075 NONAME ABSENT
	_ZN21HbInteractionListener16gestureTriggeredEPK8HbWidgetN2Ia7GestureE7QPointF @ 4076 NONAME ABSENT
	_ZN21HbInteractionListener16rotated90DegreesEPK8HbWidget @ 4077 NONAME ABSENT
	_ZN21HbInteractionListener16selectionChangedEPK8HbWidget @ 4078 NONAME ABSENT
	_ZN21HbInteractionListener7clickedEPK8HbWidget @ 4079 NONAME ABSENT
	_ZN21HbInteractionListener7flickedEPK8HbWidget @ 4080 NONAME ABSENT
	_ZN21HbInteractionListener7pressedEPK8HbWidget @ 4081 NONAME ABSENT
	_ZN21HbInteractionListener8releasedEPK8HbWidget @ 4082 NONAME ABSENT
	_ZN21HbInteractionListener9modifiersEv @ 4083 NONAME ABSENT
	_ZN21HbInteractionListener9triggeredEPK8HbWidgetN2Ia11InteractionE6QFlagsINS3_8ModifierEE @ 4084 NONAME ABSENT
	_ZN21HbListViewItemPrivate14setDisplayRoleE7QStringi @ 4085 NONAME ABSENT
	_ZN21HbListViewItemPrivate17setDecorationRoleE8QVarianti @ 4086 NONAME ABSENT
	_ZN21HbStyleOptionGroupBoxC1ERKS_ @ 4087 NONAME
	_ZN21HbStyleOptionGroupBoxC1Ev @ 4088 NONAME
	_ZN21HbStyleOptionGroupBoxC2ERKS_ @ 4089 NONAME
	_ZN21HbStyleOptionGroupBoxC2Ev @ 4090 NONAME
	_ZN21HbStyleOptionGroupBoxD1Ev @ 4091 NONAME
	_ZN21HbStyleOptionGroupBoxD2Ev @ 4092 NONAME
	_ZN22HbEffectFxmlFilterData11setBlendingERK7QString @ 4093 NONAME
	_ZN22HbEffectFxmlFilterData15appendParamDataERK21HbEffectFxmlParamData @ 4094 NONAME
	_ZN22HbEffectFxmlFilterData7setTypeERK7QString @ 4095 NONAME
	_ZN22HbEffectFxmlFilterDataC1EN15HbMemoryManager10MemoryTypeE @ 4096 NONAME
	_ZN22HbEffectFxmlFilterDataC2EN15HbMemoryManager10MemoryTypeE @ 4097 NONAME
	_ZN22HbEffectFxmlFilterDataD1Ev @ 4098 NONAME
	_ZN22HbEffectFxmlFilterDataD2Ev @ 4099 NONAME
	_ZN24HbFormattedNumbersFilter6filterE5QChar @ 4100 NONAME
	_ZN24HbFormattedNumbersFilter8instanceEv @ 4101 NONAME
	_ZN24HbFormattedNumbersFilterC1Ev @ 4102 NONAME
	_ZN24HbFormattedNumbersFilterC2Ev @ 4103 NONAME
	_ZN24HbFormattedNumbersFilterD0Ev @ 4104 NONAME
	_ZN24HbFormattedNumbersFilterD1Ev @ 4105 NONAME
	_ZN24HbFormattedNumbersFilterD2Ev @ 4106 NONAME
	_ZN24HbInteractionPluginGroup13removePluginsEv @ 4107 NONAME ABSENT
	_ZN25HbAbstractViewItemPrivate27_q_releaseAnimationFinishedERKN8HbEffect12EffectStatusE @ 4108 NONAME ABSENT
	_ZN25HbLayoutDirectionNotifier22layoutDirectionChangedEv @ 4109 NONAME
	_ZN26HbInteractionManagerStatic9triggeredEPK8HbWidgetN2Ia11InteractionE6QFlagsINS3_8ModifierEE @ 4110 NONAME ABSENT
	_ZN27HbFocusObjectGraphicsWidget19setInputMethodHintsE6QFlagsIN2Qt15InputMethodHintEE @ 4111 NONAME ABSENT
	_ZN5HbCss14ValueExtractor12extractValueERK7QStringRf @ 4112 NONAME ABSENT
	_ZN5HbCss14ValueExtractor15extractPositionEPfS1_S1_S1_S1_S1_PNS_6OriginEP6QFlagsIN2Qt13AlignmentFlagEEPNS_12PositionModeES8_PbPS4_INS_16PositionAttrFlagEE @ 4113 NONAME ABSENT
	_ZN5HbCss14ValueExtractorC1ERK7QVectorINS_11DeclarationEES5_RK15HbDeviceProfileRK8QPalette @ 4114 NONAME ABSENT
	_ZN5HbCss14ValueExtractorC1ERK7QVectorINS_11DeclarationEEbRK15HbDeviceProfile @ 4115 NONAME ABSENT
	_ZN5HbCss14ValueExtractorC2ERK7QVectorINS_11DeclarationEES5_RK15HbDeviceProfileRK8QPalette @ 4116 NONAME ABSENT
	_ZN5HbCss14ValueExtractorC2ERK7QVectorINS_11DeclarationEEbRK15HbDeviceProfile @ 4117 NONAME ABSENT
	_ZN6HbIcon8setColorERK6QColor @ 4118 NONAME
	_ZN6HbView13setDockWidgetEP12HbDockWidget @ 4119 NONAME
	_ZN6HbView17dockWidgetChangedEv @ 4120 NONAME
	_ZN7HbStyle14registerPluginERK7QString @ 4121 NONAME ABSENT
	_ZN7HbStyle16unregisterPluginERK7QString @ 4122 NONAME ABSENT
	_ZN8HbDialog10closeEventEP11QCloseEvent @ 4123 NONAME
	_ZN8HbDialog11changeEventEP6QEvent @ 4124 NONAME
	_ZN8HbDialog11qt_metacallEN11QMetaObject4CallEiPPv @ 4125 NONAME
	_ZN8HbDialog11qt_metacastEPKc @ 4126 NONAME
	_ZN8HbDialog12focusInEventEP11QFocusEvent @ 4127 NONAME
	_ZN8HbDialog16setContentWidgetEP15QGraphicsWidget @ 4128 NONAME
	_ZN8HbDialog16setHeadingWidgetEP15QGraphicsWidget @ 4129 NONAME
	_ZN8HbDialog16setPrimaryActionEP8HbAction @ 4130 NONAME
	_ZN8HbDialog16staticMetaObjectE @ 4131 NONAME DATA 16
	_ZN8HbDialog18setSecondaryActionEP8HbAction @ 4132 NONAME
	_ZN8HbDialog19getStaticMetaObjectEv @ 4133 NONAME
	_ZN8HbDialog4execEv @ 4134 NONAME ABSENT
	_ZN8HbDialog5eventEP6QEvent @ 4135 NONAME
	_ZN8HbDialogC1EP13QGraphicsItem @ 4136 NONAME
	_ZN8HbDialogC1ER15HbDialogPrivateP13QGraphicsItem @ 4137 NONAME
	_ZN8HbDialogC2EP13QGraphicsItem @ 4138 NONAME
	_ZN8HbDialogC2ER15HbDialogPrivateP13QGraphicsItem @ 4139 NONAME
	_ZN8HbDialogD0Ev @ 4140 NONAME
	_ZN8HbDialogD1Ev @ 4141 NONAME
	_ZN8HbDialogD2Ev @ 4142 NONAME
	_ZN8HbEffect6cancelEP13QGraphicsItemRK7QStringbbb @ 4143 NONAME
	_ZN8HbWidget12setFocusModeENS_9FocusModeE @ 4144 NONAME
	_ZN8HbWidget13setFocusOrderEP13QGraphicsItemS1_ @ 4145 NONAME
	_ZN8HbWidget14focusHighlightENS_14FocusHighlightE @ 4146 NONAME ABSENT
	_ZN8HbWidget15setFocusLoopingEb @ 4147 NONAME
	_ZN8HbWidget15setKeyFocusModeERK12QKeySequence @ 4148 NONAME
	_ZN8HbWidget17setFocusHighlightEN7HbStyle9PrimitiveENS_14FocusHighlightE @ 4149 NONAME ABSENT
	_ZN8HbWidget18hideFocusHighlightEv @ 4150 NONAME
	_ZN8HbWidget18recreatePrimitivesEv @ 4151 NONAME
	_ZN8HbWidget18setFocusDelegationENS_15FocusDelegationE @ 4152 NONAME
	_ZN8HbWidget19setFocusOrientationE6QFlagsIN2Qt11OrientationEES3_ @ 4153 NONAME
	_ZNK10HbIconItem5colorEv @ 4154 NONAME
	_ZNK10HbTitleBar10metaObjectEv @ 4155 NONAME
	_ZNK10HbTitleBar12softkeyGroupEv @ 4156 NONAME ABSENT
	_ZNK10HbTitleBar14indicatorGroupEv @ 4157 NONAME ABSENT
	_ZNK10HbTitleBar19transformedPositionEv @ 4158 NONAME ABSENT
	_ZNK10HbTitleBar9titlePaneEv @ 4159 NONAME
	_ZNK11HbScrollBar13isInteractiveEv @ 4160 NONAME
	_ZNK12HbDockWidget10metaObjectEv @ 4161 NONAME
	_ZNK12HbDockWidget6widgetEv @ 4162 NONAME
	_ZNK12HbEffectInfo10effectDataEv @ 4163 NONAME
	_ZNK12HbEffectInfo11effectEventEv @ 4164 NONAME
	_ZNK12HbEffectInfo13componentTypeEv @ 4165 NONAME
	_ZNK12HbEffectInfo15xmlFileFullPathEv @ 4166 NONAME
	_ZNK12HbEffectInfo4itemEv @ 4167 NONAME
	_ZNK12HbEffectInfo5inUseEv @ 4168 NONAME
	_ZNK12HbEffectInfo6sharedEv @ 4169 NONAME
	_ZNK12HbEffectInfo9fromThemeEv @ 4170 NONAME
	_ZNK12HbFocusGroup16findNextPrevItemEP13QGraphicsItemb @ 4171 NONAME
	_ZNK12HbFocusGroup16isItemRegisteredEP13QGraphicsItem @ 4172 NONAME
	_ZNK12HbFocusGroup17focusNextPrevItemEP13QGraphicsItemb @ 4173 NONAME
	_ZNK12HbFocusGroup18isFocusNextPrevKeyERK9QKeyEventb @ 4174 NONAME
	_ZNK12HbFocusGroup20isFocusModeChangeKeyERK9QKeyEvent @ 4175 NONAME
	_ZNK12HbScrollArea22continuationIndicatorsEv @ 4176 NONAME
	_ZNK12HbWidgetBase10metaObjectEv @ 4177 NONAME
	_ZNK13HbInputMethod13allowOverrideERK11HbInputMode @ 4178 NONAME ABSENT
	_ZNK14HbGridViewItem23contiguousSelectionAreaEv @ 4179 NONAME ABSENT
	_ZNK14HbListViewItem10textFormatEv @ 4180 NONAME ABSENT
	_ZNK15HbWidgetPrivate13delegateFocusEP11QFocusEvent @ 4181 NONAME
	_ZNK15HbWidgetPrivate13getFocusGroupEb @ 4182 NONAME
	_ZNK15HbWidgetPrivate14focusPrimitiveEN8HbWidget14FocusHighlightE @ 4183 NONAME
	_ZNK16HbEffectFxmlData10filterDataEv @ 4184 NONAME
	_ZNK16HbEffectFxmlData10memoryTypeEv @ 4185 NONAME
	_ZNK16HbEffectFxmlData6isNullEv @ 4186 NONAME
	_ZNK16HbEffectFxmlData9paramDataEv @ 4187 NONAME
	_ZNK16HbExtendedLocale11startOfWeekEv @ 4188 NONAME
	_ZNK16HbExtendedLocale21currencyTriadsAllowedEv @ 4189 NONAME
	_ZNK16HbExtendedLocale8workDaysEv @ 4190 NONAME
	_ZNK16HbTitleBarHandle10metaObjectEv @ 4191 NONAME
	_ZNK16HbTitleBarHandle8sizeHintEN2Qt8SizeHintERK6QSizeF @ 4192 NONAME ABSENT
	_ZNK17HbPluginNameCache10metaObjectEv @ 4193 NONAME
	_ZNK18HbAbstractViewItem9isPressedEv @ 4194 NONAME ABSENT
	_ZNK18HbEffectController13effectEntriesEv @ 4195 NONAME
	_ZNK18HbEffectController13fetchFxmlDataERK7QStringP13QGraphicsItemS2_b @ 4196 NONAME
	_ZNK19HbFocusObjectWidget16inputMethodHintsEv @ 4197 NONAME ABSENT
	_ZNK19HbViewActionManager10metaObjectEv @ 4198 NONAME
	_ZNK19HbViewActionManager7actionsEv @ 4199 NONAME
	_ZNK21HbEffectFxmlParamData10memoryTypeEv @ 4200 NONAME
	_ZNK21HbEffectFxmlParamData12getAttributeERK7QString @ 4201 NONAME
	_ZNK21HbEffectFxmlParamData4nameEv @ 4202 NONAME
	_ZNK21HbEffectFxmlParamData6endRefEv @ 4203 NONAME
	_ZNK21HbEffectFxmlParamData8durationEv @ 4204 NONAME
	_ZNK21HbEffectFxmlParamData8getValueERf @ 4205 NONAME
	_ZNK21HbEffectFxmlParamData8getValueEv @ 4206 NONAME
	_ZNK21HbEffectFxmlParamData8startRefEv @ 4207 NONAME
	_ZNK21HbEffectFxmlParamData9keyFramesEv @ 4208 NONAME
	_ZNK22HbEffectFxmlFilterData10memoryTypeEv @ 4209 NONAME
	_ZNK22HbEffectFxmlFilterData4typeEv @ 4210 NONAME
	_ZNK22HbEffectFxmlFilterData8blendingEv @ 4211 NONAME
	_ZNK22HbEffectFxmlFilterData9paramDataEv @ 4212 NONAME
	_ZNK27HbFocusObjectGraphicsWidget16inputMethodHintsEv @ 4213 NONAME ABSENT
	_ZNK6HbIcon5colorEv @ 4214 NONAME
	_ZNK6HbView10dockWidgetEv @ 4215 NONAME
	_ZNK7HbStyle10parametersER17HbStyleParametersRK15HbDeviceProfile @ 4216 NONAME
	_ZNK7HbStyle9parameterERK7QStringRfRK15HbDeviceProfile @ 4217 NONAME
	_ZNK8HbDialog10metaObjectEv @ 4218 NONAME
	_ZNK8HbDialog13contentWidgetEv @ 4219 NONAME
	_ZNK8HbDialog13headingWidgetEv @ 4220 NONAME
	_ZNK8HbDialog13primaryActionEv @ 4221 NONAME
	_ZNK8HbDialog15secondaryActionEv @ 4222 NONAME
	_ZNK8HbWidget12keyFocusModeEv @ 4223 NONAME
	_ZNK8HbWidget15focusDelegationEv @ 4224 NONAME
	_ZNK8HbWidget15hasFocusLoopingEv @ 4225 NONAME
	_ZNK8HbWidget16lastFocusedChildEv @ 4226 NONAME
	_ZNK8HbWidget20keyForFocusNextChildEv @ 4227 NONAME
	_ZNK8HbWidget24keyForFocusPreviousChildEv @ 4228 NONAME
	_ZNK8HbWidget9focusModeEv @ 4229 NONAME
	_ZTI10HbTitleBar @ 4230 NONAME
	_ZTI12HbDockWidget @ 4231 NONAME
	_ZTI12HbFocusGroup @ 4232 NONAME
	_ZTI12HbWidgetBase @ 4233 NONAME
	_ZTI15HbDialogPrivate @ 4234 NONAME
	_ZTI16HbTitleBarHandle @ 4235 NONAME
	_ZTI17HbPluginNameCache @ 4236 NONAME
	_ZTI19HbViewActionManager @ 4237 NONAME
	_ZTI19HbWidgetBasePrivate @ 4238 NONAME
	_ZTI24HbFormattedNumbersFilter @ 4239 NONAME
	_ZTI8HbDialog @ 4240 NONAME
	_ZTV10HbTitleBar @ 4241 NONAME
	_ZTV12HbDockWidget @ 4242 NONAME
	_ZTV12HbFocusGroup @ 4243 NONAME
	_ZTV12HbWidgetBase @ 4244 NONAME
	_ZTV15HbDialogPrivate @ 4245 NONAME
	_ZTV16HbTitleBarHandle @ 4246 NONAME
	_ZTV17HbPluginNameCache @ 4247 NONAME
	_ZTV19HbViewActionManager @ 4248 NONAME
	_ZTV19HbWidgetBasePrivate @ 4249 NONAME
	_ZTV24HbFormattedNumbersFilter @ 4250 NONAME
	_ZTV8HbDialog @ 4251 NONAME
	_ZThn16_N10HbTextItem11setGeometryERK6QRectF @ 4252 NONAME
	_ZThn16_N10HbTitleBarD0Ev @ 4253 NONAME
	_ZThn16_N10HbTitleBarD1Ev @ 4254 NONAME
	_ZThn16_N12HbDockWidgetD0Ev @ 4255 NONAME
	_ZThn16_N12HbDockWidgetD1Ev @ 4256 NONAME
	_ZThn16_N12HbWidgetBaseD0Ev @ 4257 NONAME
	_ZThn16_N12HbWidgetBaseD1Ev @ 4258 NONAME
	_ZThn16_N16HbTitleBarHandleD0Ev @ 4259 NONAME
	_ZThn16_N16HbTitleBarHandleD1Ev @ 4260 NONAME
	_ZThn16_N8HbDialogD0Ev @ 4261 NONAME
	_ZThn16_N8HbDialogD1Ev @ 4262 NONAME
	_ZThn16_NK16HbTitleBarHandle8sizeHintEN2Qt8SizeHintERK6QSizeF @ 4263 NONAME ABSENT
	_ZThn8_N10HbTitleBarD0Ev @ 4264 NONAME
	_ZThn8_N10HbTitleBarD1Ev @ 4265 NONAME
	_ZThn8_N12HbDockWidget10itemChangeEN13QGraphicsItem18GraphicsItemChangeERK8QVariant @ 4266 NONAME
	_ZThn8_N12HbDockWidgetD0Ev @ 4267 NONAME
	_ZThn8_N12HbDockWidgetD1Ev @ 4268 NONAME
	_ZThn8_N12HbWidgetBaseD0Ev @ 4269 NONAME
	_ZThn8_N12HbWidgetBaseD1Ev @ 4270 NONAME
	_ZThn8_N14HbTreeViewItem17mouseReleaseEventEP24QGraphicsSceneMouseEvent @ 4271 NONAME ABSENT
	_ZThn8_N16HbTitleBarHandle5paintEP8QPainterPK24QStyleOptionGraphicsItemP7QWidget @ 4272 NONAME
	_ZThn8_N16HbTitleBarHandleD0Ev @ 4273 NONAME
	_ZThn8_N16HbTitleBarHandleD1Ev @ 4274 NONAME
	_ZThn8_N8HbDialog12focusInEventEP11QFocusEvent @ 4275 NONAME
	_ZThn8_N8HbDialogD0Ev @ 4276 NONAME
	_ZThn8_N8HbDialogD1Ev @ 4277 NONAME
	_Z6hbTrIdPKci @ 4278 NONAME
	_ZN11HbPopupBase12setFrameTypeENS_9FrameTypeE @ 4279 NONAME ABSENT
	_ZN12HbMainWindow12previousViewEv @ 4280 NONAME ABSENT
	_ZN12HbMainWindow17toggleOrientationEv @ 4281 NONAME ABSENT
	_ZN12HbMainWindow8nextViewEv @ 4282 NONAME ABSENT
	_ZN12HbScrollArea17takeContentWidgetEv @ 4283 NONAME
	_ZN13HbInputMethod9focusLostEb @ 4284 NONAME
	_ZN13HbMarqueeItem10itemChangeEN13QGraphicsItem18GraphicsItemChangeERK8QVariant @ 4285 NONAME
	_ZN13HbMarqueeItem10timerEventEP11QTimerEvent @ 4286 NONAME ABSENT
	_ZN13HbMarqueeItem11changeEventEP6QEvent @ 4287 NONAME
	_ZN13HbMarqueeItem11qt_metacallEN11QMetaObject4CallEiPPv @ 4288 NONAME
	_ZN13HbMarqueeItem11qt_metacastEPKc @ 4289 NONAME
	_ZN13HbMarqueeItem11resizeEventEP25QGraphicsSceneResizeEvent @ 4290 NONAME
	_ZN13HbMarqueeItem12setLoopCountEi @ 4291 NONAME
	_ZN13HbMarqueeItem13stopAnimationEv @ 4292 NONAME
	_ZN13HbMarqueeItem14startAnimationEv @ 4293 NONAME
	_ZN13HbMarqueeItem16animationStartedEv @ 4294 NONAME
	_ZN13HbMarqueeItem16animationStoppedEv @ 4295 NONAME
	_ZN13HbMarqueeItem16staticMetaObjectE @ 4296 NONAME DATA 16
	_ZN13HbMarqueeItem19getStaticMetaObjectEv @ 4297 NONAME
	_ZN13HbMarqueeItem7setTextERK7QString @ 4298 NONAME
	_ZN13HbMarqueeItemC1EP13QGraphicsItem @ 4299 NONAME
	_ZN13HbMarqueeItemC1ER20HbMarqueeItemPrivateP13QGraphicsItem @ 4300 NONAME
	_ZN13HbMarqueeItemC1ERK7QStringP13QGraphicsItem @ 4301 NONAME
	_ZN13HbMarqueeItemC2EP13QGraphicsItem @ 4302 NONAME
	_ZN13HbMarqueeItemC2ER20HbMarqueeItemPrivateP13QGraphicsItem @ 4303 NONAME
	_ZN13HbMarqueeItemC2ERK7QStringP13QGraphicsItem @ 4304 NONAME
	_ZN13HbMarqueeItemD0Ev @ 4305 NONAME
	_ZN13HbMarqueeItemD1Ev @ 4306 NONAME
	_ZN13HbMarqueeItemD2Ev @ 4307 NONAME
	_ZN14HbAbstractItemC1EP13QGraphicsItem6QFlagsIN2Qt10WindowTypeEE @ 4308 NONAME ABSENT
	_ZN14HbAbstractItemC2EP13QGraphicsItem6QFlagsIN2Qt10WindowTypeEE @ 4309 NONAME ABSENT
	_ZN18HbGridLayoutHelper11updateUnitsEv @ 4310 NONAME ABSENT
	_ZN18HbGridLayoutHelper11widgetEventEP6QEvent @ 4311 NONAME ABSENT
	_ZN18HbGridLayoutHelper21setAndRememberSpacingEf @ 4312 NONAME ABSENT
	_ZN18HbGridLayoutHelperC1EP19QGraphicsLayoutItem @ 4313 NONAME ABSENT
	_ZN18HbGridLayoutHelperC2EP19QGraphicsLayoutItem @ 4314 NONAME ABSENT
	_ZN18HbGridLayoutHelperD0Ev @ 4315 NONAME ABSENT
	_ZN18HbGridLayoutHelperD1Ev @ 4316 NONAME ABSENT
	_ZN18HbGridLayoutHelperD2Ev @ 4317 NONAME ABSENT
	_ZN18HbToolBarExtension11setGeometryERK6QRectF @ 4318 NONAME ABSENT
	_ZN19HbScrollAreaPrivate19hideChildComponentsEv @ 4319 NONAME
	_ZN20HbAnchorLayoutHelper11updateUnitsEv @ 4320 NONAME ABSENT
	_ZN20HbAnchorLayoutHelper11widgetEventEP6QEvent @ 4321 NONAME ABSENT
	_ZN20HbAnchorLayoutHelper20setAndRememberAnchorEP19QGraphicsLayoutItemN2Hb4EdgeES1_S3_f @ 4322 NONAME ABSENT
	_ZN20HbAnchorLayoutHelperC1EP19QGraphicsLayoutItem @ 4323 NONAME ABSENT
	_ZN20HbAnchorLayoutHelperC2EP19QGraphicsLayoutItem @ 4324 NONAME ABSENT
	_ZN20HbAnchorLayoutHelperD0Ev @ 4325 NONAME ABSENT
	_ZN20HbAnchorLayoutHelperD1Ev @ 4326 NONAME ABSENT
	_ZN20HbAnchorLayoutHelperD2Ev @ 4327 NONAME ABSENT
	_ZN20HbDeviceDialogServer13setMainWindowEP12HbMainWindow @ 4328 NONAME
	_ZN20HbLinearLayoutHelper11updateUnitsEv @ 4329 NONAME ABSENT
	_ZN20HbLinearLayoutHelper11widgetEventEP6QEvent @ 4330 NONAME ABSENT
	_ZN20HbLinearLayoutHelper21setAndRememberSpacingEf @ 4331 NONAME ABSENT
	_ZN20HbLinearLayoutHelper25setAndRememberItemSpacingEif @ 4332 NONAME ABSENT
	_ZN20HbLinearLayoutHelperC1EN2Qt11OrientationEP19QGraphicsLayoutItem @ 4333 NONAME ABSENT
	_ZN20HbLinearLayoutHelperC1EP19QGraphicsLayoutItem @ 4334 NONAME ABSENT
	_ZN20HbLinearLayoutHelperC2EN2Qt11OrientationEP19QGraphicsLayoutItem @ 4335 NONAME ABSENT
	_ZN20HbLinearLayoutHelperC2EP19QGraphicsLayoutItem @ 4336 NONAME ABSENT
	_ZN20HbLinearLayoutHelperD0Ev @ 4337 NONAME ABSENT
	_ZN20HbLinearLayoutHelperD1Ev @ 4338 NONAME ABSENT
	_ZN20HbLinearLayoutHelperD2Ev @ 4339 NONAME ABSENT
	_ZN21HbEffectFxmlParamData10setLoopEndEf @ 4340 NONAME
	_ZN21HbEffectFxmlParamData12setLoopStartEf @ 4341 NONAME
	_ZN22HbAbstractLayoutHelper11updateUnitsEv @ 4342 NONAME ABSENT
	_ZN22HbAbstractLayoutHelper11widgetEventEP6QEventP19QGraphicsLayoutItem @ 4343 NONAME ABSENT
	_ZN22HbAbstractLayoutHelper15getNewUnitValueEP19QGraphicsLayoutItem @ 4344 NONAME ABSENT
	_ZN22HbAbstractLayoutHelper9unitValueEv @ 4345 NONAME ABSENT
	_ZN22HbAbstractLayoutHelperC1EP19QGraphicsLayoutItem @ 4346 NONAME ABSENT
	_ZN22HbAbstractLayoutHelperC2EP19QGraphicsLayoutItem @ 4347 NONAME ABSENT
	_ZN22HbAbstractLayoutHelperD0Ev @ 4348 NONAME ABSENT
	_ZN22HbAbstractLayoutHelperD1Ev @ 4349 NONAME ABSENT
	_ZN22HbAbstractLayoutHelperD2Ev @ 4350 NONAME ABSENT
	_ZN25HbStyleOptionRatingSliderC1ERKS_ @ 4351 NONAME
	_ZN25HbStyleOptionRatingSliderC1Ev @ 4352 NONAME
	_ZN25HbStyleOptionRatingSliderC2ERKS_ @ 4353 NONAME
	_ZN25HbStyleOptionRatingSliderC2Ev @ 4354 NONAME
	_ZN25HbStyleOptionRatingSliderD1Ev @ 4355 NONAME
	_ZN25HbStyleOptionRatingSliderD2Ev @ 4356 NONAME
	_ZNK11HbPopupBase9frameTypeEv @ 4357 NONAME ABSENT
	_ZNK12HbMainWindow5viewsEv @ 4358 NONAME
	_ZNK13HbMarqueeItem10metaObjectEv @ 4359 NONAME
	_ZNK13HbMarqueeItem11isAnimatingEv @ 4360 NONAME
	_ZNK13HbMarqueeItem4textEv @ 4361 NONAME
	_ZNK13HbMarqueeItem8sizeHintEN2Qt8SizeHintERK6QSizeF @ 4362 NONAME
	_ZNK13HbMarqueeItem9loopCountEv @ 4363 NONAME
	_ZNK21HbEffectFxmlParamData11loopDefinedEv @ 4364 NONAME
	_ZNK21HbEffectFxmlParamData7loopEndEv @ 4365 NONAME
	_ZNK21HbEffectFxmlParamData9loopStartEv @ 4366 NONAME
	_ZNK25HbXmlLoaderAbstractSyntax8toPixelsERK7QStringRfPf @ 4367 NONAME ABSENT
	_ZNK6HbMenu8menuTypeEv @ 4368 NONAME
	_ZTI13HbMarqueeItem @ 4369 NONAME
	_ZTI18HbGridLayoutHelper @ 4370 NONAME ABSENT
	_ZTI20HbAnchorLayoutHelper @ 4371 NONAME ABSENT
	_ZTI20HbLinearLayoutHelper @ 4372 NONAME ABSENT
	_ZTI22HbAbstractLayoutHelper @ 4373 NONAME ABSENT
	_ZTV13HbMarqueeItem @ 4374 NONAME
	_ZTV18HbGridLayoutHelper @ 4375 NONAME ABSENT
	_ZTV20HbAnchorLayoutHelper @ 4376 NONAME ABSENT
	_ZTV20HbLinearLayoutHelper @ 4377 NONAME ABSENT
	_ZTV22HbAbstractLayoutHelper @ 4378 NONAME ABSENT
	_ZThn12_N20HbAnchorLayoutHelper11updateUnitsEv @ 4379 NONAME ABSENT
	_ZThn12_N20HbAnchorLayoutHelperD0Ev @ 4380 NONAME ABSENT
	_ZThn12_N20HbAnchorLayoutHelperD1Ev @ 4381 NONAME ABSENT
	_ZThn16_N13HbMarqueeItemD0Ev @ 4382 NONAME
	_ZThn16_N13HbMarqueeItemD1Ev @ 4383 NONAME
	_ZThn16_N18HbToolBarExtension11setGeometryERK6QRectF @ 4384 NONAME ABSENT
	_ZThn16_NK13HbMarqueeItem8sizeHintEN2Qt8SizeHintERK6QSizeF @ 4385 NONAME
	_ZThn8_N13HbMarqueeItem10itemChangeEN13QGraphicsItem18GraphicsItemChangeERK8QVariant @ 4386 NONAME
	_ZThn8_N13HbMarqueeItemD0Ev @ 4387 NONAME
	_ZThn8_N13HbMarqueeItemD1Ev @ 4388 NONAME
	_ZThn8_N18HbGridLayoutHelper11updateUnitsEv @ 4389 NONAME ABSENT
	_ZThn8_N18HbGridLayoutHelperD0Ev @ 4390 NONAME ABSENT
	_ZThn8_N18HbGridLayoutHelperD1Ev @ 4391 NONAME ABSENT
	_ZThn8_N20HbLinearLayoutHelper11updateUnitsEv @ 4392 NONAME ABSENT
	_ZThn8_N20HbLinearLayoutHelperD0Ev @ 4393 NONAME ABSENT
	_ZThn8_N20HbLinearLayoutHelperD1Ev @ 4394 NONAME ABSENT
	_ZN10HbFeedback16staticMetaObjectE @ 4395 NONAME DATA 16
	_ZN10HbFeedback19getStaticMetaObjectEv @ 4396 NONAME
	_ZN10HbTextItem11qt_metacallEN11QMetaObject4CallEiPPv @ 4397 NONAME
	_ZN10HbTextItem11qt_metacastEPKc @ 4398 NONAME
	_ZN10HbTextItem11setTextClipEb @ 4399 NONAME
	_ZN10HbTextItem14setTextVisibleEb @ 4400 NONAME
	_ZN10HbTextItem15setTextWrappingEN2Hb12TextWrappingE @ 4401 NONAME
	_ZN10HbTextItem16staticMetaObjectE @ 4402 NONAME DATA 16
	_ZN10HbTextItem19getStaticMetaObjectEv @ 4403 NONAME
	_ZN10HbTitleBar18currentViewChangedEP6HbView @ 4404 NONAME
	_ZN10HbTitleBar20titleBarStateChangedEv @ 4405 NONAME
	_ZN10HbTitleBar25titleBarPropertiesChangedEv @ 4406 NONAME ABSENT
	_ZN11HbMappedKeyC1Ev @ 4407 NONAME
	_ZN11HbMappedKeyC2Ev @ 4408 NONAME
	_ZN11HbMappedKeyD1Ev @ 4409 NONAME
	_ZN11HbMappedKeyD2Ev @ 4410 NONAME
	_ZN11HbPopupBaseC1ER14HbPopupPrivateP13QGraphicsItem @ 4411 NONAME ABSENT
	_ZN11HbPopupBaseC2ER14HbPopupPrivateP13QGraphicsItem @ 4412 NONAME ABSENT
	_ZN12HbInputUtils34findFirstNumberCharacterBoundToKeyEPK11HbMappedKey15HbInputLanguage16HbInputDigitType @ 4413 NONAME
	_ZN12HbWidgetBase11setFontSpecERK10HbFontSpec @ 4414 NONAME
	_ZN12HbWidgetBase5eventEP6QEvent @ 4415 NONAME
	_ZN13HbApplication18symbianEventFilterEPK13QSymbianEvent @ 4416 NONAME
	_ZN13HbColorScheme5colorEPK15QGraphicsWidgetRK7QString @ 4417 NONAME ABSENT
	_ZN13HbColorScheme5colorERK7QString @ 4418 NONAME
	_ZN13HbInputMethod12hasInputModeERK21HbInputModeProperties @ 4419 NONAME ABSENT
	_ZN13HbInputMethod21activeKeyboardChangedE6QFlagsI18HbKeyboardTypeFlagE @ 4420 NONAME
	_ZN14HbIconAnimator7setIconERK6HbIcon @ 4421 NONAME
	_ZN14HbIconAnimatorC1EP13QGraphicsItem @ 4422 NONAME
	_ZN14HbIconAnimatorC1Ev @ 4423 NONAME
	_ZN14HbIconAnimatorC2EP13QGraphicsItem @ 4424 NONAME
	_ZN14HbIconAnimatorC2Ev @ 4425 NONAME
	_ZN14HbPopupPrivate11setPriorityEh @ 4426 NONAME
	_ZN14HbPopupPrivate12timeoutValueEN7HbPopup14DefaultTimeoutE @ 4427 NONAME ABSENT
	_ZN14HbPopupPrivate14_q_delayedHideEN8HbEffect12EffectStatusE @ 4428 NONAME
	_ZN14HbPopupPrivate14handleKeyEventEP9QKeyEvent @ 4429 NONAME ABSENT
	_ZN14HbPopupPrivate18_q_timeoutFinishedEv @ 4430 NONAME
	_ZN14HbPopupPrivate31handleBackgroundMousePressEventEv @ 4431 NONAME
	_ZN14HbPopupPrivate33handleBackgroundMouseReleaseEventEP24QGraphicsSceneMouseEvent @ 4432 NONAME
	_ZN14HbPopupPrivate9forceHideEv @ 4433 NONAME
	_ZN14HbRichTextItem11changeEventEP6QEvent @ 4434 NONAME
	_ZN14HbRichTextItem11resizeEventEP25QGraphicsSceneResizeEvent @ 4435 NONAME
	_ZN14HbRichTextItem11setGeometryERK6QRectF @ 4436 NONAME
	_ZN14HbRichTextItem11setTextClipEb @ 4437 NONAME
	_ZN14HbRichTextItem14setTextVisibleEb @ 4438 NONAME
	_ZN14HbRichTextItem15setTextWrappingEN2Hb12TextWrappingE @ 4439 NONAME
	_ZN14HbRichTextItem19setTextDefaultColorERK6QColor @ 4440 NONAME
	_ZN15HbGVWrapperItem5paintEP8QPainterPK24QStyleOptionGraphicsItemP7QWidget @ 4441 NONAME
	_ZN15HbGVWrapperItemC1Ev @ 4442 NONAME
	_ZN15HbGVWrapperItemC2Ev @ 4443 NONAME
	_ZN15HbInputLanguage10fromStringERK7QString @ 4444 NONAME
	_ZN15HbKeymapFactory18availableLanguagesEv @ 4445 NONAME
	_ZN15HbKeymapFactory6keymapEN7QLocale8LanguageENS0_7CountryE @ 4446 NONAME
	_ZN15HbKeymapFactory8instanceEv @ 4447 NONAME
	_ZN15HbKeymapFactoryC1Ev @ 4448 NONAME
	_ZN15HbKeymapFactoryC2Ev @ 4449 NONAME
	_ZN15HbKeymapFactoryD1Ev @ 4450 NONAME
	_ZN15HbKeymapFactoryD2Ev @ 4451 NONAME
	_ZN16HbFeedbackEngine10setManagerEP17HbFeedbackManager @ 4452 NONAME
	_ZN16HbFeedbackEngine11draggedOverEPK8HbWidget @ 4453 NONAME
	_ZN16HbFeedbackEngine11keyRepeatedEPK8HbWidget @ 4454 NONAME
	_ZN16HbFeedbackEngine11longPressedEPK8HbWidget @ 4455 NONAME
	_ZN16HbFeedbackEngine11popupClosedEPK8HbWidget @ 4456 NONAME
	_ZN16HbFeedbackEngine11popupOpenedEPK8HbWidget @ 4457 NONAME
	_ZN16HbFeedbackEngine11qt_metacallEN11QMetaObject4CallEiPPv @ 4458 NONAME
	_ZN16HbFeedbackEngine11qt_metacastEPKc @ 4459 NONAME
	_ZN16HbFeedbackEngine15boundaryReachedEPK8HbWidget @ 4460 NONAME
	_ZN16HbFeedbackEngine16rotated90DegreesEPK8HbWidget @ 4461 NONAME
	_ZN16HbFeedbackEngine16selectionChangedEPK8HbWidget @ 4462 NONAME
	_ZN16HbFeedbackEngine16staticMetaObjectE @ 4463 NONAME DATA 16
	_ZN16HbFeedbackEngine17continuousStoppedEPK8HbWidgetN2Hb21ContinuousInteractionE @ 4464 NONAME
	_ZN16HbFeedbackEngine19continuousTriggeredEPK8HbWidgetN2Hb21ContinuousInteractionE7QPointF @ 4465 NONAME
	_ZN16HbFeedbackEngine19getStaticMetaObjectEv @ 4466 NONAME
	_ZN16HbFeedbackEngine20receivesInteractionsEv @ 4467 NONAME
	_ZN16HbFeedbackEngine23setReceivesInteractionsEb @ 4468 NONAME
	_ZN16HbFeedbackEngine27receivesInteractionsChangedEb @ 4469 NONAME
	_ZN16HbFeedbackEngine5eventEP6QEvent @ 4470 NONAME
	_ZN16HbFeedbackEngine7clickedEPK8HbWidget @ 4471 NONAME
	_ZN16HbFeedbackEngine7flickedEPK8HbWidget @ 4472 NONAME
	_ZN16HbFeedbackEngine7pressedEPK8HbWidget @ 4473 NONAME
	_ZN16HbFeedbackEngine8releasedEPK8HbWidget @ 4474 NONAME
	_ZN16HbFeedbackEngine9modifiersEv @ 4475 NONAME
	_ZN16HbFeedbackEngine9triggeredEPK8HbWidgetN2Hb18InstantInteractionE6QFlagsINS3_19InteractionModifierEE @ 4476 NONAME
	_ZN16HbFeedbackEngineC1EP17HbFeedbackManager @ 4477 NONAME
	_ZN16HbFeedbackEngineC1Ev @ 4478 NONAME
	_ZN16HbFeedbackEngineC2EP17HbFeedbackManager @ 4479 NONAME
	_ZN16HbFeedbackEngineC2Ev @ 4480 NONAME
	_ZN16HbFeedbackEngineD0Ev @ 4481 NONAME
	_ZN16HbFeedbackEngineD1Ev @ 4482 NONAME
	_ZN16HbFeedbackEngineD2Ev @ 4483 NONAME
	_ZN16HbFeedbackPlugin11qt_metacallEN11QMetaObject4CallEiPPv @ 4484 NONAME
	_ZN16HbFeedbackPlugin11qt_metacastEPKc @ 4485 NONAME
	_ZN16HbFeedbackPlugin14setFeatureNameERK7QString @ 4486 NONAME
	_ZN16HbFeedbackPlugin16staticMetaObjectE @ 4487 NONAME DATA 16
	_ZN16HbFeedbackPlugin19getStaticMetaObjectEv @ 4488 NONAME
	_ZN16HbFeedbackPluginC2ERK7QString @ 4489 NONAME
	_ZN16HbFeedbackPluginC2Ev @ 4490 NONAME
	_ZN16HbFeedbackPluginD0Ev @ 4491 NONAME
	_ZN16HbFeedbackPluginD1Ev @ 4492 NONAME
	_ZN16HbFeedbackPluginD2Ev @ 4493 NONAME
	_ZN16HbInputModeCache12setUpModeSetER7QVectorI21HbInputModePropertiesE @ 4494 NONAME ABSENT
	_ZN16HbInputModeCache13resolvePluginERK21HbInputModePropertiesR7QStringS4_ @ 4495 NONAME ABSENT
	_ZN16HbInputModeCache14defaultModeSetER7QVectorI21HbInputModePropertiesE @ 4496 NONAME ABSENT
	_ZN16HbInputModeCache8instanceERK21HbInputModeProperties @ 4497 NONAME ABSENT
	_ZN16HbPredictionBase14setCurrentWordERK7QStringP20HbPredictionCallback @ 4498 NONAME ABSENT
	_ZN16HbPredictionBase17supportedFeaturesEv @ 4499 NONAME ABSENT
	_ZN16HbWidgetFeedback17continuousStoppedEPK8HbWidgetN2Hb21ContinuousInteractionE @ 4500 NONAME
	_ZN16HbWidgetFeedback19continuousTriggeredEPK8HbWidgetN2Hb21ContinuousInteractionE7QPointF @ 4501 NONAME
	_ZN16HbWidgetFeedback9triggeredEPK8HbWidgetN2Hb18InstantInteractionE6QFlagsINS3_19InteractionModifierEE @ 4502 NONAME
	_ZN17HbFeedbackManager11qt_metacallEN11QMetaObject4CallEiPPv @ 4503 NONAME
	_ZN17HbFeedbackManager11qt_metacastEPKc @ 4504 NONAME
	_ZN17HbFeedbackManager16staticMetaObjectE @ 4505 NONAME DATA 16
	_ZN17HbFeedbackManager17continuousStoppedEPK8HbWidgetN2Hb21ContinuousInteractionE @ 4506 NONAME
	_ZN17HbFeedbackManager19continuousTriggeredEPK8HbWidgetN2Hb21ContinuousInteractionE7QPointF @ 4507 NONAME
	_ZN17HbFeedbackManager19getStaticMetaObjectEv @ 4508 NONAME
	_ZN17HbFeedbackManager20receivesInteractionsEP16HbFeedbackEngine @ 4509 NONAME
	_ZN17HbFeedbackManager23setReceivesInteractionsEP16HbFeedbackEngineb @ 4510 NONAME
	_ZN17HbFeedbackManager26registerInstantInteractionEv @ 4511 NONAME
	_ZN17HbFeedbackManager29registerContinuousInteractionEv @ 4512 NONAME
	_ZN17HbFeedbackManager7pluginsEv @ 4513 NONAME
	_ZN17HbFeedbackManager8instanceEv @ 4514 NONAME
	_ZN17HbFeedbackManager9triggeredEPK8HbWidgetN2Hb18InstantInteractionE6QFlagsINS3_19InteractionModifierEE @ 4515 NONAME
	_ZN17HbFeedbackManagerC1EP7QObject @ 4516 NONAME
	_ZN17HbFeedbackManagerC2EP7QObject @ 4517 NONAME
	_ZN17HbFeedbackManagerD0Ev @ 4518 NONAME
	_ZN17HbFeedbackManagerD1Ev @ 4519 NONAME
	_ZN17HbFeedbackManagerD2Ev @ 4520 NONAME
	_ZN17HbInputMethodNull14listInputModesER7QVectorI21HbInputModePropertiesE @ 4521 NONAME ABSENT
	_ZN17HbPluginNameCacheC1EPF11QStringListP7QObjectEPF7QStringvES2_ @ 4522 NONAME
	_ZN17HbPluginNameCacheC2EPF11QStringListP7QObjectEPF7QStringvES2_ @ 4523 NONAME
	_ZN17HbSignalIndicator28networkSignalStrengthChangedEN19HbSystemNetworkInfo11NetworkModeEi @ 4524 NONAME ABSENT
	_ZN18HbBatteryIndicator10timerEventEP11QTimerEvent @ 4525 NONAME
	_ZN18HbBatteryIndicator17powerStateChangedEN18HbSystemDeviceInfo10PowerStateE @ 4526 NONAME ABSENT
	_ZN18HbSystemDeviceInfo11qt_metacallEN11QMetaObject4CallEiPPv @ 4527 NONAME ABSENT
	_ZN18HbSystemDeviceInfo11qt_metacastEPKc @ 4528 NONAME ABSENT
	_ZN18HbSystemDeviceInfo16staticMetaObjectE @ 4529 NONAME DATA 16 ABSENT
	_ZN18HbSystemDeviceInfo17powerStateChangedENS_10PowerStateE @ 4530 NONAME ABSENT
	_ZN18HbSystemDeviceInfo19batteryLevelChangedEi @ 4531 NONAME ABSENT
	_ZN18HbSystemDeviceInfo19getStaticMetaObjectEv @ 4532 NONAME ABSENT
	_ZN18HbSystemDeviceInfo20batteryStatusChangedENS_13BatteryStatusE @ 4533 NONAME ABSENT
	_ZN18HbSystemDeviceInfo21bluetoothStateChangedEb @ 4534 NONAME ABSENT
	_ZN18HbSystemDeviceInfo21currentProfileChangedENS_7ProfileE @ 4535 NONAME ABSENT
	_ZN18HbSystemDeviceInfoC1EP7QObject @ 4536 NONAME ABSENT
	_ZN18HbSystemDeviceInfoC2EP7QObject @ 4537 NONAME ABSENT
	_ZN18HbSystemDeviceInfoD0Ev @ 4538 NONAME ABSENT
	_ZN18HbSystemDeviceInfoD1Ev @ 4539 NONAME ABSENT
	_ZN18HbSystemDeviceInfoD2Ev @ 4540 NONAME ABSENT
	_ZN19HbInputSettingProxy17setActiveKeyboardE6QFlagsI18HbKeyboardTypeFlagE @ 4541 NONAME
	_ZN19HbInputSettingProxy21activeKeyboardChangedE6QFlagsI18HbKeyboardTypeFlagE @ 4542 NONAME ABSENT
	_ZN19HbScrollAreaPrivate14startAnimatingEv @ 4543 NONAME
	_ZN19HbSystemNetworkInfo11qt_metacallEN11QMetaObject4CallEiPPv @ 4544 NONAME ABSENT
	_ZN19HbSystemNetworkInfo11qt_metacastEPKc @ 4545 NONAME ABSENT
	_ZN19HbSystemNetworkInfo16staticMetaObjectE @ 4546 NONAME DATA 16 ABSENT
	_ZN19HbSystemNetworkInfo18networkModeChangedENS_11NetworkModeE @ 4547 NONAME ABSENT
	_ZN19HbSystemNetworkInfo18networkNameChangedENS_11NetworkModeERK7QString @ 4548 NONAME ABSENT
	_ZN19HbSystemNetworkInfo19getStaticMetaObjectEv @ 4549 NONAME ABSENT
	_ZN19HbSystemNetworkInfo20networkStatusChangedENS_11NetworkModeENS_13NetworkStatusE @ 4550 NONAME ABSENT
	_ZN19HbSystemNetworkInfo28networkSignalStrengthChangedENS_11NetworkModeEi @ 4551 NONAME ABSENT
	_ZN19HbSystemNetworkInfo31currentMobileCountryCodeChangedERK7QString @ 4552 NONAME ABSENT
	_ZN19HbSystemNetworkInfo31currentMobileNetworkCodeChangedERK7QString @ 4553 NONAME ABSENT
	_ZN19HbSystemNetworkInfoC1EP7QObject @ 4554 NONAME ABSENT
	_ZN19HbSystemNetworkInfoC2EP7QObject @ 4555 NONAME ABSENT
	_ZN19HbSystemNetworkInfoD0Ev @ 4556 NONAME ABSENT
	_ZN19HbSystemNetworkInfoD1Ev @ 4557 NONAME ABSENT
	_ZN19HbSystemNetworkInfoD2Ev @ 4558 NONAME ABSENT
	_ZN19HbWidgetBasePrivate15fontChangeEventEv @ 4559 NONAME ABSENT
	_ZN19HbWidgetBasePrivate4initEv @ 4560 NONAME
	_ZN20HbWidgetLoaderSyntax13processLayoutEv @ 4561 NONAME ABSENT
	_ZN20HbWidgetLoaderSyntax15processDocumentEv @ 4562 NONAME ABSENT
	_ZN20HbWidgetLoaderSyntax19readLayoutStartItemEv @ 4563 NONAME ABSENT
	_ZN20HbWidgetLoaderSyntax4loadEP9QIODeviceRK7QStringS4_ @ 4564 NONAME ABSENT
	_ZN20HbWidgetLoaderSyntax7versionEv @ 4565 NONAME ABSENT
	_ZN20HbWidgetLoaderSyntaxC1EP21HbWidgetLoaderActions @ 4566 NONAME ABSENT
	_ZN20HbWidgetLoaderSyntaxC2EP21HbWidgetLoaderActions @ 4567 NONAME ABSENT
	_ZN20HbWidgetLoaderSyntaxD0Ev @ 4568 NONAME ABSENT
	_ZN20HbWidgetLoaderSyntaxD1Ev @ 4569 NONAME ABSENT
	_ZN20HbWidgetLoaderSyntaxD2Ev @ 4570 NONAME ABSENT
	_ZN21HbFeedbackPluginGroup11loadPluginsE7QString @ 4571 NONAME ABSENT
	_ZN21HbFeedbackPluginGroup11loadPluginsEv @ 4572 NONAME
	_ZN21HbFeedbackPluginGroup11qt_metacallEN11QMetaObject4CallEiPPv @ 4573 NONAME
	_ZN21HbFeedbackPluginGroup11qt_metacastEPKc @ 4574 NONAME
	_ZN21HbFeedbackPluginGroup13enableFeatureE7QString @ 4575 NONAME
	_ZN21HbFeedbackPluginGroup13removePluginsEv @ 4576 NONAME
	_ZN21HbFeedbackPluginGroup14disableFeatureE7QString @ 4577 NONAME
	_ZN21HbFeedbackPluginGroup16isFeatureEnabledE7QString @ 4578 NONAME
	_ZN21HbFeedbackPluginGroup16staticMetaObjectE @ 4579 NONAME DATA 16
	_ZN21HbFeedbackPluginGroup18isFeatureSupportedE7QString @ 4580 NONAME
	_ZN21HbFeedbackPluginGroup19getStaticMetaObjectEv @ 4581 NONAME
	_ZN21HbFeedbackPluginGroup9addPluginEP16HbFeedbackPlugin @ 4582 NONAME
	_ZN21HbFeedbackPluginGroupC1ER17HbFeedbackManager @ 4583 NONAME
	_ZN21HbFeedbackPluginGroupC2ER17HbFeedbackManager @ 4584 NONAME
	_ZN21HbFeedbackPluginGroupD0Ev @ 4585 NONAME
	_ZN21HbFeedbackPluginGroupD1Ev @ 4586 NONAME
	_ZN21HbFeedbackPluginGroupD2Ev @ 4587 NONAME
	_ZN21HbRichTextItemPrivate15calculateOffsetEv @ 4588 NONAME
	_ZN21HbRichTextItemPrivate18setDefaultDocColorE6QColor @ 4589 NONAME ABSENT
	_ZN21HbRichTextItemPrivate18setLayoutDirectionEN2Qt15LayoutDirectionE @ 4590 NONAME ABSENT
	_ZN21HbRichTextItemPrivate4initEv @ 4591 NONAME
	_ZN21HbRichTextItemPrivate5clearEv @ 4592 NONAME
	_ZN21HbRichTextItemPrivate7setSizeERK6QSizeF @ 4593 NONAME ABSENT
	_ZN21HbRichTextItemPrivateC1Ev @ 4594 NONAME
	_ZN21HbRichTextItemPrivateC2Ev @ 4595 NONAME
	_ZN21HbRichTextItemPrivateD0Ev @ 4596 NONAME
	_ZN21HbRichTextItemPrivateD1Ev @ 4597 NONAME
	_ZN21HbRichTextItemPrivateD2Ev @ 4598 NONAME
	_ZN21HbWidgetLoaderActions10mCacheNameE @ 4599 NONAME DATA 4 ABSENT
	_ZN21HbWidgetLoaderActions12mCacheLayoutE @ 4600 NONAME DATA 4 ABSENT
	_ZN21HbWidgetLoaderActions13mCacheSectionE @ 4601 NONAME DATA 4 ABSENT
	_ZN21HbWidgetLoaderActions14mCacheFileNameE @ 4602 NONAME DATA 4 ABSENT
	_ZN21HbWidgetLoaderActions14mCacheModifiedE @ 4603 NONAME DATA 4 ABSENT
	_ZN21HbWidgetLoaderActions16createMeshLayoutEv @ 4604 NONAME ABSENT
	_ZN21HbWidgetLoaderActions17addMeshLayoutEdgeERK7QStringS2_S2_S2_S2_ @ 4605 NONAME ABSENT
	_ZN21HbWidgetLoaderActions18getMeshItemsOffsetEv @ 4606 NONAME ABSENT
	_ZN21HbWidgetLoaderActions18setMeshItemsOffsetEi @ 4607 NONAME ABSENT
	_ZN21HbWidgetLoaderActions21updateWidgetFromCacheEv @ 4608 NONAME ABSENT
	_ZN21HbWidgetLoaderActions28updateWidgetFromSharedMemoryEP8HbVectorI8MeshItemE @ 4609 NONAME ABSENT
	_ZN21HbWidgetLoaderActionsC1EN15HbMemoryManager10MemoryTypeE @ 4610 NONAME ABSENT
	_ZN21HbWidgetLoaderActionsC2EN15HbMemoryManager10MemoryTypeE @ 4611 NONAME ABSENT
	_ZN21HbWidgetLoaderActionsD0Ev @ 4612 NONAME ABSENT
	_ZN21HbWidgetLoaderActionsD1Ev @ 4613 NONAME ABSENT
	_ZN21HbWidgetLoaderActionsD2Ev @ 4614 NONAME ABSENT
	_ZN25HbXmlLoaderAbstractSyntax10loadDeviceEP9QIODeviceRK7QString @ 4615 NONAME ABSENT
	_ZN26HbInputSettingProxyPrivate10flipStatusEv @ 4616 NONAME ABSENT
	_ZN26HbInputSettingProxyPrivate10flipToggleEv @ 4617 NONAME ABSENT
	_ZN26HbInputSettingProxyPrivate12dataFilePathEv @ 4618 NONAME
	_ZN26HbInputSettingProxyPrivate13setFlipStatusEb @ 4619 NONAME ABSENT
	_ZN26HbInputSettingProxyPrivate16shutdownDataAreaEv @ 4620 NONAME
	_ZN26HbInputSettingProxyPrivate18initializeDataAreaEv @ 4621 NONAME
	_ZN26HbInputSettingProxyPrivate19dataFileNameAndPathEv @ 4622 NONAME
	_ZN26HbInputSettingProxyPrivate44handleDeviceSpecificOriantationAndFlipChangeEv @ 4623 NONAME ABSENT
	_ZN26HbInputSettingProxyPrivate4loadEv @ 4624 NONAME ABSENT
	_ZN26HbInputSettingProxyPrivate4saveEv @ 4625 NONAME ABSENT
	_ZN26HbInputSettingProxyPrivate9proxyDataEv @ 4626 NONAME ABSENT
	_ZN26HbInputSettingProxyPrivateC1Ev @ 4627 NONAME
	_ZN26HbInputSettingProxyPrivateC2Ev @ 4628 NONAME
	_ZN26HbInputSettingProxyPrivateD1Ev @ 4629 NONAME
	_ZN26HbInputSettingProxyPrivateD2Ev @ 4630 NONAME
	_ZN27HbStyleOptionProgressDialogC1ERKS_ @ 4631 NONAME
	_ZN27HbStyleOptionProgressDialogC1Ev @ 4632 NONAME
	_ZN27HbStyleOptionProgressDialogC2ERKS_ @ 4633 NONAME
	_ZN27HbStyleOptionProgressDialogC2Ev @ 4634 NONAME
	_ZN27HbStyleOptionProgressDialogD1Ev @ 4635 NONAME
	_ZN27HbStyleOptionProgressDialogD2Ev @ 4636 NONAME
	_ZN6HbView11takeToolBarEv @ 4637 NONAME
	_ZN6HbView16setTitleBarFlagsE6QFlagsINS_14HbTitleBarFlagEE @ 4638 NONAME ABSENT
	_ZN7HbPopup10itemChangeEN13QGraphicsItem18GraphicsItemChangeERK8QVariant @ 4639 NONAME
	_ZN7HbPopup10setTimeoutENS_14DefaultTimeoutE @ 4640 NONAME
	_ZN7HbPopup10setTimeoutEi @ 4641 NONAME
	_ZN7HbPopup11aboutToHideEv @ 4642 NONAME
	_ZN7HbPopup11aboutToShowEv @ 4643 NONAME
	_ZN7HbPopup11resizeEventEP25QGraphicsSceneResizeEvent @ 4644 NONAME
	_ZN7HbPopup12aboutToCloseEv @ 4645 NONAME
	_ZN7HbPopup12setFrameTypeENS_9FrameTypeE @ 4646 NONAME
	_ZN7HbPopup13keyPressEventEP9QKeyEvent @ 4647 NONAME ABSENT
	_ZN7HbPopup15mousePressEventEP24QGraphicsSceneMouseEvent @ 4648 NONAME
	_ZN7HbPopup16setDismissPolicyENS_13DismissPolicyE @ 4649 NONAME
	_ZN7HbPopup17mouseReleaseEventEP24QGraphicsSceneMouseEvent @ 4650 NONAME
	_ZN7HbPopup18setBackgroundFadedEb @ 4651 NONAME
	_ZN7HbPopup8setModalEb @ 4652 NONAME
	_ZN7HbPopup9hideEventEP10QHideEvent @ 4653 NONAME
	_ZN7HbPopup9showEventEP10QShowEvent @ 4654 NONAME
	_ZN8HbKeymap11addKeyboardEP13HbKeyboardMap @ 4655 NONAME
	_ZN8HbKeymapC1E15HbInputLanguage @ 4656 NONAME
	_ZN8HbKeymapC2E15HbInputLanguage @ 4657 NONAME
	_ZN8HbKeymapD0Ev @ 4658 NONAME
	_ZN8HbKeymapD1Ev @ 4659 NONAME
	_ZN8HbKeymapD2Ev @ 4660 NONAME
	_ZN9HbToolBar9hideEventEP10QHideEvent @ 4661 NONAME
	_ZNK10HbTextItem10isTextClipEv @ 4662 NONAME
	_ZNK10HbTextItem10metaObjectEv @ 4663 NONAME
	_ZNK10HbTextItem12boundingRectEv @ 4664 NONAME
	_ZNK10HbTextItem12textWrappingEv @ 4665 NONAME
	_ZNK10HbTextItem13isTextVisibleEv @ 4666 NONAME
	_ZNK10HbTitleBar11minimizableEv @ 4667 NONAME
	_ZNK11HbMappedKey10charactersE6QFlagsI10HbModifierE @ 4668 NONAME
	_ZNK12HbMainWindow7elementENS_7ElementE @ 4669 NONAME ABSENT
	_ZNK12HbWidgetBase8fontSpecEv @ 4670 NONAME
	_ZNK13HbInputMethod15editorRootStateER12HbInputState @ 4671 NONAME
	_ZNK13HbInputMethod19constructLatinStateER12HbInputState @ 4672 NONAME
	_ZNK14HbIconAnimator4iconEv @ 4673 NONAME
	_ZNK14HbIconAnimator5paintEP8QPainterRK6QRectFN2Qt15AspectRatioModeE6QFlagsINS5_13AlignmentFlagEEN5QIcon4ModeENSA_5StateE @ 4674 NONAME
	_ZNK14HbRichTextItem10isTextClipEv @ 4675 NONAME
	_ZNK14HbRichTextItem12boundingRectEv @ 4676 NONAME
	_ZNK14HbRichTextItem12textWrappingEv @ 4677 NONAME
	_ZNK14HbRichTextItem13isTextVisibleEv @ 4678 NONAME
	_ZNK14HbRichTextItem16textDefaultColorEv @ 4679 NONAME
	_ZNK14HbRichTextItem8sizeHintEN2Qt8SizeHintERK6QSizeF @ 4680 NONAME
	_ZNK15HbGVWrapperItem12boundingRectEv @ 4681 NONAME
	_ZNK15HbInputLanguage8asStringEv @ 4682 NONAME
	_ZNK16HbFeedbackEngine10metaObjectEv @ 4683 NONAME
	_ZNK16HbFeedbackEngine7managerEv @ 4684 NONAME
	_ZNK16HbFeedbackPlugin10metaObjectEv @ 4685 NONAME
	_ZNK16HbFeedbackPlugin11featureNameEv @ 4686 NONAME
	_ZNK16HbPredictionBase12keyboardTypeEv @ 4687 NONAME
	_ZNK16HbPredictionBase18supportedLanguagesEv @ 4688 NONAME ABSENT
	_ZNK17HbEditorInterface19isPredictionAllowedEv @ 4689 NONAME
	_ZNK17HbFeedbackManager10metaObjectEv @ 4690 NONAME
	_ZNK18HbMultiSegmentAlgo8cellSizeEi @ 4691 NONAME ABSENT
	_ZNK18HbSystemDeviceInfo10metaObjectEv @ 4692 NONAME ABSENT
	_ZNK18HbSystemDeviceInfo11productNameEv @ 4693 NONAME ABSENT
	_ZNK18HbSystemDeviceInfo12batteryLevelEv @ 4694 NONAME ABSENT
	_ZNK18HbSystemDeviceInfo12manufacturerEv @ 4695 NONAME ABSENT
	_ZNK18HbSystemDeviceInfo13batteryStatusEv @ 4696 NONAME ABSENT
	_ZNK18HbSystemDeviceInfo14currentProfileEv @ 4697 NONAME ABSENT
	_ZNK18HbSystemDeviceInfo14isDeviceLockedEv @ 4698 NONAME ABSENT
	_ZNK18HbSystemDeviceInfo15inputMethodTypeEv @ 4699 NONAME ABSENT
	_ZNK18HbSystemDeviceInfo17currentPowerStateEv @ 4700 NONAME ABSENT
	_ZNK18HbSystemDeviceInfo4imeiEv @ 4701 NONAME ABSENT
	_ZNK18HbSystemDeviceInfo4imsiEv @ 4702 NONAME ABSENT
	_ZNK18HbSystemDeviceInfo5modelEv @ 4703 NONAME ABSENT
	_ZNK18HbSystemDeviceInfo9simStatusEv @ 4704 NONAME ABSENT
	_ZNK19HbInputSettingProxy14activeKeyboardEv @ 4705 NONAME ABSENT
	_ZNK19HbSystemNetworkInfo10macAddressENS_11NetworkModeE @ 4706 NONAME ABSENT
	_ZNK19HbSystemNetworkInfo10metaObjectEv @ 4707 NONAME ABSENT
	_ZNK19HbSystemNetworkInfo11networkNameENS_11NetworkModeE @ 4708 NONAME ABSENT
	_ZNK19HbSystemNetworkInfo13networkStatusENS_11NetworkModeE @ 4709 NONAME ABSENT
	_ZNK19HbSystemNetworkInfo16interfaceForModeENS_11NetworkModeE @ 4710 NONAME ABSENT
	_ZNK19HbSystemNetworkInfo16locationAreaCodeEv @ 4711 NONAME ABSENT
	_ZNK19HbSystemNetworkInfo21homeMobileCountryCodeEv @ 4712 NONAME ABSENT
	_ZNK19HbSystemNetworkInfo21homeMobileNetworkCodeEv @ 4713 NONAME ABSENT
	_ZNK19HbSystemNetworkInfo21networkSignalStrengthENS_11NetworkModeE @ 4714 NONAME ABSENT
	_ZNK19HbSystemNetworkInfo24currentMobileCountryCodeEv @ 4715 NONAME ABSENT
	_ZNK19HbSystemNetworkInfo24currentMobileNetworkCodeEv @ 4716 NONAME ABSENT
	_ZNK19HbSystemNetworkInfo6cellIdEv @ 4717 NONAME ABSENT
	_ZNK20HbWidgetLoaderSyntax11elementTypeE10QStringRef @ 4718 NONAME ABSENT
	_ZNK21HbFeedbackPluginGroup10metaObjectEv @ 4719 NONAME
	_ZNK21HbFeedbackPluginGroup17supportedFeaturesEv @ 4720 NONAME
	_ZNK21HbFeedbackPluginGroup7pluginsEv @ 4721 NONAME
	_ZNK21HbRichTextItemPrivate23textFlagsFromTextOptionEv @ 4722 NONAME ABSENT
	_ZNK21HbWidgetLoaderActions13getLayoutItemERK7QString @ 4723 NONAME ABSENT
	_ZNK24HbDirectoryNameLocalizer9translateER7QString @ 4724 NONAME
	_ZNK25HbXmlLoaderAbstractSyntax8toPixelsERK15HbDeviceProfileRK7QStringRfPf @ 4725 NONAME ABSENT
	_ZNK6HbView13titleBarFlagsEv @ 4726 NONAME ABSENT
	_ZNK7HbPopup13dismissPolicyEv @ 4727 NONAME
	_ZNK7HbPopup17isBackgroundFadedEv @ 4728 NONAME
	_ZNK7HbPopup7isModalEv @ 4729 NONAME
	_ZNK7HbPopup7timeoutEv @ 4730 NONAME
	_ZNK7HbPopup9frameTypeEv @ 4731 NONAME
	_ZNK8HbKeymap11keyForIndexE6QFlagsI18HbKeyboardTypeFlagEi @ 4732 NONAME
	_ZNK8HbKeymap13keyForKeycodeE6QFlagsI18HbKeyboardTypeFlagE5QChar @ 4733 NONAME
	_ZNK8HbKeymap15keyForCharacterE6QFlagsI18HbKeyboardTypeFlagE5QChar @ 4734 NONAME
	_ZNK8HbKeymap8keyboardE6QFlagsI18HbKeyboardTypeFlagE @ 4735 NONAME
	_ZNK8HbKeymap8languageEv @ 4736 NONAME
	_ZTI15HbGVWrapperItem @ 4737 NONAME
	_ZTI16HbFeedbackEngine @ 4738 NONAME
	_ZTI16HbFeedbackPlugin @ 4739 NONAME
	_ZTI17HbFeedbackManager @ 4740 NONAME
	_ZTI18HbSystemDeviceInfo @ 4741 NONAME ABSENT
	_ZTI19HbSystemNetworkInfo @ 4742 NONAME ABSENT
	_ZTI20HbWidgetLoaderSyntax @ 4743 NONAME ABSENT
	_ZTI21HbFeedbackPluginGroup @ 4744 NONAME
	_ZTI21HbRichTextItemPrivate @ 4745 NONAME
	_ZTI21HbWidgetLoaderActions @ 4746 NONAME ABSENT
	_ZTI8HbKeymap @ 4747 NONAME
	_ZTV15HbGVWrapperItem @ 4748 NONAME
	_ZTV16HbFeedbackEngine @ 4749 NONAME
	_ZTV16HbFeedbackPlugin @ 4750 NONAME
	_ZTV17HbFeedbackManager @ 4751 NONAME
	_ZTV18HbSystemDeviceInfo @ 4752 NONAME ABSENT
	_ZTV19HbSystemNetworkInfo @ 4753 NONAME ABSENT
	_ZTV20HbWidgetLoaderSyntax @ 4754 NONAME ABSENT
	_ZTV21HbFeedbackPluginGroup @ 4755 NONAME
	_ZTV21HbRichTextItemPrivate @ 4756 NONAME
	_ZTV21HbWidgetLoaderActions @ 4757 NONAME ABSENT
	_ZTV8HbKeymap @ 4758 NONAME
	_ZThn16_N14HbRichTextItem11setGeometryERK6QRectF @ 4759 NONAME
	_ZThn16_NK14HbRichTextItem8sizeHintEN2Qt8SizeHintERK6QSizeF @ 4760 NONAME
	_ZThn8_N16HbFeedbackPluginD0Ev @ 4761 NONAME
	_ZThn8_N16HbFeedbackPluginD1Ev @ 4762 NONAME
	_ZThn8_N7HbPopup10itemChangeEN13QGraphicsItem18GraphicsItemChangeERK8QVariant @ 4763 NONAME
	_ZThn8_N7HbPopup13keyPressEventEP9QKeyEvent @ 4764 NONAME ABSENT
	_ZThn8_N7HbPopup15mousePressEventEP24QGraphicsSceneMouseEvent @ 4765 NONAME
	_ZThn8_N7HbPopup17mouseReleaseEventEP24QGraphicsSceneMouseEvent @ 4766 NONAME
	_ZThn8_NK10HbTextItem12boundingRectEv @ 4767 NONAME
	_ZThn8_NK14HbRichTextItem12boundingRectEv @ 4768 NONAME
	_ZThn8_NK16HbFeedbackPlugin11featureNameEv @ 4769 NONAME
	_ZN14HbPopupPrivate15addPopupToSceneEv @ 4770 NONAME
	_ZN14HbPopupPrivate20_q_orientationChangeEv @ 4771 NONAME ABSENT
	_ZN15CHbDeviceDialog4NewLEi @ 4772 NONAME ABSENT
	_ZN15CHbDeviceDialog4ShowERK7TDesC16RK20CHbSymbianVariantMapP23MHbDeviceDialogObserver @ 4773 NONAME ABSENT
	_ZN15CHbDeviceDialog6CancelEv @ 4774 NONAME ABSENT
	_ZN15CHbDeviceDialog6UpdateERK20CHbSymbianVariantMap @ 4775 NONAME ABSENT
	_ZN15CHbDeviceDialogD0Ev @ 4776 NONAME ABSENT
	_ZN15CHbDeviceDialogD1Ev @ 4777 NONAME ABSENT
	_ZN15CHbDeviceDialogD2Ev @ 4778 NONAME ABSENT
	_ZN15HbWidgetPrivate24updateBackgroundItemSizeEv @ 4779 NONAME
	_ZN17CHbSymbianVariant4NewLEPKvNS_5TTypeE @ 4780 NONAME
	_ZN17CHbSymbianVariant7SetDataEPvNS_5TTypeE @ 4781 NONAME
	_ZN17CHbSymbianVariantD0Ev @ 4782 NONAME
	_ZN17CHbSymbianVariantD1Ev @ 4783 NONAME
	_ZN17CHbSymbianVariantD2Ev @ 4784 NONAME
	_ZN20CHbSymbianVariantMap3AddERK7TDesC16P17CHbSymbianVariant @ 4785 NONAME
	_ZN20CHbSymbianVariantMap4NewLEv @ 4786 NONAME
	_ZN20CHbSymbianVariantMap6DeleteERK7TDesC16 @ 4787 NONAME
	_ZN20CHbSymbianVariantMapD0Ev @ 4788 NONAME
	_ZN20CHbSymbianVariantMapD1Ev @ 4789 NONAME
	_ZN20CHbSymbianVariantMapD2Ev @ 4790 NONAME
	_ZN6HbMenu6polishER17HbStyleParameters @ 4791 NONAME
	_ZN6HbView18setTitleBarVisibleEb @ 4792 NONAME
	_ZN6HbView22titleBarEffectFinishedERKN8HbEffect12EffectStatusE @ 4793 NONAME
	_ZN7HbPopup15setPreferredPosERK7QPointFNS_9PlacementE @ 4794 NONAME
	_ZN8HbWidget17setBackgroundItemEN7HbStyle9PrimitiveEi @ 4795 NONAME ABSENT
	_ZN8HbWidget17setBackgroundItemEP13QGraphicsItemi @ 4796 NONAME
	_ZNK15CHbDeviceDialog13ReceivedDataLEv @ 4797 NONAME ABSENT
	_ZNK17CHbSymbianVariant4DataEv @ 4798 NONAME
	_ZNK17CHbSymbianVariant4TypeEv @ 4799 NONAME
	_ZNK17CHbSymbianVariant7IsValidEv @ 4800 NONAME
	_ZNK20CHbSymbianVariantMap3GetER7TDesC16 @ 4801 NONAME ABSENT
	_ZNK20CHbSymbianVariantMap4KeysEv @ 4802 NONAME
	_ZNK8HbWidget14backgroundItemEv @ 4803 NONAME
	_ZN10HbTextItem15setMaximumLinesEi @ 4804 NONAME
	_ZN10HbTextItem15setMinimumLinesEi @ 4805 NONAME
	_ZN10HbTitleBar16sceneEventFilterEP13QGraphicsItemP6QEvent @ 4806 NONAME
	_ZN10HbTitleBar6polishER17HbStyleParameters @ 4807 NONAME
	_ZN12HbIconLoader8loadIconERK7QStringNS_12IconDataTypeENS_7PurposeERK6QSizeFN2Qt15AspectRatioModeEN5QIcon4ModeE6QFlagsINS_16IconLoaderOptionEEP14HbIconAnimatorRK6QColor @ 4808 NONAME ABSENT
	_ZN12HbIconLoader8loadIconERK7QStringNS_7PurposeERK6QSizeFN2Qt15AspectRatioModeEN5QIcon4ModeE6QFlagsINS_16IconLoaderOptionEEP14HbIconAnimatorRK6QColor @ 4809 NONAME
	_ZN13HbInputMethod20activateCustomMethodERK23HbInputMethodDescriptor @ 4810 NONAME ABSENT
	_ZN13HbInputMethod22listCustomInputMethodsEv @ 4811 NONAME
	_ZN13HbOogmWatcher11qt_metacallEN11QMetaObject4CallEiPPv @ 4812 NONAME
	_ZN13HbOogmWatcher11qt_metacastEPKc @ 4813 NONAME
	_ZN13HbOogmWatcher16staticMetaObjectE @ 4814 NONAME DATA 16
	_ZN13HbOogmWatcher19getStaticMetaObjectEv @ 4815 NONAME
	_ZN13HbOogmWatcher20graphicsMemoryNeededEv @ 4816 NONAME ABSENT
	_ZN13HbOogmWatcher23notifyGraphicsMemoryLowEv @ 4817 NONAME
	_ZN13HbOogmWatcher8instanceEv @ 4818 NONAME
	_ZN13HbOogmWatcherC1EP7QObject @ 4819 NONAME
	_ZN13HbOogmWatcherC2EP7QObject @ 4820 NONAME
	_ZN13HbOogmWatcherD0Ev @ 4821 NONAME
	_ZN13HbOogmWatcherD1Ev @ 4822 NONAME
	_ZN13HbOogmWatcherD2Ev @ 4823 NONAME
	_ZN13HbSmileyTheme13removePatternERK7QString @ 4824 NONAME
	_ZN13HbSmileyTheme4loadERK7QString @ 4825 NONAME
	_ZN13HbSmileyTheme5clearEv @ 4826 NONAME
	_ZN13HbSmileyTheme6insertERK7QStringRK11QStringList @ 4827 NONAME
	_ZN13HbSmileyTheme6insertERK7QStringS2_ @ 4828 NONAME
	_ZN13HbSmileyTheme6removeERK7QString @ 4829 NONAME
	_ZN13HbSmileyTheme7replaceERK7QStringRK11QStringList @ 4830 NONAME
	_ZN13HbSmileyTheme7replaceERK7QStringS2_ @ 4831 NONAME
	_ZN13HbSmileyThemeC1ERK7QString @ 4832 NONAME
	_ZN13HbSmileyThemeC1ERKS_ @ 4833 NONAME
	_ZN13HbSmileyThemeC1Ev @ 4834 NONAME
	_ZN13HbSmileyThemeC2ERK7QString @ 4835 NONAME
	_ZN13HbSmileyThemeC2ERKS_ @ 4836 NONAME
	_ZN13HbSmileyThemeC2Ev @ 4837 NONAME
	_ZN13HbSmileyThemeD1Ev @ 4838 NONAME
	_ZN13HbSmileyThemeD2Ev @ 4839 NONAME
	_ZN13HbSmileyThemeaSERKS_ @ 4840 NONAME
	_ZN13HbStyleLoader16registerFilePathERK7QString @ 4841 NONAME
	_ZN13HbStyleLoader18unregisterFilePathERK7QString @ 4842 NONAME
	_ZN14HbIconAnimator12setOwnerViewEP6HbView @ 4843 NONAME
	_ZN15CHbDeviceDialog11SetObserverEP23MHbDeviceDialogObserver @ 4844 NONAME ABSENT
	_ZN15HbGVWrapperItem13setMainWindowER12HbMainWindow @ 4845 NONAME
	_ZN16HbEffectInternal11stopEffectsEv @ 4846 NONAME
	_ZN16HbEffectInternal13resumeEffectsEv @ 4847 NONAME
	_ZN16HbEffectInternal3addEP13QGraphicsItemRK11QStringListS4_ @ 4848 NONAME
	_ZN16HbEffectInternal3addERK11QStringListS2_S2_ @ 4849 NONAME
	_ZN16HbEffectInternal9cancelAllEPK5QListIP13QGraphicsItemE @ 4850 NONAME ABSENT
	_ZN16HbInputModeCache15loadInputMethodERK23HbInputMethodDescriptor @ 4851 NONAME
	_ZN16HbInputModeCache16directoryChangedERK7QString @ 4852 NONAME ABSENT
	_ZN16HbInputModeCache22listCustomInputMethodsEv @ 4853 NONAME
	_ZN17HbEditorInterface11setTextCaseE10HbTextCase @ 4854 NONAME
	_ZN17HbEditorInterface14setSmileyThemeERK13HbSmileyTheme @ 4855 NONAME
	_ZN18HbToolBarExtension10itemChangeEN13QGraphicsItem18GraphicsItemChangeERK8QVariant @ 4856 NONAME
	_ZN19HbForegroundWatcher11eventFilterEP7QObjectP6QEvent @ 4857 NONAME
	_ZN19HbForegroundWatcher11qt_metacallEN11QMetaObject4CallEiPPv @ 4858 NONAME
	_ZN19HbForegroundWatcher11qt_metacastEPKc @ 4859 NONAME
	_ZN19HbForegroundWatcher13stopAnimationEv @ 4860 NONAME
	_ZN19HbForegroundWatcher14foregroundLostEv @ 4861 NONAME
	_ZN19HbForegroundWatcher15resumeAnimationEv @ 4862 NONAME
	_ZN19HbForegroundWatcher16foregroundGainedEv @ 4863 NONAME
	_ZN19HbForegroundWatcher16staticMetaObjectE @ 4864 NONAME DATA 16
	_ZN19HbForegroundWatcher17handleAboutToQuitEv @ 4865 NONAME
	_ZN19HbForegroundWatcher19getStaticMetaObjectEv @ 4866 NONAME
	_ZN19HbForegroundWatcher22HandleLosingForegroundEv @ 4867 NONAME
	_ZN19HbForegroundWatcher23HandleGainingForegroundEv @ 4868 NONAME
	_ZN19HbForegroundWatcher8instanceEv @ 4869 NONAME
	_ZN19HbForegroundWatcherC1EP7QObject @ 4870 NONAME
	_ZN19HbForegroundWatcherC2EP7QObject @ 4871 NONAME
	_ZN19HbInputSettingProxy26setActiveCustomInputMethodERK23HbInputMethodDescriptor @ 4872 NONAME ABSENT
	_ZN19HbScrollAreaPrivate18setContentPositionEfN2Qt11OrientationEb @ 4873 NONAME
	_ZN19HbWidgetStyleLoader11addFilePathERK7QStringN20HbLayeredStyleLoader7ConcernENS3_13LayerPriorityE @ 4874 NONAME
	_ZN19HbWidgetStyleLoader12doAddFileSetERK7QStringNS_11FileSetTypeEN20HbLayeredStyleLoader7ConcernENS4_13LayerPriorityE @ 4875 NONAME ABSENT
	_ZN19HbWidgetStyleLoader14removeFilePathERK7QStringN20HbLayeredStyleLoader7ConcernENS3_13LayerPriorityE @ 4876 NONAME
	_ZN19HbWidgetStyleLoader15doRemoveFileSetERK7QStringPKN20HbLayeredStyleLoader7ConcernEPKNS3_13LayerPriorityE @ 4877 NONAME ABSENT
	_ZN20HbInputMethodPrivate12refreshStateEv @ 4878 NONAME
	_ZN20HbInputMethodPrivate13contextSwitchEP13HbInputMethod @ 4879 NONAME
	_ZN20HbInputMethodPrivate13stateFromModeERK21HbInputModePropertiesR12HbInputState @ 4880 NONAME ABSENT
	_ZN20HbInputMethodPrivate14setFocusCommonEv @ 4881 NONAME
	_ZN20HbInputMethodPrivate16findStateHandlerER12HbInputState @ 4882 NONAME
	_ZN20HbInputMethodPrivate18inputStateToEditorERK12HbInputState @ 4883 NONAME
	_ZN20HbInputMethodPrivate20inputStateFromEditorER12HbInputState @ 4884 NONAME
	_ZN20HbInputMethodPrivate20stateAllowedInEditorERK12HbInputState @ 4885 NONAME
	_ZN20HbInputMethodPrivate23findInitialStateHandlerERK7QVectorI21HbInputModePropertiesER12HbInputState @ 4886 NONAME ABSENT
	_ZN20HbInputMethodPrivate8newProxyEv @ 4887 NONAME ABSENT
	_ZN20HbInputMethodPrivate8transferEP13HbInputMethod @ 4888 NONAME
	_ZN20HbInputMethodPrivateD1Ev @ 4889 NONAME
	_ZN20HbInputMethodPrivateD2Ev @ 4890 NONAME
	_ZN23HbInputMethodDescriptor14setDisplayNameERK7QString @ 4891 NONAME
	_ZN23HbInputMethodDescriptor20setPluginNameAndPathERK7QString @ 4892 NONAME
	_ZN23HbInputMethodDescriptor6setKeyERK7QString @ 4893 NONAME
	_ZN23HbInputMethodDescriptorC1ERKS_ @ 4894 NONAME
	_ZN23HbInputMethodDescriptorC1Ev @ 4895 NONAME
	_ZN23HbInputMethodDescriptorC2ERKS_ @ 4896 NONAME
	_ZN23HbInputMethodDescriptorC2Ev @ 4897 NONAME
	_ZN23HbInputMethodDescriptoraSERKS_ @ 4898 NONAME
	_ZN24HbTextMeasurementUtility11locTestModeEv @ 4899 NONAME ABSENT
	_ZN24HbTextMeasurementUtility11qt_metacallEN11QMetaObject4CallEiPPv @ 4900 NONAME ABSENT
	_ZN24HbTextMeasurementUtility11qt_metacastEPKc @ 4901 NONAME ABSENT
	_ZN24HbTextMeasurementUtility11writeReportER15HbDeviceProfileRK7QString @ 4902 NONAME
	_ZN24HbTextMeasurementUtility12measureItemsEi @ 4903 NONAME ABSENT
	_ZN24HbTextMeasurementUtility14doMeasureItemsEv @ 4904 NONAME ABSENT
	_ZN24HbTextMeasurementUtility14setLocTestModeEb @ 4905 NONAME ABSENT
	_ZN24HbTextMeasurementUtility16staticMetaObjectE @ 4906 NONAME DATA 16 ABSENT
	_ZN24HbTextMeasurementUtility19getStaticMetaObjectEv @ 4907 NONAME ABSENT
	_ZN24HbTextMeasurementUtility5resetEv @ 4908 NONAME
	_ZN24HbTextMeasurementUtility8instanceEv @ 4909 NONAME
	_ZN24HbTextMeasurementUtilityC1Ev @ 4910 NONAME
	_ZN24HbTextMeasurementUtilityC2Ev @ 4911 NONAME
	_ZN24HbTextMeasurementUtilityD0Ev @ 4912 NONAME
	_ZN24HbTextMeasurementUtilityD1Ev @ 4913 NONAME
	_ZN24HbTextMeasurementUtilityD2Ev @ 4914 NONAME
	_ZN26HbSliderTickmarksItemLabel12setTextColorERK6QColor @ 4915 NONAME ABSENT
	_ZN29HbIconAnimationManagerPrivate11animPlayingEP15HbIconAnimation @ 4916 NONAME
	_ZN29HbIconAnimationManagerPrivate11qt_metacallEN11QMetaObject4CallEiPPv @ 4917 NONAME
	_ZN29HbIconAnimationManagerPrivate11qt_metacastEPKc @ 4918 NONAME
	_ZN29HbIconAnimationManagerPrivate13addDefinitionERK7QStringRK25HbIconAnimationDefinition @ 4919 NONAME
	_ZN29HbIconAnimationManagerPrivate13getDefinitionERK7QString @ 4920 NONAME
	_ZN29HbIconAnimationManagerPrivate14animNotPlayingEP15HbIconAnimation @ 4921 NONAME
	_ZN29HbIconAnimationManagerPrivate16removeDefinitionERK7QString @ 4922 NONAME
	_ZN29HbIconAnimationManagerPrivate16staticMetaObjectE @ 4923 NONAME DATA 16
	_ZN29HbIconAnimationManagerPrivate17addDefinitionFileERK7QString @ 4924 NONAME
	_ZN29HbIconAnimationManagerPrivate17handleViewChangedEP6HbView @ 4925 NONAME
	_ZN29HbIconAnimationManagerPrivate18handleThemeChangedEv @ 4926 NONAME
	_ZN29HbIconAnimationManagerPrivate19getStaticMetaObjectEv @ 4927 NONAME
	_ZN29HbIconAnimationManagerPrivate20handleAnimationPauseEv @ 4928 NONAME
	_ZN29HbIconAnimationManagerPrivate20removeDefinitionFileERK7QString @ 4929 NONAME
	_ZN29HbIconAnimationManagerPrivate21handleAnimationResumeEv @ 4930 NONAME
	_ZN29HbIconAnimationManagerPrivate25handleThemeChangeFinishedEv @ 4931 NONAME
	_ZN29HbIconAnimationManagerPrivateC1Ev @ 4932 NONAME
	_ZN29HbIconAnimationManagerPrivateC2Ev @ 4933 NONAME
	_ZN29HbIconAnimationManagerPrivateD0Ev @ 4934 NONAME
	_ZN29HbIconAnimationManagerPrivateD1Ev @ 4935 NONAME
	_ZN29HbIconAnimationManagerPrivateD2Ev @ 4936 NONAME
	_ZN5HbCss14ValueExtractor15extractPositionEPfS1_S1_S1_S1_S1_PNS_6OriginEP6QFlagsIN2Qt13AlignmentFlagEEPNS_12PositionModeES8_PbS1_PS4_INS_16PositionAttrFlagEE @ 4937 NONAME ABSENT
	_ZN5HbCss14ValueExtractor17extractTextValuesERNS0_10TextValuesE @ 4938 NONAME ABSENT
	_ZN5HbCss6Parser20addRuleToWidgetStackEPNS_10StyleSheetERK7QStringRNS_9StyleRuleE @ 4939 NONAME ABSENT
	_ZN7HbStyle18updateThemedParamsEP8HbWidget @ 4940 NONAME
	_ZN8HbEffect3addEP13QGraphicsItemRK11QStringListS4_ @ 4941 NONAME
	_ZN8HbEffect3addERK11QStringListS2_S2_ @ 4942 NONAME
	_ZN8HbWidget12gestureEventEP13QGestureEvent @ 4943 NONAME ABSENT
	_ZNK10HbTextItem12maximumLinesEv @ 4944 NONAME
	_ZNK10HbTextItem12minimumLinesEv @ 4945 NONAME
	_ZNK10HbTitleBar8positionEv @ 4946 NONAME
	_ZNK12HbMainWindow10layoutRectEv @ 4947 NONAME
	_ZNK13HbOogmWatcher10metaObjectEv @ 4948 NONAME
	_ZNK13HbSmileyTheme6isNullEv @ 4949 NONAME
	_ZNK13HbSmileyTheme6smileyERK7QString @ 4950 NONAME
	_ZNK13HbSmileyTheme7smileysEv @ 4951 NONAME
	_ZNK13HbSmileyTheme8patternsERK7QString @ 4952 NONAME
	_ZNK13HbSmileyTheme8patternsEv @ 4953 NONAME
	_ZNK13HbSmileyThemecv8QVariantEv @ 4954 NONAME
	_ZNK15HbDeviceProfile13keyNavigationEv @ 4955 NONAME ABSENT
	_ZNK15HbGVWrapperItem10mainWindowEv @ 4956 NONAME
	_ZNK16HbInputModeCache18listInputLanguagesEv @ 4957 NONAME ABSENT
	_ZNK17HbEditorInterface11smileyThemeEv @ 4958 NONAME
	_ZNK19HbForegroundWatcher10metaObjectEv @ 4959 NONAME
	_ZNK19HbInputSettingProxy23activeCustomInputMethodEv @ 4960 NONAME ABSENT
	_ZNK20HbInputMethodPrivate12editorFilterEv @ 4961 NONAME
	_ZNK20HbInputMethodPrivate14activeKeyboardEv @ 4962 NONAME
	_ZNK20HbInputMethodPrivate14activeLanguageEv @ 4963 NONAME
	_ZNK20HbInputMethodPrivate15editorRootStateER12HbInputState @ 4964 NONAME
	_ZNK20HbInputMethodPrivate15initialTextCaseE6QFlagsI19HbInputModeTypeFlagE @ 4965 NONAME
	_ZNK20HbInputMethodPrivate15textCaseAppliesEv @ 4966 NONAME
	_ZNK20HbInputMethodPrivate16defaultInputModeERK15HbInputLanguage @ 4967 NONAME ABSENT
	_ZNK20HbInputMethodPrivate16initialInputModeERK15HbInputLanguage @ 4968 NONAME
	_ZNK20HbInputMethodPrivate17editorConstraintsEv @ 4969 NONAME
	_ZNK20HbInputMethodPrivate17findStateLanguageEv @ 4970 NONAME
	_ZNK20HbInputMethodPrivate17isFixedCaseEditorEv @ 4971 NONAME
	_ZNK20HbInputMethodPrivate19constructLatinStateER12HbInputState @ 4972 NONAME
	_ZNK20HbInputMethodPrivate19modeAllowedInEditorE6QFlagsI19HbInputModeTypeFlagE @ 4973 NONAME
	_ZNK20HbInputMethodPrivate21isLowerCaseOnlyEditorEv @ 4974 NONAME
	_ZNK20HbInputMethodPrivate21isUpperCaseOnlyEditorEv @ 4975 NONAME
	_ZNK20HbInputMethodPrivate23automaticTextCaseNeededEv @ 4976 NONAME
	_ZNK20HbInputMethodPrivate29compareWithCurrentFocusObjectEP18HbInputFocusObject @ 4977 NONAME
	_ZNK23HbInputMethodDescriptor11displayNameEv @ 4978 NONAME
	_ZNK23HbInputMethodDescriptor17pluginNameAndPathEv @ 4979 NONAME
	_ZNK23HbInputMethodDescriptor3keyEv @ 4980 NONAME
	_ZNK23HbInputMethodDescriptor7isEmptyEv @ 4981 NONAME
	_ZNK24HbTextMeasurementUtility10metaObjectEv @ 4982 NONAME ABSENT
	_ZNK26HbInputSettingProxyPrivate24stringToProxyDataElementEP5QCharRK7QStringi @ 4983 NONAME
	_ZNK26HbInputSettingProxyPrivate26stringFromProxyDataElementEP5QChar @ 4984 NONAME
	_ZNK26HbInputSettingProxyPrivate9proxyDataEv @ 4985 NONAME
	_ZNK26HbSliderTickmarksItemLabel9textColorEv @ 4986 NONAME ABSENT
	_ZNK29HbIconAnimationManagerPrivate10metaObjectEv @ 4987 NONAME
	_ZNK5HbCss14ValueExtractor12extractColorEP6QColor @ 4988 NONAME ABSENT
	_ZNK5HbCss14ValueExtractor12extractValueERK7QStringRNS_5ValueE @ 4989 NONAME ABSENT
	_ZTI13HbOogmWatcher @ 4990 NONAME
	_ZTI19HbForegroundWatcher @ 4991 NONAME
	_ZTI24HbTextMeasurementUtility @ 4992 NONAME
	_ZTI29HbIconAnimationManagerPrivate @ 4993 NONAME
	_ZTV13HbOogmWatcher @ 4994 NONAME
	_ZTV19HbForegroundWatcher @ 4995 NONAME
	_ZTV24HbTextMeasurementUtility @ 4996 NONAME
	_ZTV29HbIconAnimationManagerPrivate @ 4997 NONAME
	_ZThn8_N10HbTitleBar16sceneEventFilterEP13QGraphicsItemP6QEvent @ 4998 NONAME
	_ZThn8_N18HbToolBarExtension10itemChangeEN13QGraphicsItem18GraphicsItemChangeERK8QVariant @ 4999 NONAME
	_ZThn8_N19HbForegroundWatcher22HandleLosingForegroundEv @ 5000 NONAME ABSENT
	_ZThn8_N19HbForegroundWatcher23HandleGainingForegroundEv @ 5001 NONAME ABSENT
	_ZN10HbFontSpec13setTextHeightEf @ 5002 NONAME
	_ZN10HbIconItem11qt_metacallEN11QMetaObject4CallEiPPv @ 5003 NONAME
	_ZN10HbIconItem11qt_metacastEPKc @ 5004 NONAME
	_ZN10HbIconItem16staticMetaObjectE @ 5005 NONAME DATA 16
	_ZN10HbIconItem19getStaticMetaObjectEv @ 5006 NONAME
	_ZN10HbInstance14addLibraryPathERK7QString @ 5007 NONAME
	_ZN10HbInstance15setLibraryPathsERK11QStringList @ 5008 NONAME
	_ZN10HbInstance17removeLibraryPathERK7QString @ 5009 NONAME
	_ZN11HbDecorator9resetModeEv @ 5010 NONAME ABSENT
	_ZN11HbFrameItem11qt_metacallEN11QMetaObject4CallEiPPv @ 5011 NONAME
	_ZN11HbFrameItem11qt_metacastEPKc @ 5012 NONAME
	_ZN11HbFrameItem16staticMetaObjectE @ 5013 NONAME DATA 16
	_ZN11HbFrameItem19getStaticMetaObjectEv @ 5014 NONAME
	_ZN12HbIconLoader18loadMultiPieceIconERK11QStringListR17MultiPartSizeDataRK6QSizeFN2Qt15AspectRatioModeEN5QIcon4ModeE6QFlagsINS_16IconLoaderOptionEER7QVectorIP10HbIconImplERK6QColor @ 5015 NONAME ABSENT
	_ZN12HbPanGesture11qt_metacallEN11QMetaObject4CallEiPPv @ 5016 NONAME
	_ZN12HbPanGesture11qt_metacastEPKc @ 5017 NONAME
	_ZN12HbPanGesture11setStartPosERK7QPointF @ 5018 NONAME
	_ZN12HbPanGesture16staticMetaObjectE @ 5019 NONAME DATA 16
	_ZN12HbPanGesture19getStaticMetaObjectEv @ 5020 NONAME
	_ZN12HbPanGestureC1EP7QObject @ 5021 NONAME
	_ZN12HbPanGestureC1ER19HbPanGesturePrivateP7QObject @ 5022 NONAME
	_ZN12HbPanGestureC2EP7QObject @ 5023 NONAME
	_ZN12HbPanGestureC2ER19HbPanGesturePrivateP7QObject @ 5024 NONAME
	_ZN12HbPanGestureD0Ev @ 5025 NONAME
	_ZN12HbPanGestureD1Ev @ 5026 NONAME
	_ZN12HbPanGestureD2Ev @ 5027 NONAME
	_ZN12HbStringUtil13convertDigitsE7QString @ 5028 NONAME
	_ZN12HbTapGesture11qt_metacallEN11QMetaObject4CallEiPPv @ 5029 NONAME
	_ZN12HbTapGesture11qt_metacastEPKc @ 5030 NONAME
	_ZN12HbTapGesture11setStartPosERK7QPointF @ 5031 NONAME
	_ZN12HbTapGesture16staticMetaObjectE @ 5032 NONAME DATA 16
	_ZN12HbTapGesture19getStaticMetaObjectEv @ 5033 NONAME
	_ZN12HbTapGestureC1EP7QObject @ 5034 NONAME
	_ZN12HbTapGestureC1ER19HbTapGesturePrivateP7QObject @ 5035 NONAME
	_ZN12HbTapGestureC2EP7QObject @ 5036 NONAME
	_ZN12HbTapGestureC2ER19HbTapGesturePrivateP7QObject @ 5037 NONAME
	_ZN12HbTapGestureD0Ev @ 5038 NONAME
	_ZN12HbTapGestureD1Ev @ 5039 NONAME
	_ZN12HbTapGestureD2Ev @ 5040 NONAME
	_ZN12HbWidgetBase10itemChangeEN13QGraphicsItem18GraphicsItemChangeERK8QVariant @ 5041 NONAME
	_ZN12HbWidgetBase12setAttributeEN2Hb15WidgetAttributeEb @ 5042 NONAME
	_ZN12HbWidgetBase12setAttributeEN2Qt15WidgetAttributeEb @ 5043 NONAME
	_ZN13HbApplicationC1EPFP15CApaApplicationvERiPPc @ 5044 NONAME ABSENT
	_ZN13HbApplicationC2EPFP15CApaApplicationvERiPPc @ 5045 NONAME ABSENT
	_ZN13HbFrameDrawerC1ERK7QStringNS_9FrameTypeEb @ 5046 NONAME
	_ZN13HbFrameDrawerC1Eb @ 5047 NONAME
	_ZN13HbFrameDrawerC2ERK7QStringNS_9FrameTypeEb @ 5048 NONAME
	_ZN13HbFrameDrawerC2Eb @ 5049 NONAME
	_ZN13HbInputMethod19activateInputMethodERK23HbInputMethodDescriptor @ 5050 NONAME
	_ZN13HbOogmWatcher16registerIconItemEP10HbIconItem @ 5051 NONAME
	_ZN13HbOogmWatcher18unregisterIconItemEP10HbIconItem @ 5052 NONAME
	_ZN13HbViewVkbHost10openKeypadEP17HbVirtualKeyboardP13HbInputMethodb @ 5053 NONAME ABSENT
	_ZN13HbViewVkbHost11qt_metacallEN11QMetaObject4CallEiPPv @ 5054 NONAME ABSENT
	_ZN13HbViewVkbHost11qt_metacastEPKc @ 5055 NONAME ABSENT
	_ZN13HbViewVkbHost13closeFinishedEv @ 5056 NONAME ABSENT
	_ZN13HbViewVkbHost16staticMetaObjectE @ 5057 NONAME DATA 16 ABSENT
	_ZN13HbViewVkbHost18currentViewChangedEP6HbView @ 5058 NONAME ABSENT
	_ZN13HbViewVkbHost19getStaticMetaObjectEv @ 5059 NONAME ABSENT
	_ZN13HbViewVkbHostC1EP6HbView @ 5060 NONAME ABSENT
	_ZN13HbViewVkbHostC2EP6HbView @ 5061 NONAME ABSENT
	_ZN13HbViewVkbHostD0Ev @ 5062 NONAME ABSENT
	_ZN13HbViewVkbHostD1Ev @ 5063 NONAME ABSENT
	_ZN13HbViewVkbHostD2Ev @ 5064 NONAME ABSENT
	_ZN14HbPopupPrivate15addPopupEffectsEv @ 5065 NONAME
	_ZN14HbPopupVkbHost11qt_metacallEN11QMetaObject4CallEiPPv @ 5066 NONAME ABSENT
	_ZN14HbPopupVkbHost11qt_metacastEPKc @ 5067 NONAME ABSENT
	_ZN14HbPopupVkbHost16staticMetaObjectE @ 5068 NONAME DATA 16 ABSENT
	_ZN14HbPopupVkbHost17popupAboutToCloseEv @ 5069 NONAME ABSENT
	_ZN14HbPopupVkbHost18currentViewChangedEP6HbView @ 5070 NONAME ABSENT
	_ZN14HbPopupVkbHost19getStaticMetaObjectEv @ 5071 NONAME ABSENT
	_ZN14HbPopupVkbHost24orientationAboutToChangeEv @ 5072 NONAME ABSENT
	_ZN14HbPopupVkbHostC1EP7HbPopup @ 5073 NONAME ABSENT
	_ZN14HbPopupVkbHostC2EP7HbPopup @ 5074 NONAME ABSENT
	_ZN14HbPopupVkbHostD0Ev @ 5075 NONAME ABSENT
	_ZN14HbPopupVkbHostD1Ev @ 5076 NONAME ABSENT
	_ZN14HbPopupVkbHostD2Ev @ 5077 NONAME ABSENT
	_ZN14HbRichTextItem11qt_metacallEN11QMetaObject4CallEiPPv @ 5078 NONAME
	_ZN14HbRichTextItem11qt_metacastEPKc @ 5079 NONAME
	_ZN14HbRichTextItem16staticMetaObjectE @ 5080 NONAME DATA 16
	_ZN14HbRichTextItem19getStaticMetaObjectEv @ 5081 NONAME
	_ZN14HbSwipeGesture11qt_metacallEN11QMetaObject4CallEiPPv @ 5082 NONAME
	_ZN14HbSwipeGesture11qt_metacastEPKc @ 5083 NONAME
	_ZN14HbSwipeGesture16staticMetaObjectE @ 5084 NONAME DATA 16
	_ZN14HbSwipeGesture18setTouchPointCountEi @ 5085 NONAME ABSENT
	_ZN14HbSwipeGesture19getStaticMetaObjectEv @ 5086 NONAME
	_ZN14HbSwipeGesture8setSpeedEf @ 5087 NONAME ABSENT
	_ZN14HbSwipeGestureC1EP7QObject @ 5088 NONAME
	_ZN14HbSwipeGestureC1ER21HbSwipeGesturePrivateP7QObject @ 5089 NONAME
	_ZN14HbSwipeGestureC2EP7QObject @ 5090 NONAME
	_ZN14HbSwipeGestureC2ER21HbSwipeGesturePrivateP7QObject @ 5091 NONAME
	_ZN14HbSwipeGestureD0Ev @ 5092 NONAME
	_ZN14HbSwipeGestureD1Ev @ 5093 NONAME
	_ZN14HbSwipeGestureD2Ev @ 5094 NONAME
	_ZN16HbPixmapIconImpl18retrievePixmapDataEv @ 5095 NONAME
	_ZN16HbPixmapIconImpl4sizeEv @ 5096 NONAME
	_ZN16HbPixmapIconImpl5paintEP8QPainterRK6QRectF6QFlagsIN2Qt13AlignmentFlagEE @ 5097 NONAME ABSENT
	_ZN16HbPixmapIconImpl6pixmapEv @ 5098 NONAME
	_ZN16HbPixmapIconImpl7setMaskERK7QPixmapb @ 5099 NONAME ABSENT
	_ZN16HbPixmapIconImplC1E16HbSharedIconInfoR7QStringRK6QSizeFN2Qt15AspectRatioModeEN5QIcon4ModeEb @ 5100 NONAME ABSENT
	_ZN16HbPixmapIconImplC1ERK7QPixmap @ 5101 NONAME ABSENT
	_ZN16HbPixmapIconImplC2E16HbSharedIconInfoR7QStringRK6QSizeFN2Qt15AspectRatioModeEN5QIcon4ModeEb @ 5102 NONAME ABSENT
	_ZN16HbPixmapIconImplC2ERK7QPixmap @ 5103 NONAME ABSENT
	_ZN16HbPixmapIconImplD0Ev @ 5104 NONAME
	_ZN16HbPixmapIconImplD1Ev @ 5105 NONAME
	_ZN16HbPixmapIconImplD2Ev @ 5106 NONAME
	_ZN17HbAbstractVkbHost10openKeypadEP17HbVirtualKeyboardP13HbInputMethodb @ 5107 NONAME
	_ZN17HbAbstractVkbHost11closeKeypadEb @ 5108 NONAME
	_ZN17HbAbstractVkbHost11qt_metacallEN11QMetaObject4CallEiPPv @ 5109 NONAME
	_ZN17HbAbstractVkbHost11qt_metacastEPKc @ 5110 NONAME
	_ZN17HbAbstractVkbHost12openFinishedEv @ 5111 NONAME ABSENT
	_ZN17HbAbstractVkbHost13closeFinishedEv @ 5112 NONAME ABSENT
	_ZN17HbAbstractVkbHost14minimizeKeypadEb @ 5113 NONAME ABSENT
	_ZN17HbAbstractVkbHost14resizeKeyboardEv @ 5114 NONAME
	_ZN17HbAbstractVkbHost16staticMetaObjectE @ 5115 NONAME DATA 16
	_ZN17HbAbstractVkbHost18orientationChangedEN2Qt11OrientationE @ 5116 NONAME
	_ZN17HbAbstractVkbHost19getStaticMetaObjectEv @ 5117 NONAME
	_ZN17HbAbstractVkbHost19openMinimizedKeypadEP17HbVirtualKeyboardP13HbInputMethod @ 5118 NONAME ABSENT
	_ZN17HbAbstractVkbHost20openAnimValueChangedEf @ 5119 NONAME ABSENT
	_ZN17HbAbstractVkbHost20preferredSizeChangedERK6QSizeF @ 5120 NONAME ABSENT
	_ZN17HbAbstractVkbHost21closeAnimValueChangedEf @ 5121 NONAME ABSENT
	_ZN17HbAbstractVkbHost22ensureCursorVisibilityEv @ 5122 NONAME
	_ZN17HbAbstractVkbHost24orientationAboutToChangeEv @ 5123 NONAME
	_ZN17HbAbstractVkbHostC1EP24HbAbstractVkbHostPrivate @ 5124 NONAME
	_ZN17HbAbstractVkbHostC1EP8HbWidget @ 5125 NONAME
	_ZN17HbAbstractVkbHostC2EP24HbAbstractVkbHostPrivate @ 5126 NONAME
	_ZN17HbAbstractVkbHostC2EP8HbWidget @ 5127 NONAME
	_ZN17HbAbstractVkbHostD0Ev @ 5128 NONAME
	_ZN17HbAbstractVkbHostD1Ev @ 5129 NONAME
	_ZN17HbAbstractVkbHostD2Ev @ 5130 NONAME
	_ZN19HbInputContextProxyC1EP13HbInputMethod @ 5131 NONAME
	_ZN19HbInputContextProxyC2EP13HbInputMethod @ 5132 NONAME
	_ZN19HbTapAndHoldGesture11qt_metacallEN11QMetaObject4CallEiPPv @ 5133 NONAME
	_ZN19HbTapAndHoldGesture11qt_metacastEPKc @ 5134 NONAME
	_ZN19HbTapAndHoldGesture16outsideThresholdEv @ 5135 NONAME ABSENT
	_ZN19HbTapAndHoldGesture16staticMetaObjectE @ 5136 NONAME DATA 16
	_ZN19HbTapAndHoldGesture19getStaticMetaObjectEv @ 5137 NONAME
	_ZN19HbTapAndHoldGesture6updateER6QEvent @ 5138 NONAME ABSENT
	_ZN19HbTapAndHoldGestureC1EP7QObject @ 5139 NONAME
	_ZN19HbTapAndHoldGestureC2EP7QObject @ 5140 NONAME
	_ZN19HbTapAndHoldGestureD0Ev @ 5141 NONAME
	_ZN19HbTapAndHoldGestureD1Ev @ 5142 NONAME
	_ZN19HbTapAndHoldGestureD2Ev @ 5143 NONAME
	_ZN19HbWidgetBasePrivate14setInsidePopupEb @ 5144 NONAME
	_ZN19HbWidgetBasePrivate17handleInsidePopupEPK13QGraphicsItem @ 5145 NONAME
	_ZN22HbTapGestureRecognizer5resetEP8QGesture @ 5146 NONAME
	_ZN22HbTapGestureRecognizer6createEP7QObject @ 5147 NONAME
	_ZN22HbTapGestureRecognizer9recognizeEP8QGestureP7QObjectP6QEvent @ 5148 NONAME
	_ZN22HbTapGestureRecognizerC1Ei @ 5149 NONAME ABSENT
	_ZN22HbTapGestureRecognizerC2Ei @ 5150 NONAME ABSENT
	_ZN22HbTapGestureRecognizerD0Ev @ 5151 NONAME
	_ZN22HbTapGestureRecognizerD1Ev @ 5152 NONAME
	_ZN22HbTapGestureRecognizerD2Ev @ 5153 NONAME
	_ZN23HbDeviceProfileDatabase19completeProfileDataEv @ 5154 NONAME
	_ZN23HbDeviceProfileDatabase20deviceProfilesOffsetEv @ 5155 NONAME
	_ZN23HbDeviceProfileDatabase4initEv @ 5156 NONAME
	_ZN23HbDeviceProfileDatabase8instanceEN15HbMemoryManager10MemoryTypeE @ 5157 NONAME
	_ZN23HbDeviceProfileDatabaseC1EN15HbMemoryManager10MemoryTypeE @ 5158 NONAME
	_ZN23HbDeviceProfileDatabaseC2EN15HbMemoryManager10MemoryTypeE @ 5159 NONAME
	_ZN23HbInputMethodDescriptor10setDefaultEv @ 5160 NONAME
	_ZN24HbSwipeGestureRecognizer14touchMoveEventEP11QTouchEvent @ 5161 NONAME ABSENT
	_ZN24HbSwipeGestureRecognizer19recognizeMouseEventEP14HbSwipeGestureP24QGraphicsSceneMouseEvent @ 5162 NONAME ABSENT
	_ZN24HbSwipeGestureRecognizer19recognizeTouchEventEP14HbSwipeGestureP11QTouchEvent @ 5163 NONAME ABSENT
	_ZN24HbSwipeGestureRecognizer22touchPointsCenterPointEP11QTouchEvent @ 5164 NONAME ABSENT
	_ZN24HbSwipeGestureRecognizer5resetEP8QGesture @ 5165 NONAME
	_ZN24HbSwipeGestureRecognizer6createEP7QObject @ 5166 NONAME
	_ZN24HbSwipeGestureRecognizer9recognizeEP8QGestureP7QObjectP6QEvent @ 5167 NONAME
	_ZN24HbSwipeGestureRecognizerC1Ev @ 5168 NONAME
	_ZN24HbSwipeGestureRecognizerC2Ev @ 5169 NONAME
	_ZN24HbSwipeGestureRecognizerD0Ev @ 5170 NONAME
	_ZN24HbSwipeGestureRecognizerD1Ev @ 5171 NONAME
	_ZN24HbSwipeGestureRecognizerD2Ev @ 5172 NONAME
	_ZN24HbTextMeasurementUtility11writeReportEP9QIODevice @ 5173 NONAME ABSENT
	_ZN26HbStyleOptionIndicatorMenuC1ERKS_ @ 5174 NONAME ABSENT
	_ZN26HbStyleOptionIndicatorMenuC1Ev @ 5175 NONAME ABSENT
	_ZN26HbStyleOptionIndicatorMenuC2ERKS_ @ 5176 NONAME ABSENT
	_ZN26HbStyleOptionIndicatorMenuC2Ev @ 5177 NONAME ABSENT
	_ZN26HbStyleOptionIndicatorMenuD1Ev @ 5178 NONAME ABSENT
	_ZN26HbStyleOptionIndicatorMenuD2Ev @ 5179 NONAME ABSENT
	_ZN27HbMousePanGestureRecognizer5resetEP8QGesture @ 5180 NONAME ABSENT
	_ZN27HbMousePanGestureRecognizer6createEP7QObject @ 5181 NONAME ABSENT
	_ZN27HbMousePanGestureRecognizer9recognizeEP8QGestureP7QObjectP6QEvent @ 5182 NONAME ABSENT
	_ZN27HbMousePanGestureRecognizerC1Ev @ 5183 NONAME ABSENT
	_ZN27HbMousePanGestureRecognizerC2Ev @ 5184 NONAME ABSENT
	_ZN27HbMousePanGestureRecognizerD0Ev @ 5185 NONAME ABSENT
	_ZN27HbMousePanGestureRecognizerD1Ev @ 5186 NONAME ABSENT
	_ZN27HbMousePanGestureRecognizerD2Ev @ 5187 NONAME ABSENT
	_ZN29HbTapAndHoldGestureRecognizer10GetTimerIDER6QEvent @ 5188 NONAME ABSENT
	_ZN29HbTapAndHoldGestureRecognizer10startTimerER19HbTapAndHoldGesturei @ 5189 NONAME ABSENT
	_ZN29HbTapAndHoldGestureRecognizer11HandleTimerER19HbTapAndHoldGestureR6QEvent @ 5190 NONAME ABSENT
	_ZN29HbTapAndHoldGestureRecognizer13HandleGestureER19HbTapAndHoldGesture @ 5191 NONAME ABSENT
	_ZN29HbTapAndHoldGestureRecognizer18IsInterestingEventER6QEvent @ 5192 NONAME ABSENT
	_ZN29HbTapAndHoldGestureRecognizer28HandleGraphicsSceneMouseMoveER19HbTapAndHoldGesture @ 5193 NONAME ABSENT
	_ZN29HbTapAndHoldGestureRecognizer29HandleGraphicsSceneMousePressER19HbTapAndHoldGesture @ 5194 NONAME ABSENT
	_ZN29HbTapAndHoldGestureRecognizer31HandleGraphicsSceneMouseReleaseER19HbTapAndHoldGesture @ 5195 NONAME ABSENT
	_ZN29HbTapAndHoldGestureRecognizer5resetEP8QGesture @ 5196 NONAME
	_ZN29HbTapAndHoldGestureRecognizer6createEP7QObject @ 5197 NONAME
	_ZN29HbTapAndHoldGestureRecognizer9recognizeEP8QGestureP7QObjectP6QEvent @ 5198 NONAME
	_ZN29HbTapAndHoldGestureRecognizerC1Ev @ 5199 NONAME
	_ZN29HbTapAndHoldGestureRecognizerC2Ev @ 5200 NONAME
	_ZN5HbCss14ValueExtractor22extractExpressionValueER7QStringRf @ 5201 NONAME ABSENT
	_ZN5HbCss14ValueExtractor6asRealER7QStringNS_5Value4TypeE @ 5202 NONAME ABSENT
	_ZN5HbCss14ValueExtractor6asRealER7QStringRf @ 5203 NONAME ABSENT
	_ZN6HbMenu4execEP8HbAction @ 5204 NONAME ABSENT
	_ZNK10HbFontSpec10textHeightEv @ 5205 NONAME
	_ZNK10HbIconItem10metaObjectEv @ 5206 NONAME
	_ZNK10HbInstance12libraryPathsEv @ 5207 NONAME
	_ZNK11HbFrameItem10metaObjectEv @ 5208 NONAME
	_ZNK12HbPanGesture10metaObjectEv @ 5209 NONAME
	_ZNK12HbPanGesture8startPosEv @ 5210 NONAME
	_ZNK12HbTapGesture10metaObjectEv @ 5211 NONAME
	_ZNK12HbTapGesture8startPosEv @ 5212 NONAME
	_ZNK12HbWidgetBase13testAttributeEN2Hb15WidgetAttributeE @ 5213 NONAME
	_ZNK12HbWidgetBase13testAttributeEN2Qt15WidgetAttributeE @ 5214 NONAME
	_ZNK13HbViewVkbHost10metaObjectEv @ 5215 NONAME ABSENT
	_ZNK14HbPopupVkbHost10metaObjectEv @ 5216 NONAME ABSENT
	_ZNK14HbPopupVkbHost8priorityEv @ 5217 NONAME ABSENT
	_ZNK14HbRichTextItem10metaObjectEv @ 5218 NONAME
	_ZNK14HbSwipeGesture10metaObjectEv @ 5219 NONAME
	_ZNK14HbSwipeGesture15touchPointCountEv @ 5220 NONAME ABSENT
	_ZNK14HbSwipeGesture5speedEv @ 5221 NONAME ABSENT
	_ZNK16HbPixmapIconImpl11defaultSizeEv @ 5222 NONAME
	_ZNK17HbAbstractVkbHost10metaObjectEv @ 5223 NONAME
	_ZNK17HbAbstractVkbHost12activeKeypadEv @ 5224 NONAME
	_ZNK17HbAbstractVkbHost12keyboardAreaEv @ 5225 NONAME
	_ZNK17HbAbstractVkbHost12keypadStatusEv @ 5226 NONAME
	_ZNK17HbAbstractVkbHost14activeViewRectEv @ 5227 NONAME
	_ZNK17HbAbstractVkbHost15applicationAreaEv @ 5228 NONAME
	_ZNK17HbAbstractVkbHost21confirmedKeyboardSizeEv @ 5229 NONAME
	_ZNK17HbAbstractVkbHost35keypadStatusBeforeOrientationChangeEv @ 5230 NONAME
	_ZNK17HbAbstractVkbHost8priorityEv @ 5231 NONAME ABSENT
	_ZNK17HbEditorInterface7vkbHostEv @ 5232 NONAME
	_ZNK19HbFocusObjectWidget13findVkbZValueEv @ 5233 NONAME ABSENT
	_ZNK19HbTapAndHoldGesture10metaObjectEv @ 5234 NONAME
	_ZNK19HbWidgetBasePrivate13keyNavigationEv @ 5235 NONAME
	_ZNK20CHbSymbianVariantMap3GetERK7TDesC16 @ 5236 NONAME
	_ZNK23HbInputMethodDescriptor9isDefaultEv @ 5237 NONAME
	_ZNK27HbFocusObjectGraphicsWidget13findVkbZValueEv @ 5238 NONAME ABSENT
	_ZNK8HbWidget16overrideFeedbackEN2Hb18InstantInteractionE @ 5239 NONAME ABSENT
	_ZNK8HbWidget26overrideContinuousFeedbackEN2Hb21ContinuousInteractionEPi @ 5240 NONAME ABSENT
	_ZTI10HbIconImpl @ 5241 NONAME ABSENT
	_ZTI12HbPanGesture @ 5242 NONAME
	_ZTI12HbTapGesture @ 5243 NONAME
	_ZTI13HbViewVkbHost @ 5244 NONAME ABSENT
	_ZTI14HbPopupVkbHost @ 5245 NONAME ABSENT
	_ZTI14HbSwipeGesture @ 5246 NONAME
	_ZTI16HbPixmapIconImpl @ 5247 NONAME
	_ZTI17HbAbstractVkbHost @ 5248 NONAME
	_ZTI19HbTapAndHoldGesture @ 5249 NONAME
	_ZTI22HbTapGestureRecognizer @ 5250 NONAME
	_ZTI24HbSwipeGestureRecognizer @ 5251 NONAME
	_ZTI27HbMousePanGestureRecognizer @ 5252 NONAME ABSENT
	_ZTI29HbTapAndHoldGestureRecognizer @ 5253 NONAME
	_ZTV10HbIconImpl @ 5254 NONAME ABSENT
	_ZTV12HbPanGesture @ 5255 NONAME
	_ZTV12HbTapGesture @ 5256 NONAME
	_ZTV13HbViewVkbHost @ 5257 NONAME ABSENT
	_ZTV14HbPopupVkbHost @ 5258 NONAME ABSENT
	_ZTV14HbSwipeGesture @ 5259 NONAME
	_ZTV16HbPixmapIconImpl @ 5260 NONAME
	_ZTV17HbAbstractVkbHost @ 5261 NONAME
	_ZTV19HbTapAndHoldGesture @ 5262 NONAME
	_ZTV22HbTapGestureRecognizer @ 5263 NONAME
	_ZTV24HbSwipeGestureRecognizer @ 5264 NONAME
	_ZTV27HbMousePanGestureRecognizer @ 5265 NONAME ABSENT
	_ZTV29HbTapAndHoldGestureRecognizer @ 5266 NONAME
	_ZThn8_N12HbWidgetBase10itemChangeEN13QGraphicsItem18GraphicsItemChangeERK8QVariant @ 5267 NONAME
	_ZN10HbVgEffect10setCachingEb @ 5268 NONAME
	_ZN10HbVgEffect10setOpacityEf @ 5269 NONAME
	_ZN10HbVgEffect11qt_metacallEN11QMetaObject4CallEiPPv @ 5270 NONAME
	_ZN10HbVgEffect11qt_metacastEPKc @ 5271 NONAME
	_ZN10HbVgEffect12setChainRootEPS_ @ 5272 NONAME
	_ZN10HbVgEffect12updateEffectEv @ 5273 NONAME
	_ZN10HbVgEffect13sourceChangedE6QFlagsIN15QGraphicsEffect10ChangeFlagEE @ 5274 NONAME
	_ZN10HbVgEffect14cachingChangedEb @ 5275 NONAME
	_ZN10HbVgEffect14opacityChangedEf @ 5276 NONAME
	_ZN10HbVgEffect16staticMetaObjectE @ 5277 NONAME DATA 16
	_ZN10HbVgEffect19getStaticMetaObjectEv @ 5278 NONAME
	_ZN10HbVgEffect22releaseCachedResourcesEv @ 5279 NONAME
	_ZN10HbVgEffect24updateEffectBoundingRectEv @ 5280 NONAME
	_ZN10HbVgEffect4drawEP8QPainter @ 5281 NONAME
	_ZN10HbVgEffect7installEP13QGraphicsItem @ 5282 NONAME
	_ZN10HbVgEffect8tryCacheERK7QPixmap @ 5283 NONAME
	_ZN10HbVgEffectC2EP7QObject @ 5284 NONAME
	_ZN10HbVgEffectC2ER17HbVgEffectPrivateP7QObject @ 5285 NONAME
	_ZN10HbVgEffectD0Ev @ 5286 NONAME
	_ZN10HbVgEffectD1Ev @ 5287 NONAME
	_ZN10HbVgEffectD2Ev @ 5288 NONAME
	_ZN12HbIconLoader11defaultSizeERK7QStringS2_6QFlagsINS_16IconLoaderOptionEE @ 5289 NONAME
	_ZN12HbIconLoader11loadSvgIconER19HbIconLoadingParams @ 5290 NONAME
	_ZN12HbIconLoader13getIconSourceERK7QStringS2_ @ 5291 NONAME
	_ZN12HbIconLoader13loadAnimationER25HbIconAnimationDefinitionR19HbIconLoadingParams @ 5292 NONAME
	_ZN12HbIconLoader14formatFromPathERK7QString @ 5293 NONAME
	_ZN12HbIconLoader14loadPixmapIconER19HbIconLoadingParamsRK7QString @ 5294 NONAME
	_ZN12HbIconLoader15loadPictureIconER19HbIconLoadingParams @ 5295 NONAME
	_ZN12HbIconLoader16loadAnimatedIconER19HbIconLoadingParamsRK7QString @ 5296 NONAME
	_ZN12HbIconLoader17getIconFromServerER19HbIconLoadingParams @ 5297 NONAME
	_ZN12HbIconLoader19resolveIconFileNameER19HbIconLoadingParams @ 5298 NONAME
	_ZN12HbIconLoader23getAnimationDefaultSizeER25HbIconAnimationDefinitionR19HbIconLoadingParams @ 5299 NONAME
	_ZN12HbIconSource11defaultSizeEv @ 5300 NONAME
	_ZN12HbIconSource11imageReaderEv @ 5301 NONAME
	_ZN12HbIconSource11svgRendererEv @ 5302 NONAME
	_ZN12HbIconSource16clearImageReaderEv @ 5303 NONAME ABSENT
	_ZN12HbIconSource16clearSvgRendererEv @ 5304 NONAME ABSENT
	_ZN12HbIconSource24deletePixmapIfLargerThanEi @ 5305 NONAME ABSENT
	_ZN12HbIconSource4typeEv @ 5306 NONAME
	_ZN12HbIconSource6pixmapEv @ 5307 NONAME ABSENT
	_ZN12HbIconSource7pictureEv @ 5308 NONAME
	_ZN12HbIconSourceC1ERK7QString @ 5309 NONAME
	_ZN12HbIconSourceC1ERK7QStringS2_ @ 5310 NONAME
	_ZN12HbIconSourceC2ERK7QString @ 5311 NONAME
	_ZN12HbIconSourceC2ERK7QStringS2_ @ 5312 NONAME
	_ZN12HbIconSourceD1Ev @ 5313 NONAME
	_ZN12HbIconSourceD2Ev @ 5314 NONAME
	_ZN12HbVgBcEffect11qt_metacallEN11QMetaObject4CallEiPPv @ 5315 NONAME
	_ZN12HbVgBcEffect11qt_metacastEPKc @ 5316 NONAME
	_ZN12HbVgBcEffect11setContrastEf @ 5317 NONAME
	_ZN12HbVgBcEffect13performEffectEP8QPainterRK7QPointFRK8QVariantRK5QSize @ 5318 NONAME
	_ZN12HbVgBcEffect13setBrightnessEf @ 5319 NONAME
	_ZN12HbVgBcEffect15contrastChangedEf @ 5320 NONAME
	_ZN12HbVgBcEffect16staticMetaObjectE @ 5321 NONAME DATA 16
	_ZN12HbVgBcEffect17brightnessChangedEf @ 5322 NONAME
	_ZN12HbVgBcEffect19getStaticMetaObjectEv @ 5323 NONAME
	_ZN12HbVgBcEffectC1EP7QObject @ 5324 NONAME
	_ZN12HbVgBcEffectC1ER19HbVgBcEffectPrivateP7QObject @ 5325 NONAME
	_ZN12HbVgBcEffectC2EP7QObject @ 5326 NONAME
	_ZN12HbVgBcEffectC2ER19HbVgBcEffectPrivateP7QObject @ 5327 NONAME
	_ZN12HbVgBcEffectD0Ev @ 5328 NONAME
	_ZN12HbVgBcEffectD1Ev @ 5329 NONAME
	_ZN12HbVgBcEffectD2Ev @ 5330 NONAME
	_ZN13HbOogmWatcher15iconCleanupDoneEi @ 5331 NONAME
	_ZN13HbOogmWatcher15mainWindowReadyEv @ 5332 NONAME ABSENT
	_ZN13HbVgHslEffect10desaturateEv @ 5333 NONAME
	_ZN13HbVgHslEffect10hueChangedEf @ 5334 NONAME
	_ZN13HbVgHslEffect11qt_metacallEN11QMetaObject4CallEiPPv @ 5335 NONAME
	_ZN13HbVgHslEffect11qt_metacastEPKc @ 5336 NONAME
	_ZN13HbVgHslEffect12setLightnessEf @ 5337 NONAME
	_ZN13HbVgHslEffect13performEffectEP8QPainterRK7QPointFRK8QVariantRK5QSize @ 5338 NONAME
	_ZN13HbVgHslEffect13setSaturationEf @ 5339 NONAME
	_ZN13HbVgHslEffect16lightnessChangedEf @ 5340 NONAME
	_ZN13HbVgHslEffect16staticMetaObjectE @ 5341 NONAME DATA 16
	_ZN13HbVgHslEffect17saturationChangedEf @ 5342 NONAME
	_ZN13HbVgHslEffect19getStaticMetaObjectEv @ 5343 NONAME
	_ZN13HbVgHslEffect6setHueEf @ 5344 NONAME
	_ZN13HbVgHslEffectC1EP7QObject @ 5345 NONAME
	_ZN13HbVgHslEffectC1ER20HbVgHslEffectPrivateP7QObject @ 5346 NONAME
	_ZN13HbVgHslEffectC2EP7QObject @ 5347 NONAME
	_ZN13HbVgHslEffectC2ER20HbVgHslEffectPrivateP7QObject @ 5348 NONAME
	_ZN13HbVgHslEffectD0Ev @ 5349 NONAME
	_ZN13HbVgHslEffectD1Ev @ 5350 NONAME
	_ZN13HbVgHslEffectD2Ev @ 5351 NONAME
	_ZN14HbAnchorLayout11widgetEventEP6QEvent @ 5352 NONAME
	_ZN14HbVgBlurEffect11qt_metacallEN11QMetaObject4CallEiPPv @ 5353 NONAME
	_ZN14HbVgBlurEffect11qt_metacastEPKc @ 5354 NONAME
	_ZN14HbVgBlurEffect13performEffectEP8QPainterRK7QPointFRK8QVariantRK5QSize @ 5355 NONAME
	_ZN14HbVgBlurEffect13radiusChangedERK7QPointF @ 5356 NONAME
	_ZN14HbVgBlurEffect16staticMetaObjectE @ 5357 NONAME DATA 16
	_ZN14HbVgBlurEffect19getStaticMetaObjectEv @ 5358 NONAME
	_ZN14HbVgBlurEffect8makeBlurERK8QVariantRK5QSize @ 5359 NONAME
	_ZN14HbVgBlurEffect9setRadiusERK7QPointF @ 5360 NONAME
	_ZN14HbVgBlurEffectC1EP7QObject @ 5361 NONAME
	_ZN14HbVgBlurEffectC1ER21HbVgBlurEffectPrivateP7QObject @ 5362 NONAME
	_ZN14HbVgBlurEffectC2EP7QObject @ 5363 NONAME
	_ZN14HbVgBlurEffectC2ER21HbVgBlurEffectPrivateP7QObject @ 5364 NONAME
	_ZN14HbVgBlurEffectD0Ev @ 5365 NONAME
	_ZN14HbVgBlurEffectD1Ev @ 5366 NONAME
	_ZN14HbVgBlurEffectD2Ev @ 5367 NONAME
	_ZN14HbVgGlowEffect11qt_metacallEN11QMetaObject4CallEiPPv @ 5368 NONAME
	_ZN14HbVgGlowEffect11qt_metacastEPKc @ 5369 NONAME
	_ZN14HbVgGlowEffect13performEffectEP8QPainterRK7QPointFRK8QVariantRK5QSize @ 5370 NONAME
	_ZN14HbVgGlowEffect16staticMetaObjectE @ 5371 NONAME DATA 16
	_ZN14HbVgGlowEffect19getStaticMetaObjectEv @ 5372 NONAME
	_ZN14HbVgGlowEffectC1EP7QObject @ 5373 NONAME
	_ZN14HbVgGlowEffectC1ER21HbVgBlurEffectPrivateP7QObject @ 5374 NONAME
	_ZN14HbVgGlowEffectC2EP7QObject @ 5375 NONAME
	_ZN14HbVgGlowEffectC2ER21HbVgBlurEffectPrivateP7QObject @ 5376 NONAME
	_ZN14HbVgGlowEffectD0Ev @ 5377 NONAME
	_ZN14HbVgGlowEffectD1Ev @ 5378 NONAME
	_ZN14HbVgGlowEffectD2Ev @ 5379 NONAME
	_ZN14HbVgMaskEffect11maskChangedERK7QPixmap @ 5380 NONAME
	_ZN14HbVgMaskEffect11qt_metacallEN11QMetaObject4CallEiPPv @ 5381 NONAME
	_ZN14HbVgMaskEffect11qt_metacastEPKc @ 5382 NONAME
	_ZN14HbVgMaskEffect11setMaskRectERK6QRectF @ 5383 NONAME
	_ZN14HbVgMaskEffect13performEffectEP8QPainterRK7QPointFRK8QVariantRK5QSize @ 5384 NONAME
	_ZN14HbVgMaskEffect15maskRectChangedERK6QRectF @ 5385 NONAME
	_ZN14HbVgMaskEffect15setMaskCallbackEPF7QPixmapRK5QSizePvES4_ @ 5386 NONAME
	_ZN14HbVgMaskEffect16staticMetaObjectE @ 5387 NONAME DATA 16
	_ZN14HbVgMaskEffect17setMaskDeviceRectERK6QRectF @ 5388 NONAME
	_ZN14HbVgMaskEffect19getStaticMetaObjectEv @ 5389 NONAME
	_ZN14HbVgMaskEffect19maskCallbackChangedEPF7QPixmapRK5QSizePvE @ 5390 NONAME
	_ZN14HbVgMaskEffect5clearEv @ 5391 NONAME
	_ZN14HbVgMaskEffect7setMaskERK7QPixmap @ 5392 NONAME
	_ZN14HbVgMaskEffectC1EP7QObject @ 5393 NONAME
	_ZN14HbVgMaskEffectC1ER21HbVgMaskEffectPrivateP7QObject @ 5394 NONAME
	_ZN14HbVgMaskEffectC2EP7QObject @ 5395 NONAME
	_ZN14HbVgMaskEffectC2ER21HbVgMaskEffectPrivateP7QObject @ 5396 NONAME
	_ZN14HbVgMaskEffectD0Ev @ 5397 NONAME
	_ZN14HbVgMaskEffectD1Ev @ 5398 NONAME
	_ZN14HbVgMaskEffectD2Ev @ 5399 NONAME
	_ZN15HbVgFrameEffect11qt_metacallEN11QMetaObject4CallEiPPv @ 5400 NONAME
	_ZN15HbVgFrameEffect11qt_metacastEPKc @ 5401 NONAME
	_ZN15HbVgFrameEffect12colorChangedERK6QColor @ 5402 NONAME
	_ZN15HbVgFrameEffect13performEffectEP8QPainterRK7QPointFRK8QVariantRK5QSize @ 5403 NONAME
	_ZN15HbVgFrameEffect16staticMetaObjectE @ 5404 NONAME DATA 16
	_ZN15HbVgFrameEffect19getStaticMetaObjectEv @ 5405 NONAME
	_ZN15HbVgFrameEffect7setHintE6QFlagsINS_4HintEE @ 5406 NONAME
	_ZN15HbVgFrameEffect8setColorERK6QColor @ 5407 NONAME
	_ZN15HbVgFrameEffectC1EP7QObject @ 5408 NONAME
	_ZN15HbVgFrameEffectC1ER22HbVgFrameEffectPrivateP7QObject @ 5409 NONAME
	_ZN15HbVgFrameEffectC2EP7QObject @ 5410 NONAME
	_ZN15HbVgFrameEffectC2ER22HbVgFrameEffectPrivateP7QObject @ 5411 NONAME
	_ZN15HbVgFrameEffectD0Ev @ 5412 NONAME
	_ZN15HbVgFrameEffectD1Ev @ 5413 NONAME
	_ZN15HbVgFrameEffectD2Ev @ 5414 NONAME
	_ZN15HbVgLightEffect11qt_metacallEN11QMetaObject4CallEiPPv @ 5415 NONAME ABSENT
	_ZN15HbVgLightEffect11qt_metacastEPKc @ 5416 NONAME ABSENT
	_ZN15HbVgLightEffect13performEffectEP8QPainterRK7QPointFRK8QVariantRK5QSize @ 5417 NONAME ABSENT
	_ZN15HbVgLightEffect16staticMetaObjectE @ 5418 NONAME DATA 16 ABSENT
	_ZN15HbVgLightEffect19getStaticMetaObjectEv @ 5419 NONAME ABSENT
	_ZN15HbVgLightEffectC1EP7QObject @ 5420 NONAME ABSENT
	_ZN15HbVgLightEffectC1ER22HbVgLightEffectPrivateP7QObject @ 5421 NONAME ABSENT
	_ZN15HbVgLightEffectC2EP7QObject @ 5422 NONAME ABSENT
	_ZN15HbVgLightEffectC2ER22HbVgLightEffectPrivateP7QObject @ 5423 NONAME ABSENT
	_ZN15HbVgLightEffectD0Ev @ 5424 NONAME ABSENT
	_ZN15HbVgLightEffectD1Ev @ 5425 NONAME ABSENT
	_ZN15HbVgLightEffectD2Ev @ 5426 NONAME ABSENT
	_ZN16HbVgShadowEffect11qt_metacallEN11QMetaObject4CallEiPPv @ 5427 NONAME
	_ZN16HbVgShadowEffect11qt_metacastEPKc @ 5428 NONAME
	_ZN16HbVgShadowEffect13performEffectEP8QPainterRK7QPointFRK8QVariantRK5QSize @ 5429 NONAME
	_ZN16HbVgShadowEffect16staticMetaObjectE @ 5430 NONAME DATA 16
	_ZN16HbVgShadowEffect19getStaticMetaObjectEv @ 5431 NONAME
	_ZN16HbVgShadowEffectC1EP7QObject @ 5432 NONAME
	_ZN16HbVgShadowEffectC1ER24HbVgOutlineEffectPrivateP7QObject @ 5433 NONAME
	_ZN16HbVgShadowEffectC2EP7QObject @ 5434 NONAME
	_ZN16HbVgShadowEffectC2ER24HbVgOutlineEffectPrivateP7QObject @ 5435 NONAME
	_ZN16HbVgShadowEffectD0Ev @ 5436 NONAME
	_ZN16HbVgShadowEffectD1Ev @ 5437 NONAME
	_ZN16HbVgShadowEffectD2Ev @ 5438 NONAME
	_ZN17HbVgChainedEffect11effectAddedEP10HbVgEffect @ 5439 NONAME
	_ZN17HbVgChainedEffect11qt_metacallEN11QMetaObject4CallEiPPv @ 5440 NONAME
	_ZN17HbVgChainedEffect11qt_metacastEPKc @ 5441 NONAME
	_ZN17HbVgChainedEffect13effectRemovedEP10HbVgEffect @ 5442 NONAME
	_ZN17HbVgChainedEffect13performEffectEP8QPainterRK7QPointFRK8QVariantRK5QSize @ 5443 NONAME
	_ZN17HbVgChainedEffect16staticMetaObjectE @ 5444 NONAME DATA 16
	_ZN17HbVgChainedEffect19getStaticMetaObjectEv @ 5445 NONAME
	_ZN17HbVgChainedEffect2atEi @ 5446 NONAME
	_ZN17HbVgChainedEffect3addEP10HbVgEffect @ 5447 NONAME
	_ZN17HbVgChainedEffect6removeEP10HbVgEffect @ 5448 NONAME
	_ZN17HbVgChainedEffectC1EP7QObject @ 5449 NONAME
	_ZN17HbVgChainedEffectC1ER24HbVgChainedEffectPrivateP7QObject @ 5450 NONAME
	_ZN17HbVgChainedEffectC2EP7QObject @ 5451 NONAME
	_ZN17HbVgChainedEffectC2ER24HbVgChainedEffectPrivateP7QObject @ 5452 NONAME
	_ZN17HbVgChainedEffectD0Ev @ 5453 NONAME
	_ZN17HbVgChainedEffectD1Ev @ 5454 NONAME
	_ZN17HbVgChainedEffectD2Ev @ 5455 NONAME
	_ZN17HbVgOutlineEffect10setOutlineERK7QPointF @ 5456 NONAME
	_ZN17HbVgOutlineEffect11makeOutlineERK8QVariantRK5QSize @ 5457 NONAME
	_ZN17HbVgOutlineEffect11qt_metacallEN11QMetaObject4CallEiPPv @ 5458 NONAME
	_ZN17HbVgOutlineEffect11qt_metacastEPKc @ 5459 NONAME
	_ZN17HbVgOutlineEffect12colorChangedERK6QColor @ 5460 NONAME
	_ZN17HbVgOutlineEffect12setSteepnessEf @ 5461 NONAME
	_ZN17HbVgOutlineEffect13offsetChangedERK7QPointF @ 5462 NONAME
	_ZN17HbVgOutlineEffect13performEffectEP8QPainterRK7QPointFRK8QVariantRK5QSize @ 5463 NONAME
	_ZN17HbVgOutlineEffect14outlineChangedERK7QPointF @ 5464 NONAME
	_ZN17HbVgOutlineEffect16staticMetaObjectE @ 5465 NONAME DATA 16
	_ZN17HbVgOutlineEffect16steepnessChangedEf @ 5466 NONAME
	_ZN17HbVgOutlineEffect19getStaticMetaObjectEv @ 5467 NONAME
	_ZN17HbVgOutlineEffect8setColorERK6QColor @ 5468 NONAME
	_ZN17HbVgOutlineEffect9setOffsetERK7QPointF @ 5469 NONAME
	_ZN17HbVgOutlineEffectC1EP7QObject @ 5470 NONAME
	_ZN17HbVgOutlineEffectC1ER24HbVgOutlineEffectPrivateP7QObject @ 5471 NONAME
	_ZN17HbVgOutlineEffectC2EP7QObject @ 5472 NONAME
	_ZN17HbVgOutlineEffectC2ER24HbVgOutlineEffectPrivateP7QObject @ 5473 NONAME
	_ZN17HbVgOutlineEffectD0Ev @ 5474 NONAME
	_ZN17HbVgOutlineEffectD1Ev @ 5475 NONAME
	_ZN17HbVgOutlineEffectD2Ev @ 5476 NONAME
	_ZN18HbInputFocusObject12commitSmileyE7QString @ 5477 NONAME
	_ZN18HbVgColorizeEffect11qt_metacallEN11QMetaObject4CallEiPPv @ 5478 NONAME
	_ZN18HbVgColorizeEffect11qt_metacastEPKc @ 5479 NONAME
	_ZN18HbVgColorizeEffect12colorChangedERK6QColor @ 5480 NONAME
	_ZN18HbVgColorizeEffect13performEffectEP8QPainterRK7QPointFRK8QVariantRK5QSize @ 5481 NONAME
	_ZN18HbVgColorizeEffect16staticMetaObjectE @ 5482 NONAME DATA 16
	_ZN18HbVgColorizeEffect19getStaticMetaObjectEv @ 5483 NONAME
	_ZN18HbVgColorizeEffect8setColorERK6QColor @ 5484 NONAME
	_ZN18HbVgColorizeEffectC1EP7QObject @ 5485 NONAME
	_ZN18HbVgColorizeEffectC1ER25HbVgColorizeEffectPrivateP7QObject @ 5486 NONAME
	_ZN18HbVgColorizeEffectC2EP7QObject @ 5487 NONAME
	_ZN18HbVgColorizeEffectC2ER25HbVgColorizeEffectPrivateP7QObject @ 5488 NONAME
	_ZN18HbVgColorizeEffectD0Ev @ 5489 NONAME
	_ZN18HbVgColorizeEffectD1Ev @ 5490 NONAME
	_ZN18HbVgColorizeEffectD2Ev @ 5491 NONAME
	_ZN19CHbIndicatorSymbian10DeactivateERK7TDesC16P17CHbSymbianVariant @ 5492 NONAME ABSENT
	_ZN19CHbIndicatorSymbian4NewLEv @ 5493 NONAME
	_ZN19CHbIndicatorSymbian8ActivateERK7TDesC16P17CHbSymbianVariant @ 5494 NONAME ABSENT
	_ZN19CHbIndicatorSymbianD0Ev @ 5495 NONAME
	_ZN19CHbIndicatorSymbianD1Ev @ 5496 NONAME
	_ZN19CHbIndicatorSymbianD2Ev @ 5497 NONAME
	_ZN19HbFocusObjectWidget12commitSmileyE7QString @ 5498 NONAME ABSENT
	_ZN19HbInputContextProxy35activateInputMethodForFocusedObjectEP13QGraphicsItem @ 5499 NONAME ABSENT
	_ZN19HbInputContextProxy35activateInputMethodForFocusedWidgetEP7QWidgetP20QGraphicsProxyWidget @ 5500 NONAME ABSENT
	_ZN19HbScrollAreaPrivate18orientationChangedEv @ 5501 NONAME ABSENT
	_ZN20HbDeviceDialogServer16showDeviceDialogERNS_16DialogParametersE @ 5502 NONAME
	_ZN20HbDeviceDialogServer17activateIndicatorERNS_19IndicatorParametersE @ 5503 NONAME
	_ZN20HbDeviceDialogServer19deactivateIndicatorERNS_19IndicatorParametersE @ 5504 NONAME
	_ZN20HbVgReflectionEffect11fadeChangedEf @ 5505 NONAME
	_ZN20HbVgReflectionEffect11qt_metacallEN11QMetaObject4CallEiPPv @ 5506 NONAME
	_ZN20HbVgReflectionEffect11qt_metacastEPKc @ 5507 NONAME
	_ZN20HbVgReflectionEffect12colorChangedERK6QColor @ 5508 NONAME ABSENT
	_ZN20HbVgReflectionEffect13offsetChangedERK7QPointF @ 5509 NONAME
	_ZN20HbVgReflectionEffect13performEffectEP8QPainterRK7QPointFRK8QVariantRK5QSize @ 5510 NONAME
	_ZN20HbVgReflectionEffect16staticMetaObjectE @ 5511 NONAME DATA 16
	_ZN20HbVgReflectionEffect19getStaticMetaObjectEv @ 5512 NONAME
	_ZN20HbVgReflectionEffect7setFadeEf @ 5513 NONAME
	_ZN20HbVgReflectionEffect8setColorERK6QColor @ 5514 NONAME ABSENT
	_ZN20HbVgReflectionEffect9setOffsetERK7QPointF @ 5515 NONAME
	_ZN20HbVgReflectionEffectC1EP7QObject @ 5516 NONAME
	_ZN20HbVgReflectionEffectC1ER27HbVgReflectionEffectPrivateP7QObject @ 5517 NONAME
	_ZN20HbVgReflectionEffectC2EP7QObject @ 5518 NONAME
	_ZN20HbVgReflectionEffectC2ER27HbVgReflectionEffectPrivateP7QObject @ 5519 NONAME
	_ZN20HbVgReflectionEffectD0Ev @ 5520 NONAME
	_ZN20HbVgReflectionEffectD1Ev @ 5521 NONAME
	_ZN20HbVgReflectionEffectD2Ev @ 5522 NONAME
	_ZN21HbTestabilitySignal_p19notifySignalEnabledEPFvbPvES0_ @ 5523 NONAME
	_ZN22CHbDeviceDialogSymbian11SetObserverEP23MHbDeviceDialogObserver @ 5524 NONAME
	_ZN22CHbDeviceDialogSymbian4NewLEi @ 5525 NONAME
	_ZN22CHbDeviceDialogSymbian4ShowERK7TDesC16RK20CHbSymbianVariantMapP23MHbDeviceDialogObserver @ 5526 NONAME
	_ZN22CHbDeviceDialogSymbian6CancelEv @ 5527 NONAME
	_ZN22CHbDeviceDialogSymbian6UpdateERK20CHbSymbianVariantMap @ 5528 NONAME
	_ZN22CHbDeviceDialogSymbianD0Ev @ 5529 NONAME
	_ZN22CHbDeviceDialogSymbianD1Ev @ 5530 NONAME
	_ZN22CHbDeviceDialogSymbianD2Ev @ 5531 NONAME
	_ZN27HbFocusObjectGraphicsWidget12commitSmileyE7QString @ 5532 NONAME ABSENT
	_ZNK10HbVgEffect10metaObjectEv @ 5533 NONAME
	_ZNK10HbVgEffect17sourceItemForRootEv @ 5534 NONAME
	_ZNK10HbVgEffect25sourceBoundingRectForRootEv @ 5535 NONAME
	_ZNK10HbVgEffect6cachedERK5QSize @ 5536 NONAME
	_ZNK10HbVgEffect7cachingEv @ 5537 NONAME
	_ZNK10HbVgEffect7opacityEv @ 5538 NONAME
	_ZNK10HbVgEffect9chainRootEv @ 5539 NONAME
	_ZNK12HbIconLoader20resolveCleanIconNameER19HbIconLoadingParams @ 5540 NONAME
	_ZNK12HbIconSource8filenameEv @ 5541 NONAME
	_ZNK12HbVgBcEffect10brightnessEv @ 5542 NONAME
	_ZNK12HbVgBcEffect10metaObjectEv @ 5543 NONAME
	_ZNK12HbVgBcEffect15boundingRectForERK6QRectF @ 5544 NONAME
	_ZNK12HbVgBcEffect8contrastEv @ 5545 NONAME
	_ZNK13HbVgHslEffect10metaObjectEv @ 5546 NONAME
	_ZNK13HbVgHslEffect10saturationEv @ 5547 NONAME
	_ZNK13HbVgHslEffect15boundingRectForERK6QRectF @ 5548 NONAME
	_ZNK13HbVgHslEffect3hueEv @ 5549 NONAME
	_ZNK13HbVgHslEffect9lightnessEv @ 5550 NONAME
	_ZNK14HbVgBlurEffect10metaObjectEv @ 5551 NONAME
	_ZNK14HbVgBlurEffect15boundingRectForERK6QRectF @ 5552 NONAME
	_ZNK14HbVgBlurEffect6radiusEv @ 5553 NONAME
	_ZNK14HbVgGlowEffect10metaObjectEv @ 5554 NONAME
	_ZNK14HbVgMaskEffect10metaObjectEv @ 5555 NONAME
	_ZNK14HbVgMaskEffect10scaledMaskEv @ 5556 NONAME
	_ZNK14HbVgMaskEffect12maskCallbackEv @ 5557 NONAME
	_ZNK14HbVgMaskEffect14maskDeviceRectEv @ 5558 NONAME
	_ZNK14HbVgMaskEffect15boundingRectForERK6QRectF @ 5559 NONAME
	_ZNK14HbVgMaskEffect17maskCallbackParamEv @ 5560 NONAME
	_ZNK14HbVgMaskEffect4maskEv @ 5561 NONAME
	_ZNK14HbVgMaskEffect8maskRectEv @ 5562 NONAME
	_ZNK15HbVgFrameEffect10metaObjectEv @ 5563 NONAME
	_ZNK15HbVgFrameEffect15boundingRectForERK6QRectF @ 5564 NONAME
	_ZNK15HbVgFrameEffect5colorEv @ 5565 NONAME
	_ZNK15HbVgLightEffect10metaObjectEv @ 5566 NONAME ABSENT
	_ZNK15HbVgLightEffect15boundingRectForERK6QRectF @ 5567 NONAME ABSENT
	_ZNK16HbVgShadowEffect10metaObjectEv @ 5568 NONAME
	_ZNK17HbVgChainedEffect10metaObjectEv @ 5569 NONAME
	_ZNK17HbVgChainedEffect15boundingRectForERK6QRectF @ 5570 NONAME
	_ZNK17HbVgChainedEffect2atEi @ 5571 NONAME
	_ZNK17HbVgChainedEffect5countEv @ 5572 NONAME
	_ZNK17HbVgChainedEffect8containsEP10HbVgEffect @ 5573 NONAME
	_ZNK17HbVgOutlineEffect10metaObjectEv @ 5574 NONAME
	_ZNK17HbVgOutlineEffect15boundingRectForERK6QRectF @ 5575 NONAME
	_ZNK17HbVgOutlineEffect5colorEv @ 5576 NONAME
	_ZNK17HbVgOutlineEffect6offsetEv @ 5577 NONAME
	_ZNK17HbVgOutlineEffect7outlineEv @ 5578 NONAME
	_ZNK17HbVgOutlineEffect9steepnessEv @ 5579 NONAME
	_ZNK18HbVgColorizeEffect10metaObjectEv @ 5580 NONAME
	_ZNK18HbVgColorizeEffect15boundingRectForERK6QRectF @ 5581 NONAME
	_ZNK18HbVgColorizeEffect5colorEv @ 5582 NONAME
	_ZNK19CHbIndicatorSymbian5ErrorEv @ 5583 NONAME
	_ZNK19HbInputContextProxy29hasAlreadyInputFrameworkFocusEP13HbInputMethodP15QGraphicsWidget @ 5584 NONAME ABSENT
	_ZNK19HbInputContextProxy29hasAlreadyInputFrameworkFocusEP13HbInputMethodP7QWidget @ 5585 NONAME ABSENT
	_ZNK20HbVgReflectionEffect10metaObjectEv @ 5586 NONAME
	_ZNK20HbVgReflectionEffect15boundingRectForERK6QRectF @ 5587 NONAME
	_ZNK20HbVgReflectionEffect4fadeEv @ 5588 NONAME
	_ZNK20HbVgReflectionEffect5colorEv @ 5589 NONAME ABSENT
	_ZNK20HbVgReflectionEffect6offsetEv @ 5590 NONAME
	_ZNK22CHbDeviceDialogSymbian13ReceivedDataLEv @ 5591 NONAME
	_ZTI10HbVgEffect @ 5592 NONAME
	_ZTI12HbVgBcEffect @ 5593 NONAME
	_ZTI13HbVgHslEffect @ 5594 NONAME
	_ZTI14HbVgBlurEffect @ 5595 NONAME
	_ZTI14HbVgGlowEffect @ 5596 NONAME
	_ZTI14HbVgMaskEffect @ 5597 NONAME
	_ZTI15HbVgFrameEffect @ 5598 NONAME
	_ZTI15HbVgLightEffect @ 5599 NONAME ABSENT
	_ZTI16HbVgShadowEffect @ 5600 NONAME
	_ZTI17HbVgChainedEffect @ 5601 NONAME
	_ZTI17HbVgOutlineEffect @ 5602 NONAME
	_ZTI18HbVgColorizeEffect @ 5603 NONAME
	_ZTI20HbVgReflectionEffect @ 5604 NONAME
	_ZTV10HbVgEffect @ 5605 NONAME
	_ZTV12HbVgBcEffect @ 5606 NONAME
	_ZTV13HbVgHslEffect @ 5607 NONAME
	_ZTV14HbVgBlurEffect @ 5608 NONAME
	_ZTV14HbVgGlowEffect @ 5609 NONAME
	_ZTV14HbVgMaskEffect @ 5610 NONAME
	_ZTV15HbVgFrameEffect @ 5611 NONAME
	_ZTV15HbVgLightEffect @ 5612 NONAME ABSENT
	_ZTV16HbVgShadowEffect @ 5613 NONAME
	_ZTV17HbVgChainedEffect @ 5614 NONAME
	_ZTV17HbVgOutlineEffect @ 5615 NONAME
	_ZTV18HbVgColorizeEffect @ 5616 NONAME
	_ZTV20HbVgReflectionEffect @ 5617 NONAME
	_ZN10HbInstance14setOrientationEN2Qt11OrientationEb @ 5618 NONAME ABSENT
	_ZN11HbScrollBar11resizeEventEP25QGraphicsSceneResizeEvent @ 5619 NONAME
	_ZN11HbScrollBar6polishER17HbStyleParameters @ 5620 NONAME
	_ZN12HbMainWindow11customEventEP6QEvent @ 5621 NONAME
	_ZN12HbMainWindow14setCurrentViewEP6HbViewb6QFlagsIN2Hb14ViewSwitchFlagEE @ 5622 NONAME
	_ZN12HbMainWindow14setOrientationEN2Qt11OrientationEb @ 5623 NONAME
	_ZN12HbMainWindow16unsetOrientationEb @ 5624 NONAME
	_ZN12HbToolButton6polishER17HbStyleParameters @ 5625 NONAME
	_ZN13HbMarqueeItem12setTextColorERK6QColor @ 5626 NONAME
	_ZN15HbGraphicsScene14drawForegroundEP8QPainterRK6QRectF @ 5627 NONAME
	_ZN15HbKeymapFactory6keymapE15HbInputLanguage @ 5628 NONAME
	_ZN15HbStaticVkbHost11qt_metacallEN11QMetaObject4CallEiPPv @ 5629 NONAME
	_ZN15HbStaticVkbHost11qt_metacastEPKc @ 5630 NONAME
	_ZN15HbStaticVkbHost16staticMetaObjectE @ 5631 NONAME DATA 16
	_ZN15HbStaticVkbHost19getStaticMetaObjectEv @ 5632 NONAME
	_ZN15HbStaticVkbHostC1EP8HbWidget @ 5633 NONAME
	_ZN15HbStaticVkbHostC2EP8HbWidget @ 5634 NONAME
	_ZN15HbStaticVkbHostD0Ev @ 5635 NONAME
	_ZN15HbStaticVkbHostD1Ev @ 5636 NONAME
	_ZN15HbStaticVkbHostD2Ev @ 5637 NONAME
	_ZN16HbEffectInternal5startEP13QGraphicsItemS1_bRK7QStringP7QObjectPKcRK8QVariantRK6QRectF @ 5638 NONAME ABSENT
	_ZN16HbEffectInternal5startEP13QGraphicsItemS1_bRK7QStringS4_P7QObjectPKcRK8QVariantRK6QRectF @ 5639 NONAME ABSENT
	_ZN16HbEffectInternal9cancelAllEPK5QListIP13QGraphicsItemEb @ 5640 NONAME
	_ZN16HbFeatureManager13featureStatusENS_9HbFeatureE @ 5641 NONAME ABSENT
	_ZN16HbFeatureManager16setFeatureStatusENS_9HbFeatureEi @ 5642 NONAME ABSENT
	_ZN16HbFeatureManager8instanceEv @ 5643 NONAME
	_ZN16HbFeatureManager8toStringENS_9HbFeatureE @ 5644 NONAME ABSENT
	_ZN16HbFeatureManagerC1Ev @ 5645 NONAME
	_ZN16HbFeatureManagerC2Ev @ 5646 NONAME
	_ZN16HbFeatureManagerD1Ev @ 5647 NONAME
	_ZN16HbFeatureManagerD2Ev @ 5648 NONAME
	_ZN17HbEditorInterface16backendDestroyedEP7QObject @ 5649 NONAME
	_ZN17HbSignalIndicator18networkModeChangedEN19HbSystemNetworkInfo11NetworkModeE @ 5650 NONAME ABSENT
	_ZN19CHbIndicatorSymbian10DeactivateERK7TDesC16PK17CHbSymbianVariant @ 5651 NONAME
	_ZN19CHbIndicatorSymbian8ActivateERK7TDesC16PK17CHbSymbianVariant @ 5652 NONAME
	_ZN19HbInputSettingProxy24enableRegionalCorrectionEb @ 5653 NONAME
	_ZN19HbInputSettingProxy25regionalCorrectionEnabledEv @ 5654 NONAME
	_ZN19HbInputSettingProxy30regionalCorretionStatusChangedEb @ 5655 NONAME
	_ZN21HbStyleOptionComboBoxC1ERKS_ @ 5656 NONAME
	_ZN21HbStyleOptionComboBoxC1Ev @ 5657 NONAME
	_ZN21HbStyleOptionComboBoxC2ERKS_ @ 5658 NONAME
	_ZN21HbStyleOptionComboBoxC2Ev @ 5659 NONAME
	_ZN21HbStyleOptionComboBoxD1Ev @ 5660 NONAME
	_ZN21HbStyleOptionComboBoxD2Ev @ 5661 NONAME
	_ZN23HbDeviceDialogInterfaceD0Ev @ 5662 NONAME
	_ZN23HbDeviceDialogInterfaceD1Ev @ 5663 NONAME
	_ZN23HbDeviceDialogInterfaceD2Ev @ 5664 NONAME
	_ZN26HbDeviceDialogServerStatus11qt_metacallEN11QMetaObject4CallEiPPv @ 5665 NONAME
	_ZN26HbDeviceDialogServerStatus11qt_metacastEPKc @ 5666 NONAME
	_ZN26HbDeviceDialogServerStatus13statusChangedEv @ 5667 NONAME
	_ZN26HbDeviceDialogServerStatus16staticMetaObjectE @ 5668 NONAME DATA 16
	_ZN26HbDeviceDialogServerStatus19getStaticMetaObjectEv @ 5669 NONAME
	_ZN26HbDeviceDialogServerStatus6statusEv @ 5670 NONAME
	_ZN26HbDeviceDialogServerStatus9isRunningEv @ 5671 NONAME
	_ZN26HbDeviceDialogServerStatus9setStatusE6QFlagsINS_10StatusFlagEE @ 5672 NONAME
	_ZN26HbDeviceDialogServerStatusC1EbP7QObject @ 5673 NONAME
	_ZN26HbDeviceDialogServerStatusC2EbP7QObject @ 5674 NONAME
	_ZN26HbDeviceDialogServerStatusD0Ev @ 5675 NONAME
	_ZN26HbDeviceDialogServerStatusD1Ev @ 5676 NONAME
	_ZN26HbDeviceDialogServerStatusD2Ev @ 5677 NONAME
	_ZN26HbStyleOptionIndexFeedbackC1ERKS_ @ 5678 NONAME ABSENT
	_ZN26HbStyleOptionIndexFeedbackC1Ev @ 5679 NONAME ABSENT
	_ZN26HbStyleOptionIndexFeedbackC2ERKS_ @ 5680 NONAME ABSENT
	_ZN26HbStyleOptionIndexFeedbackC2Ev @ 5681 NONAME ABSENT
	_ZN26HbStyleOptionIndexFeedbackD1Ev @ 5682 NONAME ABSENT
	_ZN26HbStyleOptionIndexFeedbackD2Ev @ 5683 NONAME ABSENT
	_ZN27HbDeviceProfileChangedEventC1ERK15HbDeviceProfileS2_ @ 5684 NONAME
	_ZN27HbDeviceProfileChangedEventC2ERK15HbDeviceProfileS2_ @ 5685 NONAME
	_ZN27HbDeviceProfileChangedEventD0Ev @ 5686 NONAME
	_ZN27HbDeviceProfileChangedEventD1Ev @ 5687 NONAME
	_ZN27HbDeviceProfileChangedEventD2Ev @ 5688 NONAME
	_ZN7HbStyle32hasOrientationSpecificStyleRulesEP8HbWidget @ 5689 NONAME
	_ZN8HbAction10setToolTipERK7QString @ 5690 NONAME
	_ZNK12HbWidgetBase15initStyleOptionEP13HbStyleOption @ 5691 NONAME
	_ZNK13HbMarqueeItem9textColorEv @ 5692 NONAME
	_ZNK15HbDeviceProfile16orientationAngleEv @ 5693 NONAME
	_ZNK15HbStaticVkbHost10metaObjectEv @ 5694 NONAME
	_ZNK15HbStaticVkbHost8priorityEv @ 5695 NONAME ABSENT
	_ZNK16HbAbstractButton8sizeHintEN2Qt8SizeHintERK6QSizeF @ 5696 NONAME
	_ZNK23HbDeviceDialogInterface12signalSenderEv @ 5697 NONAME
	_ZNK24HbTextMeasurementUtility11locTestModeEv @ 5698 NONAME
	_ZNK25HbXmlLoaderAbstractSyntax10lexemValueENS_14DocumentLexemsE @ 5699 NONAME
	_ZNK26HbDeviceDialogServerStatus10metaObjectEv @ 5700 NONAME
	_ZNK8HbAction7toolTipEv @ 5701 NONAME
	_ZTI15HbStaticVkbHost @ 5702 NONAME
	_ZTI23HbDeviceDialogInterface @ 5703 NONAME
	_ZTI26HbDeviceDialogServerStatus @ 5704 NONAME
	_ZTI27HbDeviceProfileChangedEvent @ 5705 NONAME
	_ZTV15HbStaticVkbHost @ 5706 NONAME
	_ZTV23HbDeviceDialogInterface @ 5707 NONAME
	_ZTV26HbDeviceDialogServerStatus @ 5708 NONAME
	_ZTV27HbDeviceProfileChangedEvent @ 5709 NONAME
	_ZThn16_NK16HbAbstractButton8sizeHintEN2Qt8SizeHintERK6QSizeF @ 5710 NONAME
	_ZN10HbTitleBar17propertiesChangedEv @ 5711 NONAME
	_ZN10HbTitleBar19setNavigationActionEP8HbAction @ 5712 NONAME
	_ZN10HbTitleBar24notificationCountChangedEi @ 5713 NONAME ABSENT
	_ZN10HbTitleBar26setDefaultNavigationActionEv @ 5714 NONAME
	_ZN11HbFrameItemC1ERK7QStringN13HbFrameDrawer9FrameTypeEP13QGraphicsItem @ 5715 NONAME
	_ZN11HbFrameItemC2ERK7QStringN13HbFrameDrawer9FrameTypeEP13QGraphicsItem @ 5716 NONAME
	_ZN11HbNvgEngine13createNvgIconERK10QByteArrayRK5QSize @ 5717 NONAME
	_ZN11HbNvgEngine15clearBackgroundEv @ 5718 NONAME
	_ZN11HbNvgEngine16setMirroringModeEb @ 5719 NONAME ABSENT
	_ZN11HbNvgEngine16setVgImageBinderEP15HbVgImageBinder @ 5720 NONAME
	_ZN11HbNvgEngine18setBackgroundColorERK6QColor @ 5721 NONAME
	_ZN11HbNvgEngine22setPreserveAspectRatioENS_18NvgAlignStatusTypeENS_18NvgMeetOrSliceTypeE @ 5722 NONAME ABSENT
	_ZN11HbNvgEngine6rotateEfff @ 5723 NONAME
	_ZN11HbNvgEngine7drawNvgERK10QByteArrayRK5QSize @ 5724 NONAME
	_ZN11HbNvgEngineC1Ev @ 5725 NONAME
	_ZN11HbNvgEngineC2Ev @ 5726 NONAME
	_ZN11HbNvgEngineD0Ev @ 5727 NONAME
	_ZN11HbNvgEngineD1Ev @ 5728 NONAME
	_ZN11HbNvgEngineD2Ev @ 5729 NONAME
	_ZN11HbScrollBar12gestureEventEP13QGestureEvent @ 5730 NONAME
	_ZN11HbStatusBar10timerEventEP11QTimerEvent @ 5731 NONAME
	_ZN11HbStatusBar11qt_metacallEN11QMetaObject4CallEiPPv @ 5732 NONAME
	_ZN11HbStatusBar11qt_metacastEPKc @ 5733 NONAME
	_ZN11HbStatusBar16createPrimitivesEv @ 5734 NONAME
	_ZN11HbStatusBar16staticMetaObjectE @ 5735 NONAME DATA 16
	_ZN11HbStatusBar16updatePrimitivesEv @ 5736 NONAME
	_ZN11HbStatusBar17propertiesChangedEv @ 5737 NONAME
	_ZN11HbStatusBar18currentViewChangedEP6HbView @ 5738 NONAME
	_ZN11HbStatusBar19getStaticMetaObjectEv @ 5739 NONAME
	_ZN11HbStatusBar24notificationCountChangedEi @ 5740 NONAME ABSENT
	_ZN11HbStatusBarC1EP12HbMainWindowP13QGraphicsItem @ 5741 NONAME
	_ZN11HbStatusBarC2EP12HbMainWindowP13QGraphicsItem @ 5742 NONAME
	_ZN11HbStatusBarD0Ev @ 5743 NONAME
	_ZN11HbStatusBarD1Ev @ 5744 NONAME
	_ZN11HbStatusBarD2Ev @ 5745 NONAME
	_ZN12HbIconLoader10unLoadIconEP10HbIconImpl @ 5746 NONAME ABSENT
	_ZN12HbIconLoader18loadMultiPieceIconERK11QStringListR19HbMultiPartSizeDataRK6QSizeFN2Qt15AspectRatioModeEN5QIcon4ModeE6QFlagsINS_16IconLoaderOptionEER7QVectorIP10HbIconImplERK6QColor @ 5747 NONAME
	_ZN12HbIconSource9byteArrayEv @ 5748 NONAME
	_ZN12HbMainWindow10paintEventEP11QPaintEvent @ 5749 NONAME
	_ZN12HbMainWindow22nativeBackgroundWindowEv @ 5750 NONAME
	_ZN12HbMainWindow24aboutToChangeOrientationEN2Qt11OrientationEb @ 5751 NONAME
	_ZN12HbMainWindow27resetNativeBackgroundWindowEv @ 5752 NONAME
	_ZN12HbMainWindow9viewReadyEv @ 5753 NONAME
	_ZN12HbStringUtil10sortHelperERK7QStringS2_ @ 5754 NONAME ABSENT
	_ZN12HbStringUtil4sortER11QStringList @ 5755 NONAME
	_ZN12HbTlvWrapper17contentDimensionsER7QStringRj @ 5756 NONAME ABSENT
	_ZN12HbTlvWrapper17getTLVEncodedDataER7QStringR6QSizeFN2Qt15AspectRatioModeE @ 5757 NONAME ABSENT
	_ZN12HbTlvWrapper24getTLVEncodedDataFromDomERjR6QSizeFN2Qt15AspectRatioModeE @ 5758 NONAME ABSENT
	_ZN12HbTlvWrapper8instanceEv @ 5759 NONAME ABSENT
	_ZN12HbTlvWrapperC1Ev @ 5760 NONAME ABSENT
	_ZN12HbTlvWrapperC2Ev @ 5761 NONAME ABSENT
	_ZN12HbTlvWrapperD1Ev @ 5762 NONAME ABSENT
	_ZN12HbTlvWrapperD2Ev @ 5763 NONAME ABSENT
	_ZN13HbApplicationC1EPFP15CApaApplicationvERiPPc6QFlagsIN2Hb15ApplicationFlagEE @ 5764 NONAME
	_ZN13HbApplicationC1ERiPPc6QFlagsIN2Hb15ApplicationFlagEE @ 5765 NONAME
	_ZN13HbApplicationC2EPFP15CApaApplicationvERiPPc6QFlagsIN2Hb15ApplicationFlagEE @ 5766 NONAME
	_ZN13HbApplicationC2ERiPPc6QFlagsIN2Hb15ApplicationFlagEE @ 5767 NONAME
	_ZN13HbFrameDrawer7setMaskERK7QBitmap @ 5768 NONAME
	_ZN13HbInputMethod13editorDeletedEP7QObject @ 5769 NONAME
	_ZN13HbNvgIconImpl11drawNVGIconERK5QSizeR11HbNvgEngine @ 5770 NONAME
	_ZN13HbNvgIconImpl12setAlignmentERK6QRectFR6QSizeF6QFlagsIN2Qt13AlignmentFlagEE @ 5771 NONAME
	_ZN13HbNvgIconImpl15drawNVGIconIconEP8QPainterRK7QPointFRK6QSizeF22NvgAspectRatioSettings @ 5772 NONAME ABSENT
	_ZN13HbNvgIconImpl15retrieveNvgDataEv @ 5773 NONAME
	_ZN13HbNvgIconImpl17applySpecialCasesEP8QPainterRK7QPointFP18HbMaskableIconImpl @ 5774 NONAME ABSENT
	_ZN13HbNvgIconImpl17destroyMaskedDataEPv @ 5775 NONAME
	_ZN13HbNvgIconImpl18drawRasterizedIconEP8QPainterRK7QPointFRK6QSizeF @ 5776 NONAME ABSENT
	_ZN13HbNvgIconImpl20createVGImageFromNVGEiiiiiibP11HbNvgEngine @ 5777 NONAME
	_ZN13HbNvgIconImpl33mapKeyAspectRatioToNvgAspectRatioEN2Qt15AspectRatioModeE @ 5778 NONAME
	_ZN13HbNvgIconImpl4sizeEv @ 5779 NONAME
	_ZN13HbNvgIconImpl5paintEP8QPainterRK6QRectF6QFlagsIN2Qt13AlignmentFlagEEP18HbMaskableIconImpl @ 5780 NONAME ABSENT
	_ZN13HbNvgIconImpl6pixmapEv @ 5781 NONAME
	_ZN13HbNvgIconImplC1E16HbSharedIconInfoR7QStringRK6QSizeFN2Qt15AspectRatioModeEN5QIcon4ModeEb @ 5782 NONAME ABSENT
	_ZN13HbNvgIconImplC2E16HbSharedIconInfoR7QStringRK6QSizeFN2Qt15AspectRatioModeEN5QIcon4ModeEb @ 5783 NONAME ABSENT
	_ZN13HbNvgIconImplD0Ev @ 5784 NONAME
	_ZN13HbNvgIconImplD1Ev @ 5785 NONAME
	_ZN13HbNvgIconImplD2Ev @ 5786 NONAME
	_ZN14HbPopupPrivate10doSetModalEb @ 5787 NONAME
	_ZN14HbPopupPrivate11stopTimeoutEv @ 5788 NONAME
	_ZN14HbPopupPrivate12startTimeoutEv @ 5789 NONAME
	_ZN14HbPopupPrivate12timeoutTimerEv @ 5790 NONAME
	_ZN14HbPopupPrivate20_q_orientationChangeEN2Qt11OrientationEb @ 5791 NONAME ABSENT
	_ZN15HbGraphicsScene14drawBackgroundEP8QPainterRK6QRectF @ 5792 NONAME
	_ZN15HbNVGEnginePool12getNVGEngineEv @ 5793 NONAME ABSENT
	_ZN15HbNVGEnginePool4poolE @ 5794 NONAME DATA 4 ABSENT
	_ZN15HbStackedWidget16setCurrentWidgetEP15QGraphicsWidgetbb @ 5795 NONAME
	_ZN15HbWidgetPrivate16createSpacerItemERK7QString @ 5796 NONAME ABSENT
	_ZN16HbEffectInternal13safeCancelAllEv @ 5797 NONAME ABSENT
	_ZN16HbEffectInternal17setEffectsEnabledEb @ 5798 NONAME
	_ZN16HbIndicatorGroup10deactivateERK5QListI19IndicatorClientInfoE @ 5799 NONAME
	_ZN16HbIndicatorGroup11activateAllERK5QListI19IndicatorClientInfoE @ 5800 NONAME
	_ZN16HbIndicatorGroup11qt_metacallEN11QMetaObject4CallEiPPv @ 5801 NONAME
	_ZN16HbIndicatorGroup11qt_metacastEPKc @ 5802 NONAME
	_ZN16HbIndicatorGroup11startListenEv @ 5803 NONAME ABSENT
	_ZN16HbIndicatorGroup16createPrimitivesEv @ 5804 NONAME
	_ZN16HbIndicatorGroup16staticMetaObjectE @ 5805 NONAME DATA 16
	_ZN16HbIndicatorGroup16updatePrimitivesEv @ 5806 NONAME
	_ZN16HbIndicatorGroup19getStaticMetaObjectEv @ 5807 NONAME
	_ZN16HbIndicatorGroup24notificationCountChangedEi @ 5808 NONAME ABSENT
	_ZN16HbIndicatorGroup6updateERK5QListI19IndicatorClientInfoE @ 5809 NONAME
	_ZN16HbIndicatorGroup8activateERK5QListI19IndicatorClientInfoE @ 5810 NONAME
	_ZN16HbIndicatorGroupC1ENS_13IndicatorTypeEP13QGraphicsItem @ 5811 NONAME
	_ZN16HbIndicatorGroupC2ENS_13IndicatorTypeEP13QGraphicsItem @ 5812 NONAME
	_ZN16HbIndicatorGroupD0Ev @ 5813 NONAME
	_ZN16HbIndicatorGroupD1Ev @ 5814 NONAME
	_ZN16HbIndicatorGroupD2Ev @ 5815 NONAME
	_ZN16HbNgNormalNumber11checkingXMLERKN7QLocale7CountryER7QStringS5_R5QListIiE @ 5816 NONAME
	_ZN16HbNgNormalNumber14checkingNumberERK7QStringRiS3_S3_Rb @ 5817 NONAME
	_ZN16HbNgNormalNumber14formatingGroupERK7QStringRKiS4_S4_RKbS2_S2_RK5QListIiE @ 5818 NONAME
	_ZN16HbNgNormalNumber15checkingPatternERK7QString @ 5819 NONAME
	_ZN16HbNgNormalNumber20normalNumberGroupingERK7QStringRKN7QLocale7CountryE @ 5820 NONAME
	_ZN16HbNumberGrouping13formatGenericERK7QStringN7QLocale7CountryE @ 5821 NONAME
	_ZN16HbNumberGrouping14formatCurrencyERK7QStringN7QLocale7CountryE @ 5822 NONAME
	_ZN16HbNumberGrouping17formatPhoneNumberERK7QStringN7QLocale7CountryE @ 5823 NONAME
	_ZN16HbPixmapIconImpl17destroyMaskedDataEPv @ 5824 NONAME
	_ZN16HbPixmapIconImpl5paintEP8QPainterRK6QRectF6QFlagsIN2Qt13AlignmentFlagEEP18HbMaskableIconImpl @ 5825 NONAME ABSENT
	_ZN17HbEditorInterface21cursorPositionChangedEii @ 5826 NONAME
	_ZN17HbFrameDrawerPool3getERK7QStringN13HbFrameDrawer9FrameTypeERK6QSizeF @ 5827 NONAME
	_ZN17HbFrameDrawerPool7releaseEP13HbFrameDrawer @ 5828 NONAME
	_ZN17HbIndicatorButton11changeEventEP6QEvent @ 5829 NONAME
	_ZN17HbIndicatorButton11handlePressEv @ 5830 NONAME
	_ZN17HbIndicatorButton11qt_metacallEN11QMetaObject4CallEiPPv @ 5831 NONAME
	_ZN17HbIndicatorButton11qt_metacastEPKc @ 5832 NONAME
	_ZN17HbIndicatorButton13handleReleaseEv @ 5833 NONAME
	_ZN17HbIndicatorButton16createPrimitivesEv @ 5834 NONAME
	_ZN17HbIndicatorButton16staticMetaObjectE @ 5835 NONAME DATA 16
	_ZN17HbIndicatorButton16updatePrimitivesEv @ 5836 NONAME
	_ZN17HbIndicatorButton19getStaticMetaObjectEv @ 5837 NONAME
	_ZN17HbIndicatorButton20showHandleIndicationEb @ 5838 NONAME
	_ZN17HbIndicatorButton7setIconEi @ 5839 NONAME ABSENT
	_ZN17HbIndicatorButtonC1EP13QGraphicsItem @ 5840 NONAME
	_ZN17HbIndicatorButtonC2EP13QGraphicsItem @ 5841 NONAME
	_ZN17HbIndicatorButtonD0Ev @ 5842 NONAME
	_ZN17HbIndicatorButtonD1Ev @ 5843 NONAME
	_ZN17HbIndicatorButtonD2Ev @ 5844 NONAME
	_ZN17HbSignalIndicator14setNetworkModeEN19HbSystemNetworkInfo11NetworkModeE @ 5845 NONAME ABSENT
	_ZN17HbSignalIndicator16createPrimitivesEv @ 5846 NONAME
	_ZN17HbSignalIndicator16updatePrimitivesEv @ 5847 NONAME
	_ZN17HbSignalIndicator24setNetworkSignalStrengthEN19HbSystemNetworkInfo11NetworkModeEi @ 5848 NONAME ABSENT
	_ZN17HbSignalIndicator5levelEv @ 5849 NONAME ABSENT
	_ZN18HbBatteryIndicator13setPowerStateEN18HbSystemDeviceInfo10PowerStateE @ 5850 NONAME ABSENT
	_ZN18HbBatteryIndicator16createPrimitivesEv @ 5851 NONAME
	_ZN18HbBatteryIndicator16updatePrimitivesEv @ 5852 NONAME
	_ZN18HbDigitsOnlyFilter6filterE5QChar @ 5853 NONAME
	_ZN18HbDigitsOnlyFilter8instanceEv @ 5854 NONAME
	_ZN18HbDigitsOnlyFilterC1Ev @ 5855 NONAME
	_ZN18HbDigitsOnlyFilterC2Ev @ 5856 NONAME
	_ZN18HbDigitsOnlyFilterD0Ev @ 5857 NONAME
	_ZN18HbDigitsOnlyFilterD1Ev @ 5858 NONAME
	_ZN18HbDigitsOnlyFilterD2Ev @ 5859 NONAME
	_ZN18HbInputFocusObject10editorFontEv @ 5860 NONAME
	_ZN18HbInputFocusObject12releaseFocusEv @ 5861 NONAME
	_ZN18HbInputFocusObject16isReadOnlyWidgetEP7QObject @ 5862 NONAME
	_ZN18HbInputFocusObject16sendCommitStringERK7QString @ 5863 NONAME
	_ZN18HbInputFocusObject17sendPreEditStringERK7QString @ 5864 NONAME
	_ZN18HbInputFocusObject19editorTextSelectionEv @ 5865 NONAME
	_ZN18HbInputFocusObject19setInputMethodHintsE6QFlagsIN2Qt15InputMethodHintEE @ 5866 NONAME
	_ZN18HbInputFocusObject20editorCursorPositionEv @ 5867 NONAME
	_ZN18HbInputFocusObject21editorSurroundingTextEv @ 5868 NONAME
	_ZN18HbInputFocusObject7reFocusEv @ 5869 NONAME ABSENT
	_ZN18HbInputFocusObject7setHostEP13HbInputMethod @ 5870 NONAME ABSENT
	_ZN18HbInputFocusObject8isEditorEP7QObject @ 5871 NONAME
	_ZN18HbInputFocusObject8setFocusEv @ 5872 NONAME
	_ZN18HbInputFocusObject9postEventER6QEvent @ 5873 NONAME
	_ZN18HbInputFocusObject9sendEventER6QEvent @ 5874 NONAME
	_ZN18HbInputFocusObjectC1EP7QObject @ 5875 NONAME
	_ZN18HbInputFocusObjectC2EP7QObject @ 5876 NONAME
	_ZN18HbInputFocusObjectD0Ev @ 5877 NONAME
	_ZN18HbInputFocusObjectD1Ev @ 5878 NONAME
	_ZN18HbInputFocusObjectD2Ev @ 5879 NONAME
	_ZN18HbNavigationButton11changeEventEP6QEvent @ 5880 NONAME
	_ZN18HbNavigationButton11handlePressEv @ 5881 NONAME
	_ZN18HbNavigationButton11qt_metacallEN11QMetaObject4CallEiPPv @ 5882 NONAME
	_ZN18HbNavigationButton11qt_metacastEPKc @ 5883 NONAME
	_ZN18HbNavigationButton13handleReleaseEv @ 5884 NONAME
	_ZN18HbNavigationButton16createPrimitivesEv @ 5885 NONAME
	_ZN18HbNavigationButton16staticMetaObjectE @ 5886 NONAME DATA 16
	_ZN18HbNavigationButton16updatePrimitivesEv @ 5887 NONAME
	_ZN18HbNavigationButton19getStaticMetaObjectEv @ 5888 NONAME
	_ZN18HbNavigationButtonC1EP13QGraphicsItem @ 5889 NONAME
	_ZN18HbNavigationButtonC2EP13QGraphicsItem @ 5890 NONAME
	_ZN18HbNavigationButtonD0Ev @ 5891 NONAME
	_ZN18HbNavigationButtonD1Ev @ 5892 NONAME
	_ZN18HbNavigationButtonD2Ev @ 5893 NONAME
	_ZN19HbAnchorArrowDrawer11changeEventEP6QEvent @ 5894 NONAME
	_ZN19HbAnchorArrowDrawer11qt_metacallEN11QMetaObject4CallEiPPv @ 5895 NONAME
	_ZN19HbAnchorArrowDrawer11qt_metacastEPKc @ 5896 NONAME
	_ZN19HbAnchorArrowDrawer12updateColorsEv @ 5897 NONAME
	_ZN19HbAnchorArrowDrawer15updateFocusItemEPK13QGraphicsItem @ 5898 NONAME
	_ZN19HbAnchorArrowDrawer16staticMetaObjectE @ 5899 NONAME DATA 16
	_ZN19HbAnchorArrowDrawer19getStaticMetaObjectEv @ 5900 NONAME
	_ZN19HbAnchorArrowDrawer5paintEP8QPainterPK24QStyleOptionGraphicsItemP7QWidget @ 5901 NONAME
	_ZN19HbAnchorArrowDrawerC1EP12HbMeshLayoutP13QGraphicsItem @ 5902 NONAME ABSENT
	_ZN19HbAnchorArrowDrawerC2EP12HbMeshLayoutP13QGraphicsItem @ 5903 NONAME ABSENT
	_ZN19HbAnchorArrowDrawerD0Ev @ 5904 NONAME
	_ZN19HbAnchorArrowDrawerD1Ev @ 5905 NONAME
	_ZN19HbAnchorArrowDrawerD2Ev @ 5906 NONAME
	_ZN19HbInputContextProxy22setInputFrameworkFocusEP7QObject @ 5907 NONAME
	_ZN19HbMainWindowPrivate10fadeScreenEf @ 5908 NONAME
	_ZN19HbMainWindowPrivate11qt_metacallEN11QMetaObject4CallEiPPv @ 5909 NONAME
	_ZN19HbMainWindowPrivate11qt_metacastEPKc @ 5910 NONAME
	_ZN19HbMainWindowPrivate12_q_viewReadyEv @ 5911 NONAME
	_ZN19HbMainWindowPrivate12initGesturesEv @ 5912 NONAME ABSENT
	_ZN19HbMainWindowPrivate12unfadeScreenEv @ 5913 NONAME
	_ZN19HbMainWindowPrivate13_q_launchMenuERK7QPointF @ 5914 NONAME
	_ZN19HbMainWindowPrivate13postIdleEventEi @ 5915 NONAME
	_ZN19HbMainWindowPrivate14_q_viewChangedEi @ 5916 NONAME ABSENT
	_ZN19HbMainWindowPrivate14_q_viewRemovedEP15QGraphicsWidget @ 5917 NONAME
	_ZN19HbMainWindowPrivate14addViewEffectsEv @ 5918 NONAME
	_ZN19HbMainWindowPrivate14broadcastEventEP6QEvent @ 5919 NONAME
	_ZN19HbMainWindowPrivate14broadcastEventEi @ 5920 NONAME
	_ZN19HbMainWindowPrivate15_q_themeChangedEv @ 5921 NONAME
	_ZN19HbMainWindowPrivate15changeSceneSizeEv @ 5922 NONAME
	_ZN19HbMainWindowPrivate16initializeInputsE @ 5923 NONAME DATA 1
	_ZN19HbMainWindowPrivate16staticMetaObjectE @ 5924 NONAME DATA 16
	_ZN19HbMainWindowPrivate17addBackgroundItemEv @ 5925 NONAME
	_ZN19HbMainWindowPrivate18addToolBarToLayoutEP9HbToolBar @ 5926 NONAME
	_ZN19HbMainWindowPrivate18updateVisibleItemsEv @ 5927 NONAME
	_ZN19HbMainWindowPrivate19_q_restoreTitlePaneEv @ 5928 NONAME
	_ZN19HbMainWindowPrivate19_q_viewTitleChangedERK7QString @ 5929 NONAME
	_ZN19HbMainWindowPrivate19dragToResizeEnabledE @ 5930 NONAME DATA 1
	_ZN19HbMainWindowPrivate19getStaticMetaObjectEv @ 5931 NONAME
	_ZN19HbMainWindowPrivate19idleEventDispatchedEv @ 5932 NONAME
	_ZN19HbMainWindowPrivate20IdleOrientationEventE @ 5933 NONAME DATA 4
	_ZN19HbMainWindowPrivate20removeBackgroundItemEv @ 5934 NONAME
	_ZN19HbMainWindowPrivate21_q_viewToolBarChangedEv @ 5935 NONAME
	_ZN19HbMainWindowPrivate21addDockWidgetToLayoutEP12HbDockWidget @ 5936 NONAME
	_ZN19HbMainWindowPrivate21updateRotationEffectsEv @ 5937 NONAME
	_ZN19HbMainWindowPrivate22_q_delayedConstructionEv @ 5938 NONAME
	_ZN19HbMainWindowPrivate22rootItemFinalPhaseDoneERKN8HbEffect12EffectStatusE @ 5939 NONAME
	_ZN19HbMainWindowPrivate22rootItemFirstPhaseDoneERKN8HbEffect12EffectStatusE @ 5940 NONAME
	_ZN19HbMainWindowPrivate23_q_continueBroadcastingEi @ 5941 NONAME
	_ZN19HbMainWindowPrivate23removeToolBarFromLayoutEP9HbToolBar @ 5942 NONAME
	_ZN19HbMainWindowPrivate23setViewSwitchingEnabledEb @ 5943 NONAME ABSENT
	_ZN19HbMainWindowPrivate24_q_viewDockWidgetChangedEv @ 5944 NONAME
	_ZN19HbMainWindowPrivate25IdleOrientationFinalEventE @ 5945 NONAME DATA 4
	_ZN19HbMainWindowPrivate25orientationEffectFinishedERKN8HbEffect12EffectStatusE @ 5946 NONAME
	_ZN19HbMainWindowPrivate25setTransformedOrientationEN2Qt11OrientationEb @ 5947 NONAME
	_ZN19HbMainWindowPrivate26_q_viewVisibleItemsChangedEv @ 5948 NONAME
	_ZN19HbMainWindowPrivate26removeDockWidgetFromLayoutEP12HbDockWidget @ 5949 NONAME
	_ZN19HbMainWindowPrivate27_q_contentFullScreenChangedEv @ 5950 NONAME
	_ZN19HbMainWindowPrivate27addOrientationChangeEffectsEv @ 5951 NONAME
	_ZN19HbMainWindowPrivate4initEv @ 5952 NONAME
	_ZN19HbMainWindowPrivate6selectERK15HbDeviceProfilePS0_ @ 5953 NONAME
	_ZN19HbMainWindowPrivate9IdleEventE @ 5954 NONAME DATA 4
	_ZN19HbMainWindowPrivateC1Ev @ 5955 NONAME
	_ZN19HbMainWindowPrivateC2Ev @ 5956 NONAME
	_ZN19HbMainWindowPrivateD0Ev @ 5957 NONAME
	_ZN19HbMainWindowPrivateD1Ev @ 5958 NONAME
	_ZN19HbMainWindowPrivateD2Ev @ 5959 NONAME
	_ZN19HbScrollAreaPrivate10doLazyInitEv @ 5960 NONAME
	_ZN20HbIndicatorInterfaceC2ERK7QStringNS_8CategoryE6QFlagsINS_15InteractionTypeEE @ 5961 NONAME
	_ZN20HbSplayTreeAllocator10deleteNodeEPjPNS_8TreeNodeEb @ 5962 NONAME ABSENT
	_ZN20HbSplayTreeAllocator10initializeEP13QSharedMemoryjP23HbSharedMemoryAllocator @ 5963 NONAME ABSENT
	_ZN20HbSplayTreeAllocator10insertNodeEPjPNS_8TreeNodeE @ 5964 NONAME ABSENT
	_ZN20HbSplayTreeAllocator10insertNodeEPjPNS_8TreeNodeES2_ @ 5965 NONAME ABSENT
	_ZN20HbSplayTreeAllocator13allocatedSizeEi @ 5966 NONAME ABSENT
	_ZN20HbSplayTreeAllocator16deleteLengthNodeEPjPNS_8TreeNodeEb @ 5967 NONAME ABSENT
	_ZN20HbSplayTreeAllocator16insertLengthNodeEPjPNS_8TreeNodeE @ 5968 NONAME ABSENT
	_ZN20HbSplayTreeAllocator4freeEi @ 5969 NONAME ABSENT
	_ZN20HbSplayTreeAllocator5allocEi @ 5970 NONAME ABSENT
	_ZN20HbSplayTreeAllocator5splayEPjj @ 5971 NONAME ABSENT
	_ZN20HbSplayTreeAllocatorC1Ev @ 5972 NONAME ABSENT
	_ZN20HbSplayTreeAllocatorC2Ev @ 5973 NONAME ABSENT
	_ZN20HbSplayTreeAllocatorD0Ev @ 5974 NONAME ABSENT
	_ZN20HbSplayTreeAllocatorD1Ev @ 5975 NONAME ABSENT
	_ZN20HbSplayTreeAllocatorD2Ev @ 5976 NONAME ABSENT
	_ZN21HbFeedbackPluginGroup11loadPluginsE11QStringList @ 5977 NONAME
	_ZN21HbTextResolverSymbian4InitERK7TDesC16S2_ @ 5978 NONAME
	_ZN21HbTextResolverSymbian5LoadLERK7TDesC16RK12MDesC16Arrayi @ 5979 NONAME
	_ZN21HbTextResolverSymbian5LoadLERK7TDesC16RK6RArrayIiEi @ 5980 NONAME
	_ZN21HbTextResolverSymbian5LoadLERK7TDesC16S2_i @ 5981 NONAME
	_ZN21HbTextResolverSymbian5LoadLERK7TDesC16i @ 5982 NONAME
	_ZN21HbTextResolverSymbian5LoadLERK7TDesC16ii @ 5983 NONAME
	_ZN21HbTextResolverSymbian6LoadLCERK7TDesC16RK12MDesC16Arrayi @ 5984 NONAME
	_ZN21HbTextResolverSymbian6LoadLCERK7TDesC16RK6RArrayIiEi @ 5985 NONAME
	_ZN21HbTextResolverSymbian6LoadLCERK7TDesC16S2_i @ 5986 NONAME
	_ZN21HbTextResolverSymbian6LoadLCERK7TDesC16i @ 5987 NONAME
	_ZN21HbTextResolverSymbian6LoadLCERK7TDesC16ii @ 5988 NONAME
	_ZN21HbWidgetLoaderActions12updateWidgetEP16LayoutDefinition @ 5989 NONAME ABSENT
	_ZN21HbWidgetLoaderActions17addMeshLayoutEdgeERK7QStringS2_S2_S2_S2_S2_ @ 5990 NONAME ABSENT
	_ZN21HbWidgetLoaderActions24getLayoutDefintionOffsetEv @ 5991 NONAME ABSENT
	_ZN21HbWidgetLoaderActions24setLayoutDefintionOffsetEi @ 5992 NONAME ABSENT
	_ZN21RHbDeleteGuardSymbian11PopAndCloseEv @ 5993 NONAME
	_ZN21RHbDeleteGuardSymbian12OpenAndPushLEPPb @ 5994 NONAME
	_ZN21RHbDeleteGuardSymbian5CloseEv @ 5995 NONAME
	_ZN22HbStyleOptionStatusBarC1ERKS_ @ 5996 NONAME
	_ZN22HbStyleOptionStatusBarC1Ev @ 5997 NONAME
	_ZN22HbStyleOptionStatusBarC2ERKS_ @ 5998 NONAME
	_ZN22HbStyleOptionStatusBarC2Ev @ 5999 NONAME
	_ZN22HbStyleOptionStatusBarD1Ev @ 6000 NONAME
	_ZN22HbStyleOptionStatusBarD2Ev @ 6001 NONAME
	_ZN22HbWidgetSequentialShow10setShowingEP8HbWidget @ 6002 NONAME
	_ZN22HbWidgetSequentialShow11qt_metacallEN11QMetaObject4CallEiPPv @ 6003 NONAME
	_ZN22HbWidgetSequentialShow11qt_metacastEPKc @ 6004 NONAME
	_ZN22HbWidgetSequentialShow14externalAllowsEv @ 6005 NONAME
	_ZN22HbWidgetSequentialShow16staticMetaObjectE @ 6006 NONAME DATA 16
	_ZN22HbWidgetSequentialShow19getStaticMetaObjectEv @ 6007 NONAME
	_ZN22HbWidgetSequentialShow20widgetVisibleChangedEv @ 6008 NONAME
	_ZN22HbWidgetSequentialShow21externalStatusChangedEv @ 6009 NONAME
	_ZN22HbWidgetSequentialShow3addEP8HbWidget @ 6010 NONAME
	_ZN22HbWidgetSequentialShow6removeEP8HbWidget @ 6011 NONAME
	_ZN22HbWidgetSequentialShow8showNextEv @ 6012 NONAME
	_ZN22HbWidgetSequentialShow9toShowNowEv @ 6013 NONAME
	_ZN22HbWidgetSequentialShowC1EPFbPvES0_ @ 6014 NONAME
	_ZN22HbWidgetSequentialShowC2EPFbPvES0_ @ 6015 NONAME
	_ZN22HbWidgetSequentialShowD0Ev @ 6016 NONAME
	_ZN22HbWidgetSequentialShowD1Ev @ 6017 NONAME
	_ZN22HbWidgetSequentialShowD2Ev @ 6018 NONAME
	_ZN23HbMultiSegmentAllocator10initializeEP13QSharedMemoryjP23HbSharedMemoryAllocator @ 6019 NONAME ABSENT
	_ZN23HbMultiSegmentAllocator11setFreeListEi @ 6020 NONAME ABSENT
	_ZN23HbMultiSegmentAllocator13allocatedSizeEi @ 6021 NONAME ABSENT
	_ZN23HbMultiSegmentAllocator4freeEi @ 6022 NONAME ABSENT
	_ZN23HbMultiSegmentAllocator5allocEi @ 6023 NONAME ABSENT
	_ZN23HbMultiSegmentAllocator7addListEii @ 6024 NONAME ABSENT
	_ZN23HbMultiSegmentAllocatorC1Ev @ 6025 NONAME ABSENT
	_ZN23HbMultiSegmentAllocatorC2Ev @ 6026 NONAME ABSENT
	_ZN23HbMultiSegmentAllocatorD0Ev @ 6027 NONAME ABSENT
	_ZN23HbMultiSegmentAllocatorD1Ev @ 6028 NONAME ABSENT
	_ZN23HbMultiSegmentAllocatorD2Ev @ 6029 NONAME ABSENT
	_ZN24HbTextMeasurementUtility11writeReportER15HbDeviceProfileP9QIODevice @ 6030 NONAME
	_ZN26HbDeviceDialogServerStatus16enableMonitoringEb @ 6031 NONAME
	_ZN28HbStyleOptionIndicatorButtonC1ERKS_ @ 6032 NONAME
	_ZN28HbStyleOptionIndicatorButtonC1Ev @ 6033 NONAME
	_ZN28HbStyleOptionIndicatorButtonC2ERKS_ @ 6034 NONAME
	_ZN28HbStyleOptionIndicatorButtonC2Ev @ 6035 NONAME
	_ZN28HbStyleOptionIndicatorButtonD1Ev @ 6036 NONAME
	_ZN28HbStyleOptionIndicatorButtonD2Ev @ 6037 NONAME
	_ZN28HbStyleOptionSignalIndicatorC1ERKS_ @ 6038 NONAME
	_ZN28HbStyleOptionSignalIndicatorC1Ev @ 6039 NONAME
	_ZN28HbStyleOptionSignalIndicatorC2ERKS_ @ 6040 NONAME
	_ZN28HbStyleOptionSignalIndicatorC2Ev @ 6041 NONAME
	_ZN28HbStyleOptionSignalIndicatorD1Ev @ 6042 NONAME
	_ZN28HbStyleOptionSignalIndicatorD2Ev @ 6043 NONAME
	_ZN29HbStyleOptionBatteryIndicatorC1ERKS_ @ 6044 NONAME
	_ZN29HbStyleOptionBatteryIndicatorC1Ev @ 6045 NONAME
	_ZN29HbStyleOptionBatteryIndicatorC2ERKS_ @ 6046 NONAME
	_ZN29HbStyleOptionBatteryIndicatorC2Ev @ 6047 NONAME
	_ZN29HbStyleOptionBatteryIndicatorD1Ev @ 6048 NONAME
	_ZN29HbStyleOptionBatteryIndicatorD2Ev @ 6049 NONAME
	_ZN29HbStyleOptionDataFormViewItemC1ERKS_ @ 6050 NONAME
	_ZN29HbStyleOptionDataFormViewItemC1Ev @ 6051 NONAME
	_ZN29HbStyleOptionDataFormViewItemC2ERKS_ @ 6052 NONAME
	_ZN29HbStyleOptionDataFormViewItemC2Ev @ 6053 NONAME
	_ZN29HbStyleOptionDataFormViewItemD1Ev @ 6054 NONAME
	_ZN29HbStyleOptionDataFormViewItemD2Ev @ 6055 NONAME
	_ZN29HbStyleOptionNavigationButtonC1ERKS_ @ 6056 NONAME
	_ZN29HbStyleOptionNavigationButtonC1Ev @ 6057 NONAME
	_ZN29HbStyleOptionNavigationButtonC2ERKS_ @ 6058 NONAME
	_ZN29HbStyleOptionNavigationButtonC2Ev @ 6059 NONAME
	_ZN29HbStyleOptionNavigationButtonD1Ev @ 6060 NONAME
	_ZN29HbStyleOptionNavigationButtonD2Ev @ 6061 NONAME
	_ZN5HbCss14ValueExtractor15extractGeometryERNS_14GeometryValuesE @ 6062 NONAME ABSENT
	_ZN5HbCss14ValueExtractor15extractPositionERNS_14PositionValuesE @ 6063 NONAME ABSENT
	_ZN5HbCss14ValueExtractor17extractTextValuesERNS_10TextValuesE @ 6064 NONAME ABSENT
	_ZN5HbCss14ValueExtractorC1ERK8HbVectorINS_11DeclarationEERK15HbDeviceProfileRK8QPalette @ 6065 NONAME ABSENT
	_ZN5HbCss14ValueExtractorC1ERK8HbVectorINS_11DeclarationEES5_RK15HbDeviceProfileRK8QPalette @ 6066 NONAME ABSENT
	_ZN5HbCss14ValueExtractorC1ERK8HbVectorINS_11DeclarationEEbRK15HbDeviceProfile @ 6067 NONAME ABSENT
	_ZN5HbCss14ValueExtractorC2ERK8HbVectorINS_11DeclarationEERK15HbDeviceProfileRK8QPalette @ 6068 NONAME ABSENT
	_ZN5HbCss14ValueExtractorC2ERK8HbVectorINS_11DeclarationEES5_RK15HbDeviceProfileRK8QPalette @ 6069 NONAME ABSENT
	_ZN5HbCss14ValueExtractorC2ERK8HbVectorINS_11DeclarationEEbRK15HbDeviceProfile @ 6070 NONAME ABSENT
	_ZN6HbMenu10itemChangeEN13QGraphicsItem18GraphicsItemChangeERK8QVariant @ 6071 NONAME
	_ZN6HbMenu4openEP7QObjectPKc @ 6072 NONAME
	_ZN6HbMenu9showEventEP10QShowEvent @ 6073 NONAME
	_ZN6HbView12setViewFlagsE6QFlagsINS_10HbViewFlagEE @ 6074 NONAME
	_ZN6HbView19setNavigationActionEP8HbAction @ 6075 NONAME
	_ZN6HbView19setStatusBarVisibleEb @ 6076 NONAME
	_ZN6HbView23statusBarEffectFinishedERKN8HbEffect12EffectStatusE @ 6077 NONAME
	_ZN7HbPopup14handlePopupPosEv @ 6078 NONAME ABSENT
	_ZN7HbPopup4openEP7QObjectPKc @ 6079 NONAME
	_ZN7HbStyle15widgetDestroyedEP7QObject @ 6080 NONAME
	_ZN8HbActionC1EN2Hb16NavigationActionEP7QObject @ 6081 NONAME
	_ZN8HbActionC2EN2Hb16NavigationActionEP7QObject @ 6082 NONAME
	_ZN8HbDialog4openEP7QObjectPKc @ 6083 NONAME
	_ZN8HbDialog8finishedEP8HbAction @ 6084 NONAME
	_ZN8HbKeymap16combineCharacterE5QCharS0_RS0_S1_ @ 6085 NONAME
	_ZN8HbKeymap9isDeadKeyEi @ 6086 NONAME
	_ZN9HbSoftKey13buttonPressedEv @ 6087 NONAME ABSENT
	_ZN9HbSoftKey14buttonReleasedEv @ 6088 NONAME ABSENT
	_ZN9HbSoftKeyC1EN9HbPrivate9SoftKeyIdEP13QGraphicsItem @ 6089 NONAME ABSENT
	_ZN9HbSoftKeyC1ER16HbSoftKeyPrivateN9HbPrivate9SoftKeyIdEP13QGraphicsItem @ 6090 NONAME ABSENT
	_ZN9HbSoftKeyC2EN9HbPrivate9SoftKeyIdEP13QGraphicsItem @ 6091 NONAME ABSENT
	_ZN9HbSoftKeyC2ER16HbSoftKeyPrivateN9HbPrivate9SoftKeyIdEP13QGraphicsItem @ 6092 NONAME ABSENT
	_ZN9HbToolBar12gestureEventEP13QGestureEvent @ 6093 NONAME
	_ZN9HbVkbHost13activeVkbHostEv @ 6094 NONAME
	_ZNK10HbFontSpeceqERKS_ @ 6095 NONAME
	_ZNK10HbFontSpecneERKS_ @ 6096 NONAME
	_ZNK10HbTitleBar16navigationActionEv @ 6097 NONAME
	_ZNK11HbNvgEngine17contentDimensionsERK10QByteArray @ 6098 NONAME
	_ZNK11HbNvgEngine5errorEv @ 6099 NONAME
	_ZNK11HbScrollBar12boundingRectEv @ 6100 NONAME
	_ZNK11HbStatusBar10metaObjectEv @ 6101 NONAME
	_ZNK11HbStatusBar15initStyleOptionEP22HbStyleOptionStatusBar @ 6102 NONAME
	_ZNK12HbWidgetBase17effectiveFontSpecEv @ 6103 NONAME
	_ZNK13HbFrameDrawer10maskBitmapEv @ 6104 NONAME
	_ZNK13HbNvgIconImpl11defaultSizeEv @ 6105 NONAME
	_ZNK16HbIndicatorGroup10metaObjectEv @ 6106 NONAME
	_ZNK16HbIndicatorGroup15initStyleOptionEP27HbStyleOptionIndicatorGroup @ 6107 NONAME
	_ZNK17HbIndicatorButton10metaObjectEv @ 6108 NONAME
	_ZNK17HbIndicatorButton13handleVisibleEv @ 6109 NONAME
	_ZNK17HbIndicatorButton15initStyleOptionEP28HbStyleOptionIndicatorButton @ 6110 NONAME
	_ZNK17HbSignalIndicator15aspectRatioModeEv @ 6111 NONAME ABSENT
	_ZNK17HbSignalIndicator15initStyleOptionEP28HbStyleOptionSignalIndicator @ 6112 NONAME
	_ZNK18HbBatteryIndicator15aspectRatioModeEv @ 6113 NONAME ABSENT
	_ZNK18HbBatteryIndicator15initStyleOptionEP29HbStyleOptionBatteryIndicator @ 6114 NONAME
	_ZNK18HbBatteryIndicator5levelEv @ 6115 NONAME
	_ZNK18HbInputFocusObject10microFocusEv @ 6116 NONAME
	_ZNK18HbInputFocusObject11isConnectedEv @ 6117 NONAME ABSENT
	_ZNK18HbInputFocusObject13findVkbZValueEv @ 6118 NONAME
	_ZNK18HbInputFocusObject13preEditStringEv @ 6119 NONAME
	_ZNK18HbInputFocusObject14editorGeometryEv @ 6120 NONAME
	_ZNK18HbInputFocusObject15editorInterfaceEv @ 6121 NONAME
	_ZNK18HbInputFocusObject15focusObjectTypeEv @ 6122 NONAME ABSENT
	_ZNK18HbInputFocusObject16inputMethodHintsEv @ 6123 NONAME
	_ZNK18HbInputFocusObject16inputMethodQueryEN2Qt16InputMethodQueryE @ 6124 NONAME
	_ZNK18HbInputFocusObject6objectEv @ 6125 NONAME
	_ZNK18HbNavigationButton10metaObjectEv @ 6126 NONAME
	_ZNK18HbNavigationButton15initStyleOptionEP29HbStyleOptionNavigationButton @ 6127 NONAME
	_ZNK19HbAnchorArrowDrawer10metaObjectEv @ 6128 NONAME
	_ZNK19HbMainWindowPrivate10dockWidgetEv @ 6129 NONAME
	_ZNK19HbMainWindowPrivate10metaObjectEv @ 6130 NONAME
	_ZNK19HbMainWindowPrivate15adjustedProfileERK15HbDeviceProfile @ 6131 NONAME
	_ZNK19HbMainWindowPrivate22isViewSwitchingEnabledEv @ 6132 NONAME ABSENT
	_ZNK19HbMainWindowPrivate7profileEv @ 6133 NONAME
	_ZNK19HbMainWindowPrivate7toolBarEv @ 6134 NONAME
	_ZNK19HbMainWindowPrivate8rotationEv @ 6135 NONAME
	_ZNK20HbIndicatorInterface8categoryEv @ 6136 NONAME
	_ZNK20HbSplayTreeAllocator9toPointerEj @ 6137 NONAME ABSENT
	_ZNK21HbExtraUserDictionary7hasWordERK7QStringN2Qt15CaseSensitivityE @ 6138 NONAME
	_ZNK22HbWidgetSequentialShow10metaObjectEv @ 6139 NONAME
	_ZNK25HbXmlLoaderAbstractSyntax8toPixelsERK15HbDeviceProfileRK7QStringRf @ 6140 NONAME ABSENT
	_ZNK26HbXmlLoaderAbstractActions13getAnchorEdgeERK7QString @ 6141 NONAME ABSENT
	_ZNK26HbXmlLoaderAbstractActions21getAnchorOppositeEdgeERK7QString @ 6142 NONAME ABSENT
	_ZNK26HbXmlLoaderAbstractActions26findSpacerItemFromStackTopEv @ 6143 NONAME ABSENT
	_ZNK5HbCss11Declaration13wrapModeValueEv @ 6144 NONAME ABSENT
	_ZNK5HbCss14ValueExtractor12extractValueERK7QStringR8HbVectorINS_5ValueEE @ 6145 NONAME ABSENT
	_ZNK6HbMenu5shapeEv @ 6146 NONAME
	_ZNK6HbView16navigationActionEv @ 6147 NONAME
	_ZNK6HbView9viewFlagsEv @ 6148 NONAME
	_ZNK8HbWidget15layoutPrimitiveERK7QString @ 6149 NONAME
	_ZTI11HbNvgEngine @ 6150 NONAME
	_ZTI11HbStatusBar @ 6151 NONAME
	_ZTI13HbNvgIconImpl @ 6152 NONAME
	_ZTI16HbIndicatorGroup @ 6153 NONAME
	_ZTI17HbIndicatorButton @ 6154 NONAME
	_ZTI18HbDigitsOnlyFilter @ 6155 NONAME
	_ZTI18HbNavigationButton @ 6156 NONAME
	_ZTI19HbAnchorArrowDrawer @ 6157 NONAME
	_ZTI19HbMainWindowPrivate @ 6158 NONAME
	_ZTI20HbSplayTreeAllocator @ 6159 NONAME ABSENT
	_ZTI22HbWidgetSequentialShow @ 6160 NONAME
	_ZTI23HbMultiSegmentAllocator @ 6161 NONAME ABSENT
	_ZTI23HbSharedMemoryAllocator @ 6162 NONAME ABSENT
	_ZTI9HbNvgIcon @ 6163 NONAME
	_ZTV11HbNvgEngine @ 6164 NONAME
	_ZTV11HbStatusBar @ 6165 NONAME
	_ZTV13HbNvgIconImpl @ 6166 NONAME
	_ZTV16HbIndicatorGroup @ 6167 NONAME
	_ZTV17HbIndicatorButton @ 6168 NONAME
	_ZTV18HbDigitsOnlyFilter @ 6169 NONAME
	_ZTV18HbNavigationButton @ 6170 NONAME
	_ZTV19HbAnchorArrowDrawer @ 6171 NONAME
	_ZTV19HbMainWindowPrivate @ 6172 NONAME
	_ZTV20HbSplayTreeAllocator @ 6173 NONAME ABSENT
	_ZTV22HbWidgetSequentialShow @ 6174 NONAME
	_ZTV23HbMultiSegmentAllocator @ 6175 NONAME ABSENT
	_ZThn16_N11HbStatusBarD0Ev @ 6176 NONAME
	_ZThn16_N11HbStatusBarD1Ev @ 6177 NONAME
	_ZThn16_N16HbIndicatorGroupD0Ev @ 6178 NONAME
	_ZThn16_N16HbIndicatorGroupD1Ev @ 6179 NONAME
	_ZThn16_N17HbIndicatorButtonD0Ev @ 6180 NONAME
	_ZThn16_N17HbIndicatorButtonD1Ev @ 6181 NONAME
	_ZThn16_N18HbNavigationButtonD0Ev @ 6182 NONAME
	_ZThn16_N18HbNavigationButtonD1Ev @ 6183 NONAME
	_ZThn16_N19HbAnchorArrowDrawerD0Ev @ 6184 NONAME
	_ZThn16_N19HbAnchorArrowDrawerD1Ev @ 6185 NONAME
	_ZThn8_N11HbStatusBarD0Ev @ 6186 NONAME
	_ZThn8_N11HbStatusBarD1Ev @ 6187 NONAME
	_ZThn8_N16HbIndicatorGroupD0Ev @ 6188 NONAME
	_ZThn8_N16HbIndicatorGroupD1Ev @ 6189 NONAME
	_ZThn8_N17HbIndicatorButtonD0Ev @ 6190 NONAME
	_ZThn8_N17HbIndicatorButtonD1Ev @ 6191 NONAME
	_ZThn8_N18HbNavigationButtonD0Ev @ 6192 NONAME
	_ZThn8_N18HbNavigationButtonD1Ev @ 6193 NONAME
	_ZThn8_N19HbAnchorArrowDrawer5paintEP8QPainterPK24QStyleOptionGraphicsItemP7QWidget @ 6194 NONAME
	_ZThn8_N19HbAnchorArrowDrawerD0Ev @ 6195 NONAME
	_ZThn8_N19HbAnchorArrowDrawerD1Ev @ 6196 NONAME
	_ZThn8_N6HbMenu10itemChangeEN13QGraphicsItem18GraphicsItemChangeERK8QVariant @ 6197 NONAME
	_ZThn8_NK11HbScrollBar12boundingRectEv @ 6198 NONAME
	_ZThn8_NK6HbMenu5shapeEv @ 6199 NONAME
	_ZN10HbIconItem7setIconERK6HbIconb @ 6200 NONAME
	_ZN10HbFindFile10hbFindFileER7QStringRK5QChar @ 6201 NONAME
	_ZN10HbFindFile15availableDrivesEv @ 6202 NONAME
	_ZN12HbIconLoader15unLoadMultiIconER7QVectorIP10HbIconImplE @ 6203 NONAME
	_ZN12HbIconLoader26getMultiIconImplFromServerER11QStringListR7QVectorI6QSizeFEN2Qt15AspectRatioModeEN5QIcon4ModeEb6QFlagsINS_16IconLoaderOptionEERK6QColorNS_12IconDataTypeENS_7PurposeERS2_IP10HbIconImplE @ 6204 NONAME ABSENT
	_ZN12HbIconSource15takeImageReaderEv @ 6205 NONAME
	_ZN12HbIconSource15takeSvgRendererEv @ 6206 NONAME
	_ZN12HbIconSource18releaseImageReaderEv @ 6207 NONAME
	_ZN12HbIconSource18releaseSvgRendererEv @ 6208 NONAME
	_ZN12HbMainWindow22setBackgroundImageNameEN2Qt11OrientationERK7QString @ 6209 NONAME
	_ZN12HbRecallFlag4flagE @ 6210 NONAME DATA 1
	_ZN12HbStringUtil6matchCERK7QStringS2_i6QFlagsINS_6OptionEEiii @ 6211 NONAME
	_ZN12HbStringUtil8compareCERK7QStringS2_i6QFlagsINS_6OptionEE @ 6212 NONAME
	_ZN12HbThemeIndex15stringAreaStartEv @ 6213 NONAME ABSENT
	_ZN12HbThemeIndex9itemArrayEv @ 6214 NONAME ABSENT
	_ZN12HbThemeIndex9itemCountEv @ 6215 NONAME
	_ZN12HbThemeIndexC1EPKc @ 6216 NONAME
	_ZN12HbThemeIndexC2EPKc @ 6217 NONAME
	_ZN12HbThemeIndexD1Ev @ 6218 NONAME
	_ZN12HbThemeIndexD2Ev @ 6219 NONAME
	_ZN12HbTranslator10loadCommonEv @ 6220 NONAME
	_ZN12HbTranslatorC1ERK7QString @ 6221 NONAME
	_ZN12HbTranslatorC1ERK7QStringS2_ @ 6222 NONAME
	_ZN12HbTranslatorC1Ev @ 6223 NONAME
	_ZN12HbTranslatorC2ERK7QString @ 6224 NONAME
	_ZN12HbTranslatorC2ERK7QStringS2_ @ 6225 NONAME
	_ZN12HbTranslatorC2Ev @ 6226 NONAME
	_ZN12HbTranslatorD0Ev @ 6227 NONAME
	_ZN12HbTranslatorD1Ev @ 6228 NONAME
	_ZN12HbTranslatorD2Ev @ 6229 NONAME
	_ZN13HbApplication10hideSplashEv @ 6230 NONAME
	_ZN13HbApplication11qt_metacallEN11QMetaObject4CallEiPPv @ 6231 NONAME
	_ZN13HbApplication11qt_metacastEPKc @ 6232 NONAME
	_ZN13HbApplication12activateDataEv @ 6233 NONAME
	_ZN13HbApplication15activityManagerEv @ 6234 NONAME
	_ZN13HbApplication16staticMetaObjectE @ 6235 NONAME DATA 16
	_ZN13HbApplication19getStaticMetaObjectEv @ 6236 NONAME
	_ZN13HbApplication8activateEv @ 6237 NONAME
	_ZN14HbPopupPrivate18popupEffectsLoadedE @ 6238 NONAME DATA 1
	_ZN15HbWidgetPrivate20isInputMethodNeutralEv @ 6239 NONAME ABSENT
	_ZN16HbBackgroundItem11qt_metacallEN11QMetaObject4CallEiPPv @ 6240 NONAME
	_ZN16HbBackgroundItem11qt_metacastEPKc @ 6241 NONAME
	_ZN16HbBackgroundItem11resizeEventEP25QGraphicsSceneResizeEvent @ 6242 NONAME
	_ZN16HbBackgroundItem12setImageNameEN2Qt11OrientationERK7QString @ 6243 NONAME
	_ZN16HbBackgroundItem16staticMetaObjectE @ 6244 NONAME DATA 16
	_ZN16HbBackgroundItem19getStaticMetaObjectEv @ 6245 NONAME
	_ZN16HbBackgroundItem21updateBackgroundImageEv @ 6246 NONAME
	_ZN16HbBackgroundItem5eventEP6QEvent @ 6247 NONAME
	_ZN16HbBackgroundItem5paintEP8QPainterPK24QStyleOptionGraphicsItemP7QWidget @ 6248 NONAME
	_ZN16HbBackgroundItemC1EP12HbMainWindowP15QGraphicsWidget @ 6249 NONAME
	_ZN16HbBackgroundItemC2EP12HbMainWindowP15QGraphicsWidget @ 6250 NONAME
	_ZN16HbBackgroundItemD0Ev @ 6251 NONAME ABSENT
	_ZN16HbBackgroundItemD1Ev @ 6252 NONAME ABSENT
	_ZN16HbBackgroundItemD2Ev @ 6253 NONAME ABSENT
	_ZN16HbExtendedLocale14setStartOfWeekENS_7WeekDayE @ 6254 NONAME
	_ZN16HbFeedbackEngine19multitouchActivatedEPK8HbWidget @ 6255 NONAME ABSENT
	_ZN16ThemeIndexTables7getItemERK7QStringRi @ 6256 NONAME ABSENT
	_ZN16ThemeIndexTables7isValidEv @ 6257 NONAME ABSENT
	_ZN17HbAbstractVkbHost16animValueChangedEf @ 6258 NONAME
	_ZN17HbAbstractVkbHost17animationFinishedEv @ 6259 NONAME
	_ZN17HbAbstractVkbHost18currentViewChangedEP6HbView @ 6260 NONAME
	_ZN17HbAbstractVkbHost7refreshEv @ 6261 NONAME
	_ZN17HbAbstractVkbHostC1EP15QGraphicsWidget @ 6262 NONAME
	_ZN17HbAbstractVkbHostC2EP15QGraphicsWidget @ 6263 NONAME
	_ZN17HbActivityManager11addActivityERK7QStringRK8QVariantRK5QHashIS0_S3_E @ 6264 NONAME
	_ZN17HbActivityManager11qt_metacallEN11QMetaObject4CallEiPPv @ 6265 NONAME
	_ZN17HbActivityManager11qt_metacastEPKc @ 6266 NONAME
	_ZN17HbActivityManager12waitActivityEv @ 6267 NONAME
	_ZN17HbActivityManager14removeActivityERK7QString @ 6268 NONAME
	_ZN17HbActivityManager14updateActivityERK7QStringRK8QVariantRK5QHashIS0_S3_E @ 6269 NONAME
	_ZN17HbActivityManager16staticMetaObjectE @ 6270 NONAME DATA 16
	_ZN17HbActivityManager17activityRequestedERK7QString @ 6271 NONAME
	_ZN17HbActivityManager19getStaticMetaObjectEv @ 6272 NONAME
	_ZN17HbActivityManagerC1EP7QObject @ 6273 NONAME
	_ZN17HbActivityManagerC2EP7QObject @ 6274 NONAME
	_ZN17HbActivityManagerD0Ev @ 6275 NONAME
	_ZN17HbActivityManagerD1Ev @ 6276 NONAME
	_ZN17HbActivityManagerD2Ev @ 6277 NONAME
	_ZN19HbTranslatorPrivate17installTranslatorERK7QStringS2_ @ 6278 NONAME
	_ZN19HbTranslatorPrivate17languageDowngradeER7QString @ 6279 NONAME
	_ZN19HbViewActionManager12removeActionEP7QAction @ 6280 NONAME
	_ZN19HbViewActionManager12removeActionEP7QActionb @ 6281 NONAME
	_ZN19HbViewActionManager13replaceActionEP7QActionS1_ @ 6282 NONAME
	_ZN19HbViewActionManager15actualContainerEP7QActionN6HbView15ActionContainerE @ 6283 NONAME
	_ZN19HbViewActionManager9addActionEP7QActionN6HbView15ActionContainerE @ 6284 NONAME
	_ZN20HbDeviceDialogServer25deviceDialogClientClosingEj @ 6285 NONAME
	_ZN23HbDeviceProfileDatabase21initOrientationStatusEv @ 6286 NONAME
	_ZN24HbParameterLengthLimiter3argE5QChariRKS0_ @ 6287 NONAME
	_ZN24HbParameterLengthLimiter3argERK7QStringS2_ @ 6288 NONAME
	_ZN24HbParameterLengthLimiter3argERK7QStringS2_S2_ @ 6289 NONAME
	_ZN24HbParameterLengthLimiter3argERK7QStringS2_S2_S2_ @ 6290 NONAME
	_ZN24HbParameterLengthLimiter3argERK7QStringS2_S2_S2_S2_ @ 6291 NONAME
	_ZN24HbParameterLengthLimiter3argERK7QStringS2_S2_S2_S2_S2_ @ 6292 NONAME
	_ZN24HbParameterLengthLimiter3argERK7QStringS2_S2_S2_S2_S2_S2_ @ 6293 NONAME
	_ZN24HbParameterLengthLimiter3argERK7QStringS2_S2_S2_S2_S2_S2_S2_ @ 6294 NONAME
	_ZN24HbParameterLengthLimiter3argERK7QStringS2_S2_S2_S2_S2_S2_S2_S2_ @ 6295 NONAME
	_ZN24HbParameterLengthLimiter3argERK7QStringiRK5QChar @ 6296 NONAME
	_ZN24HbParameterLengthLimiter3argEciRK5QChar @ 6297 NONAME
	_ZN24HbParameterLengthLimiter3argEdiciRK5QChar @ 6298 NONAME
	_ZN24HbParameterLengthLimiter3argEiiiRK5QChar @ 6299 NONAME
	_ZN24HbParameterLengthLimiter3argEjiiRK5QChar @ 6300 NONAME
	_ZN24HbParameterLengthLimiter3argEliiRK5QChar @ 6301 NONAME
	_ZN24HbParameterLengthLimiter3argEmiiRK5QChar @ 6302 NONAME
	_ZN24HbParameterLengthLimiter3argEsiiRK5QChar @ 6303 NONAME
	_ZN24HbParameterLengthLimiter3argEtiiRK5QChar @ 6304 NONAME
	_ZN24HbParameterLengthLimiter3argExiiRK5QChar @ 6305 NONAME
	_ZN24HbParameterLengthLimiter3argEyiiRK5QChar @ 6306 NONAME
	_ZN24HbParameterLengthLimiterC1E7QString @ 6307 NONAME
	_ZN24HbParameterLengthLimiterC1EPKc @ 6308 NONAME
	_ZN24HbParameterLengthLimiterC1EPKci @ 6309 NONAME
	_ZN24HbParameterLengthLimiterC1ERKS_ @ 6310 NONAME
	_ZN24HbParameterLengthLimiterC1Ev @ 6311 NONAME
	_ZN24HbParameterLengthLimiterC2E7QString @ 6312 NONAME
	_ZN24HbParameterLengthLimiterC2EPKc @ 6313 NONAME
	_ZN24HbParameterLengthLimiterC2EPKci @ 6314 NONAME
	_ZN24HbParameterLengthLimiterC2ERKS_ @ 6315 NONAME
	_ZN24HbParameterLengthLimiterC2Ev @ 6316 NONAME
	_ZN24HbParameterLengthLimiterD1Ev @ 6317 NONAME
	_ZN24HbParameterLengthLimiterD2Ev @ 6318 NONAME
	_ZN24HbParameterLengthLimiteraSERK7QString @ 6319 NONAME
	_ZN24HbParameterLengthLimiteraSERKS_ @ 6320 NONAME
	_ZN24HbStyleOptionInputDialogC1ERKS_ @ 6321 NONAME
	_ZN24HbStyleOptionInputDialogC1Ev @ 6322 NONAME
	_ZN24HbStyleOptionInputDialogC2ERKS_ @ 6323 NONAME
	_ZN24HbStyleOptionInputDialogC2Ev @ 6324 NONAME
	_ZN24HbStyleOptionInputDialogD1Ev @ 6325 NONAME
	_ZN24HbStyleOptionInputDialogD2Ev @ 6326 NONAME
	_ZN35HbStyleOptionDataGroupHeadingWidgetC1ERKS_ @ 6327 NONAME
	_ZN35HbStyleOptionDataGroupHeadingWidgetC1Ev @ 6328 NONAME
	_ZN35HbStyleOptionDataGroupHeadingWidgetC2ERKS_ @ 6329 NONAME
	_ZN35HbStyleOptionDataGroupHeadingWidgetC2Ev @ 6330 NONAME
	_ZN35HbStyleOptionDataGroupHeadingWidgetD1Ev @ 6331 NONAME
	_ZN35HbStyleOptionDataGroupHeadingWidgetD2Ev @ 6332 NONAME
	_ZN6HbIcon11removeBadgeERKS_ @ 6333 NONAME
	_ZN6HbIcon15removeAllBadgesEv @ 6334 NONAME
	_ZN6HbIcon8addBadgeE6QFlagsIN2Qt13AlignmentFlagEERKS_i @ 6335 NONAME ABSENT
	_ZN7HbTheme8instanceEv @ 6336 NONAME
	_ZNK12HbIconSource11canKeepOpenEv @ 6337 NONAME
	_ZNK12HbMainWindow19backgroundImageNameEN2Qt11OrientationE @ 6338 NONAME
	_ZNK13HbApplication10activateIdEv @ 6339 NONAME
	_ZNK13HbApplication10metaObjectEv @ 6340 NONAME
	_ZNK13HbApplication14activateParamsEv @ 6341 NONAME
	_ZNK13HbApplication14activateReasonEv @ 6342 NONAME
	_ZNK16HbBackgroundItem10metaObjectEv @ 6343 NONAME
	_ZNK16HbBackgroundItem12boundingRectEv @ 6344 NONAME
	_ZNK16HbBackgroundItem16defaultImageNameEN2Qt11OrientationE @ 6345 NONAME
	_ZNK16HbBackgroundItem9imageNameEN2Qt11OrientationE @ 6346 NONAME
	_ZNK16HbExtendedLocale19universalTimeOffsetEv @ 6347 NONAME
	_ZNK16HbExtendedLocale22homeDaylightSavingZoneEv @ 6348 NONAME
	_ZNK16HbExtendedLocale23homeHasDaylightSavingOnEv @ 6349 NONAME
	_ZNK17HbActivityManager10activitiesEv @ 6350 NONAME
	_ZNK17HbActivityManager10metaObjectEv @ 6351 NONAME
	_ZNK17HbActivityManager12activityDataERK7QString @ 6352 NONAME
	_ZNK17HbSignalIndicator5levelEv @ 6353 NONAME
	_ZNK24HbParameterLengthLimitercv7QStringEv @ 6354 NONAME
	_ZNK6HbIcon8isBadgedEv @ 6355 NONAME
	_ZTI12HbTranslator @ 6356 NONAME
	_ZTI16HbBackgroundItem @ 6357 NONAME
	_ZTI17HbActivityManager @ 6358 NONAME
	_ZTV12HbTranslator @ 6359 NONAME
	_ZTV16HbBackgroundItem @ 6360 NONAME
	_ZTV17HbActivityManager @ 6361 NONAME
	_ZThn16_N16HbBackgroundItemD0Ev @ 6362 NONAME ABSENT
	_ZThn16_N16HbBackgroundItemD1Ev @ 6363 NONAME ABSENT
	_ZThn8_N16HbBackgroundItem5paintEP8QPainterPK24QStyleOptionGraphicsItemP7QWidget @ 6364 NONAME
	_ZThn8_N16HbBackgroundItemD0Ev @ 6365 NONAME ABSENT
	_ZThn8_N16HbBackgroundItemD1Ev @ 6366 NONAME ABSENT
	_ZThn8_NK16HbBackgroundItem12boundingRectEv @ 6367 NONAME
	_ZN10HbTitleBar11gestureLeftEv @ 6368 NONAME ABSENT
	_ZN10HbTitleBar12gestureRightEv @ 6369 NONAME ABSENT
	_ZN10HbTitleBar19delayedConstructionEv @ 6370 NONAME
	_ZN11HbIndicator13userActivatedERK7QStringRK4QMapIS0_8QVariantE @ 6371 NONAME
	_ZN11HbStatusBar19delayedConstructionEv @ 6372 NONAME
	_ZN11HbTouchArea12gestureEventEP13QGestureEvent @ 6373 NONAME
	_ZN12HbIconLoader10unLoadIconEP10HbIconImplb @ 6374 NONAME ABSENT
	_ZN12HbIconLoader15freeGpuIconDataEv @ 6375 NONAME
	_ZN12HbIconLoader17removeItemInCacheEP10HbIconImpl @ 6376 NONAME
	_ZN12HbIconLoader19storeIconEngineInfoEP12HbIconEngine @ 6377 NONAME
	_ZN12HbIconLoader20handleForegroundLostEv @ 6378 NONAME
	_ZN12HbIconLoader20removeIconEngineInfoEP12HbIconEngine @ 6379 NONAME
	_ZN12HbIconLoader20storeFrameDrawerInfoEP20HbFrameDrawerPrivate @ 6380 NONAME
	_ZN12HbIconLoader21removeFrameDrawerInfoEP20HbFrameDrawerPrivate @ 6381 NONAME
	_ZN12HbIconLoader26getMultiIconImplFromServerER11QStringListR7QVectorI6QSizeFEN2Qt15AspectRatioModeEN5QIcon4ModeEbb6QFlagsINS_16IconLoaderOptionEERK6QColorNS_12IconDataTypeENS_7PurposeERS2_IP10HbIconImplE @ 6382 NONAME ABSENT
	_ZN12HbPanGesture11setVelocityERK7QPointF @ 6383 NONAME
	_ZN12HbPanGesture14setSceneOffsetERK7QPointF @ 6384 NONAME
	_ZN12HbPanGesture16setSceneStartPosERK7QPointF @ 6385 NONAME
	_ZN12HbPanGesture18setSceneLastOffsetERK7QPointF @ 6386 NONAME
	_ZN12HbScrollArea12gestureEventEP13QGestureEvent @ 6387 NONAME
	_ZN12HbTapGesture16setScenePositionERK7QPointF @ 6388 NONAME
	_ZN12HbTapGesture16setSceneStartPosERK7QPointF @ 6389 NONAME
	_ZN12HbThemeUtils11hierarchiesEv @ 6390 NONAME ABSENT
	_ZN12HbThemeUtils12addHierarchyERK7QStringi @ 6391 NONAME ABSENT
	_ZN12HbThemeUtils12appHierarchyE @ 6392 NONAME DATA 4 ABSENT
	_ZN12HbThemeUtils12defaultThemeEv @ 6393 NONAME ABSENT
	_ZN12HbThemeUtils12initSettingsEv @ 6394 NONAME ABSENT
	_ZN12HbThemeUtils12isThemeValidERK11HbThemeInfo @ 6395 NONAME ABSENT
	_ZN12HbThemeUtils15removeHierarchyERK7QString @ 6396 NONAME ABSENT
	_ZN12HbThemeUtils16getThemeSettingsEv @ 6397 NONAME ABSENT
	_ZN12HbThemeUtils16operatorBasePathEv @ 6398 NONAME ABSENT
	_ZN12HbThemeUtils17operatorHierarchyE @ 6399 NONAME DATA 4
	_ZN12HbThemeUtils17platformHierarchyE @ 6400 NONAME DATA 4
	_ZN12HbThemeUtils19iconsResourceFolderE @ 6401 NONAME DATA 4
	_ZN12HbThemeUtils19styleResourceFolderE @ 6402 NONAME DATA 4
	_ZN12HbThemeUtils19themeResourceFolderE @ 6403 NONAME DATA 4
	_ZN12HbThemeUtils20getBaseThemeFromFileERK7QString @ 6404 NONAME ABSENT
	_ZN12HbThemeUtils21effectsResourceFolderE @ 6405 NONAME DATA 4
	_ZN12HbThemeUtils34constructHierarchyListWithPathInfoERK7QStringS2_N2Hb12ResourceTypeE @ 6406 NONAME ABSENT
	_ZN12HbThemeUtils9baseThemeEv @ 6407 NONAME ABSENT
	_ZN12HbToolButton10sceneEventEP6QEvent @ 6408 NONAME
	_ZN12HbWidgetBase10sceneEventEP6QEvent @ 6409 NONAME
	_ZN12HbWidgetBase12gestureEventEP13QGestureEvent @ 6410 NONAME
	_ZN13HbFrameDrawer11setClipPathERK12QPainterPath @ 6411 NONAME
	_ZN13HbInputMethod27predictiveInputStateChangedE6QFlagsI21HbKeyboardSettingFlagEb @ 6412 NONAME ABSENT
	_ZN14HbPinchGesture11qt_metacallEN11QMetaObject4CallEiPPv @ 6413 NONAME
	_ZN14HbPinchGesture11qt_metacastEPKc @ 6414 NONAME
	_ZN14HbPinchGesture16staticMetaObjectE @ 6415 NONAME DATA 16
	_ZN14HbPinchGesture19getStaticMetaObjectEv @ 6416 NONAME
	_ZN14HbPinchGesture19setSceneCenterPointERK7QPointF @ 6417 NONAME
	_ZN14HbPinchGesture21setSceneRotationAngleEf @ 6418 NONAME
	_ZN14HbPinchGesture23setSceneLastCenterPointERK7QPointF @ 6419 NONAME
	_ZN14HbPinchGesture24setSceneStartCenterPointERK7QPointF @ 6420 NONAME
	_ZN14HbPinchGesture25setSceneLastRotationAngleEf @ 6421 NONAME
	_ZN14HbPinchGesture26setSceneTotalRotationAngleEf @ 6422 NONAME
	_ZN14HbPinchGestureC1EP7QObject @ 6423 NONAME
	_ZN14HbPinchGestureC1ER21HbPinchGesturePrivateP7QObject @ 6424 NONAME
	_ZN14HbPinchGestureC2EP7QObject @ 6425 NONAME
	_ZN14HbPinchGestureC2ER21HbPinchGesturePrivateP7QObject @ 6426 NONAME
	_ZN14HbPinchGestureD0Ev @ 6427 NONAME
	_ZN14HbPinchGestureD1Ev @ 6428 NONAME
	_ZN14HbPinchGestureD2Ev @ 6429 NONAME
	_ZN14HbSplashScreen5startE6QFlagsINS_4FlagEE @ 6430 NONAME ABSENT
	_ZN14HbSplashScreen6existsEv @ 6431 NONAME
	_ZN14HbSplashScreen7destroyEv @ 6432 NONAME
	_ZN14HbSplashScreen8setFlagsE6QFlagsINS_4FlagEE @ 6433 NONAME
	_ZN14HbSwipeGesture18setSceneSwipeAngleEf @ 6434 NONAME
	_ZN15HbPointRecorder5clearEv @ 6435 NONAME ABSENT
	_ZN15HbPointRecorder6recordEf5QTime @ 6436 NONAME ABSENT
	_ZN15HbPointRecorderC1Ev @ 6437 NONAME
	_ZN15HbPointRecorderC2Ev @ 6438 NONAME
	_ZN15HbPointRecorderD1Ev @ 6439 NONAME
	_ZN15HbPointRecorderD2Ev @ 6440 NONAME
	_ZN15HbVkbHostBridge10openKeypadEP17HbVirtualKeyboardP13HbInputMethodb @ 6441 NONAME
	_ZN15HbVkbHostBridge11closeKeypadEb @ 6442 NONAME
	_ZN15HbVkbHostBridge11connectHostEP9HbVkbHost @ 6443 NONAME
	_ZN15HbVkbHostBridge11qt_metacallEN11QMetaObject4CallEiPPv @ 6444 NONAME
	_ZN15HbVkbHostBridge11qt_metacastEPKc @ 6445 NONAME
	_ZN15HbVkbHostBridge14minimizeKeypadEb @ 6446 NONAME ABSENT
	_ZN15HbVkbHostBridge16staticMetaObjectE @ 6447 NONAME DATA 16
	_ZN15HbVkbHostBridge19getStaticMetaObjectEv @ 6448 NONAME
	_ZN15HbVkbHostBridge19openMinimizedKeypadEP17HbVirtualKeyboardP13HbInputMethod @ 6449 NONAME ABSENT
	_ZN15HbVkbHostBridge20preferredSizeChangedERK6QSizeF @ 6450 NONAME ABSENT
	_ZN15HbVkbHostBridge22ensureCursorVisibilityEv @ 6451 NONAME
	_ZN15HbVkbHostBridge24stateTransitionCompletedEv @ 6452 NONAME
	_ZN15HbVkbHostBridge7refreshEv @ 6453 NONAME
	_ZN15HbVkbHostBridge8instanceEv @ 6454 NONAME
	_ZN15HbVkbHostBridgeC1Ev @ 6455 NONAME
	_ZN15HbVkbHostBridgeC2Ev @ 6456 NONAME
	_ZN15HbVkbHostBridgeD0Ev @ 6457 NONAME
	_ZN15HbVkbHostBridgeD1Ev @ 6458 NONAME
	_ZN15HbVkbHostBridgeD2Ev @ 6459 NONAME
	_ZN16HbAbstractButton12gestureEventEP13QGestureEvent @ 6460 NONAME
	_ZN16HbIndicatorGroup19delayedConstructionEv @ 6461 NONAME
	_ZN16HbIndicatorGroup19moveEffectFinnishedERKN8HbEffect12EffectStatusE @ 6462 NONAME
	_ZN16HbIndicatorGroup24disappearEffectFinnishedERKN8HbEffect12EffectStatusE @ 6463 NONAME
	_ZN17HbAbstractVkbHost24stateTransitionCompletedEv @ 6464 NONAME
	_ZN17HbEditorInterface12setDigitTypeE16HbInputDigitType @ 6465 NONAME
	_ZN17HbEditorInterface19setInputConstraintsE6QFlagsI18HbEditorConstraintE @ 6466 NONAME
	_ZN17HbEditorInterface7setModeE6QFlagsI19HbInputModeTypeFlagE @ 6467 NONAME
	_ZN17HbIndicatorButton19delayedConstructionEv @ 6468 NONAME
	_ZN17HbPanGestureLogic12isMouseEventEN6QEvent4TypeE @ 6469 NONAME
	_ZN17HbPanGestureLogic12resetGestureEP12HbPanGesture @ 6470 NONAME
	_ZN17HbPanGestureLogic15handleMouseMoveEN2Qt12GestureStateEP12HbPanGestureP7QObjectP11QMouseEvent @ 6471 NONAME ABSENT
	_ZN17HbPanGestureLogic16handleMousePressEN2Qt12GestureStateEP12HbPanGestureP7QObjectP11QMouseEvent @ 6472 NONAME ABSENT
	_ZN17HbPanGestureLogic18handleMouseReleaseEN2Qt12GestureStateEP12HbPanGestureP7QObjectP11QMouseEvent @ 6473 NONAME ABSENT
	_ZN17HbPanGestureLogic9recognizeEN2Qt12GestureStateEP12HbPanGestureP7QObjectP6QEvent @ 6474 NONAME ABSENT
	_ZN17HbPanGestureLogicC1Ev @ 6475 NONAME
	_ZN17HbPanGestureLogicC2Ev @ 6476 NONAME
	_ZN17HbPanGestureLogicD1Ev @ 6477 NONAME
	_ZN17HbPanGestureLogicD2Ev @ 6478 NONAME
	_ZN17HbSignalIndicator19delayedConstructionEv @ 6479 NONAME
	_ZN17HbTapGestureLogic12resetGestureEP12HbTapGesture @ 6480 NONAME
	_ZN17HbTapGestureLogic15handleMouseMoveEN2Qt12GestureStateEP12HbTapGestureP7QObjectP11QMouseEvent @ 6481 NONAME
	_ZN17HbTapGestureLogic16handleMousePressEN2Qt12GestureStateEP12HbTapGestureP7QObjectP11QMouseEvent @ 6482 NONAME
	_ZN17HbTapGestureLogic16handleTimerEventEN2Qt12GestureStateEP12HbTapGestureP7QObject @ 6483 NONAME
	_ZN17HbTapGestureLogic18handleMouseReleaseEN2Qt12GestureStateEP12HbTapGestureP7QObjectP11QMouseEvent @ 6484 NONAME
	_ZN17HbTapGestureLogic9recognizeEN2Qt12GestureStateEP12HbTapGestureP7QObjectP6QEvent @ 6485 NONAME
	_ZN17HbTapGestureLogicC1Ev @ 6486 NONAME
	_ZN17HbTapGestureLogicC2Ev @ 6487 NONAME
	_ZN17HbTapGestureLogicD1Ev @ 6488 NONAME
	_ZN17HbTapGestureLogicD2Ev @ 6489 NONAME
	_ZN18HbBatteryIndicator19delayedConstructionEv @ 6490 NONAME
	_ZN18HbInputFocusObject10cursorLeftE6QFlagsIN2Qt16KeyboardModifierEE @ 6491 NONAME
	_ZN18HbInputFocusObject11cursorRightE6QFlagsIN2Qt16KeyboardModifierEE @ 6492 NONAME
	_ZN18HbNavigationButton19delayedConstructionEv @ 6493 NONAME
	_ZN19CHbIndicatorSymbian11SetObserverEP27MHbIndicatorSymbianObserver @ 6494 NONAME
	_ZN19HbForegroundWatcher17setSensorListenerEP16HbSensorListener @ 6495 NONAME
	_ZN19HbInputSettingProxy18setKeypressTimeoutEi @ 6496 NONAME
	_ZN19HbInputSettingProxy22keypressTimeoutChangedEi @ 6497 NONAME
	_ZN19HbInputSettingProxy23setAutocompletionStatusE6QFlagsI21HbKeyboardSettingFlagEb @ 6498 NONAME
	_ZN19HbInputSettingProxy23setPrimaryCandidateModeE22HbPrimaryCandidateMode @ 6499 NONAME
	_ZN19HbInputSettingProxy24setPredictiveInputStatusE6QFlagsI21HbKeyboardSettingFlagEb @ 6500 NONAME
	_ZN19HbInputSettingProxy24setTypingCorrectionLevelE23HbTypingCorrectionLevel @ 6501 NONAME
	_ZN19HbInputSettingProxy26autocompletionStateChangedE6QFlagsI21HbKeyboardSettingFlagEb @ 6502 NONAME
	_ZN19HbInputSettingProxy27predictiveInputStateChangedE6QFlagsI21HbKeyboardSettingFlagEb @ 6503 NONAME
	_ZN19HbInputSettingProxy27primaryCandidateModeChangedE22HbPrimaryCandidateMode @ 6504 NONAME
	_ZN19HbInputSettingProxy28typingCorrectionLevelChangedE23HbTypingCorrectionLevel @ 6505 NONAME
	_ZN19HbInputSettingProxy37characterPreviewStateForQwertyChangedEb @ 6506 NONAME
	_ZN19HbInputSettingProxy40automaticTextCasingStateForQwertyChangedEb @ 6507 NONAME
	_ZN19HbInputSettingProxy41setPredictiveInputStatusForActiveKeyboardEb @ 6508 NONAME
	_ZN19HbMainWindowPrivate10menuClosedEv @ 6509 NONAME
	_ZN19HbPinchGestureLogic10mapToSceneEP7QObjectRK7QPointF @ 6510 NONAME
	_ZN19HbPinchGestureLogic12resetGestureEP14HbPinchGesture @ 6511 NONAME
	_ZN19HbPinchGestureLogic9recognizeEN2Qt12GestureStateEP14HbPinchGestureP7QObjectP6QEvent @ 6512 NONAME
	_ZN19HbPinchGestureLogicC1Ev @ 6513 NONAME
	_ZN19HbPinchGestureLogicC2Ev @ 6514 NONAME
	_ZN19HbPinchGestureLogicD1Ev @ 6515 NONAME
	_ZN19HbPinchGestureLogicD2Ev @ 6516 NONAME
	_ZN19HbScrollAreaPrivate15_q_thumbPressedEv @ 6517 NONAME
	_ZN19HbScrollAreaPrivate16_q_thumbReleasedEv @ 6518 NONAME
	_ZN19HbScrollAreaPrivate3panEP11QPanGesture @ 6519 NONAME
	_ZN19HbSleepModeListener8instanceEv @ 6520 NONAME
	_ZN19HbSleepModeListenerC1Ev @ 6521 NONAME
	_ZN19HbSleepModeListenerC2Ev @ 6522 NONAME
	_ZN19HbSleepModeListenerD1Ev @ 6523 NONAME
	_ZN19HbSleepModeListenerD2Ev @ 6524 NONAME
	_ZN19HbSwipeGestureLogic12isMouseEventEN6QEvent4TypeE @ 6525 NONAME
	_ZN19HbSwipeGestureLogic12resetGestureEP14HbSwipeGesture @ 6526 NONAME
	_ZN19HbSwipeGestureLogic16handleMousePressEN2Qt12GestureStateEP14HbSwipeGestureP7QObjectP11QMouseEvent @ 6527 NONAME ABSENT
	_ZN19HbSwipeGestureLogic18handleMouseReleaseEN2Qt12GestureStateEP14HbSwipeGestureP7QObjectP11QMouseEvent @ 6528 NONAME ABSENT
	_ZN19HbSwipeGestureLogic9recognizeEN2Qt12GestureStateEP14HbSwipeGestureP7QObjectP6QEvent @ 6529 NONAME ABSENT
	_ZN19HbSwipeGestureLogicC1Ev @ 6530 NONAME
	_ZN19HbSwipeGestureLogicC2Ev @ 6531 NONAME
	_ZN19HbSwipeGestureLogicD1Ev @ 6532 NONAME
	_ZN19HbSwipeGestureLogicD2Ev @ 6533 NONAME
	_ZN19HbTapAndHoldGesture16setScenePositionERK7QPointF @ 6534 NONAME
	_ZN19HbTapAndHoldGestureC1EP26HbTapAndHoldGesturePrivateP7QObject @ 6535 NONAME
	_ZN19HbTapAndHoldGestureC2EP26HbTapAndHoldGesturePrivateP7QObject @ 6536 NONAME
	_ZN19HbTapGesturePrivateC1Ev @ 6537 NONAME ABSENT
	_ZN19HbTapGesturePrivateC2Ev @ 6538 NONAME ABSENT
	_ZN19HbThemeSystemEffect11qt_metacallEN11QMetaObject4CallEiPPv @ 6539 NONAME
	_ZN19HbThemeSystemEffect11qt_metacastEPKc @ 6540 NONAME
	_ZN19HbThemeSystemEffect12parseEffectsER16QXmlStreamReader @ 6541 NONAME ABSENT
	_ZN19HbThemeSystemEffect15registerEffectsEv @ 6542 NONAME ABSENT
	_ZN19HbThemeSystemEffect15setCurrentThemeERK7QString @ 6543 NONAME
	_ZN19HbThemeSystemEffect16staticMetaObjectE @ 6544 NONAME DATA 16
	_ZN19HbThemeSystemEffect17handleThemeChangeERK7QString @ 6545 NONAME
	_ZN19HbThemeSystemEffect19addEntryToEffectMapEjNS_14SystemEffectIdERK7QStringS3_b @ 6546 NONAME ABSENT
	_ZN19HbThemeSystemEffect19getStaticMetaObjectEv @ 6547 NONAME
	_ZN19HbThemeSystemEffect22parseConfigurationFileERK7QString @ 6548 NONAME
	_ZN19HbThemeSystemEffect8instanceEv @ 6549 NONAME
	_ZN19HbThemeSystemEffectC1EP7QObject @ 6550 NONAME
	_ZN19HbThemeSystemEffectC2EP7QObject @ 6551 NONAME
	_ZN19HbThemeSystemEffectD0Ev @ 6552 NONAME
	_ZN19HbThemeSystemEffectD1Ev @ 6553 NONAME
	_ZN19HbThemeSystemEffectD2Ev @ 6554 NONAME
	_ZN20HbDeviceDialogServer22indicatorUserActivatedERK4QMapI7QString8QVariantE @ 6555 NONAME
	_ZN20HbIndicatorInterface13userActivatedERK4QMapI7QString8QVariantE @ 6556 NONAME
	_ZN20HbInputMethodPrivate29setUpFocusedObjectAsUrlEditorEv @ 6557 NONAME
	_ZN20HbInputMethodPrivate31setUpFocusedObjectAsEmailEditorEv @ 6558 NONAME
	_ZN20HbInputMethodPrivate36setUpFocusedObjectAsDigitsOnlyEditorEv @ 6559 NONAME
	_ZN20HbInputMethodPrivate37setUpFocusedObjectAsPhoneNumberEditorEv @ 6560 NONAME
	_ZN20HbInputMethodPrivate41setUpFocusedObjectAsFormattedNumberEditorEv @ 6561 NONAME
	_ZN20HbPixmapIconRenderer15getMaskedPixmapEP18HbMaskableIconImpl @ 6562 NONAME
	_ZN20HbPixmapIconRenderer17destroyMaskedDataEPv @ 6563 NONAME
	_ZN20HbPixmapIconRenderer19applyIconPropertiesEv @ 6564 NONAME
	_ZN20HbPixmapIconRenderer4drawEP8QPainterRK7QPointFRK12QPainterPathP18HbMaskableIconImpl @ 6565 NONAME
	_ZN20HbPixmapIconRenderer6doDrawEP8QPainterRK7QPointFRK7QPixmapRK12QPainterPath @ 6566 NONAME
	_ZN20HbPixmapIconRendererC1ERK7QPixmapP10HbIconImpl @ 6567 NONAME ABSENT
	_ZN20HbPixmapIconRendererC2ERK7QPixmapP10HbIconImpl @ 6568 NONAME ABSENT
	_ZN20HbPixmapIconRendererD1Ev @ 6569 NONAME
	_ZN20HbPixmapIconRendererD2Ev @ 6570 NONAME
	_ZN20HbVelocityCalculatorC1ERK15HbPointRecorderS2_ @ 6571 NONAME
	_ZN20HbVelocityCalculatorC2ERK15HbPointRecorderS2_ @ 6572 NONAME
	_ZN21HbVgImageIconRenderer19applyIconPropertiesEv @ 6573 NONAME
	_ZN21HbVgImageIconRenderer19painterPathToVGPathERK12QPainterPath @ 6574 NONAME ABSENT
	_ZN21HbVgImageIconRenderer27updatePainterTransformationEP8QPainterRK7QPointF @ 6575 NONAME
	_ZN21HbVgImageIconRenderer4drawEP8QPainterRK7QPointFRK12QPainterPath @ 6576 NONAME
	_ZN21HbVgImageIconRendererC1EmRK5QSizeP10HbIconImpl @ 6577 NONAME
	_ZN21HbVgImageIconRendererC2EmRK5QSizeP10HbIconImpl @ 6578 NONAME
	_ZN21HbVgImageIconRendererD1Ev @ 6579 NONAME
	_ZN21HbVgImageIconRendererD2Ev @ 6580 NONAME
	_ZN22HbPanGestureRecognizer5resetEP8QGesture @ 6581 NONAME
	_ZN22HbPanGestureRecognizer6createEP7QObject @ 6582 NONAME
	_ZN22HbPanGestureRecognizer9recognizeEP8QGestureP7QObjectP6QEvent @ 6583 NONAME
	_ZN22HbPanGestureRecognizerC1Ev @ 6584 NONAME
	_ZN22HbPanGestureRecognizerC2Ev @ 6585 NONAME
	_ZN22HbPanGestureRecognizerD0Ev @ 6586 NONAME
	_ZN22HbPanGestureRecognizerD1Ev @ 6587 NONAME
	_ZN22HbPanGestureRecognizerD2Ev @ 6588 NONAME
	_ZN24HbPinchGestureRecognizer5resetEP8QGesture @ 6589 NONAME
	_ZN24HbPinchGestureRecognizer6createEP7QObject @ 6590 NONAME
	_ZN24HbPinchGestureRecognizer9recognizeEP8QGestureP7QObjectP6QEvent @ 6591 NONAME
	_ZN24HbPinchGestureRecognizerC1Ev @ 6592 NONAME
	_ZN24HbPinchGestureRecognizerC2Ev @ 6593 NONAME
	_ZN24HbPinchGestureRecognizerD0Ev @ 6594 NONAME
	_ZN24HbPinchGestureRecognizerD1Ev @ 6595 NONAME
	_ZN24HbPinchGestureRecognizerD2Ev @ 6596 NONAME
	_ZN24HbTapAndHoldGestureLogic10startTimerEP19HbTapAndHoldGesturei @ 6597 NONAME ABSENT
	_ZN24HbTapAndHoldGestureLogic11handleTimerEP19HbTapAndHoldGestureP11QTimerEvent @ 6598 NONAME ABSENT
	_ZN24HbTapAndHoldGestureLogic12resetGestureEP19HbTapAndHoldGesture @ 6599 NONAME
	_ZN24HbTapAndHoldGestureLogic15handleMouseMoveEN2Qt12GestureStateEP19HbTapAndHoldGestureP7QObjectP11QMouseEvent @ 6600 NONAME
	_ZN24HbTapAndHoldGestureLogic16handleMousePressEN2Qt12GestureStateEP19HbTapAndHoldGestureP7QObjectP11QMouseEvent @ 6601 NONAME
	_ZN24HbTapAndHoldGestureLogic16outsideThresholdEP19HbTapAndHoldGesture @ 6602 NONAME
	_ZN24HbTapAndHoldGestureLogic18handleMouseReleaseEN2Qt12GestureStateEP19HbTapAndHoldGestureP7QObjectP11QMouseEvent @ 6603 NONAME
	_ZN24HbTapAndHoldGestureLogic9recognizeEN2Qt12GestureStateEP19HbTapAndHoldGestureP7QObjectP6QEvent @ 6604 NONAME
	_ZN24HbTapAndHoldGestureLogicC1Ev @ 6605 NONAME
	_ZN24HbTapAndHoldGestureLogicC2Ev @ 6606 NONAME
	_ZN24HbTapAndHoldGestureLogicD1Ev @ 6607 NONAME
	_ZN24HbTapAndHoldGestureLogicD2Ev @ 6608 NONAME
	_ZN27HbStyleOptionProgressSliderC1ERKS_ @ 6609 NONAME
	_ZN27HbStyleOptionProgressSliderC1Ev @ 6610 NONAME
	_ZN27HbStyleOptionProgressSliderC2ERKS_ @ 6611 NONAME
	_ZN27HbStyleOptionProgressSliderC2Ev @ 6612 NONAME
	_ZN27HbStyleOptionProgressSliderD1Ev @ 6613 NONAME
	_ZN27HbStyleOptionProgressSliderD2Ev @ 6614 NONAME
	_ZN29HbTapAndHoldGestureRecognizerC1Ei @ 6615 NONAME ABSENT
	_ZN29HbTapAndHoldGestureRecognizerC2Ei @ 6616 NONAME ABSENT
	_ZN29HbTapAndHoldGestureRecognizerD0Ev @ 6617 NONAME
	_ZN29HbTapAndHoldGestureRecognizerD1Ev @ 6618 NONAME
	_ZN29HbTapAndHoldGestureRecognizerD2Ev @ 6619 NONAME
	_ZN33HbStyleOptionProgressSliderHandleC1ERKS_ @ 6620 NONAME
	_ZN33HbStyleOptionProgressSliderHandleC1Ev @ 6621 NONAME
	_ZN33HbStyleOptionProgressSliderHandleC2ERKS_ @ 6622 NONAME
	_ZN33HbStyleOptionProgressSliderHandleC2Ev @ 6623 NONAME
	_ZN33HbStyleOptionProgressSliderHandleD1Ev @ 6624 NONAME
	_ZN33HbStyleOptionProgressSliderHandleD2Ev @ 6625 NONAME
	_ZN5HbCss14ValueExtractorC1ERK5QHashI7QStringNS_11DeclarationEEbRK15HbDeviceProfile @ 6626 NONAME ABSENT
	_ZN5HbCss14ValueExtractorC1ERK8HbVectorINS_11DeclarationEERK5QHashI7QStringS2_ERK15HbDeviceProfileRK8QPalette @ 6627 NONAME ABSENT
	_ZN5HbCss14ValueExtractorC2ERK5QHashI7QStringNS_11DeclarationEEbRK15HbDeviceProfile @ 6628 NONAME ABSENT
	_ZN5HbCss14ValueExtractorC2ERK8HbVectorINS_11DeclarationEERK5QHashI7QStringS2_ERK15HbDeviceProfileRK8QPalette @ 6629 NONAME ABSENT
	_ZN9HbToolBar16updatePrimitivesEv @ 6630 NONAME
	_ZN9HbVkbHost11aboutToOpenEv @ 6631 NONAME
	_ZN9HbVkbHost12aboutToCloseEv @ 6632 NONAME
	_ZNK12HbPanGesture10sceneDeltaEv @ 6633 NONAME
	_ZNK12HbPanGesture11sceneOffsetEv @ 6634 NONAME
	_ZNK12HbPanGesture13sceneStartPosEv @ 6635 NONAME
	_ZNK12HbPanGesture13sceneVelocityEv @ 6636 NONAME
	_ZNK12HbPanGesture15sceneLastOffsetEv @ 6637 NONAME
	_ZNK12HbPanGesture17sceneAccelerationEv @ 6638 NONAME
	_ZNK12HbPanGesture8velocityEv @ 6639 NONAME
	_ZNK12HbTapGesture12tapStyleHintEv @ 6640 NONAME
	_ZNK12HbTapGesture13scenePositionEv @ 6641 NONAME
	_ZNK12HbTapGesture13sceneStartPosEv @ 6642 NONAME
	_ZNK13HbFrameDrawer8clipPathEv @ 6643 NONAME
	_ZNK14HbPinchGesture10metaObjectEv @ 6644 NONAME
	_ZNK14HbPinchGesture16sceneCenterPointEv @ 6645 NONAME
	_ZNK14HbPinchGesture18sceneRotationAngleEv @ 6646 NONAME
	_ZNK14HbPinchGesture20sceneLastCenterPointEv @ 6647 NONAME
	_ZNK14HbPinchGesture21sceneStartCenterPointEv @ 6648 NONAME
	_ZNK14HbPinchGesture22sceneLastRotationAngleEv @ 6649 NONAME
	_ZNK14HbPinchGesture23sceneTotalRotationAngleEv @ 6650 NONAME
	_ZNK14HbSwipeGesture15sceneSwipeAngleEv @ 6651 NONAME
	_ZNK14HbSwipeGesture22sceneVerticalDirectionEv @ 6652 NONAME
	_ZNK14HbSwipeGesture24sceneHorizontalDirectionEv @ 6653 NONAME
	_ZNK15HbPointRecorder10dirChangedEf @ 6654 NONAME
	_ZNK15HbPointRecorder12getLastTimesEi @ 6655 NONAME ABSENT
	_ZNK15HbPointRecorder13getLastPointsEi @ 6656 NONAME ABSENT
	_ZNK15HbPointRecorder7isEmptyEv @ 6657 NONAME ABSENT
	_ZNK15HbPointRecorder8lastTimeEv @ 6658 NONAME
	_ZNK15HbPointRecorder9lastPointEv @ 6659 NONAME
	_ZNK15HbVkbHostBridge10activeHostEv @ 6660 NONAME
	_ZNK15HbVkbHostBridge10metaObjectEv @ 6661 NONAME
	_ZNK15HbVkbHostBridge12activeKeypadEv @ 6662 NONAME
	_ZNK15HbVkbHostBridge12keyboardAreaEv @ 6663 NONAME
	_ZNK15HbVkbHostBridge12keypadStatusEv @ 6664 NONAME
	_ZNK15HbVkbHostBridge15applicationAreaEv @ 6665 NONAME
	_ZNK15HbVkbHostBridge22stateTransitionOngoingEv @ 6666 NONAME
	_ZNK15HbVkbHostBridge35keypadStatusBeforeOrientationChangeEv @ 6667 NONAME
	_ZNK15HbVkbHostBridge8priorityEv @ 6668 NONAME ABSENT
	_ZNK17HbAbstractVkbHost22stateTransitionOngoingEv @ 6669 NONAME
	_ZNK17HbEditorInterface16inputConstraintsEv @ 6670 NONAME
	_ZNK17HbEditorInterface4modeEv @ 6671 NONAME
	_ZNK17HbEditorInterface9digitTypeEv @ 6672 NONAME
	_ZNK19HbInputSettingProxy15keypressTimeoutEv @ 6673 NONAME
	_ZNK19HbInputSettingProxy20primaryCandidateModeEv @ 6674 NONAME
	_ZNK19HbInputSettingProxy21predictiveInputStatusE6QFlagsI21HbKeyboardSettingFlagE @ 6675 NONAME
	_ZNK19HbInputSettingProxy21typingCorrectionLevelEv @ 6676 NONAME
	_ZNK19HbInputSettingProxy23isAutocompletionEnabledE6QFlagsI21HbKeyboardSettingFlagE @ 6677 NONAME
	_ZNK19HbInputSettingProxy38predictiveInputStatusForActiveKeyboardEv @ 6678 NONAME
	_ZNK19HbMainWindowPrivate7elementENS_7ElementE @ 6679 NONAME
	_ZNK19HbTapAndHoldGesture13scenePositionEv @ 6680 NONAME
	_ZNK19HbThemeSystemEffect10metaObjectEv @ 6681 NONAME
	_ZNK19HbThemeSystemEffect15validEffectFileERK7QString @ 6682 NONAME ABSENT
	_ZNK19HbThemeSystemEffect17booleanFromStringERK7QString @ 6683 NONAME ABSENT
	_ZNK19HbThemeSystemEffect17checkStartElementER16QXmlStreamReaderRK13QLatin1String @ 6684 NONAME ABSENT
	_ZNK19HbThemeSystemEffect19tfxTransitionActionENS_14SystemEffectIdE @ 6685 NONAME ABSENT
	_ZNK19HbThemeSystemEffect19validApplicationUidERK7QString @ 6686 NONAME ABSENT
	_ZNK19HbThemeSystemEffect20getThemeEffectFolderER7QStringRKS0_ @ 6687 NONAME ABSENT
	_ZNK19HbThemeSystemEffect20idFromEffectIdStringERK7QString @ 6688 NONAME ABSENT
	_ZNK20HbVelocityCalculator18calculate_velocityERK15HbPointRecorderRK5QTime @ 6689 NONAME ABSENT
	_ZNK20HbVelocityCalculator8velocityERK5QTime @ 6690 NONAME ABSENT
	_ZTI14HbPinchGesture @ 6691 NONAME
	_ZTI15HbVkbHostBridge @ 6692 NONAME
	_ZTI17HbPanGestureLogic @ 6693 NONAME
	_ZTI17HbTapGestureLogic @ 6694 NONAME
	_ZTI19HbPinchGestureLogic @ 6695 NONAME
	_ZTI19HbSwipeGestureLogic @ 6696 NONAME
	_ZTI19HbThemeSystemEffect @ 6697 NONAME
	_ZTI22HbPanGestureRecognizer @ 6698 NONAME
	_ZTI24HbPinchGestureRecognizer @ 6699 NONAME
	_ZTI24HbTapAndHoldGestureLogic @ 6700 NONAME
	_ZTV14HbPinchGesture @ 6701 NONAME
	_ZTV15HbVkbHostBridge @ 6702 NONAME
	_ZTV19HbThemeSystemEffect @ 6703 NONAME
	_ZTV22HbPanGestureRecognizer @ 6704 NONAME
	_ZTV24HbPinchGestureRecognizer @ 6705 NONAME
	_ZThn8_N12HbToolButton10sceneEventEP6QEvent @ 6706 NONAME
	_ZThn8_N12HbWidgetBase10sceneEventEP6QEvent @ 6707 NONAME
	_ZN12HbThemeUtils15getThemeSettingENS_7SettingE @ 6708 NONAME
	_ZN12HbThemeUtils15setThemeSettingENS_7SettingERK7QString @ 6709 NONAME
	_ZN12HbThemeUtils18updateThemeSettingENS_7SettingERK7QString @ 6710 NONAME
	_ZN10HbTextItem13setFadeLengthEf @ 6711 NONAME
	_ZN10HbTextItem14setFadeLengthsERK7QPointF @ 6712 NONAME
	_ZN10HbTextItem14setFadeLengthsEff @ 6713 NONAME
	_ZN11HbNvgEngine15enableMirroringEb @ 6714 NONAME
	_ZN11HbNvgEngine22setPreserveAspectRatioENS_14HbNvgAlignTypeENS_13HbNvgMeetTypeE @ 6715 NONAME
	_ZN12HbInputUtils14inputDigitTypeE15HbInputLanguage @ 6716 NONAME
	_ZN12HbMainWindow17aboutToChangeViewEP6HbViewS1_ @ 6717 NONAME
	_ZN12HbTlvWrapper17getTlvEncodedDataERK7QStringRK6QSizeFN2Qt15AspectRatioModeE @ 6718 NONAME ABSENT
	_ZN12HbTlvWrapper24getTlvEncodedDataFromDomERKjR6QSizeFN2Qt15AspectRatioModeE @ 6719 NONAME ABSENT
	_ZN12HbToolButton15initStyleOptionEP23HbStyleOptionToolButton @ 6720 NONAME ABSENT
	_ZN13HbXmlVariableC1Ev @ 6721 NONAME
	_ZN13HbXmlVariableC2Ev @ 6722 NONAME
	_ZN13HbXmlVariableD1Ev @ 6723 NONAME
	_ZN13HbXmlVariableD2Ev @ 6724 NONAME
	_ZN14HbLanguageUtil12allLanguagesEv @ 6725 NONAME ABSENT
	_ZN14HbLanguageUtil14changeLanguageEi @ 6726 NONAME ABSENT
	_ZN14HbLanguageUtil15currentLanguageEv @ 6727 NONAME ABSENT
	_ZN14HbLanguageUtil18supportedLanguagesEv @ 6728 NONAME ABSENT
	_ZN14HbPopupPrivate14calculateShapeEv @ 6729 NONAME
	_ZN14HbSplashScreen11setScreenIdERK7QString @ 6730 NONAME
	_ZN14HbSplashScreen8setAppIdERK7QString @ 6731 NONAME
	_ZN14HbWidgetLoader20loadLayoutDefinitionEPNS_16LayoutDefinitionEP9QIODeviceRK7QStringS6_ @ 6732 NONAME
	_ZN14HbWidgetLoader4loadEP8HbWidgetP9QIODeviceRK7QStringS6_ @ 6733 NONAME
	_ZN14HbWidgetLoader4loadEP8HbWidgetRK7QStringS4_S4_N15HbMemoryManager10MemoryTypeE @ 6734 NONAME
	_ZN14HbWidgetLoader7versionEv @ 6735 NONAME
	_ZN14HbWidgetLoaderC1Ev @ 6736 NONAME
	_ZN14HbWidgetLoaderC2Ev @ 6737 NONAME
	_ZN14HbWidgetLoaderD0Ev @ 6738 NONAME
	_ZN14HbWidgetLoaderD1Ev @ 6739 NONAME
	_ZN14HbWidgetLoaderD2Ev @ 6740 NONAME
	_ZN15HbNvgEnginePool12getNvgEngineEv @ 6741 NONAME
	_ZN15HbNvgEnginePool4poolE @ 6742 NONAME DATA 4
	_ZN16HbEffectInternal13safeCancelAllEb @ 6743 NONAME
	_ZN16HbEffectInternal5startEP13QGraphicsItemS1_6QFlagsINS_10EffectFlagEERK7QStringP7QObjectPKcRK8QVariantRK6QRectF @ 6744 NONAME
	_ZN16HbEffectInternal5startEP13QGraphicsItemS1_6QFlagsINS_10EffectFlagEERK7QStringS7_P7QObjectPKcRK8QVariantRK6QRectF @ 6745 NONAME
	_ZN16HbExtendedLocale16ISOToSymbianLangERK7QString @ 6746 NONAME
	_ZN16HbExtendedLocale20symbianLangToRfc3066Ei @ 6747 NONAME
	_ZN20HbSplayTreeAllocator14allocatedBytesEv @ 6748 NONAME ABSENT
	_ZN20HbSplayTreeAllocator9freeBytesEv @ 6749 NONAME ABSENT
	_ZN21HbLongPressVisualizer4stopEv @ 6750 NONAME
	_ZN21HbLongPressVisualizer5startERK7QPointFiPK8HbWidget @ 6751 NONAME
	_ZN21HbSharedMemoryManager16freeSharedMemoryEv @ 6752 NONAME
	_ZN21HbSharedMemoryManager21allocatedSharedMemoryEv @ 6753 NONAME
	_ZN21HbXmlLoaderBaseSyntax10loadDeviceEP9QIODeviceRK7QString @ 6754 NONAME
	_ZN21HbXmlLoaderBaseSyntax12readDocumentEv @ 6755 NONAME
	_ZN21HbXmlLoaderBaseSyntax13processLayoutEv @ 6756 NONAME
	_ZN21HbXmlLoaderBaseSyntax15processDocumentEv @ 6757 NONAME
	_ZN21HbXmlLoaderBaseSyntax15scanForSectionsEP9QIODeviceR5QListI7QStringE @ 6758 NONAME
	_ZN21HbXmlLoaderBaseSyntax16processContainerEv @ 6759 NONAME
	_ZN21HbXmlLoaderBaseSyntax16readAlienSectionEv @ 6760 NONAME
	_ZN21HbXmlLoaderBaseSyntax17readLayoutEndItemEv @ 6761 NONAME
	_ZN21HbXmlLoaderBaseSyntax17readTargetSectionEv @ 6762 NONAME
	_ZN21HbXmlLoaderBaseSyntax18readGeneralEndItemEv @ 6763 NONAME
	_ZN21HbXmlLoaderBaseSyntax19readLayoutStartItemEv @ 6764 NONAME
	_ZN21HbXmlLoaderBaseSyntax20readContainerEndItemEv @ 6765 NONAME
	_ZN21HbXmlLoaderBaseSyntax20readGeneralStartItemEv @ 6766 NONAME
	_ZN21HbXmlLoaderBaseSyntax22readContainerStartItemEv @ 6767 NONAME
	_ZN21HbXmlLoaderBaseSyntax26checkEndElementCorrectnessEv @ 6768 NONAME
	_ZN21HbXmlLoaderBaseSyntax4loadEP9QIODeviceRK7QString @ 6769 NONAME
	_ZN21HbXmlLoaderBaseSyntaxC1EP26HbXmlLoaderAbstractActions @ 6770 NONAME
	_ZN21HbXmlLoaderBaseSyntaxC2EP26HbXmlLoaderAbstractActions @ 6771 NONAME
	_ZN21HbXmlLoaderBaseSyntaxD0Ev @ 6772 NONAME
	_ZN21HbXmlLoaderBaseSyntaxD1Ev @ 6773 NONAME
	_ZN21HbXmlLoaderBaseSyntaxD2Ev @ 6774 NONAME
	_ZN22HbXmlLoaderBaseActions10findObjectERK7QString @ 6775 NONAME
	_ZN22HbXmlLoaderBaseActions10findWidgetERK7QString @ 6776 NONAME
	_ZN22HbXmlLoaderBaseActions12createObjectERK7QStringS2_S2_ @ 6777 NONAME
	_ZN22HbXmlLoaderBaseActions12pushDocumentERK7QString @ 6778 NONAME
	_ZN22HbXmlLoaderBaseActions13setObjectTreeE5QListIP7QObjectE @ 6779 NONAME
	_ZN22HbXmlLoaderBaseActions14addToObjectMapE5QListIP13QGraphicsItemE @ 6780 NONAME
	_ZN22HbXmlLoaderBaseActions14addToObjectMapE5QListIP7QObjectE @ 6781 NONAME
	_ZN22HbXmlLoaderBaseActions3popEN5HbXml11ElementTypeE @ 6782 NONAME
	_ZN22HbXmlLoaderBaseActions5resetEv @ 6783 NONAME
	_ZN22HbXmlLoaderBaseActions6lookUpERK7QStringS2_S2_ @ 6784 NONAME
	_ZN22HbXmlLoaderBaseActions7cleanUpEv @ 6785 NONAME
	_ZN22HbXmlLoaderBaseActions7takeAllEv @ 6786 NONAME
	_ZN22HbXmlLoaderBaseActions9deleteAllEv @ 6787 NONAME
	_ZN22HbXmlLoaderBaseActions9translateERK7QStringS2_ @ 6788 NONAME
	_ZN22HbXmlLoaderBaseActionsC1Ev @ 6789 NONAME
	_ZN22HbXmlLoaderBaseActionsC2Ev @ 6790 NONAME
	_ZN22HbXmlLoaderBaseActionsD0Ev @ 6791 NONAME
	_ZN22HbXmlLoaderBaseActionsD1Ev @ 6792 NONAME
	_ZN22HbXmlLoaderBaseActionsD2Ev @ 6793 NONAME
	_ZN23HbXmlLoaderBinarySyntax10parseResetEv @ 6794 NONAME
	_ZN23HbXmlLoaderBinarySyntax12parseCleanUpEv @ 6795 NONAME
	_ZN23HbXmlLoaderBinarySyntax12parsePushRefEv @ 6796 NONAME
	_ZN23HbXmlLoaderBinarySyntax14parseDeleteAllEv @ 6797 NONAME
	_ZN23HbXmlLoaderBinarySyntax15parsePushObjectEv @ 6798 NONAME
	_ZN23HbXmlLoaderBinarySyntax15parsePushWidgetEv @ 6799 NONAME
	_ZN23HbXmlLoaderBinarySyntax15parseSetToolTipEv @ 6800 NONAME
	_ZN23HbXmlLoaderBinarySyntax15processDocumentERK7QString @ 6801 NONAME
	_ZN23HbXmlLoaderBinarySyntax16parsePushConnectEv @ 6802 NONAME
	_ZN23HbXmlLoaderBinarySyntax16parseSetSizeHintEv @ 6803 NONAME
	_ZN23HbXmlLoaderBinarySyntax16validateDocumentEv @ 6804 NONAME
	_ZN23HbXmlLoaderBinarySyntax17parsePushDocumentEv @ 6805 NONAME
	_ZN23HbXmlLoaderBinarySyntax17parsePushPropertyEv @ 6806 NONAME
	_ZN23HbXmlLoaderBinarySyntax18parsePushContainerEv @ 6807 NONAME
	_ZN23HbXmlLoaderBinarySyntax18parseSetSizePolicyEv @ 6808 NONAME
	_ZN23HbXmlLoaderBinarySyntax19parsePushSpacerItemEv @ 6809 NONAME ABSENT
	_ZN23HbXmlLoaderBinarySyntax21parseCreateGridLayoutEv @ 6810 NONAME
	_ZN23HbXmlLoaderBinarySyntax21parseCreateMeshLayoutEv @ 6811 NONAME ABSENT
	_ZN23HbXmlLoaderBinarySyntax21parseCreateNullLayoutEv @ 6812 NONAME
	_ZN23HbXmlLoaderBinarySyntax22parseAddGridLayoutCellEv @ 6813 NONAME
	_ZN23HbXmlLoaderBinarySyntax22parseAddMeshLayoutEdgeEv @ 6814 NONAME ABSENT
	_ZN23HbXmlLoaderBinarySyntax23parseCreateAnchorLayoutEv @ 6815 NONAME
	_ZN23HbXmlLoaderBinarySyntax23parseCreateLinearLayoutEv @ 6816 NONAME
	_ZN23HbXmlLoaderBinarySyntax23parseSetContentsMarginsEv @ 6817 NONAME
	_ZN23HbXmlLoaderBinarySyntax24parseAddAnchorLayoutEdgeEv @ 6818 NONAME ABSENT
	_ZN23HbXmlLoaderBinarySyntax24parseAddLinearLayoutItemEv @ 6819 NONAME
	_ZN23HbXmlLoaderBinarySyntax24parseCreateStackedLayoutEv @ 6820 NONAME
	_ZN23HbXmlLoaderBinarySyntax25parseAddStackedLayoutItemEv @ 6821 NONAME
	_ZN23HbXmlLoaderBinarySyntax27parseAddLinearLayoutStretchEv @ 6822 NONAME
	_ZN23HbXmlLoaderBinarySyntax28parseSetGridLayoutRowHeightsEv @ 6823 NONAME
	_ZN23HbXmlLoaderBinarySyntax29parseSetLayoutContentsMarginsEv @ 6824 NONAME
	_ZN23HbXmlLoaderBinarySyntax30parseSetGridLayoutColumnWidthsEv @ 6825 NONAME
	_ZN23HbXmlLoaderBinarySyntax31parseSetGridLayoutRowPropertiesEv @ 6826 NONAME
	_ZN23HbXmlLoaderBinarySyntax34parseSetGridLayoutColumnPropertiesEv @ 6827 NONAME
	_ZN23HbXmlLoaderBinarySyntax4loadEP9QIODeviceRK7QString @ 6828 NONAME
	_ZN23HbXmlLoaderBinarySyntax7versionEv @ 6829 NONAME
	_ZN23HbXmlLoaderBinarySyntax8isBinaryEP9QIODevice @ 6830 NONAME
	_ZN23HbXmlLoaderBinarySyntax8parsePopEv @ 6831 NONAME
	_ZN23HbXmlLoaderBinarySyntax9signatureEv @ 6832 NONAME
	_ZN23HbXmlLoaderBinarySyntaxC1EP26HbXmlLoaderAbstractActions @ 6833 NONAME
	_ZN23HbXmlLoaderBinarySyntaxC2EP26HbXmlLoaderAbstractActions @ 6834 NONAME
	_ZN23HbXmlLoaderBinarySyntaxD0Ev @ 6835 NONAME
	_ZN23HbXmlLoaderBinarySyntaxD1Ev @ 6836 NONAME
	_ZN23HbXmlLoaderBinarySyntaxD2Ev @ 6837 NONAME
	_ZN24HbXmlLoaderBinaryActions10pushObjectERK7QStringS2_ @ 6838 NONAME
	_ZN24HbXmlLoaderBinaryActions10pushWidgetERK7QStringS2_S2_S2_ @ 6839 NONAME
	_ZN24HbXmlLoaderBinaryActions10setToolTipERK13HbXmlVariable @ 6840 NONAME
	_ZN24HbXmlLoaderBinaryActions11pushConnectERK7QStringS2_S2_S2_ @ 6841 NONAME
	_ZN24HbXmlLoaderBinaryActions11setSizeHintEN2Qt8SizeHintERK16HbXmlLengthValueS4_b @ 6842 NONAME
	_ZN24HbXmlLoaderBinaryActions12pushDocumentERK7QString @ 6843 NONAME
	_ZN24HbXmlLoaderBinaryActions12pushPropertyEPKcRK13HbXmlVariable @ 6844 NONAME
	_ZN24HbXmlLoaderBinaryActions13pushContainerEPKcN25HbXmlLoaderAbstractSyntax14DocumentLexemsERK5QListIP13HbXmlVariableE @ 6845 NONAME
	_ZN24HbXmlLoaderBinaryActions13setSizePolicyEPN11QSizePolicy6PolicyES2_PiS3_ @ 6846 NONAME
	_ZN24HbXmlLoaderBinaryActions14pushSpacerItemERK7QStringS2_ @ 6847 NONAME ABSENT
	_ZN24HbXmlLoaderBinaryActions15setOutputDeviceEP9QIODevice @ 6848 NONAME
	_ZN24HbXmlLoaderBinaryActions16createGridLayoutERK7QStringRK16HbXmlLengthValue @ 6849 NONAME ABSENT
	_ZN24HbXmlLoaderBinaryActions16createMeshLayoutERK7QString @ 6850 NONAME ABSENT
	_ZN24HbXmlLoaderBinaryActions16createNullLayoutERK7QString @ 6851 NONAME
	_ZN24HbXmlLoaderBinaryActions17addGridLayoutCellERK7QStringiiPiS3_P6QFlagsIN2Qt13AlignmentFlagEE @ 6852 NONAME
	_ZN24HbXmlLoaderBinaryActions17addMeshLayoutEdgeERK7QStringN2Hb4EdgeES2_S4_RK16HbXmlLengthValueS2_ @ 6853 NONAME ABSENT
	_ZN24HbXmlLoaderBinaryActions18createAnchorLayoutERK7QString @ 6854 NONAME ABSENT
	_ZN24HbXmlLoaderBinaryActions18createLinearLayoutERK7QStringPN2Qt11OrientationERK16HbXmlLengthValue @ 6855 NONAME ABSENT
	_ZN24HbXmlLoaderBinaryActions18setContentsMarginsERK16HbXmlLengthValueS2_S2_S2_ @ 6856 NONAME
	_ZN24HbXmlLoaderBinaryActions19addAnchorLayoutEdgeERK7QStringN2Hb4EdgeES2_S4_RK16HbXmlLengthValueS2_ @ 6857 NONAME ABSENT
	_ZN24HbXmlLoaderBinaryActions19addLinearLayoutItemERK7QStringPiS3_P6QFlagsIN2Qt13AlignmentFlagEERK16HbXmlLengthValue @ 6858 NONAME
	_ZN24HbXmlLoaderBinaryActions19createStackedLayoutERK7QString @ 6859 NONAME ABSENT
	_ZN24HbXmlLoaderBinaryActions20addStackedLayoutItemERK7QStringPi @ 6860 NONAME
	_ZN24HbXmlLoaderBinaryActions22addLinearLayoutStretchEPiS0_ @ 6861 NONAME
	_ZN24HbXmlLoaderBinaryActions23setGridLayoutRowHeightsEiRK16HbXmlLengthValueS2_S2_S2_S2_ @ 6862 NONAME
	_ZN24HbXmlLoaderBinaryActions24setLayoutContentsMarginsERK16HbXmlLengthValueS2_S2_S2_ @ 6863 NONAME
	_ZN24HbXmlLoaderBinaryActions25setGridLayoutColumnWidthsEiRK16HbXmlLengthValueS2_S2_S2_S2_ @ 6864 NONAME
	_ZN24HbXmlLoaderBinaryActions26setGridLayoutRowPropertiesEiPiP6QFlagsIN2Qt13AlignmentFlagEE @ 6865 NONAME
	_ZN24HbXmlLoaderBinaryActions29setGridLayoutColumnPropertiesEiPiP6QFlagsIN2Qt13AlignmentFlagEE @ 6866 NONAME
	_ZN24HbXmlLoaderBinaryActions3popEN5HbXml11ElementTypeE @ 6867 NONAME
	_ZN24HbXmlLoaderBinaryActions5resetEv @ 6868 NONAME
	_ZN24HbXmlLoaderBinaryActions7cleanUpEv @ 6869 NONAME
	_ZN24HbXmlLoaderBinaryActions7pushRefERK7QStringS2_ @ 6870 NONAME
	_ZN24HbXmlLoaderBinaryActions9deleteAllEv @ 6871 NONAME
	_ZN24HbXmlLoaderBinaryActionsC1Ev @ 6872 NONAME
	_ZN24HbXmlLoaderBinaryActionsC2Ev @ 6873 NONAME
	_ZN24HbXmlLoaderBinaryActionsD0Ev @ 6874 NONAME
	_ZN24HbXmlLoaderBinaryActionsD1Ev @ 6875 NONAME
	_ZN24HbXmlLoaderBinaryActionsD2Ev @ 6876 NONAME
	_ZN25HbXmlLoaderAbstractSyntax10setActionsEP26HbXmlLoaderAbstractActions @ 6877 NONAME
	_ZN26HbXmlLoaderAbstractActions10pushObjectERK7QStringS2_ @ 6878 NONAME
	_ZN26HbXmlLoaderAbstractActions10pushWidgetERK7QStringS2_S2_S2_ @ 6879 NONAME
	_ZN26HbXmlLoaderAbstractActions10setToolTipERK13HbXmlVariable @ 6880 NONAME
	_ZN26HbXmlLoaderAbstractActions11pushConnectERK7QStringS2_S2_S2_ @ 6881 NONAME
	_ZN26HbXmlLoaderAbstractActions11setSizeHintEN2Qt8SizeHintERK16HbXmlLengthValueS4_b @ 6882 NONAME
	_ZN26HbXmlLoaderAbstractActions12pushPropertyEPKcRK13HbXmlVariable @ 6883 NONAME
	_ZN26HbXmlLoaderAbstractActions13pushContainerEPKcN25HbXmlLoaderAbstractSyntax14DocumentLexemsERK5QListIP13HbXmlVariableE @ 6884 NONAME
	_ZN26HbXmlLoaderAbstractActions13setSizePolicyEPN11QSizePolicy6PolicyES2_PiS3_ @ 6885 NONAME
	_ZN26HbXmlLoaderAbstractActions14pushSpacerItemERK7QStringS2_ @ 6886 NONAME ABSENT
	_ZN26HbXmlLoaderAbstractActions16createGridLayoutERK7QStringRK16HbXmlLengthValue @ 6887 NONAME ABSENT
	_ZN26HbXmlLoaderAbstractActions16createMeshLayoutERK7QString @ 6888 NONAME ABSENT
	_ZN26HbXmlLoaderAbstractActions16createNullLayoutERK7QString @ 6889 NONAME
	_ZN26HbXmlLoaderAbstractActions17addGridLayoutCellERK7QStringiiPiS3_P6QFlagsIN2Qt13AlignmentFlagEE @ 6890 NONAME
	_ZN26HbXmlLoaderAbstractActions17addMeshLayoutEdgeERK7QStringN2Hb4EdgeES2_S4_RK16HbXmlLengthValueS2_ @ 6891 NONAME ABSENT
	_ZN26HbXmlLoaderAbstractActions18createAnchorLayoutERK7QString @ 6892 NONAME ABSENT
	_ZN26HbXmlLoaderAbstractActions18createLinearLayoutERK7QStringPN2Qt11OrientationERK16HbXmlLengthValue @ 6893 NONAME ABSENT
	_ZN26HbXmlLoaderAbstractActions18setContentsMarginsERK16HbXmlLengthValueS2_S2_S2_ @ 6894 NONAME
	_ZN26HbXmlLoaderAbstractActions19addAnchorLayoutEdgeERK7QStringN2Hb4EdgeES2_S4_RK16HbXmlLengthValueS2_ @ 6895 NONAME ABSENT
	_ZN26HbXmlLoaderAbstractActions19addLinearLayoutItemERK7QStringPiS3_P6QFlagsIN2Qt13AlignmentFlagEERK16HbXmlLengthValue @ 6896 NONAME
	_ZN26HbXmlLoaderAbstractActions19createStackedLayoutERK7QString @ 6897 NONAME ABSENT
	_ZN26HbXmlLoaderAbstractActions20addStackedLayoutItemERK7QStringPi @ 6898 NONAME
	_ZN26HbXmlLoaderAbstractActions22addLinearLayoutStretchEPiS0_ @ 6899 NONAME
	_ZN26HbXmlLoaderAbstractActions23setGridLayoutRowHeightsEiRK16HbXmlLengthValueS2_S2_S2_S2_ @ 6900 NONAME
	_ZN26HbXmlLoaderAbstractActions24setLayoutContentsMarginsERK16HbXmlLengthValueS2_S2_S2_ @ 6901 NONAME
	_ZN26HbXmlLoaderAbstractActions25setGridLayoutColumnWidthsEiRK16HbXmlLengthValueS2_S2_S2_S2_ @ 6902 NONAME
	_ZN26HbXmlLoaderAbstractActions26setGridLayoutRowPropertiesEiPiP6QFlagsIN2Qt13AlignmentFlagEE @ 6903 NONAME
	_ZN26HbXmlLoaderAbstractActions29setGridLayoutColumnPropertiesEiPiP6QFlagsIN2Qt13AlignmentFlagEE @ 6904 NONAME
	_ZN26HbXmlLoaderAbstractActions3popEN5HbXml11ElementTypeE @ 6905 NONAME
	_ZN26HbXmlLoaderAbstractActions7pushRefERK7QStringS2_ @ 6906 NONAME
	_ZN7HbEvent28WindowLayoutDirectionChangedE @ 6907 NONAME DATA 4
	_ZN9HbVariant14fillStringDataEPK5QChari @ 6908 NONAME
	_ZNK10HbTextItem11fadeLengthsEv @ 6909 NONAME
	_ZNK11HbFrameItem8sizeHintEN2Qt8SizeHintERK6QSizeF @ 6910 NONAME
	_ZNK21HbXmlLoaderBaseSyntax11elementTypeE10QStringRef @ 6911 NONAME
	_ZNK21HbXmlLoaderBaseSyntax13getAnchorEdgeERK7QStringRN2Hb4EdgeE @ 6912 NONAME ABSENT
	_ZNK21HbXmlLoaderBaseSyntax9attributeEN25HbXmlLoaderAbstractSyntax14DocumentLexemsE @ 6913 NONAME
	_ZNK22HbXmlLoaderBaseActions13findFromStackEPb @ 6914 NONAME
	_ZNK22HbXmlLoaderBaseActions21getAnchorOppositeEdgeEN2Hb4EdgeE @ 6915 NONAME
	_ZNK22HbXmlLoaderBaseActions26findSpacerItemFromStackTopEv @ 6916 NONAME ABSENT
	_ZNK22HbXmlLoaderBaseActions8toPixelsERK16HbXmlLengthValueRf @ 6917 NONAME
	_ZNK25HbXmlLoaderAbstractSyntax13toLengthValueERK7QStringR16HbXmlLengthValue @ 6918 NONAME
	_ZNK7HbPopup5shapeEv @ 6919 NONAME
	_ZNK8HbDialog8sizeHintEN2Qt8SizeHintERK6QSizeF @ 6920 NONAME
	_ZNK8HbWidget9primitiveERK7QString @ 6921 NONAME
	_ZTI14HbWidgetLoader @ 6922 NONAME
	_ZTI21HbXmlLoaderBaseSyntax @ 6923 NONAME
	_ZTI22HbXmlLoaderBaseActions @ 6924 NONAME
	_ZTI23HbXmlLoaderBinarySyntax @ 6925 NONAME
	_ZTI24HbXmlLoaderBinaryActions @ 6926 NONAME
	_ZTV14HbWidgetLoader @ 6927 NONAME
	_ZTV21HbXmlLoaderBaseSyntax @ 6928 NONAME
	_ZTV22HbXmlLoaderBaseActions @ 6929 NONAME
	_ZTV23HbXmlLoaderBinarySyntax @ 6930 NONAME
	_ZTV24HbXmlLoaderBinaryActions @ 6931 NONAME
	_ZThn16_NK11HbFrameItem8sizeHintEN2Qt8SizeHintERK6QSizeF @ 6932 NONAME
	_ZThn16_NK8HbDialog8sizeHintEN2Qt8SizeHintERK6QSizeF @ 6933 NONAME
	_ZThn8_NK7HbPopup5shapeEv @ 6934 NONAME
	_ZlsR11QDataStreamRK13HbXmlVariable @ 6935 NONAME
	_ZlsR11QDataStreamRK16HbXmlLengthValue @ 6936 NONAME
	_ZrsR11QDataStreamR13HbXmlVariable @ 6937 NONAME
	_ZrsR11QDataStreamR16HbXmlLengthValue @ 6938 NONAME
	_ZN10HbMenuItem11changeEventEP6QEvent @ 6939 NONAME
	_ZN10HbMenuItem11qt_metacallEN11QMetaObject4CallEiPPv @ 6940 NONAME
	_ZN10HbMenuItem11qt_metacastEPKc @ 6941 NONAME
	_ZN10HbMenuItem11recycleItemEv @ 6942 NONAME
	_ZN10HbMenuItem12gestureEventEP13QGestureEvent @ 6943 NONAME
	_ZN10HbMenuItem13submenuExistsEv @ 6944 NONAME
	_ZN10HbMenuItem14checkboxExistsEv @ 6945 NONAME
	_ZN10HbMenuItem15separatorExistsEv @ 6946 NONAME
	_ZN10HbMenuItem16staticMetaObjectE @ 6947 NONAME DATA 16
	_ZN10HbMenuItem17pressStateChangedEb @ 6948 NONAME
	_ZN10HbMenuItem19getStaticMetaObjectEv @ 6949 NONAME
	_ZN10HbMenuItem9setActionEP7QAction @ 6950 NONAME
	_ZN10HbMenuItemC1EP6HbMenuP13QGraphicsItem @ 6951 NONAME
	_ZN10HbMenuItemC2EP6HbMenuP13QGraphicsItem @ 6952 NONAME
	_ZN10HbMenuItemD0Ev @ 6953 NONAME
	_ZN10HbMenuItemD1Ev @ 6954 NONAME
	_ZN10HbMenuItemD2Ev @ 6955 NONAME
	_ZN10HbTitleBar11deactivatedERK5QListI19IndicatorClientInfoE @ 6956 NONAME
	_ZN10HbTitleBar9activatedERK5QListI19IndicatorClientInfoE @ 6957 NONAME
	_ZN11HbIconTheme11qt_metacallEN11QMetaObject4CallEiPPv @ 6958 NONAME
	_ZN11HbIconTheme11qt_metacastEPKc @ 6959 NONAME
	_ZN11HbIconTheme12clearDirListEv @ 6960 NONAME ABSENT
	_ZN11HbIconTheme12iconsUpdatedERK11QStringList @ 6961 NONAME
	_ZN11HbIconTheme15emitUpdateIconsERK11QStringList @ 6962 NONAME
	_ZN11HbIconTheme15setCurrentThemeERK7QString @ 6963 NONAME
	_ZN11HbIconTheme16staticMetaObjectE @ 6964 NONAME DATA 16
	_ZN11HbIconTheme19getStaticMetaObjectEv @ 6965 NONAME
	_ZN11HbIconThemeC1Ev @ 6966 NONAME
	_ZN11HbIconThemeC2Ev @ 6967 NONAME
	_ZN11HbIconThemeD0Ev @ 6968 NONAME
	_ZN11HbIconThemeD1Ev @ 6969 NONAME
	_ZN11HbIconThemeD2Ev @ 6970 NONAME
	_ZN11HbIniParser12currentGroupEv @ 6971 NONAME ABSENT
	_ZN11HbIniParser15setCurrentGroupERK7QString @ 6972 NONAME ABSENT
	_ZN11HbIniParser4readEP9QIODevice @ 6973 NONAME ABSENT
	_ZN11HbIniParserC1Ev @ 6974 NONAME ABSENT
	_ZN11HbIniParserC2Ev @ 6975 NONAME ABSENT
	_ZN11HbIniParserD1Ev @ 6976 NONAME ABSENT
	_ZN11HbIniParserD2Ev @ 6977 NONAME ABSENT
	_ZN11HbStatusBar11deactivatedERK5QListI19IndicatorClientInfoE @ 6978 NONAME
	_ZN11HbStatusBar9activatedERK5QListI19IndicatorClientInfoE @ 6979 NONAME
	_ZN11HbTextUtils35ImplicitDirectionalityIsRightToLeftEPKtiPb @ 6980 NONAME
	_ZN11HbTitlePane10itemChangeEN13QGraphicsItem18GraphicsItemChangeERK8QVariant @ 6981 NONAME
	_ZN11HbTitlePane11eventFilterEP7QObjectP6QEvent @ 6982 NONAME
	_ZN11HbTitlePane11launchPopupERK7QPointF @ 6983 NONAME
	_ZN11HbTitlePane11qt_metacallEN11QMetaObject4CallEiPPv @ 6984 NONAME
	_ZN11HbTitlePane11qt_metacastEPKc @ 6985 NONAME
	_ZN11HbTitlePane12gestureEventEP13QGestureEvent @ 6986 NONAME
	_ZN11HbTitlePane16staticMetaObjectE @ 6987 NONAME DATA 16
	_ZN11HbTitlePane16updatePrimitivesEv @ 6988 NONAME
	_ZN11HbTitlePane17visibilityChangedEv @ 6989 NONAME
	_ZN11HbTitlePane19delayedConstructionEv @ 6990 NONAME
	_ZN11HbTitlePane19getStaticMetaObjectEv @ 6991 NONAME
	_ZN11HbTitlePane6polishER17HbStyleParameters @ 6992 NONAME
	_ZN11HbTitlePane7panLeftEv @ 6993 NONAME ABSENT
	_ZN11HbTitlePane7setTextERK7QString @ 6994 NONAME
	_ZN11HbTitlePane8panRightEv @ 6995 NONAME ABSENT
	_ZN11HbTitlePane9resetModeEv @ 6996 NONAME
	_ZN11HbTitlePaneC1EP13QGraphicsItem @ 6997 NONAME
	_ZN11HbTitlePaneC1ER18HbTitlePanePrivateP13QGraphicsItem @ 6998 NONAME
	_ZN11HbTitlePaneC2EP13QGraphicsItem @ 6999 NONAME
	_ZN11HbTitlePaneC2ER18HbTitlePanePrivateP13QGraphicsItem @ 7000 NONAME
	_ZN11HbTitlePaneD0Ev @ 7001 NONAME
	_ZN11HbTitlePaneD1Ev @ 7002 NONAME
	_ZN11HbTitlePaneD2Ev @ 7003 NONAME
	_ZN12HbColorTheme15setCurrentThemeERK7QString @ 7004 NONAME ABSENT
	_ZN12HbColorTheme18flushVariableCacheEv @ 7005 NONAME ABSENT
	_ZN12HbColorTheme4selfE @ 7006 NONAME DATA 4 ABSENT
	_ZN12HbColorTheme8instanceEv @ 7007 NONAME ABSENT
	_ZN12HbColorTheme9reloadCssEv @ 7008 NONAME ABSENT
	_ZN12HbColorThemeC1Ev @ 7009 NONAME ABSENT
	_ZN12HbColorThemeC2Ev @ 7010 NONAME ABSENT
	_ZN12HbColorThemeD1Ev @ 7011 NONAME ABSENT
	_ZN12HbColorThemeD2Ev @ 7012 NONAME ABSENT
	_ZN12HbMeshLayout10invalidateEv @ 7013 NONAME ABSENT
	_ZN12HbMeshLayout10removeItemEP19QGraphicsLayoutItem @ 7014 NONAME ABSENT
	_ZN12HbMeshLayout11setGeometryERK6QRectF @ 7015 NONAME ABSENT
	_ZN12HbMeshLayout11widgetEventEP6QEvent @ 7016 NONAME ABSENT
	_ZN12HbMeshLayout12clearAnchorsEv @ 7017 NONAME ABSENT
	_ZN12HbMeshLayout12clearItemIdsEv @ 7018 NONAME ABSENT
	_ZN12HbMeshLayout12removeAnchorERK7QStringN2Hb4EdgeE @ 7019 NONAME ABSENT
	_ZN12HbMeshLayout13removeAnchorsERK7QString @ 7020 NONAME ABSENT
	_ZN12HbMeshLayout15overrideSpacingERK7QStringN2Hb4EdgeEf @ 7021 NONAME ABSENT
	_ZN12HbMeshLayout20resetSpacingOverrideERK7QStringN2Hb4EdgeE @ 7022 NONAME ABSENT
	_ZN12HbMeshLayout21clearSpacingOverridesEv @ 7023 NONAME ABSENT
	_ZN12HbMeshLayout8removeAtEi @ 7024 NONAME ABSENT
	_ZN12HbMeshLayout9setAnchorERK7QStringN2Hb4EdgeES2_S4_ @ 7025 NONAME ABSENT
	_ZN12HbMeshLayout9setAnchorERK7QStringN2Hb4EdgeES2_S4_f @ 7026 NONAME ABSENT
	_ZN12HbMeshLayout9setItemIdEP19QGraphicsLayoutItemRK7QString @ 7027 NONAME ABSENT
	_ZN12HbMeshLayoutC1EP19QGraphicsLayoutItem @ 7028 NONAME ABSENT
	_ZN12HbMeshLayoutC2EP19QGraphicsLayoutItem @ 7029 NONAME ABSENT
	_ZN12HbMeshLayoutD0Ev @ 7030 NONAME ABSENT
	_ZN12HbMeshLayoutD1Ev @ 7031 NONAME ABSENT
	_ZN12HbMeshLayoutD2Ev @ 7032 NONAME ABSENT
	_ZN12HbSpacerItem14updateGeometryEv @ 7033 NONAME ABSENT
	_ZN12HbSpacerItemC1EP19QGraphicsLayoutItem @ 7034 NONAME ABSENT
	_ZN12HbSpacerItemC2EP19QGraphicsLayoutItem @ 7035 NONAME ABSENT
	_ZN12HbSpacerItemD0Ev @ 7036 NONAME ABSENT
	_ZN12HbSpacerItemD1Ev @ 7037 NONAME ABSENT
	_ZN12HbSpacerItemD2Ev @ 7038 NONAME ABSENT
	_ZN12HbStringDataC1Ev @ 7039 NONAME
	_ZN12HbStringDataC2Ev @ 7040 NONAME
	_ZN12HbTimerEntryC2Ei @ 7041 NONAME
	_ZN12HbTimerEntryD0Ev @ 7042 NONAME
	_ZN12HbTimerEntryD1Ev @ 7043 NONAME
	_ZN12HbTimerEntryD2Ev @ 7044 NONAME
	_ZN13HbEffectGroup10setExtRectERK6QRectF @ 7045 NONAME
	_ZN13HbEffectGroup10setLoopingEb @ 7046 NONAME
	_ZN13HbEffectGroup11qt_metacallEN11QMetaObject4CallEiPPv @ 7047 NONAME
	_ZN13HbEffectGroup11qt_metacastEPKc @ 7048 NONAME
	_ZN13HbEffectGroup11resolveViewEv @ 7049 NONAME
	_ZN13HbEffectGroup11setObserverEP7QObjectRK7QString @ 7050 NONAME
	_ZN13HbEffectGroup11setUserDataERK8QVariant @ 7051 NONAME
	_ZN13HbEffectGroup12removeEffectEP16HbEffectAbstract @ 7052 NONAME
	_ZN13HbEffectGroup13doClearEffectEPK10QTransformb @ 7053 NONAME
	_ZN13HbEffectGroup14effectFinishedEN2Hb11EffectEventE @ 7054 NONAME
	_ZN13HbEffectGroup14fixEffectOrderEv @ 7055 NONAME
	_ZN13HbEffectGroup14invokeObserverEN2Hb11EffectEventE @ 7056 NONAME
	_ZN13HbEffectGroup14setEffectFlagsE6QFlagsIN16HbEffectInternal10EffectFlagEE @ 7057 NONAME
	_ZN13HbEffectGroup16staticMetaObjectE @ 7058 NONAME DATA 16
	_ZN13HbEffectGroup18clearEffectRunningEv @ 7059 NONAME
	_ZN13HbEffectGroup19getStaticMetaObjectEv @ 7060 NONAME
	_ZN13HbEffectGroup19updateItemTransformEv @ 7061 NONAME
	_ZN13HbEffectGroup5pauseEv @ 7062 NONAME
	_ZN13HbEffectGroup6resumeEv @ 7063 NONAME
	_ZN13HbEffectGroup7setViewEP6HbView @ 7064 NONAME
	_ZN13HbEffectGroup8setDirtyEb @ 7065 NONAME
	_ZN13HbEffectGroup8startAllEv @ 7066 NONAME
	_ZN13HbEffectGroup9addEffectEP16HbEffectAbstract @ 7067 NONAME
	_ZN13HbEffectGroup9cancelAllEbbbRK10QTransform @ 7068 NONAME
	_ZN13HbEffectGroupC1ERK7QStringP13QGraphicsItemS4_S2_ @ 7069 NONAME
	_ZN13HbEffectGroupC2ERK7QStringP13QGraphicsItemS4_S2_ @ 7070 NONAME
	_ZN13HbEffectGroupD0Ev @ 7071 NONAME
	_ZN13HbEffectGroupD1Ev @ 7072 NONAME
	_ZN13HbEffectGroupD2Ev @ 7073 NONAME
	_ZN13HbEffectScale13setStartStateER10QTransform @ 7074 NONAME
	_ZN13HbEffectScale19updateItemTransformER10QTransform @ 7075 NONAME
	_ZN13HbEffectScale23handleAnimationFinishedEv @ 7076 NONAME
	_ZN13HbEffectScale4initEv @ 7077 NONAME
	_ZN13HbEffectScale5pauseEv @ 7078 NONAME
	_ZN13HbEffectScale5startEv @ 7079 NONAME
	_ZN13HbEffectScale6cancelER10QTransformb @ 7080 NONAME
	_ZN13HbEffectScale6resumeEv @ 7081 NONAME
	_ZN13HbEffectScaleC1ERK5QListI21HbEffectFxmlParamDataEP13QGraphicsItemP13HbEffectGroup @ 7082 NONAME
	_ZN13HbEffectScaleC2ERK5QListI21HbEffectFxmlParamDataEP13QGraphicsItemP13HbEffectGroup @ 7083 NONAME
	_ZN13HbEffectScaleD0Ev @ 7084 NONAME
	_ZN13HbEffectScaleD1Ev @ 7085 NONAME
	_ZN13HbEffectScaleD2Ev @ 7086 NONAME
	_ZN13HbEffectTheme12clearDirListEv @ 7087 NONAME
	_ZN13HbEffectTheme15setCurrentThemeERK7QString @ 7088 NONAME
	_ZN13HbEffectTheme4selfE @ 7089 NONAME DATA 4
	_ZN13HbEffectTheme8instanceEv @ 7090 NONAME
	_ZN13HbEffectThemeC1Ev @ 7091 NONAME
	_ZN13HbEffectThemeC2Ev @ 7092 NONAME
	_ZN13HbEffectThemeD1Ev @ 7093 NONAME
	_ZN13HbEffectThemeD2Ev @ 7094 NONAME
	_ZN13HbEffectUtils14resolveFxmlRefERK21HbEffectFxmlParamDataPbPK13QGraphicsItemNS_9valueTypeERK6QRectF @ 7095 NONAME
	_ZN13HbEffectUtils14resolveFxmlRefERK7QStringS2_PbPK13QGraphicsItemNS_9valueTypeERK6QRectF @ 7096 NONAME
	_ZN13HbEffectUtils19resolveFxmlDurationERiRK21HbEffectFxmlParamData @ 7097 NONAME
	_ZN13HbEffectUtils21resolveFxmlCurveShapeER12QEasingCurveRK21HbEffectFxmlParamData @ 7098 NONAME
	_ZN13HbNvgIconImpl10getVgImageEP10HbIconImplP8QPainter @ 7099 NONAME
	_ZN13HbNvgIconImpl11drawNVGIconEP8QPainterRK7QPointFRK6QSizeF22NvgAspectRatioSettings @ 7100 NONAME
	_ZN13HbNvgIconImpl18drawRasterizedIconEP8QPainterRK7QPointFRK6QSizeFRK12QPainterPath @ 7101 NONAME
	_ZN13HbNvgIconImpl5paintEP8QPainterRK6QRectF6QFlagsIN2Qt13AlignmentFlagEERK12QPainterPathP18HbMaskableIconImpl @ 7102 NONAME
	_ZN13HbNvgIconImplC1ERK16HbSharedIconInfoRK7QStringRK6QSizeFN2Qt15AspectRatioModeEN5QIcon4ModeEb @ 7103 NONAME ABSENT
	_ZN13HbNvgIconImplC2ERK16HbSharedIconInfoRK7QStringRK6QSizeFN2Qt15AspectRatioModeEN5QIcon4ModeEb @ 7104 NONAME ABSENT
	_ZN13HbThemeClient10unloadIconERK7QStringRK6QSizeFN2Qt15AspectRatioModeEN5QIcon4ModeEbRK6QColor @ 7105 NONAME ABSENT
	_ZN13HbThemeClient13getSharedBlobERK7QString @ 7106 NONAME
	_ZN13HbThemeClient14deviceProfilesEv @ 7107 NONAME
	_ZN13HbThemeClient15addSharedEffectERK7QString @ 7108 NONAME
	_ZN13HbThemeClient15connectToServerEv @ 7109 NONAME
	_ZN13HbThemeClient15getSharedEffectERK7QString @ 7110 NONAME
	_ZN13HbThemeClient15releaseInstanceEv @ 7111 NONAME
	_ZN13HbThemeClient15unLoadMultiIconERK11QStringListRK7QVectorI6QSizeFEN2Qt15AspectRatioModeEN5QIcon4ModeEbRK6QColor @ 7112 NONAME ABSENT
	_ZN13HbThemeClient16freeSharedMemoryEv @ 7113 NONAME
	_ZN13HbThemeClient16getMultiIconInfoERK11QStringListRK7QVectorI6QSizeFEN2Qt15AspectRatioModeEN5QIcon4ModeEb6QFlagsIN12HbIconLoader16IconLoaderOptionEERK6QColor @ 7114 NONAME ABSENT
	_ZN13HbThemeClient17getSharedIconInfoERK7QStringRK6QSizeFN2Qt15AspectRatioModeEN5QIcon4ModeEb6QFlagsIN12HbIconLoader16IconLoaderOptionEERK6QColor @ 7115 NONAME ABSENT
	_ZN13HbThemeClient17globalCacheOffsetEv @ 7116 NONAME ABSENT
	_ZN13HbThemeClient19allocatedHeapMemoryEv @ 7117 NONAME
	_ZN13HbThemeClient19getSharedLayoutDefsERK7QStringS2_S2_ @ 7118 NONAME ABSENT
	_ZN13HbThemeClient19getSharedStyleSheetERK7QStringN20HbLayeredStyleLoader13LayerPriorityE @ 7119 NONAME ABSENT
	_ZN13HbThemeClient19getThemeIndexTablesER16ThemeIndexTables @ 7120 NONAME ABSENT
	_ZN13HbThemeClient20getMultiPartIconInfoERK11QStringListRK19HbMultiPartSizeDataRK6QSizeFN2Qt15AspectRatioModeEN5QIcon4ModeEb6QFlagsIN12HbIconLoader16IconLoaderOptionEERK6QColor @ 7121 NONAME ABSENT
	_ZN13HbThemeClient21allocatedSharedMemoryEv @ 7122 NONAME
	_ZN13HbThemeClient21sharedCacheItemOffsetERK7QString @ 7123 NONAME ABSENT
	_ZN13HbThemeClient24getSharedIconDefaultSizeERK7QString @ 7124 NONAME ABSENT
	_ZN13HbThemeClient28notifyForegroundLostToServerEv @ 7125 NONAME
	_ZN13HbThemeClient6globalEv @ 7126 NONAME
	_ZN13HbThemeClientC1Ev @ 7127 NONAME
	_ZN13HbThemeClientC2Ev @ 7128 NONAME
	_ZN13HbThemeClientD1Ev @ 7129 NONAME
	_ZN13HbThemeClientD2Ev @ 7130 NONAME
	_ZN14HbCssFormatter15styleRuleToHtmlERKN5HbCss9StyleRuleE7QVectorIPKNS0_11DeclarationEEi @ 7131 NONAME
	_ZN14HbCssFormatter16selectorToStringERKN5HbCss8SelectorEb @ 7132 NONAME
	_ZN14HbCssFormatter16styleRulesToHtmlERK8HbVectorIN5HbCss9StyleRuleEE @ 7133 NONAME
	_ZN14HbCssFormatter17selectorsToStringERK8HbVectorIN5HbCss8SelectorEEib @ 7134 NONAME
	_ZN14HbCssFormatter17styleRuleToStringERKN5HbCss9StyleRuleEi @ 7135 NONAME
	_ZN14HbCssFormatter18styleRulesToStringERK8HbVectorIN5HbCss9StyleRuleEE @ 7136 NONAME
	_ZN14HbCssFormatter19declarationToStringERKN5HbCss11DeclarationEb @ 7137 NONAME
	_ZN14HbCssFormatter20declarationsToStringERK8HbVectorIN5HbCss11DeclarationEE @ 7138 NONAME
	_ZN14HbCssFormatter26weightedStyleRulesToStringERK8HbVectorI5QPairIiN5HbCss9StyleRuleEEE @ 7139 NONAME
	_ZN14HbCssFormatter28weightedDeclarationsToStringERK8HbVectorI5QPairIiN5HbCss11DeclarationEEE @ 7140 NONAME
	_ZN14HbEffectRotate13setStartStateER10QTransform @ 7141 NONAME
	_ZN14HbEffectRotate19updateItemTransformER10QTransform @ 7142 NONAME
	_ZN14HbEffectRotate4initEv @ 7143 NONAME
	_ZN14HbEffectRotate5pauseEv @ 7144 NONAME
	_ZN14HbEffectRotate5startEv @ 7145 NONAME
	_ZN14HbEffectRotate6cancelER10QTransformb @ 7146 NONAME
	_ZN14HbEffectRotate6resumeEv @ 7147 NONAME
	_ZN14HbEffectRotateC1ERK5QListI21HbEffectFxmlParamDataEP13QGraphicsItemP13HbEffectGroup @ 7148 NONAME
	_ZN14HbEffectRotateC2ERK5QListI21HbEffectFxmlParamDataEP13QGraphicsItemP13HbEffectGroup @ 7149 NONAME
	_ZN14HbEffectRotateD0Ev @ 7150 NONAME
	_ZN14HbEffectRotateD1Ev @ 7151 NONAME
	_ZN14HbEffectRotateD2Ev @ 7152 NONAME
	_ZN14HbPopupManager11qt_metacallEN11QMetaObject4CallEiPPv @ 7153 NONAME
	_ZN14HbPopupManager11qt_metacastEPKc @ 7154 NONAME
	_ZN14HbPopupManager16staticMetaObjectE @ 7155 NONAME DATA 16
	_ZN14HbPopupManager19getStaticMetaObjectEv @ 7156 NONAME
	_ZN14HbPopupManager9eventHookEP6QEvent @ 7157 NONAME
	_ZN14HbPopupManager9hidePopupEP7HbPopup @ 7158 NONAME
	_ZN14HbPopupManager9showPopupEP7HbPopup @ 7159 NONAME
	_ZN14HbPopupManagerC1EP15HbGraphicsSceneP7QObject @ 7160 NONAME
	_ZN14HbPopupManagerC2EP15HbGraphicsSceneP7QObject @ 7161 NONAME
	_ZN14HbPopupManagerD0Ev @ 7162 NONAME
	_ZN14HbPopupManagerD1Ev @ 7163 NONAME
	_ZN14HbPopupManagerD2Ev @ 7164 NONAME
	_ZN14HbToolTipLabel10timerEventEP11QTimerEvent @ 7165 NONAME
	_ZN14HbToolTipLabel11qt_metacallEN11QMetaObject4CallEiPPv @ 7166 NONAME
	_ZN14HbToolTipLabel11qt_metacastEPKc @ 7167 NONAME
	_ZN14HbToolTipLabel16staticMetaObjectE @ 7168 NONAME DATA 16
	_ZN14HbToolTipLabel19getStaticMetaObjectEv @ 7169 NONAME
	_ZN14HbToolTipLabel19hideTextImmediatelyEv @ 7170 NONAME
	_ZN14HbToolTipLabel5eventEP6QEvent @ 7171 NONAME
	_ZN14HbToolTipLabel6polishER17HbStyleParameters @ 7172 NONAME
	_ZN14HbToolTipLabel7setRectERK6QRectF @ 7173 NONAME
	_ZN14HbToolTipLabel7setTextERK7QString @ 7174 NONAME
	_ZN14HbToolTipLabel8hideTextEv @ 7175 NONAME
	_ZN14HbToolTipLabel8showTextEP13QGraphicsItem6QFlagsIN2Qt13AlignmentFlagEE @ 7176 NONAME
	_ZN14HbToolTipLabel9eventHookEP6QEvent @ 7177 NONAME
	_ZN14HbToolTipLabelC1EP15QGraphicsWidget @ 7178 NONAME
	_ZN14HbToolTipLabelC2EP15QGraphicsWidget @ 7179 NONAME
	_ZN14HbToolTipLabelD0Ev @ 7180 NONAME
	_ZN14HbToolTipLabelD1Ev @ 7181 NONAME
	_ZN14HbToolTipLabelD2Ev @ 7182 NONAME
	_ZN14HbTypefaceInfo11qt_metacallEN11QMetaObject4CallEiPPv @ 7183 NONAME
	_ZN14HbTypefaceInfo11qt_metacastEPKc @ 7184 NONAME
	_ZN14HbTypefaceInfo16staticMetaObjectE @ 7185 NONAME DATA 16
	_ZN14HbTypefaceInfo19getStaticMetaObjectEv @ 7186 NONAME
	_ZN14HbTypefaceInfoC1EP7QObject @ 7187 NONAME
	_ZN14HbTypefaceInfoC2EP7QObject @ 7188 NONAME
	_ZN14HbTypefaceInfoD0Ev @ 7189 NONAME
	_ZN14HbTypefaceInfoD1Ev @ 7190 NONAME
	_ZN14HbTypefaceInfoD2Ev @ 7191 NONAME
	_ZN15HbActionManager11eventFilterEP7QObjectP6QEvent @ 7192 NONAME
	_ZN15HbActionManager11qt_metacallEN11QMetaObject4CallEiPPv @ 7193 NONAME
	_ZN15HbActionManager11qt_metacastEPKc @ 7194 NONAME
	_ZN15HbActionManager13orderedActionEi5QListIP7QActionE @ 7195 NONAME
	_ZN15HbActionManager14createTemplateEv @ 7196 NONAME
	_ZN15HbActionManager16staticMetaObjectE @ 7197 NONAME DATA 16
	_ZN15HbActionManager19getStaticMetaObjectEv @ 7198 NONAME
	_ZN15HbActionManager24orientationAboutToChangeEv @ 7199 NONAME
	_ZN15HbActionManager7addItemEN8HbAction11CommandRoleE @ 7200 NONAME
	_ZN15HbActionManagerC1EN6HbView15ActionContainerEP7QObjectP12HbMainWindow @ 7201 NONAME
	_ZN15HbActionManagerC2EN6HbView15ActionContainerEP7QObjectP12HbMainWindow @ 7202 NONAME
	_ZN15HbActionManagerD0Ev @ 7203 NONAME
	_ZN15HbActionManagerD1Ev @ 7204 NONAME
	_ZN15HbActionManagerD2Ev @ 7205 NONAME
	_ZN15HbEffectFactory12createEffectEP13QGraphicsItemS1_RK7QStringS4_ @ 7206 NONAME
	_ZN15HbEffectFactoryC1ER18HbEffectController @ 7207 NONAME
	_ZN15HbEffectFactoryC2ER18HbEffectController @ 7208 NONAME
	_ZN15HbEffectFactoryD1Ev @ 7209 NONAME
	_ZN15HbEffectFactoryD2Ev @ 7210 NONAME
	_ZN15HbEffectOpacity13setStartStateER10QTransform @ 7211 NONAME
	_ZN15HbEffectOpacity19updateItemTransformER10QTransform @ 7212 NONAME
	_ZN15HbEffectOpacity4initEv @ 7213 NONAME
	_ZN15HbEffectOpacity5pauseEv @ 7214 NONAME
	_ZN15HbEffectOpacity5startEv @ 7215 NONAME
	_ZN15HbEffectOpacity6cancelER10QTransformb @ 7216 NONAME
	_ZN15HbEffectOpacity6resumeEv @ 7217 NONAME
	_ZN15HbEffectOpacityC1ERK5QListI21HbEffectFxmlParamDataEP13QGraphicsItemP13HbEffectGroup @ 7218 NONAME
	_ZN15HbEffectOpacityC2ERK5QListI21HbEffectFxmlParamDataEP13QGraphicsItemP13HbEffectGroup @ 7219 NONAME
	_ZN15HbEffectOpacityD0Ev @ 7220 NONAME
	_ZN15HbEffectOpacityD1Ev @ 7221 NONAME
	_ZN15HbEffectOpacityD2Ev @ 7222 NONAME
	_ZN15HbStyleSelectorC1Ev @ 7223 NONAME
	_ZN15HbStyleSelectorC2Ev @ 7224 NONAME
	_ZN16HbDeviceModeInfo4modeEi @ 7225 NONAME
	_ZN16HbDeviceModeInfoC1Ev @ 7226 NONAME ABSENT
	_ZN16HbDeviceModeInfoC2Ev @ 7227 NONAME ABSENT
	_ZN16HbDeviceModeInfoD1Ev @ 7228 NONAME
	_ZN16HbDeviceModeInfoD2Ev @ 7229 NONAME
	_ZN16HbEffectAbstract10timerFiredEv @ 7230 NONAME
	_ZN16HbEffectAbstractC2EiP13QGraphicsItemP13HbEffectGroup @ 7231 NONAME
	_ZN16HbEffectAbstractD0Ev @ 7232 NONAME
	_ZN16HbEffectAbstractD1Ev @ 7233 NONAME
	_ZN16HbEffectAbstractD2Ev @ 7234 NONAME
	_ZN16HbPixmapIconImpl5paintEP8QPainterRK6QRectF6QFlagsIN2Qt13AlignmentFlagEERK12QPainterPathP18HbMaskableIconImpl @ 7235 NONAME
	_ZN16HbPixmapIconImplC1ERK7QPixmapRK7QString @ 7236 NONAME
	_ZN16HbPixmapIconImplC2ERK7QPixmapRK7QString @ 7237 NONAME
	_ZN16HbSensorListener12DataReceivedER14CSensrvChannelii @ 7238 NONAME
	_ZN16HbSensorListener13enableSensorsEbb @ 7239 NONAME ABSENT
	_ZN16HbSensorListener16checkCenrepValueEv @ 7240 NONAME
	_ZN16HbSensorListener18cenrepValueChangedEib @ 7241 NONAME
	_ZN16HbSensorListener18startSensorChannelEv @ 7242 NONAME
	_ZN16HbSensorListener19orientationFromDataER14CSensrvChanneli @ 7243 NONAME
	_ZN16HbSensorListener20setSensorOrientationEN2Qt11OrientationE @ 7244 NONAME
	_ZN16HbSensorListener21enableSensorListeningEb @ 7245 NONAME
	_ZN16HbSensorListener25GetDataListenerInterfaceLE4TUidRPv @ 7246 NONAME
	_ZN16HbSensorListener9DataErrorER14CSensrvChannel20TSensrvErrorSeverity @ 7247 NONAME
	_ZN16HbSensorListenerC1ER24HbSensorListenerObserverN2Qt11OrientationEb @ 7248 NONAME
	_ZN16HbSensorListenerC2ER24HbSensorListenerObserverN2Qt11OrientationEb @ 7249 NONAME
	_ZN16HbSensorListenerD0Ev @ 7250 NONAME
	_ZN16HbSensorListenerD1Ev @ 7251 NONAME
	_ZN16HbSensorListenerD2Ev @ 7252 NONAME
	_ZN16HbToolBarPrivate10doLazyInitEv @ 7253 NONAME
	_ZN16HbToolBarPrivate11actionAddedEP12QActionEvent @ 7254 NONAME
	_ZN16HbToolBarPrivate11actionAddedEi @ 7255 NONAME
	_ZN16HbToolBarPrivate13actionRemovedEP12QActionEvent @ 7256 NONAME
	_ZN16HbToolBarPrivate13actionRemovedEiP12HbToolButton @ 7257 NONAME
	_ZN16HbToolBarPrivate13effectsLoadedE @ 7258 NONAME DATA 1
	_ZN16HbToolBarPrivate13updateButtonsEi @ 7259 NONAME
	_ZN16HbToolBarPrivate14_q_delayedHideEN8HbEffect12EffectStatusE @ 7260 NONAME
	_ZN16HbToolBarPrivate14setOrientationEN2Qt11OrientationE @ 7261 NONAME
	_ZN16HbToolBarPrivate15updateExtensionEb @ 7262 NONAME
	_ZN16HbToolBarPrivate16createToolButtonEP7QActionb @ 7263 NONAME
	_ZN16HbToolBarPrivate16fullUpdateNeededEi @ 7264 NONAME
	_ZN16HbToolBarPrivate16fullUpdateNeededEv @ 7265 NONAME
	_ZN16HbToolBarPrivate17startAppearEffectEv @ 7266 NONAME
	_ZN16HbToolBarPrivate17updateButtonStyleEP12HbToolButtonb @ 7267 NONAME
	_ZN16HbToolBarPrivate18setExtensionLayoutEP12HbToolButtonb @ 7268 NONAME
	_ZN16HbToolBarPrivate19delayedConstructionEv @ 7269 NONAME
	_ZN16HbToolBarPrivate20initToolBarExtensionEP18HbToolBarExtension @ 7270 NONAME
	_ZN16HbToolBarPrivate20startDisappearEffectEv @ 7271 NONAME
	_ZN16HbToolBarPrivate23calculateMaximumButtonsEv @ 7272 NONAME
	_ZN16HbToolBarPrivate23prepareButtonForToolbarEP12HbToolButtonb @ 7273 NONAME ABSENT
	_ZN16HbToolBarPrivate23resetVisibleButtonsListEv @ 7274 NONAME
	_ZN16HbToolBarPrivate23startAppearOrientEffectEv @ 7275 NONAME
	_ZN16HbToolBarPrivate23updateToolBarExtensionsEv @ 7276 NONAME
	_ZN16HbToolBarPrivate24setButtonLayoutDirectionER12HbToolButton @ 7277 NONAME
	_ZN16HbToolBarPrivate24suppressNextAppearEffectEb @ 7278 NONAME
	_ZN16HbToolBarPrivate25prepareButtonForExtensionEP12HbToolButton @ 7279 NONAME
	_ZN16HbToolBarPrivate26calculateButtonMinimumSizeEv @ 7280 NONAME
	_ZN16HbToolBarPrivate26startDisappearOrientEffectEv @ 7281 NONAME
	_ZN16HbToolBarPrivate26updateToolBarForSizeChangeEv @ 7282 NONAME
	_ZN16HbToolBarPrivate28updateButtonsLayoutDirectionEv @ 7283 NONAME
	_ZN16HbToolBarPrivate4initEv @ 7284 NONAME
	_ZN16HbToolBarPrivate8doLayoutEv @ 7285 NONAME
	_ZN16HbToolBarPrivateC1Ev @ 7286 NONAME
	_ZN16HbToolBarPrivateC2Ev @ 7287 NONAME
	_ZN16HbToolBarPrivateD0Ev @ 7288 NONAME
	_ZN16HbToolBarPrivateD1Ev @ 7289 NONAME
	_ZN16HbToolBarPrivateD2Ev @ 7290 NONAME
	_ZN17HbEffectAnimation10addLoopingEPK21HbEffectFxmlParamData @ 7291 NONAME
	_ZN17HbEffectAnimation11qt_metacallEN11QMetaObject4CallEiPPv @ 7292 NONAME
	_ZN17HbEffectAnimation11qt_metacastEPKc @ 7293 NONAME
	_ZN17HbEffectAnimation14handleFinishedEv @ 7294 NONAME
	_ZN17HbEffectAnimation16staticMetaObjectE @ 7295 NONAME DATA 16
	_ZN17HbEffectAnimation18updateCurrentValueERK8QVariant @ 7296 NONAME
	_ZN17HbEffectAnimation19getStaticMetaObjectEv @ 7297 NONAME
	_ZN17HbEffectAnimationC2EP13HbEffectGroup @ 7298 NONAME
	_ZN17HbEffectAnimationD0Ev @ 7299 NONAME
	_ZN17HbEffectAnimationD1Ev @ 7300 NONAME
	_ZN17HbEffectAnimationD2Ev @ 7301 NONAME
	_ZN17HbEffectTranslate13setStartStateER10QTransform @ 7302 NONAME
	_ZN17HbEffectTranslate19updateItemTransformER10QTransform @ 7303 NONAME
	_ZN17HbEffectTranslate23handleAnimationFinishedEv @ 7304 NONAME
	_ZN17HbEffectTranslate4initEv @ 7305 NONAME
	_ZN17HbEffectTranslate5pauseEv @ 7306 NONAME
	_ZN17HbEffectTranslate5startEv @ 7307 NONAME
	_ZN17HbEffectTranslate6cancelER10QTransformb @ 7308 NONAME
	_ZN17HbEffectTranslate6resumeEv @ 7309 NONAME
	_ZN17HbEffectTranslateC1ERK5QListI21HbEffectFxmlParamDataEP13QGraphicsItemP13HbEffectGroup @ 7310 NONAME
	_ZN17HbEffectTranslateC2ERK5QListI21HbEffectFxmlParamDataEP13QGraphicsItemP13HbEffectGroup @ 7311 NONAME
	_ZN17HbEffectTranslateD0Ev @ 7312 NONAME
	_ZN17HbEffectTranslateD1Ev @ 7313 NONAME
	_ZN17HbEffectTranslateD2Ev @ 7314 NONAME
	_ZN17HbIconImplCreator14createIconImplER16HbSharedIconInfoR19HbIconLoadingParams @ 7315 NONAME
	_ZN17HbIndicatorButton10deactivateERK5QListI19IndicatorClientInfoE @ 7316 NONAME
	_ZN17HbIndicatorButton8activateERK5QListI19IndicatorClientInfoE @ 7317 NONAME
	_ZN17HbMeshLayoutDebug10getAnchorsEP12HbMeshLayout @ 7318 NONAME ABSENT
	_ZN18HbIndicatorPrivate10deactivateERK7QStringRK8QVariant @ 7319 NONAME
	_ZN18HbIndicatorPrivate10stopListenEv @ 7320 NONAME
	_ZN18HbIndicatorPrivate11deactivatedERK5QListI19IndicatorClientInfoE @ 7321 NONAME
	_ZN18HbIndicatorPrivate11initializeLEb @ 7322 NONAME
	_ZN18HbIndicatorPrivate11qt_metacallEN11QMetaObject4CallEiPPv @ 7323 NONAME
	_ZN18HbIndicatorPrivate11qt_metacastEPKc @ 7324 NONAME
	_ZN18HbIndicatorPrivate11startListenEv @ 7325 NONAME
	_ZN18HbIndicatorPrivate12allActivatedERK5QListI19IndicatorClientInfoE @ 7326 NONAME
	_ZN18HbIndicatorPrivate16staticMetaObjectE @ 7327 NONAME DATA 16
	_ZN18HbIndicatorPrivate19getStaticMetaObjectEv @ 7328 NONAME
	_ZN18HbIndicatorPrivate19sendActivateMessageERK7QStringiRK8QVariant @ 7329 NONAME
	_ZN18HbIndicatorPrivate20CreateReceiveBufferLEi @ 7330 NONAME
	_ZN18HbIndicatorPrivate4RunLEv @ 7331 NONAME
	_ZN18HbIndicatorPrivate4initEv @ 7332 NONAME
	_ZN18HbIndicatorPrivate5CloseEv @ 7333 NONAME
	_ZN18HbIndicatorPrivate5StartEv @ 7334 NONAME
	_ZN18HbIndicatorPrivate5errorEi @ 7335 NONAME
	_ZN18HbIndicatorPrivate7updatedERK5QListI19IndicatorClientInfoE @ 7336 NONAME
	_ZN18HbIndicatorPrivate8ContinueEv @ 7337 NONAME
	_ZN18HbIndicatorPrivate8DoCancelEv @ 7338 NONAME
	_ZN18HbIndicatorPrivate8RunErrorEi @ 7339 NONAME
	_ZN18HbIndicatorPrivate8activateERK7QStringRK8QVariant @ 7340 NONAME
	_ZN18HbIndicatorPrivate8setErrorEi @ 7341 NONAME
	_ZN18HbIndicatorPrivate9activatedERK5QListI19IndicatorClientInfoE @ 7342 NONAME
	_ZN18HbIndicatorPrivateC1Ev @ 7343 NONAME
	_ZN18HbIndicatorPrivateC2Ev @ 7344 NONAME
	_ZN18HbIndicatorPrivateD0Ev @ 7345 NONAME
	_ZN18HbIndicatorPrivateD1Ev @ 7346 NONAME
	_ZN18HbIndicatorPrivateD2Ev @ 7347 NONAME
	_ZN18HbTimerSignalEntry10timerFiredEv @ 7348 NONAME
	_ZN18HbTimerSignalEntry11qt_metacallEN11QMetaObject4CallEiPPv @ 7349 NONAME
	_ZN18HbTimerSignalEntry11qt_metacastEPKc @ 7350 NONAME
	_ZN18HbTimerSignalEntry16staticMetaObjectE @ 7351 NONAME DATA 16
	_ZN18HbTimerSignalEntry19getStaticMetaObjectEv @ 7352 NONAME
	_ZN18HbTimerSignalEntry7timeoutEv @ 7353 NONAME
	_ZN18HbTimerSignalEntryC1Ei @ 7354 NONAME
	_ZN18HbTimerSignalEntryC2Ei @ 7355 NONAME
	_ZN18HbTouchAreaPrivate15outlinesEnabledE @ 7356 NONAME DATA 1
	_ZN18HbTouchAreaPrivate17setOutlineDrawingEb @ 7357 NONAME
	_ZN18HbTouchAreaPrivate21outlineDrawingEnabledEv @ 7358 NONAME
	_ZN18HbTouchAreaPrivateC1Ev @ 7359 NONAME
	_ZN18HbTouchAreaPrivateC2Ev @ 7360 NONAME
	_ZN18HbTouchAreaPrivateD0Ev @ 7361 NONAME
	_ZN18HbTouchAreaPrivateD1Ev @ 7362 NONAME
	_ZN18HbTouchAreaPrivateD2Ev @ 7363 NONAME
	_ZN19HbColorThemePrivate15setCurrentThemeERK7QString @ 7364 NONAME ABSENT
	_ZN19HbColorThemePrivate16reloadColorFilesEb @ 7365 NONAME ABSENT
	_ZN19HbColorThemePrivateC1Ev @ 7366 NONAME ABSENT
	_ZN19HbColorThemePrivateC2Ev @ 7367 NONAME ABSENT
	_ZN19HbColorThemePrivateD1Ev @ 7368 NONAME ABSENT
	_ZN19HbColorThemePrivateD2Ev @ 7369 NONAME ABSENT
	_ZN19HbCssThemeInterface10initialiseERK4QMapIi7QStringEbb @ 7370 NONAME ABSENT
	_ZN19HbCssThemeInterface18flushVariableCacheEv @ 7371 NONAME ABSENT
	_ZN19HbCssThemeInterface5flushEv @ 7372 NONAME ABSENT
	_ZN19HbDockWidgetPrivateC1Ev @ 7373 NONAME
	_ZN19HbDockWidgetPrivateC2Ev @ 7374 NONAME
	_ZN19HbDockWidgetPrivateD0Ev @ 7375 NONAME
	_ZN19HbDockWidgetPrivateD1Ev @ 7376 NONAME
	_ZN19HbDockWidgetPrivateD2Ev @ 7377 NONAME
	_ZN19HbSmileyThemeParser19parseDefinitionFileERK7QStringR13HbSmileyTheme @ 7378 NONAME
	_ZN19HbSmileyThemeParserC1Ev @ 7379 NONAME
	_ZN19HbSmileyThemeParserC2Ev @ 7380 NONAME
	_ZN19HbSmileyThemeParserD1Ev @ 7381 NONAME
	_ZN19HbSmileyThemeParserD2Ev @ 7382 NONAME
	_ZN19HbTypefaceXmlParser10readMetricERiS0_S0_ @ 7383 NONAME
	_ZN19HbTypefaceXmlParser11readMapItemER7QStringS1_Rb @ 7384 NONAME ABSENT
	_ZN19HbTypefaceXmlParser11readMappingER7QStringS1_Rb @ 7385 NONAME ABSENT
	_ZN19HbTypefaceXmlParser11setFilePathERK7QString @ 7386 NONAME
	_ZN19HbTypefaceXmlParser14readMetricItemERiS0_S0_ @ 7387 NONAME
	_ZN19HbTypefaceXmlParser18readToStartElementEv @ 7388 NONAME
	_ZN19HbTypefaceXmlParser4initEv @ 7389 NONAME
	_ZN19HbTypefaceXmlParser5closeEv @ 7390 NONAME
	_ZN19HbTypefaceXmlParserC1Ev @ 7391 NONAME
	_ZN19HbTypefaceXmlParserC2Ev @ 7392 NONAME
	_ZN19HbTypefaceXmlParserD1Ev @ 7393 NONAME
	_ZN19HbTypefaceXmlParserD2Ev @ 7394 NONAME
	_ZN20HbEffectThemePrivate10initialiseERK7QString @ 7395 NONAME
	_ZN20HbEffectThemePrivateC1Ev @ 7396 NONAME
	_ZN20HbEffectThemePrivateC2Ev @ 7397 NONAME
	_ZN20HbEffectThemePrivateD1Ev @ 7398 NONAME
	_ZN20HbEffectThemePrivateD2Ev @ 7399 NONAME
	_ZN20HbLayeredStyleLoader10loadBinaryERK7QStringPN5HbCss10StyleSheetE @ 7400 NONAME ABSENT
	_ZN20HbLayeredStyleLoader10saveBinaryERK7QStringPN5HbCss10StyleSheetE @ 7401 NONAME ABSENT
	_ZN20HbLayeredStyleLoader12isBinaryFileERK7QString @ 7402 NONAME ABSENT
	_ZN20HbLayeredStyleLoader14loadStyleRulesER11QDataStreamR8HbVectorIN5HbCss9StyleRuleEE @ 7403 NONAME ABSENT
	_ZN20HbLayeredStyleLoader14saveStyleRulesER11QDataStreamPK8HbVectorIN5HbCss9StyleRuleEE @ 7404 NONAME ABSENT
	_ZN20HbLayeredStyleLoader16loadDeclarationsER11QDataStream @ 7405 NONAME ABSENT
	_ZN20HbLayeredStyleLoader16saveDeclarationsER11QDataStreamP8HbVectorIN5HbCss11DeclarationEE @ 7406 NONAME ABSENT
	_ZN20HbLayeredStyleLoader17getBinaryFileNameERK7QString @ 7407 NONAME ABSENT
	_ZN20HbLayeredStyleLoader4loadEP9QIODeviceNS_13LayerPriorityE @ 7408 NONAME
	_ZN20HbLayeredStyleLoader4loadERK7QStringNS_13LayerPriorityEb @ 7409 NONAME ABSENT
	_ZN20HbLayeredStyleLoader5clearENS_13LayerPriorityE @ 7410 NONAME
	_ZN20HbLayeredStyleLoader5clearEv @ 7411 NONAME
	_ZN20HbLayeredStyleLoader6unloadERK7QVectorIiENS_13LayerPriorityE @ 7412 NONAME
	_ZN20HbLayeredStyleLoader6unloadEiNS_13LayerPriorityE @ 7413 NONAME
	_ZN20HbLayeredStyleLoader7loadAllERK11QStringListNS_13LayerPriorityE @ 7414 NONAME
	_ZN20HbLayeredStyleLoader7loadDirERK7QString6QFlagsIN4QDir8SortFlagEENS_13LayerPriorityE @ 7415 NONAME
	_ZN20HbLayeredStyleLoader8getStackENS_7ConcernE @ 7416 NONAME
	_ZN20HbOogmWatcherPrivate11qt_metacallEN11QMetaObject4CallEiPPv @ 7417 NONAME
	_ZN20HbOogmWatcherPrivate11qt_metacastEPKc @ 7418 NONAME
	_ZN20HbOogmWatcherPrivate13setupListenerEv @ 7419 NONAME ABSENT
	_ZN20HbOogmWatcherPrivate15mainWindowReadyEv @ 7420 NONAME ABSENT
	_ZN20HbOogmWatcherPrivate16staticMetaObjectE @ 7421 NONAME DATA 16
	_ZN20HbOogmWatcherPrivate17graphicsMemoryLowEv @ 7422 NONAME
	_ZN20HbOogmWatcherPrivate19getStaticMetaObjectEv @ 7423 NONAME
	_ZN20HbOogmWatcherPrivate26RunningLowOnGraphicsMemoryEv @ 7424 NONAME ABSENT
	_ZN20HbOogmWatcherPrivateC1Ev @ 7425 NONAME
	_ZN20HbOogmWatcherPrivateC2Ev @ 7426 NONAME
	_ZN20HbOogmWatcherPrivateD0Ev @ 7427 NONAME ABSENT
	_ZN20HbOogmWatcherPrivateD1Ev @ 7428 NONAME ABSENT
	_ZN20HbOogmWatcherPrivateD2Ev @ 7429 NONAME ABSENT
	_ZN20HbThemeClientPrivate10unloadIconERK7QStringRK6QSizeFN2Qt15AspectRatioModeEN5QIcon4ModeEbRK6QColor @ 7430 NONAME ABSENT
	_ZN20HbThemeClientPrivate11StartServerEv @ 7431 NONAME
	_ZN20HbThemeClientPrivate14deviceProfilesEv @ 7432 NONAME
	_ZN20HbThemeClientPrivate15addSharedEffectERK7QString @ 7433 NONAME
	_ZN20HbThemeClientPrivate15connectToServerEv @ 7434 NONAME
	_ZN20HbThemeClientPrivate15getSharedEffectERK7QString @ 7435 NONAME
	_ZN20HbThemeClientPrivate15unLoadMultiIconERK11QStringListRK7QVectorI6QSizeFEN2Qt15AspectRatioModeEN5QIcon4ModeEbRK6QColor @ 7436 NONAME ABSENT
	_ZN20HbThemeClientPrivate16freeSharedMemoryEv @ 7437 NONAME
	_ZN20HbThemeClientPrivate16getMultiIconInfoERK11QStringListRK7QVectorI6QSizeFEN2Qt15AspectRatioModeEN5QIcon4ModeEb6QFlagsIN12HbIconLoader16IconLoaderOptionEERK6QColor @ 7438 NONAME ABSENT
	_ZN20HbThemeClientPrivate17getSharedIconInfoERK7QStringRK6QSizeFN2Qt15AspectRatioModeEN5QIcon4ModeEb6QFlagsIN12HbIconLoader16IconLoaderOptionEERK6QColor @ 7439 NONAME ABSENT
	_ZN20HbThemeClientPrivate17globalCacheOffsetEv @ 7440 NONAME ABSENT
	_ZN20HbThemeClientPrivate17handleThemeChangeERK7QString @ 7441 NONAME
	_ZN20HbThemeClientPrivate19CreateServerProcessEv @ 7442 NONAME
	_ZN20HbThemeClientPrivate19allocatedHeapMemoryEv @ 7443 NONAME
	_ZN20HbThemeClientPrivate19getSharedLayoutDefsERK7QStringS2_S2_ @ 7444 NONAME ABSENT
	_ZN20HbThemeClientPrivate19getSharedStyleSheetERK7QStringN20HbLayeredStyleLoader13LayerPriorityE @ 7445 NONAME ABSENT
	_ZN20HbThemeClientPrivate19getThemeIndexTablesER16ThemeIndexTables @ 7446 NONAME ABSENT
	_ZN20HbThemeClientPrivate20getMultiPartIconInfoERK11QStringListRK19HbMultiPartSizeDataRK6QSizeFN2Qt15AspectRatioModeEN5QIcon4ModeEb6QFlagsIN12HbIconLoader16IconLoaderOptionEERK6QColor @ 7447 NONAME ABSENT
	_ZN20HbThemeClientPrivate21allocatedSharedMemoryEv @ 7448 NONAME
	_ZN20HbThemeClientPrivate24getSharedIconDefaultSizeERK7QString @ 7449 NONAME ABSENT
	_ZN20HbThemeClientPrivate28notifyForegroundLostToServerEv @ 7450 NONAME
	_ZN20HbThemeClientPrivateC1Ev @ 7451 NONAME
	_ZN20HbThemeClientPrivateC2Ev @ 7452 NONAME
	_ZN20HbThemeClientPrivateD1Ev @ 7453 NONAME
	_ZN20HbThemeClientPrivateD2Ev @ 7454 NONAME
	_ZN21HbDeviceDialogManager11qt_metacallEN11QMetaObject4CallEiPPv @ 7455 NONAME
	_ZN21HbDeviceDialogManager11qt_metacastEPKc @ 7456 NONAME
	_ZN21HbDeviceDialogManager13setMainWindowEP12HbMainWindow @ 7457 NONAME
	_ZN21HbDeviceDialogManager16indicatorRemovedERK5QListI19IndicatorClientInfoE @ 7458 NONAME
	_ZN21HbDeviceDialogManager16indicatorUpdatedERK5QListI19IndicatorClientInfoE @ 7459 NONAME
	_ZN21HbDeviceDialogManager16showDeviceDialogERN20HbDeviceDialogServer16DialogParametersE @ 7460 NONAME
	_ZN21HbDeviceDialogManager16staticMetaObjectE @ 7461 NONAME DATA 16
	_ZN21HbDeviceDialogManager17activateIndicatorERN20HbDeviceDialogServer19IndicatorParametersE @ 7462 NONAME
	_ZN21HbDeviceDialogManager17closeDeviceDialogEi @ 7463 NONAME
	_ZN21HbDeviceDialogManager18indicatorActivatedERK5QListI19IndicatorClientInfoE @ 7464 NONAME
	_ZN21HbDeviceDialogManager18updateDeviceDialogEiRK4QMapI7QString8QVariantE @ 7465 NONAME
	_ZN21HbDeviceDialogManager19deactivateIndicatorERN20HbDeviceDialogServer19IndicatorParametersE @ 7466 NONAME
	_ZN21HbDeviceDialogManager19getStaticMetaObjectEv @ 7467 NONAME
	_ZN21HbDeviceDialogManager22indicatorUserActivatedERK4QMapI7QString8QVariantE @ 7468 NONAME
	_ZN21HbDeviceDialogManager25deviceDialogClientClosingEj @ 7469 NONAME
	_ZN21HbDeviceDialogManagerC1EP7QObject @ 7470 NONAME
	_ZN21HbDeviceDialogManagerC2EP7QObject @ 7471 NONAME
	_ZN21HbDeviceDialogManagerD0Ev @ 7472 NONAME
	_ZN21HbDeviceDialogManagerD1Ev @ 7473 NONAME
	_ZN21HbDeviceDialogManagerD2Ev @ 7474 NONAME
	_ZN21HbDeviceProfileReader14readAttributesEv @ 7475 NONAME
	_ZN21HbDeviceProfileReader18readUnknownElementEv @ 7476 NONAME
	_ZN21HbDeviceProfileReader22readDisplayDefinitionsEv @ 7477 NONAME
	_ZN21HbDeviceProfileReader4readEP9QIODevice @ 7478 NONAME
	_ZN21HbDeviceProfileReaderC1EP8HbVectorI13DeviceProfileEN15HbMemoryManager10MemoryTypeE @ 7479 NONAME
	_ZN21HbDeviceProfileReaderC2EP8HbVectorI13DeviceProfileEN15HbMemoryManager10MemoryTypeE @ 7480 NONAME
	_ZN21HbDeviceProfileReaderD1Ev @ 7481 NONAME
	_ZN21HbDeviceProfileReaderD2Ev @ 7482 NONAME
	_ZN21HbIconAnimationParser11doParseFileEP7QStringR5QHashIS0_19HbIconAnimationDataE @ 7483 NONAME ABSENT
	_ZN21HbIconAnimationParser12readIconDataER19HbIconAnimationData @ 7484 NONAME
	_ZN21HbIconAnimationParser14readAnimationsEP7QStringR5QHashIS0_19HbIconAnimationDataE @ 7485 NONAME ABSENT
	_ZN21HbIconAnimationParser18readUnknownElementEv @ 7486 NONAME
	_ZN21HbIconAnimationParser19parseDefinitionFileEP7QStringR5QHashIS0_19HbIconAnimationDataERKS0_ @ 7487 NONAME ABSENT
	_ZN21HbIconAnimationParser25parseDefinitionFileSharedEP7QStringR5QHashIS0_19HbIconAnimationDataERKS0_ @ 7488 NONAME ABSENT
	_ZN21HbIconAnimationParserC1Ev @ 7489 NONAME
	_ZN21HbIconAnimationParserC2Ev @ 7490 NONAME
	_ZN21HbIconAnimationParserD1Ev @ 7491 NONAME
	_ZN21HbIconAnimationParserD2Ev @ 7492 NONAME
	_ZN22HbDeviceProfileManager6selectER12HbMainWindowRK15HbDeviceProfile @ 7493 NONAME
	_ZN22HbDeviceProfileManager6selectERK15HbDeviceProfile @ 7494 NONAME
	_ZN22HbEffectScaleAnimation21handleAnimationFinishEv @ 7495 NONAME
	_ZN22HbEffectScaleAnimation21handleAnimationUpdateERK8QVariant @ 7496 NONAME
	_ZN22HbEffectScaleAnimation9setCenterEf @ 7497 NONAME
	_ZN22HbEffectScaleAnimationC1EP13HbEffectGroupP13HbEffectScalei @ 7498 NONAME
	_ZN22HbEffectScaleAnimationC2EP13HbEffectGroupP13HbEffectScalei @ 7499 NONAME
	_ZN23HbExtendedDeviceProfile11setPpiValueEf @ 7500 NONAME ABSENT
	_ZN23HbExtendedDeviceProfile12setUnitValueEf @ 7501 NONAME ABSENT
	_ZN23HbExtendedDeviceProfile14setLogicalSizeERK5QSize @ 7502 NONAME ABSENT
	_ZN23HbExtendedDeviceProfile23setAlternateProfileNameERK7QString @ 7503 NONAME ABSENT
	_ZN23HbExtendedDeviceProfile7setNameERK7QString @ 7504 NONAME ABSENT
	_ZN23HbExtendedDeviceProfileC1ERK15HbDeviceProfile @ 7505 NONAME ABSENT
	_ZN23HbExtendedDeviceProfileC1ERK7QString @ 7506 NONAME ABSENT
	_ZN23HbExtendedDeviceProfileC1ERKS_ @ 7507 NONAME ABSENT
	_ZN23HbExtendedDeviceProfileC1Ev @ 7508 NONAME ABSENT
	_ZN23HbExtendedDeviceProfileC2ERK15HbDeviceProfile @ 7509 NONAME ABSENT
	_ZN23HbExtendedDeviceProfileC2ERK7QString @ 7510 NONAME ABSENT
	_ZN23HbExtendedDeviceProfileC2ERKS_ @ 7511 NONAME ABSENT
	_ZN23HbExtendedDeviceProfileC2Ev @ 7512 NONAME ABSENT
	_ZN23HbExtendedDeviceProfileaSERKS_ @ 7513 NONAME ABSENT
	_ZN23HbMainWindowOrientation11qt_metacallEN11QMetaObject4CallEiPPv @ 7514 NONAME
	_ZN23HbMainWindowOrientation11qt_metacastEPKc @ 7515 NONAME
	_ZN23HbMainWindowOrientation16staticMetaObjectE @ 7516 NONAME DATA 16
	_ZN23HbMainWindowOrientation17handleWindowAddedEP12HbMainWindow @ 7517 NONAME
	_ZN23HbMainWindowOrientation19getStaticMetaObjectEv @ 7518 NONAME
	_ZN23HbMainWindowOrientation19handleWindowRemovedEP12HbMainWindow @ 7519 NONAME
	_ZN23HbMainWindowOrientation19sensorStatusChangedEbb @ 7520 NONAME
	_ZN23HbMainWindowOrientation19setFixedOrientationEN2Qt11OrientationE @ 7521 NONAME
	_ZN23HbMainWindowOrientation20handleForegroundLostEv @ 7522 NONAME
	_ZN23HbMainWindowOrientation22handleForegroundGainedEv @ 7523 NONAME
	_ZN23HbMainWindowOrientation23notifyOrientationChangeEbb @ 7524 NONAME
	_ZN23HbMainWindowOrientation24sensorOrientationChangedEN2Qt11OrientationE @ 7525 NONAME
	_ZN23HbMainWindowOrientation8instanceEv @ 7526 NONAME
	_ZN23HbMainWindowOrientationC1EP7QObject @ 7527 NONAME
	_ZN23HbMainWindowOrientationC2EP7QObject @ 7528 NONAME
	_ZN23HbMainWindowOrientationD0Ev @ 7529 NONAME
	_ZN23HbMainWindowOrientationD1Ev @ 7530 NONAME
	_ZN23HbMainWindowOrientationD2Ev @ 7531 NONAME
	_ZN23HbSharedMemoryManagerUt10initializeEv @ 7532 NONAME
	_ZN23HbSharedMemoryManagerUt10memManagerE @ 7533 NONAME DATA 4 ABSENT
	_ZN23HbSharedMemoryManagerUt11setWritableEb @ 7534 NONAME
	_ZN23HbSharedMemoryManagerUt15releaseInstanceEv @ 7535 NONAME ABSENT
	_ZN23HbSharedMemoryManagerUt8instanceEv @ 7536 NONAME ABSENT
	_ZN23HbSharedMemoryManagerUtC1Ev @ 7537 NONAME
	_ZN23HbSharedMemoryManagerUtC2Ev @ 7538 NONAME
	_ZN23HbSharedMemoryManagerUtD0Ev @ 7539 NONAME
	_ZN23HbSharedMemoryManagerUtD1Ev @ 7540 NONAME
	_ZN23HbSharedMemoryManagerUtD2Ev @ 7541 NONAME
	_ZN24HbActionManagerXmlParser12readTemplateEv @ 7542 NONAME
	_ZN24HbActionManagerXmlParser20readDistributionItemEv @ 7543 NONAME
	_ZN24HbActionManagerXmlParser4readEP9QIODevice @ 7544 NONAME
	_ZN24HbActionManagerXmlParser9readGuideEv @ 7545 NONAME
	_ZN24HbActionManagerXmlParserC1EP15HbActionManager @ 7546 NONAME
	_ZN24HbActionManagerXmlParserC1EP19HbViewActionManager @ 7547 NONAME
	_ZN24HbActionManagerXmlParserC2EP15HbActionManager @ 7548 NONAME
	_ZN24HbActionManagerXmlParserC2EP19HbViewActionManager @ 7549 NONAME
	_ZN24HbActionManagerXmlParserD1Ev @ 7550 NONAME
	_ZN24HbActionManagerXmlParserD2Ev @ 7551 NONAME
	_ZN24HbEffectOpacityAnimation21handleAnimationFinishEv @ 7552 NONAME
	_ZN24HbEffectOpacityAnimation21handleAnimationUpdateERK8QVariant @ 7553 NONAME
	_ZN24HbEffectOpacityAnimationC1EP13HbEffectGroupi @ 7554 NONAME
	_ZN24HbEffectOpacityAnimationC2EP13HbEffectGroupi @ 7555 NONAME
	_ZN24HbIndicatorPluginManager10findPluginERK7QStringPPNS_13IndicatorInfoEPi @ 7556 NONAME
	_ZN24HbIndicatorPluginManager10loadPluginERK7QString @ 7557 NONAME
	_ZN24HbIndicatorPluginManager10loadPluginERK7QStringS2_ @ 7558 NONAME
	_ZN24HbIndicatorPluginManager10pluginKeysEP7QObject @ 7559 NONAME
	_ZN24HbIndicatorPluginManager11checkAccessEiRK7QStringRK4QMapIS0_8QVariantE @ 7560 NONAME
	_ZN24HbIndicatorPluginManager11qt_metacallEN11QMetaObject4CallEiPPv @ 7561 NONAME
	_ZN24HbIndicatorPluginManager11qt_metacastEPKc @ 7562 NONAME
	_ZN24HbIndicatorPluginManager11scanPluginsERK7QString @ 7563 NONAME
	_ZN24HbIndicatorPluginManager12addIndicatorERK7QStringRK4QMapIS0_8QVariantEPi @ 7564 NONAME
	_ZN24HbIndicatorPluginManager14pluginPathListEv @ 7565 NONAME ABSENT
	_ZN24HbIndicatorPluginManager15removeIndicatorERK7QString @ 7566 NONAME
	_ZN24HbIndicatorPluginManager15updateCachePathERK7QString @ 7567 NONAME ABSENT
	_ZN24HbIndicatorPluginManager16indicatorRemovedEP20HbIndicatorInterface @ 7568 NONAME
	_ZN24HbIndicatorPluginManager16indicatorRemovedERK19IndicatorClientInfo @ 7569 NONAME
	_ZN24HbIndicatorPluginManager16indicatorUpdatedERK19IndicatorClientInfo @ 7570 NONAME
	_ZN24HbIndicatorPluginManager16staticMetaObjectE @ 7571 NONAME DATA 16
	_ZN24HbIndicatorPluginManager17activateIndicatorERK7QStringRK8QVariantRK4QMapIS0_S3_E @ 7572 NONAME
	_ZN24HbIndicatorPluginManager18indicatorActivatedEP20HbIndicatorInterface @ 7573 NONAME
	_ZN24HbIndicatorPluginManager18indicatorActivatedERK19IndicatorClientInfo @ 7574 NONAME
	_ZN24HbIndicatorPluginManager19deactivateIndicatorERK7QStringRK8QVariantRK4QMapIS0_S3_E @ 7575 NONAME
	_ZN24HbIndicatorPluginManager19deactivateIndicatorEv @ 7576 NONAME
	_ZN24HbIndicatorPluginManager19getStaticMetaObjectEv @ 7577 NONAME
	_ZN24HbIndicatorPluginManager20indicatorDataChangedEv @ 7578 NONAME
	_ZN24HbIndicatorPluginManager20pluginFileNameFilterEv @ 7579 NONAME ABSENT
	_ZN24HbIndicatorPluginManager21userActivateIndicatorERK4QMapI7QString8QVariantE @ 7580 NONAME
	_ZN24HbIndicatorPluginManager22indicatorUserActivatedERK4QMapI7QString8QVariantE @ 7581 NONAME
	_ZN24HbIndicatorPluginManager9connectToEP7QObject @ 7582 NONAME ABSENT
	_ZN24HbIndicatorPluginManagerC1EP7QObject @ 7583 NONAME
	_ZN24HbIndicatorPluginManagerC2EP7QObject @ 7584 NONAME
	_ZN24HbIndicatorPluginManagerD0Ev @ 7585 NONAME
	_ZN24HbIndicatorPluginManagerD1Ev @ 7586 NONAME
	_ZN24HbIndicatorPluginManagerD2Ev @ 7587 NONAME
	_ZN25HbInstantInteractionEvent18InstantInteractionE @ 7588 NONAME DATA 4
	_ZN25HbInstantInteractionEventC1EPK8HbWidgetN2Hb18InstantInteractionE6QFlagsINS3_19InteractionModifierEE @ 7589 NONAME
	_ZN25HbInstantInteractionEventC2EPK8HbWidgetN2Hb18InstantInteractionE6QFlagsINS3_19InteractionModifierEE @ 7590 NONAME
	_ZN25HbInstantInteractionEventD0Ev @ 7591 NONAME
	_ZN25HbInstantInteractionEventD1Ev @ 7592 NONAME
	_ZN25HbInstantInteractionEventD2Ev @ 7593 NONAME
	_ZN26HbEffectTranslateAnimation14setOriginalPosEf @ 7594 NONAME
	_ZN26HbEffectTranslateAnimation21handleAnimationFinishEv @ 7595 NONAME
	_ZN26HbEffectTranslateAnimation21handleAnimationUpdateERK8QVariant @ 7596 NONAME
	_ZN26HbEffectTranslateAnimationC1EP13HbEffectGroupP17HbEffectTranslatei @ 7597 NONAME
	_ZN26HbEffectTranslateAnimationC2EP13HbEffectGroupP17HbEffectTranslatei @ 7598 NONAME
	_ZN26HbStyleOptionSliderElementC1ERKS_ @ 7599 NONAME
	_ZN26HbStyleOptionSliderElementC1Ev @ 7600 NONAME
	_ZN26HbStyleOptionSliderElementC2ERKS_ @ 7601 NONAME
	_ZN26HbStyleOptionSliderElementC2Ev @ 7602 NONAME
	_ZN26HbStyleOptionSliderElementD1Ev @ 7603 NONAME
	_ZN26HbStyleOptionSliderElementD2Ev @ 7604 NONAME
	_ZN28HbContinuousInteractionEvent21ContinuousInteractionE @ 7605 NONAME DATA 4
	_ZN28HbContinuousInteractionEvent25ContinuousInteractionStopE @ 7606 NONAME DATA 4
	_ZN28HbContinuousInteractionEventC1EiPK8HbWidgetN2Hb21ContinuousInteractionE7QPointF @ 7607 NONAME
	_ZN28HbContinuousInteractionEventC2EiPK8HbWidgetN2Hb21ContinuousInteractionE7QPointF @ 7608 NONAME
	_ZN28HbContinuousInteractionEventD0Ev @ 7609 NONAME
	_ZN28HbContinuousInteractionEventD1Ev @ 7610 NONAME
	_ZN28HbContinuousInteractionEventD2Ev @ 7611 NONAME
	_ZN5HbCss13StyleSelector13addStyleSheetEPNS_10StyleSheetE @ 7612 NONAME
	_ZN5HbCss13StyleSelector16removeStyleSheetEPNS_10StyleSheetE @ 7613 NONAME
	_ZN5HbCss13StyleSelectorC2ERKS0_ @ 7614 NONAME
	_ZN5HbCss13StyleSelectorC2Ev @ 7615 NONAME
	_ZN5HbCss13StyleSelectorD0Ev @ 7616 NONAME
	_ZN5HbCss13StyleSelectorD1Ev @ 7617 NONAME
	_ZN5HbCss13StyleSelectorD2Ev @ 7618 NONAME
	_ZN7HbTimer10addTimeoutEiP7QObjectPKc @ 7619 NONAME
	_ZN7HbTimer13registerEntryEP12HbTimerEntryb @ 7620 NONAME
	_ZN7HbTimer15unregisterEntryEP12HbTimerEntry @ 7621 NONAME
	_ZN7HbTimer8instanceEv @ 7622 NONAME
	_ZN7HbTimerC1EP7QObject @ 7623 NONAME
	_ZN7HbTimerC2EP7QObject @ 7624 NONAME
	_ZN8HbSplash4loadERiS0_S0_RN6QImage6FormatE6QFlagsIN14HbSplashScreen4FlagEERK7QStringSA_PFPhiiiS2_PvESC_ @ 7625 NONAME ABSENT
	_ZNK10HbMenuItem10metaObjectEv @ 7626 NONAME
	_ZNK10HbMenuItem15initStyleOptionEP21HbStyleOptionMenuItem @ 7627 NONAME ABSENT
	_ZNK10HbMenuItem4menuEv @ 7628 NONAME
	_ZNK10HbMenuItem6actionEv @ 7629 NONAME
	_ZNK10HbMenuItem8menuTypeEv @ 7630 NONAME
	_ZNK11HbIconTheme10metaObjectEv @ 7631 NONAME
	_ZNK11HbIconTheme11descriptionEv @ 7632 NONAME
	_ZNK11HbIconTheme12currentThemeEv @ 7633 NONAME
	_ZNK11HbIconTheme7dirListEv @ 7634 NONAME ABSENT
	_ZNK11HbIniParser5valueERK7QString @ 7635 NONAME ABSENT
	_ZNK11HbIniParser5valueERK7QStringS2_ @ 7636 NONAME ABSENT
	_ZNK11HbIniParser6groupsEv @ 7637 NONAME ABSENT
	_ZNK11HbTitlePane10metaObjectEv @ 7638 NONAME
	_ZNK11HbTitlePane15initStyleOptionEP22HbStyleOptionTitlePane @ 7639 NONAME
	_ZNK11HbTitlePane4textEv @ 7640 NONAME
	_ZNK12HbColorTheme5colorEPK15QGraphicsWidgetRK7QString @ 7641 NONAME ABSENT
	_ZNK12HbColorTheme5colorERK7QString @ 7642 NONAME ABSENT
	_ZNK12HbMeshLayout5countEv @ 7643 NONAME ABSENT
	_ZNK12HbMeshLayout6itemAtEi @ 7644 NONAME ABSENT
	_ZNK12HbMeshLayout6nodeIdEP19QGraphicsLayoutItem @ 7645 NONAME ABSENT
	_ZNK12HbMeshLayout7indexOfEPK19QGraphicsLayoutItem @ 7646 NONAME ABSENT
	_ZNK12HbMeshLayout7isValidEv @ 7647 NONAME ABSENT
	_ZNK12HbMeshLayout7nodeIdsEv @ 7648 NONAME ABSENT
	_ZNK12HbMeshLayout7spacingERK7QStringN2Hb4EdgeE @ 7649 NONAME ABSENT
	_ZNK12HbMeshLayout8itemByIdERK7QString @ 7650 NONAME ABSENT
	_ZNK12HbMeshLayout8sizeHintEN2Qt8SizeHintERK6QSizeF @ 7651 NONAME ABSENT
	_ZNK12HbSpacerItem8sizeHintEN2Qt8SizeHintERK6QSizeF @ 7652 NONAME ABSENT
	_ZNK12HbTimerEntry8intervalEv @ 7653 NONAME
	_ZNK13HbEffectGroup10metaObjectEv @ 7654 NONAME
	_ZNK13HbEffectGroup10targetItemEv @ 7655 NONAME
	_ZNK13HbEffectGroup11effectCountEv @ 7656 NONAME
	_ZNK13HbEffectGroup14hasScaleEffectEv @ 7657 NONAME
	_ZNK13HbEffectGroup15effectEventTypeEv @ 7658 NONAME
	_ZNK13HbEffectGroup15hasRotateEffectEv @ 7659 NONAME
	_ZNK13HbEffectGroup16hasOpacityEffectEv @ 7660 NONAME
	_ZNK13HbEffectGroup16registrationItemEv @ 7661 NONAME
	_ZNK13HbEffectGroup18hasTranslateEffectEv @ 7662 NONAME
	_ZNK13HbEffectGroup4viewEv @ 7663 NONAME
	_ZNK13HbEffectGroup5dirtyEv @ 7664 NONAME
	_ZNK13HbEffectGroup7extRectEv @ 7665 NONAME
	_ZNK13HbEffectGroup8itemTypeEv @ 7666 NONAME
	_ZNK13HbEffectGroup8userDataEv @ 7667 NONAME
	_ZNK13HbEffectGroup9isLoopingEv @ 7668 NONAME
	_ZNK13HbEffectGroup9isRunningEv @ 7669 NONAME
	_ZNK13HbEffectScale4nameEv @ 7670 NONAME
	_ZNK13HbEffectTheme12currentThemeEv @ 7671 NONAME
	_ZNK13HbEffectTheme12getEffectXmlERK7QStringRb @ 7672 NONAME
	_ZNK13HbThemeClient15clientConnectedEv @ 7673 NONAME
	_ZNK14HbEffectRotate4nameEv @ 7674 NONAME
	_ZNK14HbPopupManager10metaObjectEv @ 7675 NONAME
	_ZNK14HbToolTipLabel10metaObjectEv @ 7676 NONAME
	_ZNK14HbToolTipLabel4textEv @ 7677 NONAME
	_ZNK14HbTypefaceInfo10metaObjectEv @ 7678 NONAME
	_ZNK14HbTypefaceInfo14roleToTypefaceEN10HbFontSpec4RoleER7QStringRi @ 7679 NONAME
	_ZNK14HbTypefaceInfo24textHeightToSizeInPixelsERK7QStringif @ 7680 NONAME
	_ZNK15HbActionManager10metaObjectEv @ 7681 NONAME
	_ZNK15HbActionManager13templateIndexEP8HbAction @ 7682 NONAME
	_ZNK15HbActionManager8positionEP7QAction5QListIS1_E @ 7683 NONAME ABSENT
	_ZNK15HbEffectOpacity4nameEv @ 7684 NONAME
	_ZNK15HbStyleSelector10isNullNodeEN5HbCss13StyleSelector7NodePtrE @ 7685 NONAME ABSENT
	_ZNK15HbStyleSelector10parentNodeEN5HbCss13StyleSelector7NodePtrE @ 7686 NONAME ABSENT
	_ZNK15HbStyleSelector11cleanupNodeEN5HbCss13StyleSelector7NodePtrE @ 7687 NONAME ABSENT
	_ZNK15HbStyleSelector13hasAttributesEN5HbCss13StyleSelector7NodePtrE @ 7688 NONAME ABSENT
	_ZNK15HbStyleSelector14nodeNameEqualsEN5HbCss13StyleSelector7NodePtrERK8HbString @ 7689 NONAME ABSENT
	_ZNK15HbStyleSelector16attributeMatchesEN5HbCss13StyleSelector7NodePtrERKNS0_17AttributeSelectorE @ 7690 NONAME ABSENT
	_ZNK15HbStyleSelector19previousSiblingNodeEN5HbCss13StyleSelector7NodePtrE @ 7691 NONAME ABSENT
	_ZNK15HbStyleSelector7nodeIdsEN5HbCss13StyleSelector7NodePtrE @ 7692 NONAME ABSENT
	_ZNK15HbStyleSelector8initNodeEN5HbCss13StyleSelector7NodePtrE @ 7693 NONAME ABSENT
	_ZNK16HbDeviceModeInfo11modeNumbersEv @ 7694 NONAME
	_ZNK16HbEffectAbstract4itemEv @ 7695 NONAME
	_ZNK16HbEffectAbstract5groupEv @ 7696 NONAME
	_ZNK16HbSensorListener11orientationEv @ 7697 NONAME
	_ZNK16HbSensorListener32sensorOrientationToQtOrientationEN22TSensrvOrientationData24TSensrvDeviceOrientationE @ 7698 NONAME
	_ZNK16HbSensorListener9isEnabledEv @ 7699 NONAME
	_ZNK17HbEffectAnimation10metaObjectEv @ 7700 NONAME
	_ZNK17HbEffectAnimation12interpolatedERK8QVariantS2_f @ 7701 NONAME
	_ZNK17HbEffectTranslate4nameEv @ 7702 NONAME
	_ZNK18HbIndicatorPrivate10metaObjectEv @ 7703 NONAME
	_ZNK18HbIndicatorPrivate5errorEv @ 7704 NONAME
	_ZNK18HbIndicatorPrivate9listeningEv @ 7705 NONAME
	_ZNK18HbTimerSignalEntry10metaObjectEv @ 7706 NONAME
	_ZNK19HbColorThemePrivate12resolveColorEN5HbCss5ValueE @ 7707 NONAME ABSENT
	_ZNK19HbCssThemeInterface12findVariableERK7QString @ 7708 NONAME ABSENT
	_ZNK19HbCssThemeInterface13findAttributeEPK15QGraphicsWidgetRK7QString @ 7709 NONAME ABSENT
	_ZNK19HbTypefaceXmlParser21metricsTypefaceFamilyEv @ 7710 NONAME
	_ZNK20HbLayeredStyleLoader16variableRuleSetsEP5QHashI7QStringN5HbCss11DeclarationEE @ 7711 NONAME ABSENT
	_ZNK20HbLayeredStyleLoader17styleRulesForNodeEN5HbCss13StyleSelector7NodePtrEN2Qt11OrientationE @ 7712 NONAME ABSENT
	_ZNK20HbLayeredStyleLoader19declarationsForNodeEN5HbCss13StyleSelector7NodePtrEN2Qt11OrientationEPKc @ 7713 NONAME ABSENT
	_ZNK20HbLayeredStyleLoader22findInDefaultVariablesERK7QStringRN5HbCss5ValueE @ 7714 NONAME ABSENT
	_ZNK20HbLayeredStyleLoader32hasOrientationSpecificStyleRulesEN5HbCss13StyleSelector7NodePtrE @ 7715 NONAME ABSENT
	_ZNK20HbLayeredStyleLoader9LayerListEv @ 7716 NONAME ABSENT
	_ZNK20HbOogmWatcherPrivate10metaObjectEv @ 7717 NONAME
	_ZNK20HbThemeClientPrivate7VersionEv @ 7718 NONAME
	_ZNK21HbDeviceDialogManager10metaObjectEv @ 7719 NONAME
	_ZNK21HbDeviceDialogManager18deviceDialogClosedEii @ 7720 NONAME
	_ZNK21HbDeviceDialogManager18deviceDialogUpdateEiRK4QMapI7QString8QVariantE @ 7721 NONAME
	_ZNK21HbDeviceDialogManager23indicatorClientInfoListEv @ 7722 NONAME
	_ZNK23HbMainWindowOrientation10metaObjectEv @ 7723 NONAME
	_ZNK23HbMainWindowOrientation17sensorOrientationEv @ 7724 NONAME
	_ZNK23HbMainWindowOrientation9isEnabledEv @ 7725 NONAME
	_ZNK24HbActionManagerXmlParser9enumValueERK11QMetaObjectPKcRK7QString @ 7726 NONAME
	_ZNK24HbIndicatorPluginManager10findPluginERK7QString @ 7727 NONAME
	_ZNK24HbIndicatorPluginManager10indicatorsEv @ 7728 NONAME
	_ZNK24HbIndicatorPluginManager10metaObjectEv @ 7729 NONAME
	_ZNK24HbIndicatorPluginManager18statusAreaIconPathEPK20HbIndicatorInterface @ 7730 NONAME
	_ZNK24HbIndicatorPluginManager23indicatorClientInfoListEv @ 7731 NONAME
	_ZNK5HbCss13StyleSelector10matchRulesENS0_7NodePtrERK8HbVectorINS_9StyleRuleEENS_16StyleSheetOriginEiP7QVectorI5QPairIiS3_EEb @ 7732 NONAME ABSENT
	_ZNK5HbCss13StyleSelector15selectorMatchesERKNS_8SelectorENS0_7NodePtrEb @ 7733 NONAME ABSENT
	_ZNK5HbCss13StyleSelector16inheritanceDepthENS0_7NodePtrER8HbString @ 7734 NONAME ABSENT
	_ZNK5HbCss13StyleSelector16variableRuleSetsEP5QHashI7QStringNS_11DeclarationEE @ 7735 NONAME ABSENT
	_ZNK5HbCss13StyleSelector17styleRulesForNodeENS0_7NodePtrEN2Qt11OrientationE @ 7736 NONAME ABSENT
	_ZNK5HbCss13StyleSelector19declarationsForNodeENS0_7NodePtrEN2Qt11OrientationEPKc @ 7737 NONAME ABSENT
	_ZNK5HbCss13StyleSelector20basicSelectorMatchesERKNS_13BasicSelectorENS0_7NodePtrEb @ 7738 NONAME ABSENT
	_ZNK5HbCss13StyleSelector25weightedStyleRulesForNodeENS0_7NodePtrEN2Qt11OrientationE @ 7739 NONAME ABSENT
	_ZNK5HbCss13StyleSelector27weightedDeclarationsForNodeENS0_7NodePtrEN2Qt11OrientationEPKc @ 7740 NONAME ABSENT
	_ZNK5HbCss13StyleSelector32hasOrientationSpecificStyleRulesENS0_7NodePtrE @ 7741 NONAME ABSENT
	_ZTI10HbMenuItem @ 7742 NONAME
	_ZTI11HbIconTheme @ 7743 NONAME
	_ZTI11HbTitlePane @ 7744 NONAME
	_ZTI12HbMeshLayout @ 7745 NONAME ABSENT
	_ZTI12HbSpacerItem @ 7746 NONAME ABSENT
	_ZTI12HbTimerEntry @ 7747 NONAME
	_ZTI13HbEffectGroup @ 7748 NONAME
	_ZTI13HbEffectScale @ 7749 NONAME
	_ZTI14HbEffectRotate @ 7750 NONAME
	_ZTI14HbPopupManager @ 7751 NONAME
	_ZTI14HbToolTipLabel @ 7752 NONAME
	_ZTI14HbTypefaceInfo @ 7753 NONAME
	_ZTI15HbActionManager @ 7754 NONAME
	_ZTI15HbEffectOpacity @ 7755 NONAME
	_ZTI15HbStyleSelector @ 7756 NONAME
	_ZTI16HbEffectAbstract @ 7757 NONAME
	_ZTI16HbSensorListener @ 7758 NONAME
	_ZTI16HbToolBarPrivate @ 7759 NONAME
	_ZTI17HbEffectAnimation @ 7760 NONAME
	_ZTI17HbEffectTranslate @ 7761 NONAME
	_ZTI18HbIndicatorPrivate @ 7762 NONAME
	_ZTI18HbTimerSignalEntry @ 7763 NONAME
	_ZTI18HbTouchAreaPrivate @ 7764 NONAME
	_ZTI19HbDockWidgetPrivate @ 7765 NONAME
	_ZTI20HbOogmWatcherPrivate @ 7766 NONAME
	_ZTI21HbDeviceDialogManager @ 7767 NONAME
	_ZTI22HbEffectScaleAnimation @ 7768 NONAME
	_ZTI23HbMainWindowOrientation @ 7769 NONAME
	_ZTI23HbSharedMemoryManagerUt @ 7770 NONAME
	_ZTI24HbEffectOpacityAnimation @ 7771 NONAME
	_ZTI24HbIndicatorPluginManager @ 7772 NONAME
	_ZTI25HbInstantInteractionEvent @ 7773 NONAME
	_ZTI26HbEffectTranslateAnimation @ 7774 NONAME
	_ZTI28HbContinuousInteractionEvent @ 7775 NONAME
	_ZTI7HbTimer @ 7776 NONAME
	_ZTIN5HbCss13StyleSelectorE @ 7777 NONAME
	_ZTV10HbMenuItem @ 7778 NONAME
	_ZTV11HbIconTheme @ 7779 NONAME
	_ZTV11HbTitlePane @ 7780 NONAME
	_ZTV12HbMeshLayout @ 7781 NONAME ABSENT
	_ZTV12HbSpacerItem @ 7782 NONAME ABSENT
	_ZTV12HbTimerEntry @ 7783 NONAME
	_ZTV13HbEffectGroup @ 7784 NONAME
	_ZTV13HbEffectScale @ 7785 NONAME
	_ZTV14HbEffectRotate @ 7786 NONAME
	_ZTV14HbPopupManager @ 7787 NONAME
	_ZTV14HbToolTipLabel @ 7788 NONAME
	_ZTV14HbTypefaceInfo @ 7789 NONAME
	_ZTV15HbActionManager @ 7790 NONAME
	_ZTV15HbEffectOpacity @ 7791 NONAME
	_ZTV15HbStyleSelector @ 7792 NONAME
	_ZTV16HbEffectAbstract @ 7793 NONAME
	_ZTV16HbSensorListener @ 7794 NONAME
	_ZTV16HbToolBarPrivate @ 7795 NONAME
	_ZTV17HbEffectAnimation @ 7796 NONAME
	_ZTV17HbEffectTranslate @ 7797 NONAME
	_ZTV18HbIndicatorPrivate @ 7798 NONAME
	_ZTV18HbTimerSignalEntry @ 7799 NONAME
	_ZTV18HbTouchAreaPrivate @ 7800 NONAME
	_ZTV19HbDockWidgetPrivate @ 7801 NONAME
	_ZTV20HbOogmWatcherPrivate @ 7802 NONAME
	_ZTV21HbDeviceDialogManager @ 7803 NONAME
	_ZTV22HbEffectScaleAnimation @ 7804 NONAME
	_ZTV23HbMainWindowOrientation @ 7805 NONAME
	_ZTV23HbSharedMemoryManagerUt @ 7806 NONAME
	_ZTV24HbEffectOpacityAnimation @ 7807 NONAME
	_ZTV24HbIndicatorPluginManager @ 7808 NONAME
	_ZTV25HbInstantInteractionEvent @ 7809 NONAME
	_ZTV26HbEffectTranslateAnimation @ 7810 NONAME
	_ZTV28HbContinuousInteractionEvent @ 7811 NONAME
	_ZTV7HbTimer @ 7812 NONAME
	_ZTVN5HbCss13StyleSelectorE @ 7813 NONAME
	_ZThn16_N10HbMenuItemD0Ev @ 7814 NONAME
	_ZThn16_N10HbMenuItemD1Ev @ 7815 NONAME
	_ZThn16_N11HbTitlePaneD0Ev @ 7816 NONAME
	_ZThn16_N11HbTitlePaneD1Ev @ 7817 NONAME
	_ZThn16_N14HbToolTipLabelD0Ev @ 7818 NONAME
	_ZThn16_N14HbToolTipLabelD1Ev @ 7819 NONAME
	_ZThn8_N10HbMenuItemD0Ev @ 7820 NONAME
	_ZThn8_N10HbMenuItemD1Ev @ 7821 NONAME
	_ZThn8_N11HbTitlePane10itemChangeEN13QGraphicsItem18GraphicsItemChangeERK8QVariant @ 7822 NONAME
	_ZThn8_N11HbTitlePaneD0Ev @ 7823 NONAME
	_ZThn8_N11HbTitlePaneD1Ev @ 7824 NONAME
	_ZThn8_N14HbToolTipLabelD0Ev @ 7825 NONAME
	_ZThn8_N14HbToolTipLabelD1Ev @ 7826 NONAME
	_ZThn8_N18HbIndicatorPrivate4RunLEv @ 7827 NONAME
	_ZThn8_N18HbIndicatorPrivate8DoCancelEv @ 7828 NONAME
	_ZThn8_N18HbIndicatorPrivate8RunErrorEi @ 7829 NONAME
	_ZThn8_N18HbIndicatorPrivateD0Ev @ 7830 NONAME
	_ZThn8_N18HbIndicatorPrivateD1Ev @ 7831 NONAME
	_ZThn8_N18HbTimerSignalEntry10timerFiredEv @ 7832 NONAME
	_ZThn8_N20HbOogmWatcherPrivate26RunningLowOnGraphicsMemoryEv @ 7833 NONAME ABSENT
	_ZThn8_N23HbMainWindowOrientation19sensorStatusChangedEbb @ 7834 NONAME
	_ZThn8_N23HbMainWindowOrientation24sensorOrientationChangedEN2Qt11OrientationE @ 7835 NONAME
	_ZThn8_N23HbMainWindowOrientationD0Ev @ 7836 NONAME
	_ZThn8_N23HbMainWindowOrientationD1Ev @ 7837 NONAME
	_ZN10HbEffectBc18updateFilterEffectEv @ 7838 NONAME
	_ZN10HbEffectBcC1ERK22HbEffectFxmlFilterDataP13QGraphicsItemP13HbEffectGroup @ 7839 NONAME
	_ZN10HbEffectBcC2ERK22HbEffectFxmlFilterDataP13QGraphicsItemP13HbEffectGroup @ 7840 NONAME
	_ZN10HbEffectBcD0Ev @ 7841 NONAME
	_ZN10HbEffectBcD1Ev @ 7842 NONAME
	_ZN10HbEffectBcD2Ev @ 7843 NONAME
	_ZN11HbEffectHsl18updateFilterEffectEv @ 7844 NONAME
	_ZN11HbEffectHslC1ERK22HbEffectFxmlFilterDataP13QGraphicsItemP13HbEffectGroup @ 7845 NONAME
	_ZN11HbEffectHslC2ERK22HbEffectFxmlFilterDataP13QGraphicsItemP13HbEffectGroup @ 7846 NONAME
	_ZN11HbEffectHslD0Ev @ 7847 NONAME
	_ZN11HbEffectHslD1Ev @ 7848 NONAME
	_ZN11HbEffectHslD2Ev @ 7849 NONAME
	_ZN12HbEffectBlur18updateFilterEffectEv @ 7850 NONAME
	_ZN12HbEffectBlurC1ERK22HbEffectFxmlFilterDataP13QGraphicsItemP13HbEffectGroup @ 7851 NONAME
	_ZN12HbEffectBlurC2ERK22HbEffectFxmlFilterDataP13QGraphicsItemP13HbEffectGroup @ 7852 NONAME
	_ZN12HbEffectBlurD0Ev @ 7853 NONAME
	_ZN12HbEffectBlurD1Ev @ 7854 NONAME
	_ZN12HbEffectBlurD2Ev @ 7855 NONAME
	_ZN13HbEffectGroup16activateVgEffectEv @ 7856 NONAME
	_ZN13HbEffectGroup18deactivateVgEffectEv @ 7857 NONAME
	_ZN13HbEffectGroup8vgEffectEv @ 7858 NONAME
	_ZN14HbEffectFilter13setStartStateER10QTransform @ 7859 NONAME
	_ZN14HbEffectFilter15createAnimationERK21HbEffectFxmlParamDataR6QColorS4_P13HbEffectGroup @ 7860 NONAME
	_ZN14HbEffectFilter15createAnimationERK21HbEffectFxmlParamDataRfS3_P13HbEffectGroup @ 7861 NONAME
	_ZN14HbEffectFilter19updateItemTransformER10QTransform @ 7862 NONAME
	_ZN14HbEffectFilter23handleAnimationFinishedEv @ 7863 NONAME
	_ZN14HbEffectFilter4initEv @ 7864 NONAME
	_ZN14HbEffectFilter5pauseEv @ 7865 NONAME
	_ZN14HbEffectFilter5startEv @ 7866 NONAME
	_ZN14HbEffectFilter6cancelER10QTransformb @ 7867 NONAME
	_ZN14HbEffectFilter6resumeEv @ 7868 NONAME
	_ZN14HbEffectFilterC2EiP13QGraphicsItemP13HbEffectGroup @ 7869 NONAME
	_ZN14HbEffectFilterD0Ev @ 7870 NONAME
	_ZN14HbEffectFilterD1Ev @ 7871 NONAME
	_ZN14HbEffectFilterD2Ev @ 7872 NONAME
	_ZN14HbPluginLoader11qt_metacallEN11QMetaObject4CallEiPPv @ 7873 NONAME
	_ZN14HbPluginLoader11qt_metacastEPKc @ 7874 NONAME
	_ZN14HbPluginLoader13setPluginNameERK7QString @ 7875 NONAME
	_ZN14HbPluginLoader15resolveFileNameEv @ 7876 NONAME
	_ZN14HbPluginLoader16staticMetaObjectE @ 7877 NONAME DATA 16
	_ZN14HbPluginLoader19getStaticMetaObjectEv @ 7878 NONAME
	_ZN14HbPluginLoader4loadEv @ 7879 NONAME
	_ZN14HbPluginLoader8instanceEv @ 7880 NONAME
	_ZN14HbPluginLoaderC1EP7QObject @ 7881 NONAME
	_ZN14HbPluginLoaderC1ERK7QStringP7QObject @ 7882 NONAME
	_ZN14HbPluginLoaderC2EP7QObject @ 7883 NONAME
	_ZN14HbPluginLoaderC2ERK7QStringP7QObject @ 7884 NONAME
	_ZN14HbPluginLoaderD0Ev @ 7885 NONAME
	_ZN14HbPluginLoaderD1Ev @ 7886 NONAME
	_ZN14HbPluginLoaderD2Ev @ 7887 NONAME
	_ZN16HbEffectColorize18updateFilterEffectEv @ 7888 NONAME
	_ZN16HbEffectColorizeC1ERK22HbEffectFxmlFilterDataP13QGraphicsItemP13HbEffectGroup @ 7889 NONAME
	_ZN16HbEffectColorizeC2ERK22HbEffectFxmlFilterDataP13QGraphicsItemP13HbEffectGroup @ 7890 NONAME
	_ZN16HbEffectColorizeD0Ev @ 7891 NONAME
	_ZN16HbEffectColorizeD1Ev @ 7892 NONAME
	_ZN16HbEffectColorizeD2Ev @ 7893 NONAME
	_ZN18HbEffectDropShadow18updateFilterEffectEv @ 7894 NONAME
	_ZN18HbEffectDropShadowC1ERK22HbEffectFxmlFilterDataP13QGraphicsItemP13HbEffectGroup @ 7895 NONAME
	_ZN18HbEffectDropShadowC2ERK22HbEffectFxmlFilterDataP13QGraphicsItemP13HbEffectGroup @ 7896 NONAME
	_ZN18HbEffectDropShadowD0Ev @ 7897 NONAME
	_ZN18HbEffectDropShadowD1Ev @ 7898 NONAME
	_ZN18HbEffectDropShadowD2Ev @ 7899 NONAME
	_ZN22HbEffectColorAnimationC1EP14HbEffectFilteriP13HbEffectGroup @ 7900 NONAME
	_ZN22HbEffectColorAnimationC2EP14HbEffectFilteriP13HbEffectGroup @ 7901 NONAME
	_ZN22HbEffectColorAnimationD0Ev @ 7902 NONAME
	_ZN22HbEffectColorAnimationD1Ev @ 7903 NONAME
	_ZN22HbEffectColorAnimationD2Ev @ 7904 NONAME
	_ZN23HbEffectFilterAnimation21handleAnimationFinishEv @ 7905 NONAME
	_ZN23HbEffectFilterAnimation21handleAnimationUpdateERK8QVariant @ 7906 NONAME
	_ZN23HbEffectFilterAnimationC1EP14HbEffectFilteriP13HbEffectGroup @ 7907 NONAME
	_ZN23HbEffectFilterAnimationC2EP14HbEffectFilteriP13HbEffectGroup @ 7908 NONAME
	_ZN23HbEffectFilterAnimationD0Ev @ 7909 NONAME
	_ZN23HbEffectFilterAnimationD1Ev @ 7910 NONAME
	_ZN23HbEffectFilterAnimationD2Ev @ 7911 NONAME
	_ZN24HbEffectPlanarReflection18updateFilterEffectEv @ 7912 NONAME
	_ZN24HbEffectPlanarReflectionC1ERK22HbEffectFxmlFilterDataP13QGraphicsItemP13HbEffectGroup @ 7913 NONAME
	_ZN24HbEffectPlanarReflectionC2ERK22HbEffectFxmlFilterDataP13QGraphicsItemP13HbEffectGroup @ 7914 NONAME
	_ZN24HbEffectPlanarReflectionD0Ev @ 7915 NONAME
	_ZN24HbEffectPlanarReflectionD1Ev @ 7916 NONAME
	_ZN24HbEffectPlanarReflectionD2Ev @ 7917 NONAME
	_ZNK10HbEffectBc4nameEv @ 7918 NONAME
	_ZNK11HbEffectHsl4nameEv @ 7919 NONAME
	_ZNK12HbEffectBlur4nameEv @ 7920 NONAME
	_ZNK14HbPluginLoader10metaObjectEv @ 7921 NONAME
	_ZNK14HbPluginLoader10pluginNameEv @ 7922 NONAME
	_ZNK16HbEffectColorize4nameEv @ 7923 NONAME
	_ZNK18HbEffectDropShadow4nameEv @ 7924 NONAME
	_ZNK22HbEffectColorAnimation12interpolatedERK8QVariantS2_f @ 7925 NONAME
	_ZNK24HbEffectPlanarReflection4nameEv @ 7926 NONAME
	_ZNK24HbIndicatorPluginManager11hasMenuDataERK20HbIndicatorInterface @ 7927 NONAME
	_ZTI10HbEffectBc @ 7928 NONAME
	_ZTI11HbEffectHsl @ 7929 NONAME
	_ZTI12HbEffectBlur @ 7930 NONAME
	_ZTI14HbEffectFilter @ 7931 NONAME
	_ZTI14HbPluginLoader @ 7932 NONAME
	_ZTI16HbEffectColorize @ 7933 NONAME
	_ZTI18HbEffectDropShadow @ 7934 NONAME
	_ZTI22HbEffectColorAnimation @ 7935 NONAME
	_ZTI23HbEffectFilterAnimation @ 7936 NONAME
	_ZTI24HbEffectPlanarReflection @ 7937 NONAME
	_ZTV10HbEffectBc @ 7938 NONAME
	_ZTV11HbEffectHsl @ 7939 NONAME
	_ZTV12HbEffectBlur @ 7940 NONAME
	_ZTV14HbEffectFilter @ 7941 NONAME
	_ZTV14HbPluginLoader @ 7942 NONAME
	_ZTV16HbEffectColorize @ 7943 NONAME
	_ZTV18HbEffectDropShadow @ 7944 NONAME
	_ZTV22HbEffectColorAnimation @ 7945 NONAME
	_ZTV23HbEffectFilterAnimation @ 7946 NONAME
	_ZTV24HbEffectPlanarReflection @ 7947 NONAME
	_ZN12HbThemeIndex13validateItemsEx @ 7948 NONAME
	_ZN12HbThemeIndex4initEv @ 7949 NONAME
	_ZN12HbThemeIndex9itemArrayEN2Hb12ResourceTypeE @ 7950 NONAME ABSENT
	_ZN12HbThemeIndex9itemCountEN2Hb12ResourceTypeE @ 7951 NONAME ABSENT
	_ZN16ThemeIndexTables7getItemERK7QStringRiN2Hb12ResourceTypeE @ 7952 NONAME ABSENT
	_ZN12HbSystemInfo11qt_metacallEN11QMetaObject4CallEiPPv @ 7953 NONAME ABSENT
	_ZN12HbSystemInfo11qt_metacastEPKc @ 7954 NONAME ABSENT
	_ZN12HbSystemInfo16staticMetaObjectE @ 7955 NONAME DATA 16 ABSENT
	_ZN12HbSystemInfo17powerStateChangedEN10QtMobility17QSystemDeviceInfo10PowerStateE @ 7956 NONAME ABSENT
	_ZN12HbSystemInfo18networkModeChangedEN10QtMobility18QSystemNetworkInfo11NetworkModeE @ 7957 NONAME ABSENT
	_ZN12HbSystemInfo19batteryLevelChangedEi @ 7958 NONAME ABSENT
	_ZN12HbSystemInfo19getStaticMetaObjectEv @ 7959 NONAME ABSENT
	_ZN12HbSystemInfo28networkSignalStrengthChangedEN10QtMobility18QSystemNetworkInfo11NetworkModeEi @ 7960 NONAME ABSENT
	_ZN12HbSystemInfoC1EP7QObjectb @ 7961 NONAME ABSENT
	_ZN12HbSystemInfoC2EP7QObjectb @ 7962 NONAME ABSENT
	_ZN12HbSystemInfoD0Ev @ 7963 NONAME ABSENT
	_ZN12HbSystemInfoD1Ev @ 7964 NONAME ABSENT
	_ZN12HbSystemInfoD2Ev @ 7965 NONAME ABSENT
	_ZN13HbOogmWatcher17graphicsMemoryLowEv @ 7966 NONAME
	_ZN13HbOogmWatcher18graphicsMemoryGoodEv @ 7967 NONAME
	_ZN20HbOogmWatcherPrivate18graphicsMemoryGoodEv @ 7968 NONAME
	_ZNK12HbSystemInfo10metaObjectEv @ 7969 NONAME ABSENT
	_ZNK12HbSystemInfo10powerStateEv @ 7970 NONAME ABSENT
	_ZNK12HbSystemInfo11networkModeEv @ 7971 NONAME ABSENT
	_ZNK12HbSystemInfo12batteryLevelEv @ 7972 NONAME ABSENT
	_ZNK12HbSystemInfo21networkSignalStrengthEv @ 7973 NONAME ABSENT
	_ZTI12HbSystemInfo @ 7974 NONAME ABSENT
	_ZTV12HbSystemInfo @ 7975 NONAME ABSENT
	_ZNK17HbActivityManager16parseCommandLineERK11QStringListRN2Hb16ActivationReasonER7QStringR5QHashIS6_8QVariantE @ 7976 NONAME
	_ZNK10HbTitleBar9primitiveERK7QString @ 7977 NONAME
	_ZNK11HbStatusBar9primitiveERK7QString @ 7978 NONAME
	_ZNK11HbTitlePane9primitiveERK7QString @ 7979 NONAME
	_ZNK15HbActionManager8positionEP7QAction5QListIS1_Ei @ 7980 NONAME
	_ZN24HbIndicatorPluginManager15updateCachePathERK7QStringb @ 7981 NONAME
	_ZN19HbForegroundWatcher13handleSensorsEv @ 7982 NONAME
	_ZN19HbTypefaceXmlParser26readAndPositionTypefaceSetEv @ 7983 NONAME
	_ZNK19HbTypefaceXmlParser23matchLanguageAndCountryEv @ 7984 NONAME
	_ZN19HbMainWindowPrivate14_q_viewChangedEv @ 7985 NONAME
	_ZN19HbMainWindowPrivate16initTranslationsEv @ 7986 NONAME
	_ZN12HbMainWindow36setAutomaticOrientationEffectEnabledEb @ 7987 NONAME
	_ZNK12HbMainWindow33automaticOrientationEffectEnabledEv @ 7988 NONAME
	_ZN21HbIconAnimationParser11doParseFileERK7QStringR5QHashIS0_19HbIconAnimationDataE @ 7989 NONAME
	_ZN21HbIconAnimationParser14readAnimationsERK7QStringR5QHashIS0_19HbIconAnimationDataE @ 7990 NONAME
	_ZN21HbIconAnimationParser19parseDefinitionFileERK7QStringR5QHashIS0_19HbIconAnimationDataES2_ @ 7991 NONAME
	_ZN21HbIconAnimationParser25parseDefinitionFileSharedERK7QStringR5QHashIS0_19HbIconAnimationDataES2_ @ 7992 NONAME
	_ZN13HbThemeClient12typefaceInfoEv @ 7993 NONAME
	_ZN20HbThemeClientPrivate12typefaceInfoEv @ 7994 NONAME
	_ZN22HbTypefaceInfoDatabase19autoGenerateMetricsEP18HbTypefaceInfoItem @ 7995 NONAME
	_ZN22HbTypefaceInfoDatabase23readTypefaceMetricsFileEP19HbTypefaceXmlParserP18HbTypefaceInfoItem @ 7996 NONAME
	_ZN22HbTypefaceInfoDatabase24typefaceInfoVectorOffsetEv @ 7997 NONAME
	_ZN22HbTypefaceInfoDatabase4initEv @ 7998 NONAME
	_ZN22HbTypefaceInfoDatabase8instanceEN15HbMemoryManager10MemoryTypeE @ 7999 NONAME
	_ZN22HbTypefaceInfoDatabaseC1EN15HbMemoryManager10MemoryTypeE @ 8000 NONAME
	_ZN22HbTypefaceInfoDatabaseC2EN15HbMemoryManager10MemoryTypeE @ 8001 NONAME
	_ZNK22HbTypefaceInfoDatabase13outputMetricsEP18HbTypefaceInfoItem @ 8002 NONAME
	_ZN12HbThemeUtils21saveBaseThemeSettingsER11HbThemeInfoRK7QStringS4_ @ 8003 NONAME ABSENT
	_ZN12HbThemeUtils22getBaseThemeFromCenRepERK7QString @ 8004 NONAME ABSENT
	_ZN15HbPointRecorder13resetRecorderEf @ 8005 NONAME
	_ZN15HbPointRecorder6recordEfRK5QTime @ 8006 NONAME ABSENT
	_ZN17HbPanGestureLogic9recognizeEN2Qt12GestureStateEP12HbPanGestureP7QObjectP6QEvent5QTime @ 8007 NONAME ABSENT
	_ZN19HbSwipeGestureLogic15handleMouseMoveEN2Qt12GestureStateEP14HbSwipeGestureP7QObjectP11QMouseEvent @ 8008 NONAME ABSENT
	_ZN19HbSwipeGestureLogic9recognizeEN2Qt12GestureStateEP14HbSwipeGestureP7QObjectP6QEvent5QTime @ 8009 NONAME ABSENT
	_ZNK15HbPointRecorder14getLastRecordsEi @ 8010 NONAME
	_ZNK15HbPointRecorderixEi @ 8011 NONAME ABSENT
	_ZN12HbIconLoader19switchRenderingModeE15HbRenderingMode @ 8012 NONAME
	_ZN12HbIconLoader19updateRenderingModeEN12QPaintEngine4TypeE @ 8013 NONAME
	_ZN12HbIconLoader26getMultiIconImplFromServerER11QStringListR7QVectorI6QSizeFEN2Qt15AspectRatioModeEN5QIcon4ModeEbb6QFlagsINS_16IconLoaderOptionEERK6QColorNS_12IconDataTypeENS_7PurposeERS2_IP10HbIconImplE15HbRenderingMode @ 8014 NONAME ABSENT
	_ZN13HbNvgIconImplC1ERK16HbSharedIconInfoRK7QStringRK6QSizeFN2Qt15AspectRatioModeEN5QIcon4ModeEb15HbRenderingMode @ 8015 NONAME
	_ZN13HbNvgIconImplC2ERK16HbSharedIconInfoRK7QStringRK6QSizeFN2Qt15AspectRatioModeEN5QIcon4ModeEb15HbRenderingMode @ 8016 NONAME
	_ZN13HbThemeClient10unloadIconERK7QStringRK6QSizeFN2Qt15AspectRatioModeEN5QIcon4ModeEbRK6QColor15HbRenderingMode @ 8017 NONAME ABSENT
