EXPORTS
	?trUtf8@HbCandidateList@@SA?AVQString@@PBD0@Z @ 1 NONAME ; class QString HbCandidateList::trUtf8(char const *, char const *)
	?trUtf8@HbCandidateList@@SA?AVQString@@PBD0H@Z @ 2 NONAME ; class QString HbCandidateList::trUtf8(char const *, char const *, int)
	??1HbInputCnListPreSymbolModel@@UAE@XZ @ 3 NONAME ABSENT ; HbInputCnListPreSymbolModel::~HbInputCnListPreSymbolModel(void)
	?staticMetaObject@HbInputVirtualRocker@@2UQMetaObject@@B @ 4 NONAME ; struct QMetaObject const HbInputVirtualRocker::staticMetaObject
	??1HbInputCnKeypad@@UAE@XZ @ 5 NONAME ABSENT ; HbInputCnKeypad::~HbInputCnKeypad(void)
	?setFade@HbTouchKeypadButton@@QAEX_N@Z @ 6 NONAME ABSENT ; void HbTouchKeypadButton::setFade(bool)
	?itemVerticalSpacing@HbInputCnListView@@QBEMXZ @ 7 NONAME ABSENT ; float HbInputCnListView::itemVerticalSpacing(void) const
	?cellCountInPage@HbInputCnListCompositior@@QBEHH@Z @ 8 NONAME ABSENT ; int HbInputCnListCompositior::cellCountInPage(int) const
	?shape@HbInputCnScrollKeypad@@MBE?AVQPainterPath@@XZ @ 9 NONAME ABSENT ; class QPainterPath HbInputCnScrollKeypad::shape(void) const
	?tr@HbCharPreviewPane@@SA?AVQString@@PBD0H@Z @ 10 NONAME ABSENT ; class QString HbCharPreviewPane::tr(char const *, char const *, int)
	?tr@Hb12KeyTouchKeypad@@SA?AVQString@@PBD0H@Z @ 11 NONAME ABSENT ; class QString Hb12KeyTouchKeypad::tr(char const *, char const *, int)
	?tr@HbInputCnListModel@@SA?AVQString@@PBD0H@Z @ 12 NONAME ABSENT ; class QString HbInputCnListModel::tr(char const *, char const *, int)
	?pressKey@HbInputCnModel@@QAE_NHV?$QFlags@W4KeyboardModifier@Qt@@@@H@Z @ 13 NONAME ABSENT ; bool HbInputCnModel::pressKey(int, class QFlags<enum Qt::KeyboardModifier>, int)
	??1HbPreviewLabel@@UAE@XZ @ 14 NONAME ABSENT ; HbPreviewLabel::~HbPreviewLabel(void)
	?rangeValue@HbRangeBar@@QAEHXZ @ 15 NONAME ABSENT ; int HbRangeBar::rangeValue(void)
	?mousePressEvent@HbInputCnTchButton@@MAEXPAVQGraphicsSceneMouseEvent@@@Z @ 16 NONAME ABSENT ; void HbInputCnTchButton::mousePressEvent(class QGraphicsSceneMouseEvent *)
	??0HbInputCnListModel@@QAE@PAVQObject@@H@Z @ 17 NONAME ABSENT ; HbInputCnListModel::HbInputCnListModel(class QObject *, int)
	?tabCount@HbInputVkbWidget@@UAEHXZ @ 18 NONAME ABSENT ; int HbInputVkbWidget::tabCount(void)
	?qt_metacall@HbInputVkbWidget@@UAEHW4Call@QMetaObject@@HPAPAX@Z @ 19 NONAME ; int HbInputVkbWidget::qt_metacall(enum QMetaObject::Call, int, void * *)
	?tr@HbInputCnTchButton@@SA?AVQString@@PBD0H@Z @ 20 NONAME ABSENT ; class QString HbInputCnTchButton::tr(char const *, char const *, int)
	?d_func@HbQwertyKeyboard@@ABEPBVHbQwertyKeyboardPrivate@@XZ @ 21 NONAME ABSENT ; class HbQwertyKeyboardPrivate const * HbQwertyKeyboard::d_func(void) const
	?trUtf8@HbWritingBox@@SA?AVQString@@PBD0@Z @ 22 NONAME ABSENT ; class QString HbWritingBox::trUtf8(char const *, char const *)
	?setLanguage@HbInputCnModel@@QAEXABVHbInputLanguage@@V?$QFlags@W4HbInputModeTypeFlag@@@@@Z @ 23 NONAME ABSENT ; void HbInputCnModel::setLanguage(class HbInputLanguage const &, class QFlags<enum HbInputModeTypeFlag>)
	?onRepeatLongTimeOut@HbInputCnKeypad@@QAEXXZ @ 24 NONAME ABSENT ; void HbInputCnKeypad::onRepeatLongTimeOut(void)
	?setShrinkRowCount@HbInputCnListView@@QAEXH@Z @ 25 NONAME ABSENT ; void HbInputCnListView::setShrinkRowCount(int)
	?shrinkRowCount@HbInputCnListView@@QBEHXZ @ 26 NONAME ABSENT ; int HbInputCnListView::shrinkRowCount(void) const
	?constructRanges@HbRangeBar@@QAEXABV?$QList@UHbRangePair@@@@@Z @ 27 NONAME ABSENT ; void HbRangeBar::constructRanges(class QList<struct HbRangePair> const &)
	?item@HbInputCnListModel@@QBE?AVQVariant@@H@Z @ 28 NONAME ABSENT ; class QVariant HbInputCnListModel::item(int) const
	?getStaticMetaObject@HbPreviewLabel@@SAABUQMetaObject@@XZ @ 29 NONAME ABSENT ; struct QMetaObject const & HbPreviewLabel::getStaticMetaObject(void)
	?metaObject@HbInputUsedSymbolPane@@UBEPBUQMetaObject@@XZ @ 30 NONAME ABSENT ; struct QMetaObject const * HbInputUsedSymbolPane::metaObject(void) const
	?getStaticMetaObject@HbInputCnKeypad@@SAABUQMetaObject@@XZ @ 31 NONAME ABSENT ; struct QMetaObject const & HbInputCnKeypad::getStaticMetaObject(void)
	?qt_metacast@HbTouchKeypadButton@@UAEPAXPBD@Z @ 32 NONAME ABSENT ; void * HbTouchKeypadButton::qt_metacast(char const *)
	?d_func@HbInputCnScrollKeypad@@ABEPBVHbInputCnScrollKeypadPrivate@@XZ @ 33 NONAME ABSENT ; class HbInputCnScrollKeypadPrivate const * HbInputCnScrollKeypad::d_func(void) const
	?lastCellIndexInPage@HbInputCnListCompositior@@QBEHH@Z @ 34 NONAME ABSENT ; int HbInputCnListCompositior::lastCellIndexInPage(int) const
	?paint@HbInputCnTchButton@@MAEXPAVQPainter@@PBVQStyleOptionGraphicsItem@@PAVQWidget@@@Z @ 35 NONAME ABSENT ; void HbInputCnTchButton::paint(class QPainter *, class QStyleOptionGraphicsItem const *, class QWidget *)
	?tr@HbInputSpell@@SA?AVQString@@PBD0H@Z @ 36 NONAME ABSENT ; class QString HbInputSpell::tr(char const *, char const *, int)
	?keypadButtonAreaSize@HbInputVkbWidget@@IAE?AVQSizeF@@XZ @ 37 NONAME ; class QSizeF HbInputVkbWidget::keypadButtonAreaSize(void)
	??1HbInputCnTouchListView@@UAE@XZ @ 38 NONAME ABSENT ; HbInputCnTouchListView::~HbInputCnTouchListView(void)
	?mouseReleaseEvent@HbInputUsedSymbolPane@@MAEXPAVQGraphicsSceneMouseEvent@@@Z @ 39 NONAME ABSENT ; void HbInputUsedSymbolPane::mouseReleaseEvent(class QGraphicsSceneMouseEvent *)
	??_EHbInputCnListCompositior@@UAE@I@Z @ 40 NONAME ABSENT ; HbInputCnListCompositior::~HbInputCnListCompositior(unsigned int)
	??1HbRange@@UAE@XZ @ 41 NONAME ABSENT ; HbRange::~HbRange(void)
	?boxEvent@HbWritingBox@@IAEXW4HbCnWidgetEventType@@VQVariant@@@Z @ 42 NONAME ABSENT ; void HbWritingBox::boxEvent(enum HbCnWidgetEventType, class QVariant)
	?qt_metacall@Hb12KeyTouchKeypad@@UAEHW4Call@QMetaObject@@HPAPAX@Z @ 43 NONAME ABSENT ; int Hb12KeyTouchKeypad::qt_metacall(enum QMetaObject::Call, int, void * *)
	?metaObject@HbCandidateList@@UBEPBUQMetaObject@@XZ @ 44 NONAME ; struct QMetaObject const * HbCandidateList::metaObject(void) const
	??_EHbInputCustomButtonList@@UAE@I@Z @ 45 NONAME ABSENT ; HbInputCustomButtonList::~HbInputCustomButtonList(unsigned int)
	?penColor@HbWritingBox@@QBE?AVQColor@@XZ @ 46 NONAME ABSENT ; class QColor HbWritingBox::penColor(void) const
	?selected@HbInputSettingDialog@@QAEXXZ @ 47 NONAME ABSENT ; void HbInputSettingDialog::selected(void)
	?mouseMoveEvent@HbTouchKeypadButton@@MAEXPAVQGraphicsSceneMouseEvent@@@Z @ 48 NONAME ABSENT ; void HbTouchKeypadButton::mouseMoveEvent(class QGraphicsSceneMouseEvent *)
	?enteredInNonStickyRegion@HbQwertyKeyboard@@AAEXXZ @ 49 NONAME ABSENT ; void HbQwertyKeyboard::enteredInNonStickyRegion(void)
	?setSct@HbInputSctLandscape@@QAEXW4HbSctView@1@_N@Z @ 50 NONAME ABSENT ; void HbInputSctLandscape::setSct(enum HbInputSctLandscape::HbSctView, bool)
	?setRange@HbRangeBar@@QAE_NH@Z @ 51 NONAME ABSENT ; bool HbRangeBar::setRange(int)
	?clear@HbInputCnModel@@QAEXXZ @ 52 NONAME ABSENT ; void HbInputCnModel::clear(void)
	?smileyText@HbInputCnTchButton@@QAE?AVQString@@XZ @ 53 NONAME ABSENT ; class QString HbInputCnTchButton::smileyText(void)
	?calculateCandiRectsInLine@HbInputCnListVItutCompositior@@AAE_NHABVQStringList@@HAAHAAV?$QVector@VQRectF@@@@@Z @ 54 NONAME ABSENT ; bool HbInputCnListVItutCompositior::calculateCandiRectsInLine(int, class QStringList const &, int, int &, class QVector<class QRectF> &)
	?aboutToClose@HbInputSctLandscape@@UAEXPAVHbVkbHost@@@Z @ 55 NONAME ABSENT ; void HbInputSctLandscape::aboutToClose(class HbVkbHost *)
	??_EHbInputUsedSymbolPane@@UAE@I@Z @ 56 NONAME ABSENT ; HbInputUsedSymbolPane::~HbInputUsedSymbolPane(unsigned int)
	?enableLongKeyPressEvents@HbInputSctLandscape@@UAEXAAV?$QList@H@@@Z @ 57 NONAME ABSENT ; void HbInputSctLandscape::enableLongKeyPressEvents(class QList<int> &)
	?tr@HbRangeBar@@SA?AVQString@@PBD0H@Z @ 58 NONAME ABSENT ; class QString HbRangeBar::tr(char const *, char const *, int)
	?getStaticMetaObject@HbInputVirtualRocker@@SAABUQMetaObject@@XZ @ 59 NONAME ; struct QMetaObject const & HbInputVirtualRocker::getStaticMetaObject(void)
	??1HbInputTabBar@@UAE@XZ @ 60 NONAME ABSENT ; HbInputTabBar::~HbInputTabBar(void)
	?setExpandedRowCount@HbInputCnListView@@QAEXH@Z @ 61 NONAME ABSENT ; void HbInputCnListView::setExpandedRowCount(int)
	?trUtf8@HbInputModeIndicator@@SA?AVQString@@PBD0H@Z @ 62 NONAME ; class QString HbInputModeIndicator::trUtf8(char const *, char const *, int)
	?tr@HbInputSctPortrait@@SA?AVQString@@PBD0@Z @ 63 NONAME ABSENT ; class QString HbInputSctPortrait::tr(char const *, char const *)
	?range@HbRangeBar@@AAEPAVHbRange@@H@Z @ 64 NONAME ABSENT ; class HbRange * HbRangeBar::range(int)
	?currentCandidate@HbCandidateList@@QAE?AVQString@@XZ @ 65 NONAME ; class QString HbCandidateList::currentCandidate(void)
	?keypadLayout@HbInputVkbWidget@@MAEPAVQGraphicsLayout@@XZ @ 66 NONAME ABSENT ; class QGraphicsLayout * HbInputVkbWidget::keypadLayout(void)
	?staticMetaObject@HbWritingBox@@2UQMetaObject@@B @ 67 NONAME ABSENT ; struct QMetaObject const HbWritingBox::staticMetaObject
	?selectionMode@HbInputVirtualRocker@@QBE?AW4RockerSelectionMode@1@XZ @ 68 NONAME ; enum HbInputVirtualRocker::RockerSelectionMode HbInputVirtualRocker::selectionMode(void) const
	?staticMetaObject@HbInputTabBar@@2UQMetaObject@@B @ 69 NONAME ABSENT ; struct QMetaObject const HbInputTabBar::staticMetaObject
	??1HbTouchKeypadButton@@UAE@XZ @ 70 NONAME ABSENT ; HbTouchKeypadButton::~HbTouchKeypadButton(void)
	?d_func@HbInputCnListModel@@AAEPAVHbInputCnListModelPrivate@@XZ @ 71 NONAME ABSENT ; class HbInputCnListModelPrivate * HbInputCnListModel::d_func(void)
	?setKeyboard@HbInputCnModel@@QAEXV?$QFlags@W4HbKeyboardTypeFlag@@@@@Z @ 72 NONAME ABSENT ; void HbInputCnModel::setKeyboard(class QFlags<enum HbKeyboardTypeFlag>)
	?metaObject@HbInputTabBar@@UBEPBUQMetaObject@@XZ @ 73 NONAME ABSENT ; struct QMetaObject const * HbInputTabBar::metaObject(void) const
	?getStaticMetaObject@HbWritingBox@@SAABUQMetaObject@@XZ @ 74 NONAME ABSENT ; struct QMetaObject const & HbWritingBox::getStaticMetaObject(void)
	?setKeycode@HbInputCnTchButton@@QAEXH@Z @ 75 NONAME ABSENT ; void HbInputCnTchButton::setKeycode(int)
	?resizeEvent@HbInputCnListView@@MAEXPAVQGraphicsSceneResizeEvent@@@Z @ 76 NONAME ABSENT ; void HbInputCnListView::resizeEvent(class QGraphicsSceneResizeEvent *)
	?cellIdxInPage@HbInputCnListCompositior@@IAEPAV?$QList@VHbCnListCellIndexInPage@@@@XZ @ 77 NONAME ABSENT ; class QList<class HbCnListCellIndexInPage> * HbInputCnListCompositior::cellIdxInPage(void)
	??0HbInputCnListCompositior@@IAE@AAVHbInputCnListCompositiorPrivate@@PAVHbInputCnListModel@@@Z @ 78 NONAME ABSENT ; HbInputCnListCompositior::HbInputCnListCompositior(class HbInputCnListCompositiorPrivate &, class HbInputCnListModel *)
	?metaObject@HbExactWordPopup@@UBEPBUQMetaObject@@XZ @ 79 NONAME ; struct QMetaObject const * HbExactWordPopup::metaObject(void) const
	??0HbInputSctPortrait@@QAE@PAVHbInputMethod@@PAVQGraphicsItem@@@Z @ 80 NONAME ABSENT ; HbInputSctPortrait::HbInputSctPortrait(class HbInputMethod *, class QGraphicsItem *)
	?metaObject@HbInputSpell@@UBEPBUQMetaObject@@XZ @ 81 NONAME ABSENT ; struct QMetaObject const * HbInputSpell::metaObject(void) const
	?metaObject@HbInputSctPortrait@@UBEPBUQMetaObject@@XZ @ 82 NONAME ABSENT ; struct QMetaObject const * HbInputSctPortrait::metaObject(void) const
	?metaObject@HbTouchKeypadButton@@UBEPBUQMetaObject@@XZ @ 83 NONAME ABSENT ; struct QMetaObject const * HbTouchKeypadButton::metaObject(void) const
	?trUtf8@HbRangeBar@@SA?AVQString@@PBD0@Z @ 84 NONAME ABSENT ; class QString HbRangeBar::trUtf8(char const *, char const *)
	?trUtf8@HbTouchKeypadButton@@SA?AVQString@@PBD0@Z @ 85 NONAME ABSENT ; class QString HbTouchKeypadButton::trUtf8(char const *, char const *)
	?qt_metacast@HbExactWordPopup@@UAEPAXPBD@Z @ 86 NONAME ; void * HbExactWordPopup::qt_metacast(char const *)
	?trUtf8@HbRangeBar@@SA?AVQString@@PBD0H@Z @ 87 NONAME ABSENT ; class QString HbRangeBar::trUtf8(char const *, char const *, int)
	?qt_metacall@HbRangeBar@@UAEHW4Call@QMetaObject@@HPAPAX@Z @ 88 NONAME ABSENT ; int HbRangeBar::qt_metacall(enum QMetaObject::Call, int, void * *)
	?trUtf8@HbInputCnTchButton@@SA?AVQString@@PBD0@Z @ 89 NONAME ABSENT ; class QString HbInputCnTchButton::trUtf8(char const *, char const *)
	?tr@HbInputCnTouchListView@@SA?AVQString@@PBD0@Z @ 90 NONAME ABSENT ; class QString HbInputCnTouchListView::tr(char const *, char const *)
	?d_func@HbInputSettingDialog@@ABEPBVHbInputSettingDialogPrivate@@XZ @ 91 NONAME ABSENT ; class HbInputSettingDialogPrivate const * HbInputSettingDialog::d_func(void) const
	?clearStrokes@HbWritingBox@@QAEXXZ @ 92 NONAME ABSENT ; void HbWritingBox::clearStrokes(void)
	?d_func@HbCandidateList@@AAEPAVHbCandidateListPrivate@@XZ @ 93 NONAME ; class HbCandidateListPrivate * HbCandidateList::d_func(void)
	?setBackgroundAttributes@HbTouchKeypadButton@@QAEXW4HbTouchButtonState@1@@Z @ 94 NONAME ABSENT ; void HbTouchKeypadButton::setBackgroundAttributes(enum HbTouchKeypadButton::HbTouchButtonState)
	?trUtf8@HbInputCnScrollKeypad@@SA?AVQString@@PBD0H@Z @ 95 NONAME ABSENT ; class QString HbInputCnScrollKeypad::trUtf8(char const *, char const *, int)
	?dismissPreviewPopup@HbInputCnListView@@IAEXXZ @ 96 NONAME ABSENT ; void HbInputCnListView::dismissPreviewPopup(void)
	?setMode@HbQwertyKeyboard@@UAEXW4HbKeypadMode@@@Z @ 97 NONAME ABSENT ; void HbQwertyKeyboard::setMode(enum HbKeypadMode)
	??_EHbTouchKeypadButton@@UAE@I@Z @ 98 NONAME ABSENT ; HbTouchKeypadButton::~HbTouchKeypadButton(unsigned int)
	?d_func@HbInputCnListCompositior@@AAEPAVHbInputCnListCompositiorPrivate@@XZ @ 99 NONAME ABSENT ; class HbInputCnListCompositiorPrivate * HbInputCnListCompositior::d_func(void)
	??_EHbInputCnListModel@@UAE@I@Z @ 100 NONAME ABSENT ; HbInputCnListModel::~HbInputCnListModel(unsigned int)
	?addStroke@HbInputCnModel@@QAE_NABV?$QList@VQPointF@@@@@Z @ 101 NONAME ABSENT ; bool HbInputCnModel::addStroke(class QList<class QPointF> const &)
	?mousePressEvent@HbInputVkbWidget@@MAEXPAVQGraphicsSceneMouseEvent@@@Z @ 102 NONAME ABSENT ; void HbInputVkbWidget::mousePressEvent(class QGraphicsSceneMouseEvent *)
	?mouseReleaseEvent@HbWritingBox@@MAEXPAVQGraphicsSceneMouseEvent@@@Z @ 103 NONAME ABSENT ; void HbWritingBox::mouseReleaseEvent(class QGraphicsSceneMouseEvent *)
	??1HbInputCustomButtonList@@UAE@XZ @ 104 NONAME ABSENT ; HbInputCustomButtonList::~HbInputCustomButtonList(void)
	?setMode@Hb12KeyTouchKeypad@@UAEXW4HbKeypadMode@@@Z @ 105 NONAME ABSENT ; void Hb12KeyTouchKeypad::setMode(enum HbKeypadMode)
	?notifyDataUpdated@HbInputCnListSpellModel@@UAEX_N@Z @ 106 NONAME ABSENT ; void HbInputCnListSpellModel::notifyDataUpdated(bool)
	??0HbInputCnListCandModel@@QAE@PAVQObject@@H@Z @ 107 NONAME ABSENT ; HbInputCnListCandModel::HbInputCnListCandModel(class QObject *, int)
	?setIndicatorArrow@HbExactWordPopup@@QAEXW4HbExactWordPopupIndicator@1@@Z @ 108 NONAME ; void HbExactWordPopup::setIndicatorArrow(enum HbExactWordPopup::HbExactWordPopupIndicator)
	?qt_metacall@HbInputCnListModel@@UAEHW4Call@QMetaObject@@HPAPAX@Z @ 109 NONAME ABSENT ; int HbInputCnListModel::qt_metacall(enum QMetaObject::Call, int, void * *)
	?trUtf8@HbInputCnKeypad@@SA?AVQString@@PBD0@Z @ 110 NONAME ABSENT ; class QString HbInputCnKeypad::trUtf8(char const *, char const *)
	?shape@HbInputVkbWidget@@MBE?AVQPainterPath@@XZ @ 111 NONAME ; class QPainterPath HbInputVkbWidget::shape(void) const
	??0HbExactWordPopup@@IAE@PAVQGraphicsWidget@@W4HbExactWordPopupIndicator@0@@Z @ 112 NONAME ; HbExactWordPopup::HbExactWordPopup(class QGraphicsWidget *, enum HbExactWordPopup::HbExactWordPopupIndicator)
	?setItemVerticalSpacing@HbInputCnListView@@QAEXM@Z @ 113 NONAME ABSENT ; void HbInputCnListView::setItemVerticalSpacing(float)
	?setGeometry@HbWritingBox@@UAEXABVQRectF@@@Z @ 114 NONAME ABSENT ; void HbWritingBox::setGeometry(class QRectF const &)
	?staticMetaObject@HbTouchKeypadButton@@2UQMetaObject@@B @ 115 NONAME ABSENT ; struct QMetaObject const HbTouchKeypadButton::staticMetaObject
	?d_func@HbInputVkbWidget@@AAEPAVHbInputVkbWidgetPrivate@@XZ @ 116 NONAME ; class HbInputVkbWidgetPrivate * HbInputVkbWidget::d_func(void)
	?tr@HbInputVkbWidget@@SA?AVQString@@PBD0@Z @ 117 NONAME ; class QString HbInputVkbWidget::tr(char const *, char const *)
	?staticMetaObject@HbCharPreviewPane@@2UQMetaObject@@B @ 118 NONAME ABSENT ; struct QMetaObject const HbCharPreviewPane::staticMetaObject
	?initialize@HbInputCnTouchListView@@IAEXXZ @ 119 NONAME ABSENT ; void HbInputCnTouchListView::initialize(void)
	?closeEvent@HbCandidateList@@MAEXPAVQCloseEvent@@@Z @ 120 NONAME ; void HbCandidateList::closeEvent(class QCloseEvent *)
	?getStaticMetaObject@HbInputModeIndicator@@SAABUQMetaObject@@XZ @ 121 NONAME ; struct QMetaObject const & HbInputModeIndicator::getStaticMetaObject(void)
	?showSettingsButtonPopup@HbInputVkbWidget@@QAEXXZ @ 122 NONAME ABSENT ; void HbInputVkbWidget::showSettingsButtonPopup(void)
	?keyboardMinimized@HbInputVkbWidget@@UAEXPAVHbVkbHost@@@Z @ 123 NONAME ; void HbInputVkbWidget::keyboardMinimized(class HbVkbHost *)
	?d_func@HbInputCnListVItutCompositior@@ABEPBVHbInputCnListVItutCompositiorPrivate@@XZ @ 124 NONAME ABSENT ; class HbInputCnListVItutCompositiorPrivate const * HbInputCnListVItutCompositior::d_func(void) const
	?trUtf8@HbCharPreviewPane@@SA?AVQString@@PBD0@Z @ 125 NONAME ABSENT ; class QString HbCharPreviewPane::trUtf8(char const *, char const *)
	?d_func@HbInputTabBar@@ABEPBVHbInputTabBarPrivate@@XZ @ 126 NONAME ABSENT ; class HbInputTabBarPrivate const * HbInputTabBar::d_func(void) const
	?setText@HbExactWordPopup@@QAEXABVQString@@@Z @ 127 NONAME ; void HbExactWordPopup::setText(class QString const &)
	?trUtf8@HbInputCnScrollKeypad@@SA?AVQString@@PBD0@Z @ 128 NONAME ABSENT ; class QString HbInputCnScrollKeypad::trUtf8(char const *, char const *)
	?listModel@HbInputCnListCompositior@@IAEPAVHbInputCnListModel@@XZ @ 129 NONAME ABSENT ; class HbInputCnListModel * HbInputCnListCompositior::listModel(void)
	?d_func@HbInputVirtualRocker@@AAEPAVHbInputVirtualRockerPrivate@@XZ @ 130 NONAME ; class HbInputVirtualRockerPrivate * HbInputVirtualRocker::d_func(void)
	?tr@HbInputCnListView@@SA?AVQString@@PBD0@Z @ 131 NONAME ABSENT ; class QString HbInputCnListView::tr(char const *, char const *)
	?trUtf8@HbTouchKeypadButton@@SA?AVQString@@PBD0H@Z @ 132 NONAME ABSENT ; class QString HbTouchKeypadButton::trUtf8(char const *, char const *, int)
	??0HbInputCustomButtonList@@QAE@AAV?$QList@PAVHbAction@@@@PAVHbInputVkbWidget@@PAVQGraphicsWidget@@@Z @ 133 NONAME ABSENT ; HbInputCustomButtonList::HbInputCustomButtonList(class QList<class HbAction *> &, class HbInputVkbWidget *, class QGraphicsWidget *)
	?setSizeAndPositionForAutoCompletion@HbCandidateList@@QAE_NPAVHbVkbHost@@@Z @ 134 NONAME ; bool HbCandidateList::setSizeAndPositionForAutoCompletion(class HbVkbHost *)
	?trUtf8@HbInputSctLandscape@@SA?AVQString@@PBD0@Z @ 135 NONAME ABSENT ; class QString HbInputSctLandscape::trUtf8(char const *, char const *)
	?setButtonRepeatEnabled@HbInputCnKeypad@@QAEXH_N@Z @ 136 NONAME ABSENT ; void HbInputCnKeypad::setButtonRepeatEnabled(int, bool)
	?metaObject@HbInputCnScrollKeypad@@UBEPBUQMetaObject@@XZ @ 137 NONAME ABSENT ; struct QMetaObject const * HbInputCnScrollKeypad::metaObject(void) const
	?enableLongKeyPressEvents@HbInputVkbWidget@@UAEXAAV?$QList@H@@@Z @ 138 NONAME ABSENT ; void HbInputVkbWidget::enableLongKeyPressEvents(class QList<int> &)
	?getStaticMetaObject@HbInputCnTouchListView@@SAABUQMetaObject@@XZ @ 139 NONAME ABSENT ; struct QMetaObject const & HbInputCnTouchListView::getStaticMetaObject(void)
	?compositior@HbInputCnListView@@QBEPAVHbInputCnListCompositior@@XZ @ 140 NONAME ABSENT ; class HbInputCnListCompositior * HbInputCnListView::compositior(void) const
	??_EHbExactWordPopup@@UAE@I@Z @ 141 NONAME ; HbExactWordPopup::~HbExactWordPopup(unsigned int)
	?qt_metacast@HbInputUsedSymbolPane@@UAEPAXPBD@Z @ 142 NONAME ABSENT ; void * HbInputUsedSymbolPane::qt_metacast(char const *)
	?onRangeActivated@HbRangeBar@@QAEXH@Z @ 143 NONAME ABSENT ; void HbRangeBar::onRangeActivated(int)
	?trUtf8@HbInputVkbWidget@@SA?AVQString@@PBD0H@Z @ 144 NONAME ; class QString HbInputVkbWidget::trUtf8(char const *, char const *, int)
	?hoverLeaveEvent@HbInputSpell@@MAEXPAVQGraphicsSceneHoverEvent@@@Z @ 145 NONAME ABSENT ; void HbInputSpell::hoverLeaveEvent(class QGraphicsSceneHoverEvent *)
	?qt_metacast@HbInputVkbWidget@@UAEPAXPBD@Z @ 146 NONAME ; void * HbInputVkbWidget::qt_metacast(char const *)
	??1HbWritingBox@@UAE@XZ @ 147 NONAME ABSENT ; HbWritingBox::~HbWritingBox(void)
	??0HbInputCnScrollKeypad@@QAE@ABUHbCnKeypadConfigure@@PAVQGraphicsItem@@@Z @ 148 NONAME ABSENT ; HbInputCnScrollKeypad::HbInputCnScrollKeypad(struct HbCnKeypadConfigure const &, class QGraphicsItem *)
	??_EHbInputSctLandscape@@UAE@I@Z @ 149 NONAME ABSENT ; HbInputSctLandscape::~HbInputSctLandscape(unsigned int)
	?setInputSequence@HbInputCnModel@@QAE_NABV?$QVector@H@@V?$QFlags@W4KeyboardModifier@Qt@@@@@Z @ 150 NONAME ABSENT ; bool HbInputCnModel::setInputSequence(class QVector<int> const &, class QFlags<enum Qt::KeyboardModifier>)
	?setText@HbInputCnTchButton@@QAEXABVQString@@@Z @ 151 NONAME ABSENT ; void HbInputCnTchButton::setText(class QString const &)
	?noMoreData@HbInputCnListModel@@QBE_NXZ @ 152 NONAME ABSENT ; bool HbInputCnListModel::noMoreData(void) const
	?notifyDataUpdated@HbInputCnListHwrPredictCandModel@@UAEX_N@Z @ 153 NONAME ABSENT ; void HbInputCnListHwrPredictCandModel::notifyDataUpdated(bool)
	??0HbInputKeypadReader@@AAE@XZ @ 154 NONAME ABSENT ; HbInputKeypadReader::HbInputKeypadReader(void)
	?text@HbExactWordPopup@@QAE?AVQString@@XZ @ 155 NONAME ; class QString HbExactWordPopup::text(void)
	?setPenWidth@HbWritingBox@@QAEXH@Z @ 156 NONAME ABSENT ; void HbWritingBox::setPenWidth(int)
	?metaObject@HbInputCnListView@@UBEPBUQMetaObject@@XZ @ 157 NONAME ABSENT ; struct QMetaObject const * HbInputCnListView::metaObject(void) const
	?tr@HbInputVirtualRocker@@SA?AVQString@@PBD0@Z @ 158 NONAME ; class QString HbInputVirtualRocker::tr(char const *, char const *)
	?setOwner@HbInputCnListCompositior@@QAEXPAVHbInputCnListView@@@Z @ 159 NONAME ABSENT ; void HbInputCnListCompositior::setOwner(class HbInputCnListView *)
	?getStaticMetaObject@HbCharPreviewPane@@SAABUQMetaObject@@XZ @ 160 NONAME ABSENT ; struct QMetaObject const & HbCharPreviewPane::getStaticMetaObject(void)
	?executeMethodDialog@HbInputVkbWidget@@QAEXXZ @ 161 NONAME ; void HbInputVkbWidget::executeMethodDialog(void)
	??1HbRangeBar@@UAE@XZ @ 162 NONAME ABSENT ; HbRangeBar::~HbRangeBar(void)
	??1HbInputSpell@@UAE@XZ @ 163 NONAME ABSENT ; HbInputSpell::~HbInputSpell(void)
	?d_func@HbInputCnListModel@@ABEPBVHbInputCnListModelPrivate@@XZ @ 164 NONAME ABSENT ; class HbInputCnListModelPrivate const * HbInputCnListModel::d_func(void) const
	?metaObject@HbInputSettingDialog@@UBEPBUQMetaObject@@XZ @ 165 NONAME ABSENT ; struct QMetaObject const * HbInputSettingDialog::metaObject(void) const
	?init@HbWritingBox@@AAEXXZ @ 166 NONAME ABSENT ; void HbWritingBox::init(void)
	?isStickyButton@HbTouchKeypadButton@@QBE_NXZ @ 167 NONAME ABSENT ; bool HbTouchKeypadButton::isStickyButton(void) const
	?tr@HbInputCnTchButton@@SA?AVQString@@PBD0@Z @ 168 NONAME ABSENT ; class QString HbInputCnTchButton::tr(char const *, char const *)
	?itemInternalLeftMargin@HbInputCnListView@@QBEMXZ @ 169 NONAME ABSENT ; float HbInputCnListView::itemInternalLeftMargin(void) const
	?setText@HbTouchKeypadButton@@UAEXABVQString@@@Z @ 170 NONAME ABSENT ; void HbTouchKeypadButton::setText(class QString const &)
	?d_func@HbInputCnListVItutCompositior@@AAEPAVHbInputCnListVItutCompositiorPrivate@@XZ @ 171 NONAME ABSENT ; class HbInputCnListVItutCompositiorPrivate * HbInputCnListVItutCompositior::d_func(void)
	??0HbInputSctLandscape@@QAE@PAVHbInputMethod@@PAVHbKeyMapData@@PAVQGraphicsItem@@@Z @ 172 NONAME ABSENT ; HbInputSctLandscape::HbInputSctLandscape(class HbInputMethod *, class HbKeyMapData *, class QGraphicsItem *)
	?d_func@HbInputCnKeypad@@AAEPAVHbInputCnKeypadPrivate@@XZ @ 173 NONAME ABSENT ; class HbInputCnKeypadPrivate * HbInputCnKeypad::d_func(void)
	?updatePrimitives@HbCharPreviewPane@@UAEXXZ @ 174 NONAME ABSENT ; void HbCharPreviewPane::updatePrimitives(void)
	?multitapText@HbInputCnTchButton@@QAE?AVQString@@XZ @ 175 NONAME ABSENT ; class QString HbInputCnTchButton::multitapText(void)
	?getStaticMetaObject@HbRange@@SAABUQMetaObject@@XZ @ 176 NONAME ABSENT ; struct QMetaObject const & HbRange::getStaticMetaObject(void)
	?notifyDataUpdated@HbInputCnListPreSymbolModel@@UAEX_N@Z @ 177 NONAME ABSENT ; void HbInputCnListPreSymbolModel::notifyDataUpdated(bool)
	?keyboardType@Hb12KeyTouchKeypad@@UBE?AV?$QFlags@W4HbKeyboardTypeFlag@@@@XZ @ 178 NONAME ABSENT ; class QFlags<enum HbKeyboardTypeFlag> Hb12KeyTouchKeypad::keyboardType(void) const
	??1HbInputCnListSpellModel@@UAE@XZ @ 179 NONAME ABSENT ; HbInputCnListSpellModel::~HbInputCnListSpellModel(void)
	??_EHbInputSpell@@UAE@I@Z @ 180 NONAME ABSENT ; HbInputSpell::~HbInputSpell(unsigned int)
	?readKeys@HbInputKeypadReader@@AAEXPAV?$QList@UHbCnVirtualKey@@@@@Z @ 181 NONAME ABSENT ; void HbInputKeypadReader::readKeys(class QList<struct HbCnVirtualKey> *)
	?paint@HbInputSpell@@MAEXPAVQPainter@@PBVQStyleOptionGraphicsItem@@PAVQWidget@@@Z @ 182 NONAME ABSENT ; void HbInputSpell::paint(class QPainter *, class QStyleOptionGraphicsItem const *, class QWidget *)
	??_EHbInputCnListPreCandModel@@UAE@I@Z @ 183 NONAME ABSENT ; HbInputCnListPreCandModel::~HbInputCnListPreCandModel(unsigned int)
	??0HbInputCnTchButton@@QAE@HABVQString@@PAVQGraphicsItem@@@Z @ 184 NONAME ABSENT ; HbInputCnTchButton::HbInputCnTchButton(int, class QString const &, class QGraphicsItem *)
	?tabCount@HbInputTabBar@@QAEHXZ @ 185 NONAME ABSENT ; int HbInputTabBar::tabCount(void)
	?alignment@HbInputSpell@@QBE?AV?$QFlags@W4AlignmentFlag@Qt@@@@XZ @ 186 NONAME ABSENT ; class QFlags<enum Qt::AlignmentFlag> HbInputSpell::alignment(void) const
	?trUtf8@HbInputCnKeypad@@SA?AVQString@@PBD0H@Z @ 187 NONAME ABSENT ; class QString HbInputCnKeypad::trUtf8(char const *, char const *, int)
	?expandList@HbInputCnTouchListView@@QAEXXZ @ 188 NONAME ABSENT ; void HbInputCnTouchListView::expandList(void)
	?rangeEvent@HbRangeBar@@IAEXW4HbCnWidgetEventType@@VQVariant@@@Z @ 189 NONAME ABSENT ; void HbRangeBar::rangeEvent(enum HbCnWidgetEventType, class QVariant)
	?qt_metacast@HbInputSettingDialog@@UAEPAXPBD@Z @ 190 NONAME ABSENT ; void * HbInputSettingDialog::qt_metacast(char const *)
	?setKeyMapData@HbInputSctLandscape@@UAEXPAVHbKeyMapData@@@Z @ 191 NONAME ABSENT ; void HbInputSctLandscape::setKeyMapData(class HbKeyMapData *)
	?maxColumnCount@HbInputCnListView@@QBEHXZ @ 192 NONAME ABSENT ; int HbInputCnListView::maxColumnCount(void) const
	??_EHbInputCnListPreSymbolModel@@UAE@I@Z @ 193 NONAME ABSENT ; HbInputCnListPreSymbolModel::~HbInputCnListPreSymbolModel(unsigned int)
	?sctCharacterSelected@HbInputUsedSymbolPane@@IAEXVQChar@@@Z @ 194 NONAME ABSENT ; void HbInputUsedSymbolPane::sctCharacterSelected(class QChar)
	?d_func@HbInputCnTchButton@@AAEPAVHbInputCnTchButtonPrivate@@XZ @ 195 NONAME ABSENT ; class HbInputCnTchButtonPrivate * HbInputCnTchButton::d_func(void)
	?mousePressEvent@HbInputVirtualRocker@@MAEXPAVQGraphicsSceneMouseEvent@@@Z @ 196 NONAME ; void HbInputVirtualRocker::mousePressEvent(class QGraphicsSceneMouseEvent *)
	?tr@HbInputSpell@@SA?AVQString@@PBD0@Z @ 197 NONAME ABSENT ; class QString HbInputSpell::tr(char const *, char const *)
	?elideMode@HbInputSpell@@QBE?AW4TextElideMode@Qt@@XZ @ 198 NONAME ABSENT ; enum Qt::TextElideMode HbInputSpell::elideMode(void) const
	?primaryLanguageChanged@HbInputSettingDialog@@QAEXH@Z @ 199 NONAME ABSENT ; void HbInputSettingDialog::primaryLanguageChanged(int)
	?selectACand@HbInputCnModel@@QAE_NVQString@@@Z @ 200 NONAME ABSENT ; bool HbInputCnModel::selectACand(class QString)
	?shrinkButtonClicked@HbInputCnTouchListView@@AAEXXZ @ 201 NONAME ABSENT ; void HbInputCnTouchListView::shrinkButtonClicked(void)
	?staticMetaObject@HbRange@@2UQMetaObject@@B @ 202 NONAME ABSENT ; struct QMetaObject const HbRange::staticMetaObject
	?removeTab@HbInputTabBar@@QAEXH@Z @ 203 NONAME ABSENT ; void HbInputTabBar::removeTab(int)
	?qt_metacast@HbQwertyKeyboard@@UAEPAXPBD@Z @ 204 NONAME ABSENT ; void * HbQwertyKeyboard::qt_metacast(char const *)
	?d_func@HbInputTabBar@@AAEPAVHbInputTabBarPrivate@@XZ @ 205 NONAME ABSENT ; class HbInputTabBarPrivate * HbInputTabBar::d_func(void)
	?RemovePenTraceDecorator@HbWritingBox@@QAEXXZ @ 206 NONAME ABSENT ; void HbWritingBox::RemovePenTraceDecorator(void)
	?staticMetaObject@HbInputCustomButtonList@@2UQMetaObject@@B @ 207 NONAME ABSENT ; struct QMetaObject const HbInputCustomButtonList::staticMetaObject
	?metaObject@HbRangeBar@@UBEPBUQMetaObject@@XZ @ 208 NONAME ABSENT ; struct QMetaObject const * HbRangeBar::metaObject(void) const
	??_EHbInputModeIndicator@@UAE@I@Z @ 209 NONAME ; HbInputModeIndicator::~HbInputModeIndicator(unsigned int)
	?expireTimer@HbInputCnKeypad@@QAEXXZ @ 210 NONAME ABSENT ; void HbInputCnKeypad::expireTimer(void)
	?constructPageRectInfo@HbInputCnListVItutCompositior@@UAEXXZ @ 211 NONAME ABSENT ; void HbInputCnListVItutCompositior::constructPageRectInfo(void)
	?listDrawInfoByCandidates@HbInputCnListCompositior@@QAE?AV?$QVector@VHbCnListCandiDrawInfo@@@@HH@Z @ 212 NONAME ABSENT ; class QVector<class HbCnListCandiDrawInfo> HbInputCnListCompositior::listDrawInfoByCandidates(int, int)
	?d_func@HbInputCnTouchListView@@AAEPAVHbInputCnTouchListViewPrivate@@XZ @ 213 NONAME ABSENT ; class HbInputCnTouchListViewPrivate * HbInputCnTouchListView::d_func(void)
	?closeSettingsButtonPopup@HbInputVkbWidget@@QAEXXZ @ 214 NONAME ABSENT ; void HbInputVkbWidget::closeSettingsButtonPopup(void)
	?tr@HbInputModeIndicator@@SA?AVQString@@PBD0@Z @ 215 NONAME ; class QString HbInputModeIndicator::tr(char const *, char const *)
	?staticMetaObject@HbCandidateList@@2UQMetaObject@@B @ 216 NONAME ; struct QMetaObject const HbCandidateList::staticMetaObject
	?qt_metacast@HbInputCnTchButton@@UAEPAXPBD@Z @ 217 NONAME ABSENT ; void * HbInputCnTchButton::qt_metacast(char const *)
	?trUtf8@HbInputCnListView@@SA?AVQString@@PBD0H@Z @ 218 NONAME ABSENT ; class QString HbInputCnListView::trUtf8(char const *, char const *, int)
	?mousePressEvent@HbInputSpell@@MAEXPAVQGraphicsSceneMouseEvent@@@Z @ 219 NONAME ABSENT ; void HbInputSpell::mousePressEvent(class QGraphicsSceneMouseEvent *)
	?qt_metacast@HbInputVirtualRocker@@UAEPAXPBD@Z @ 220 NONAME ; void * HbInputVirtualRocker::qt_metacast(char const *)
	?tr@HbInputSctLandscape@@SA?AVQString@@PBD0H@Z @ 221 NONAME ABSENT ; class QString HbInputSctLandscape::tr(char const *, char const *, int)
	?qt_metacast@HbInputCnListModel@@UAEPAXPBD@Z @ 222 NONAME ABSENT ; void * HbInputCnListModel::qt_metacast(char const *)
	?expandedRowCount@HbInputCnListView@@QBEHXZ @ 223 NONAME ABSENT ; int HbInputCnListView::expandedRowCount(void) const
	?qt_metacall@HbWritingBox@@UAEHW4Call@QMetaObject@@HPAPAX@Z @ 224 NONAME ABSENT ; int HbWritingBox::qt_metacall(enum QMetaObject::Call, int, void * *)
	?listItemWidget@HbInputCnListView@@IBEPAVHbInputCnListItemsWidget@@XZ @ 225 NONAME ABSENT ; class HbInputCnListItemsWidget * HbInputCnListView::listItemWidget(void) const
	?metaObject@HbInputCnKeypad@@UBEPBUQMetaObject@@XZ @ 226 NONAME ABSENT ; struct QMetaObject const * HbInputCnKeypad::metaObject(void) const
	?checkPageButtonStatus@HbInputCnTouchListView@@IAEXXZ @ 227 NONAME ABSENT ; void HbInputCnTouchListView::checkPageButtonStatus(void)
	?d_func@HbTouchKeypadButton@@AAEPAVHbTouchKeypadButtonPrivate@@XZ @ 228 NONAME ABSENT ; class HbTouchKeypadButtonPrivate * HbTouchKeypadButton::d_func(void)
	?isLatched@HbTouchKeypadButton@@QBE_NXZ @ 229 NONAME ABSENT ; bool HbTouchKeypadButton::isLatched(void) const
	?trUtf8@HbInputCustomButtonList@@SA?AVQString@@PBD0H@Z @ 230 NONAME ABSENT ; class QString HbInputCustomButtonList::trUtf8(char const *, char const *, int)
	?tr@HbExactWordPopup@@SA?AVQString@@PBD0@Z @ 231 NONAME ; class QString HbExactWordPopup::tr(char const *, char const *)
	??_EHb12KeyTouchKeypad@@UAE@I@Z @ 232 NONAME ABSENT ; Hb12KeyTouchKeypad::~Hb12KeyTouchKeypad(unsigned int)
	??_EHbWritingBox@@UAE@I@Z @ 233 NONAME ABSENT ; HbWritingBox::~HbWritingBox(unsigned int)
	?qt_metacall@HbRange@@UAEHW4Call@QMetaObject@@HPAPAX@Z @ 234 NONAME ABSENT ; int HbRange::qt_metacall(enum QMetaObject::Call, int, void * *)
	?pageUpButtonClicked@HbInputCnTouchListView@@AAEXXZ @ 235 NONAME ABSENT ; void HbInputCnTouchListView::pageUpButtonClicked(void)
	?keyboardType@HbQwertyKeyboard@@UBE?AV?$QFlags@W4HbKeyboardTypeFlag@@@@XZ @ 236 NONAME ABSENT ; class QFlags<enum HbKeyboardTypeFlag> HbQwertyKeyboard::keyboardType(void) const
	?sctSmileySelected@HbInputSctLandscape@@IAEXVHbIcon@@@Z @ 237 NONAME ABSENT ; void HbInputSctLandscape::sctSmileySelected(class HbIcon)
	?isCandExistInPredictEng@HbInputCnModel@@QAE_NH@Z @ 238 NONAME ABSENT ; bool HbInputCnModel::isCandExistInPredictEng(int)
	?qt_metacast@HbInputCnListView@@UAEPAXPBD@Z @ 239 NONAME ABSENT ; void * HbInputCnListView::qt_metacast(char const *)
	?metaObject@HbInputModeIndicator@@UBEPBUQMetaObject@@XZ @ 240 NONAME ; struct QMetaObject const * HbInputModeIndicator::metaObject(void) const
	?staticMetaObject@HbInputCnTouchListView@@2UQMetaObject@@B @ 241 NONAME ABSENT ; struct QMetaObject const HbInputCnTouchListView::staticMetaObject
	??_EHbInputVkbWidget@@UAE@I@Z @ 242 NONAME ; HbInputVkbWidget::~HbInputVkbWidget(unsigned int)
	?textColor@HbInputSpell@@QBE?AVQColor@@XZ @ 243 NONAME ABSENT ; class QColor HbInputSpell::textColor(void) const
	?qt_metacast@HbInputTabBar@@UAEPAXPBD@Z @ 244 NONAME ABSENT ; void * HbInputTabBar::qt_metacast(char const *)
	?listDrawInfoByPages@HbInputCnListCompositior@@QAE?AV?$QVector@VHbCnListCandiDrawInfo@@@@HH@Z @ 245 NONAME ABSENT ; class QVector<class HbCnListCandiDrawInfo> HbInputCnListCompositior::listDrawInfoByPages(int, int)
	?enteredInNonStickyRegion@HbTouchKeypadButton@@IAEXXZ @ 246 NONAME ABSENT ; void HbTouchKeypadButton::enteredInNonStickyRegion(void)
	?text@HbInputSpell@@QBEABVQString@@XZ @ 247 NONAME ABSENT ; class QString const & HbInputSpell::text(void) const
	?isRockerVisible@HbInputVkbWidget@@UBE_NXZ @ 248 NONAME ; bool HbInputVkbWidget::isRockerVisible(void) const
	?sendKeypadEvent@HbInputCnScrollKeypad@@AAEXW4HbCnWidgetEventType@@HVQChar@@@Z @ 249 NONAME ABSENT ; void HbInputCnScrollKeypad::sendKeypadEvent(enum HbCnWidgetEventType, int, class QChar)
	?inputMode@HbInputCnModel@@QAE?AV?$QFlags@W4HbInputModeTypeFlag@@@@XZ @ 250 NONAME ABSENT ; class QFlags<enum HbInputModeTypeFlag> HbInputCnModel::inputMode(void)
	?candsListFromPredictEng@HbInputCnModel@@QAEXHHAAVQStringList@@@Z @ 251 NONAME ABSENT ; void HbInputCnModel::candsListFromPredictEng(int, int, class QStringList &)
	?predictInputLang@HbInputCnModel@@QAE?AVHbInputLanguage@@XZ @ 252 NONAME ABSENT ; class HbInputLanguage HbInputCnModel::predictInputLang(void)
	?staticMetaObject@HbExactWordPopup@@2UQMetaObject@@B @ 253 NONAME ; struct QMetaObject const HbExactWordPopup::staticMetaObject
	?expandButtonClicked@HbInputCnTouchListView@@AAEXXZ @ 254 NONAME ABSENT ; void HbInputCnTouchListView::expandButtonClicked(void)
	?trUtf8@HbInputSpell@@SA?AVQString@@PBD0@Z @ 255 NONAME ABSENT ; class QString HbInputSpell::trUtf8(char const *, char const *)
	?trUtf8@HbPreviewLabel@@SA?AVQString@@PBD0H@Z @ 256 NONAME ABSENT ; class QString HbPreviewLabel::trUtf8(char const *, char const *, int)
	?aboutToOpen@HbInputVkbWidget@@UAEXPAVHbVkbHost@@@Z @ 257 NONAME ; void HbInputVkbWidget::aboutToOpen(class HbVkbHost *)
	?qt_metacast@HbCandidateList@@UAEPAXPBD@Z @ 258 NONAME ; void * HbCandidateList::qt_metacast(char const *)
	?qt_metacall@HbInputSettingDialog@@UAEHW4Call@QMetaObject@@HPAPAX@Z @ 259 NONAME ABSENT ; int HbInputSettingDialog::qt_metacall(enum QMetaObject::Call, int, void * *)
	?tr@HbExactWordPopup@@SA?AVQString@@PBD0H@Z @ 260 NONAME ; class QString HbExactWordPopup::tr(char const *, char const *, int)
	?configureKeypadPos@HbInputCnScrollKeypad@@QAEXABUHbCnKeypadPosInfo@@@Z @ 261 NONAME ABSENT ; void HbInputCnScrollKeypad::configureKeypadPos(struct HbCnKeypadPosInfo const &)
	?qt_metacall@HbInputCnKeypad@@UAEHW4Call@QMetaObject@@HPAPAX@Z @ 262 NONAME ABSENT ; int HbInputCnKeypad::qt_metacall(enum QMetaObject::Call, int, void * *)
	?spell@HbInputCnModel@@QAEXHAAVQString@@@Z @ 263 NONAME ABSENT ; void HbInputCnModel::spell(int, class QString &)
	??0HbInputTabBar@@QAE@PAVHbInputVkbWidget@@PAVQGraphicsItem@@@Z @ 264 NONAME ABSENT ; HbInputTabBar::HbInputTabBar(class HbInputVkbWidget *, class QGraphicsItem *)
	?asGraphicsWidget@HbInputVkbWidget@@UAEPAVQGraphicsWidget@@XZ @ 265 NONAME ; class QGraphicsWidget * HbInputVkbWidget::asGraphicsWidget(void)
	??0HbInputCnListModel@@IAE@AAVHbInputCnListModelPrivate@@@Z @ 266 NONAME ABSENT ; HbInputCnListModel::HbInputCnListModel(class HbInputCnListModelPrivate &)
	?qt_metacall@HbInputVirtualRocker@@UAEHW4Call@QMetaObject@@HPAPAX@Z @ 267 NONAME ; int HbInputVirtualRocker::qt_metacall(enum QMetaObject::Call, int, void * *)
	?characterFinished@HbWritingBox@@QAEXXZ @ 268 NONAME ABSENT ; void HbWritingBox::characterFinished(void)
	??_EHbInputCnScrollKeypad@@UAE@I@Z @ 269 NONAME ABSENT ; HbInputCnScrollKeypad::~HbInputCnScrollKeypad(unsigned int)
	?notifyDataUpdated@HbInputCnListCandModel@@UAEX_N@Z @ 270 NONAME ABSENT ; void HbInputCnListCandModel::notifyDataUpdated(bool)
	??1Hb12KeyTouchKeypad@@UAE@XZ @ 271 NONAME ABSENT ; Hb12KeyTouchKeypad::~Hb12KeyTouchKeypad(void)
	?rockerDirection@HbInputVirtualRocker@@IAEXHW4RockerSelectionMode@1@@Z @ 272 NONAME ; void HbInputVirtualRocker::rockerDirection(int, enum HbInputVirtualRocker::RockerSelectionMode)
	?getStaticMetaObject@HbInputSettingDialog@@SAABUQMetaObject@@XZ @ 273 NONAME ABSENT ; struct QMetaObject const & HbInputSettingDialog::getStaticMetaObject(void)
	?virtualButtonReleased@HbInputCnKeypad@@QAEXH@Z @ 274 NONAME ABSENT ; void HbInputCnKeypad::virtualButtonReleased(int)
	??1HbInputSctLandscape@@UAE@XZ @ 275 NONAME ABSENT ; HbInputSctLandscape::~HbInputSctLandscape(void)
	?setStrokeEndMark@HbWritingBox@@QAEXVQPointF@@@Z @ 276 NONAME ABSENT ; void HbWritingBox::setStrokeEndMark(class QPointF)
	?paint@HbInputVkbWidget@@MAEXPAVQPainter@@PBVQStyleOptionGraphicsItem@@PAVQWidget@@@Z @ 277 NONAME ; void HbInputVkbWidget::paint(class QPainter *, class QStyleOptionGraphicsItem const *, class QWidget *)
	?setListTextFont@HbInputCnListView@@QAEXABVQFont@@@Z @ 278 NONAME ABSENT ; void HbInputCnListView::setListTextFont(class QFont const &)
	?setModifiers@HbInputVkbWidget@@UAEXV?$QFlags@W4HbModifier@@@@@Z @ 279 NONAME ABSENT ; void HbInputVkbWidget::setModifiers(class QFlags<enum HbModifier>)
	?setKeyMapData@HbInputVkbWidget@@UAEXPAVHbKeyMapData@@@Z @ 280 NONAME ABSENT ; void HbInputVkbWidget::setKeyMapData(class HbKeyMapData *)
	?supportedLanguages@HbInputCnModel@@QBEPBV?$QVector@VHbInputLanguage@@@@XZ @ 281 NONAME ABSENT ; class QVector<class HbInputLanguage> const * HbInputCnModel::supportedLanguages(void) const
	??0HbInputCnKeypad@@IAE@AAVHbInputCnKeypadPrivate@@ABUHbCnKeypadConfigure@@PAVQGraphicsItem@@@Z @ 282 NONAME ABSENT ; HbInputCnKeypad::HbInputCnKeypad(class HbInputCnKeypadPrivate &, struct HbCnKeypadConfigure const &, class QGraphicsItem *)
	?d_func@HbInputCnTchButton@@ABEPBVHbInputCnTchButtonPrivate@@XZ @ 283 NONAME ABSENT ; class HbInputCnTchButtonPrivate const * HbInputCnTchButton::d_func(void) const
	??0HbTouchKeypadButton@@QAE@PAVHbInputVkbWidget@@ABVQString@@1PAVQGraphicsWidget@@@Z @ 284 NONAME ABSENT ; HbTouchKeypadButton::HbTouchKeypadButton(class HbInputVkbWidget *, class QString const &, class QString const &, class QGraphicsWidget *)
	?d_func@HbInputSctLandscape@@AAEPAVHbInputSctLandscapePrivate@@XZ @ 285 NONAME ABSENT ; class HbInputSctLandscapePrivate * HbInputSctLandscape::d_func(void)
	?trUtf8@HbInputSpell@@SA?AVQString@@PBD0H@Z @ 286 NONAME ABSENT ; class QString HbInputSpell::trUtf8(char const *, char const *, int)
	?rangeVal@HbRange@@QBEHXZ @ 287 NONAME ABSENT ; int HbRange::rangeVal(void) const
	?getStaticMetaObject@HbInputSpell@@SAABUQMetaObject@@XZ @ 288 NONAME ABSENT ; struct QMetaObject const & HbInputSpell::getStaticMetaObject(void)
	?setFade@HbRange@@QAEX_N@Z @ 289 NONAME ABSENT ; void HbRange::setFade(bool)
	?releaseButton@HbInputCnTchButton@@QAEX_N@Z @ 290 NONAME ABSENT ; void HbInputCnTchButton::releaseButton(bool)
	?setRockerVisible@HbInputVkbWidget@@UAEX_N@Z @ 291 NONAME ; void HbInputVkbWidget::setRockerVisible(bool)
	?qt_metacall@HbInputCnTchButton@@UAEHW4Call@QMetaObject@@HPAPAX@Z @ 292 NONAME ABSENT ; int HbInputCnTchButton::qt_metacall(enum QMetaObject::Call, int, void * *)
	?hoverEnterEvent@HbInputSpell@@MAEXPAVQGraphicsSceneHoverEvent@@@Z @ 293 NONAME ABSENT ; void HbInputSpell::hoverEnterEvent(class QGraphicsSceneHoverEvent *)
	?tr@HbInputCnListView@@SA?AVQString@@PBD0H@Z @ 294 NONAME ABSENT ; class QString HbInputCnListView::tr(char const *, char const *, int)
	??1HbInputCnListPreCandModel@@UAE@XZ @ 295 NONAME ABSENT ; HbInputCnListPreCandModel::~HbInputCnListPreCandModel(void)
	?setKeyMapData@HbQwertyKeyboard@@UAEXPAVHbKeyMapData@@@Z @ 296 NONAME ABSENT ; void HbQwertyKeyboard::setKeyMapData(class HbKeyMapData *)
	?d_func@HbInputCnListCompositior@@ABEPBVHbInputCnListCompositiorPrivate@@XZ @ 297 NONAME ABSENT ; class HbInputCnListCompositiorPrivate const * HbInputCnListCompositior::d_func(void) const
	??_EHbCharPreviewPane@@UAE@I@Z @ 298 NONAME ABSENT ; HbCharPreviewPane::~HbCharPreviewPane(unsigned int)
	??_EHbInputCnListSpellModel@@UAE@I@Z @ 299 NONAME ABSENT ; HbInputCnListSpellModel::~HbInputCnListSpellModel(unsigned int)
	?type@HbInputVkbWidget@@MBEHXZ @ 300 NONAME ; int HbInputVkbWidget::type(void) const
	?d_func@HbInputVkbWidget@@ABEPBVHbInputVkbWidgetPrivate@@XZ @ 301 NONAME ; class HbInputVkbWidgetPrivate const * HbInputVkbWidget::d_func(void) const
	?qt_metacast@HbInputCustomButtonList@@UAEPAXPBD@Z @ 302 NONAME ABSENT ; void * HbInputCustomButtonList::qt_metacast(char const *)
	?qt_metacall@HbInputCnTouchListView@@UAEHW4Call@QMetaObject@@HPAPAX@Z @ 303 NONAME ABSENT ; int HbInputCnTouchListView::qt_metacall(enum QMetaObject::Call, int, void * *)
	??1HbInputSettingDialog@@UAE@XZ @ 304 NONAME ABSENT ; HbInputSettingDialog::~HbInputSettingDialog(void)
	?aboutToOpen@Hb12KeyTouchKeypad@@UAEXPAVHbVkbHost@@@Z @ 305 NONAME ABSENT ; void Hb12KeyTouchKeypad::aboutToOpen(class HbVkbHost *)
	?qt_metacall@HbInputTabBar@@UAEHW4Call@QMetaObject@@HPAPAX@Z @ 306 NONAME ABSENT ; int HbInputTabBar::qt_metacall(enum QMetaObject::Call, int, void * *)
	?qt_metacall@HbCharPreviewPane@@UAEHW4Call@QMetaObject@@HPAPAX@Z @ 307 NONAME ABSENT ; int HbCharPreviewPane::qt_metacall(enum QMetaObject::Call, int, void * *)
	?tr@HbQwertyKeyboard@@SA?AVQString@@PBD0@Z @ 308 NONAME ABSENT ; class QString HbQwertyKeyboard::tr(char const *, char const *)
	?qt_metacall@HbInputSctPortrait@@UAEHW4Call@QMetaObject@@HPAPAX@Z @ 309 NONAME ABSENT ; int HbInputSctPortrait::qt_metacall(enum QMetaObject::Call, int, void * *)
	?threshold@HbInputCnListModel@@QBEHXZ @ 310 NONAME ABSENT ; int HbInputCnListModel::threshold(void) const
	?sizeHint@HbInputSpell@@MBE?AVQSizeF@@W4SizeHint@Qt@@ABV2@@Z @ 311 NONAME ABSENT ; class QSizeF HbInputSpell::sizeHint(enum Qt::SizeHint, class QSizeF const &) const
	?metaObject@HbInputVkbWidget@@UBEPBUQMetaObject@@XZ @ 312 NONAME ; struct QMetaObject const * HbInputVkbWidget::metaObject(void) const
	?selectACand@HbInputCnModel@@QAE_NH@Z @ 313 NONAME ABSENT ; bool HbInputCnModel::selectACand(int)
	?updateIndicator@HbInputModeIndicator@@QAEXXZ @ 314 NONAME ; void HbInputModeIndicator::updateIndicator(void)
	??_EHbInputCnListView@@UAE@I@Z @ 315 NONAME ABSENT ; HbInputCnListView::~HbInputCnListView(unsigned int)
	??1HbInputVirtualRocker@@UAE@XZ @ 316 NONAME ; HbInputVirtualRocker::~HbInputVirtualRocker(void)
	??0HbInputCnListVItutCompositior@@QAE@PAVHbInputCnListModel@@@Z @ 317 NONAME ABSENT ; HbInputCnListVItutCompositior::HbInputCnListVItutCompositior(class HbInputCnListModel *)
	?d_func@HbInputCnModel@@ABEPBVHbInputCnModelPrivate@@XZ @ 318 NONAME ABSENT ; class HbInputCnModelPrivate const * HbInputCnModel::d_func(void) const
	?shrinkList@HbInputCnTouchListView@@QAEXXZ @ 319 NONAME ABSENT ; void HbInputCnTouchListView::shrinkList(void)
	?resizeEvent@HbTouchKeypadButton@@MAEXPAVQGraphicsSceneResizeEvent@@@Z @ 320 NONAME ABSENT ; void HbTouchKeypadButton::resizeEvent(class QGraphicsSceneResizeEvent *)
	??0HbInputVirtualRocker@@IAE@AAVHbInputVirtualRockerPrivate@@PAVQGraphicsWidget@@@Z @ 321 NONAME ; HbInputVirtualRocker::HbInputVirtualRocker(class HbInputVirtualRockerPrivate &, class QGraphicsWidget *)
	?qt_metacall@HbInputSpell@@UAEHW4Call@QMetaObject@@HPAPAX@Z @ 322 NONAME ABSENT ; int HbInputSpell::qt_metacall(enum QMetaObject::Call, int, void * *)
	?instance@HbInputCnModel@@SAPAV1@XZ @ 323 NONAME ABSENT ; class HbInputCnModel * HbInputCnModel::instance(void)
	?getStaticMetaObject@HbTouchKeypadButton@@SAABUQMetaObject@@XZ @ 324 NONAME ABSENT ; struct QMetaObject const & HbTouchKeypadButton::getStaticMetaObject(void)
	?d_func@HbInputVirtualRocker@@ABEPBVHbInputVirtualRockerPrivate@@XZ @ 325 NONAME ; class HbInputVirtualRockerPrivate const * HbInputVirtualRocker::d_func(void) const
	?staticMetaObject@HbInputSpell@@2UQMetaObject@@B @ 326 NONAME ABSENT ; struct QMetaObject const HbInputSpell::staticMetaObject
	?mouseReleaseEvent@HbTouchKeypadButton@@MAEXPAVQGraphicsSceneMouseEvent@@@Z @ 327 NONAME ABSENT ; void HbTouchKeypadButton::mouseReleaseEvent(class QGraphicsSceneMouseEvent *)
	?pageDown@HbInputCnListCompositior@@QAEXH@Z @ 328 NONAME ABSENT ; void HbInputCnListCompositior::pageDown(int)
	?pressed@HbInputCnTchButton@@IAEXH@Z @ 329 NONAME ABSENT ; void HbInputCnTchButton::pressed(int)
	?mode@HbInputVkbWidget@@UBE?AW4HbKeypadMode@@XZ @ 330 NONAME ; enum HbKeypadMode HbInputVkbWidget::mode(void) const
	?enableLongKeyPressEvents@HbQwertyKeyboard@@UAEXAAV?$QList@H@@@Z @ 331 NONAME ABSENT ; void HbQwertyKeyboard::enableLongKeyPressEvents(class QList<int> &)
	?setCharInterval@HbWritingBox@@QAEXH@Z @ 332 NONAME ABSENT ; void HbWritingBox::setCharInterval(int)
	?setIcon@HbInputCnTchButton@@QAEXABVHbIcon@@@Z @ 333 NONAME ABSENT ; void HbInputCnTchButton::setIcon(class HbIcon const &)
	?secondaryText@HbInputCnTchButton@@QAE?AVQString@@XZ @ 334 NONAME ABSENT ; class QString HbInputCnTchButton::secondaryText(void)
	?configureKeypadPos@HbInputCnKeypad@@QAEXABUHbCnKeypadPosInfo@@@Z @ 335 NONAME ABSENT ; void HbInputCnKeypad::configureKeypadPos(struct HbCnKeypadPosInfo const &)
	?buttonDisplayText@HbInputCnKeypad@@QAE?AVQString@@H@Z @ 336 NONAME ABSENT ; class QString HbInputCnKeypad::buttonDisplayText(int)
	?initialize@HbInputCnListView@@IAEXXZ @ 337 NONAME ABSENT ; void HbInputCnListView::initialize(void)
	?charFromPreviewSelected@HbCharPreviewPane@@IAEXVQString@@@Z @ 338 NONAME ABSENT ; void HbCharPreviewPane::charFromPreviewSelected(class QString)
	?d_func@HbInputCnListView@@AAEPAVHbInputCnListViewPrivate@@XZ @ 339 NONAME ABSENT ; class HbInputCnListViewPrivate * HbInputCnListView::d_func(void)
	?setKeyboardDimmed@HbInputVkbWidget@@UAEX_N@Z @ 340 NONAME ; void HbInputVkbWidget::setKeyboardDimmed(bool)
	?d_func@HbTouchKeypadButton@@ABEPBVHbTouchKeypadButtonPrivate@@XZ @ 341 NONAME ABSENT ; class HbTouchKeypadButtonPrivate const * HbTouchKeypadButton::d_func(void) const
	?getStaticMetaObject@HbInputUsedSymbolPane@@SAABUQMetaObject@@XZ @ 342 NONAME ABSENT ; struct QMetaObject const & HbInputUsedSymbolPane::getStaticMetaObject(void)
	?staticMetaObject@HbInputSctPortrait@@2UQMetaObject@@B @ 343 NONAME ABSENT ; struct QMetaObject const HbInputSctPortrait::staticMetaObject
	?qt_metacast@HbInputModeIndicator@@UAEPAXPBD@Z @ 344 NONAME ; void * HbInputModeIndicator::qt_metacast(char const *)
	?inputLang@HbInputCnModel@@QAE?AVHbInputLanguage@@XZ @ 345 NONAME ABSENT ; class HbInputLanguage HbInputCnModel::inputLang(void)
	?setLanguageToPredictEng@HbInputCnModel@@QAEXABVHbInputLanguage@@V?$QFlags@W4HbInputModeTypeFlag@@@@@Z @ 346 NONAME ABSENT ; void HbInputCnModel::setLanguageToPredictEng(class HbInputLanguage const &, class QFlags<enum HbInputModeTypeFlag>)
	??1HbInputCnListHwrPredictCandModel@@UAE@XZ @ 347 NONAME ABSENT ; HbInputCnListHwrPredictCandModel::~HbInputCnListHwrPredictCandModel(void)
	?dataList@HbInputCnListModel@@IAEPAV?$QList@VQVariant@@@@XZ @ 348 NONAME ABSENT ; class QList<class QVariant> * HbInputCnListModel::dataList(void)
	?trUtf8@HbInputVirtualRocker@@SA?AVQString@@PBD0@Z @ 349 NONAME ; class QString HbInputVirtualRocker::trUtf8(char const *, char const *)
	?notifyDataUpdated@HbInputCnListPreCandModel@@UAEX_N@Z @ 350 NONAME ABSENT ; void HbInputCnListPreCandModel::notifyDataUpdated(bool)
	?rectInfoList@HbInputCnListCompositior@@QAEPAV?$QVector@VHbCnListCandiDrawInfo@@@@XZ @ 351 NONAME ABSENT ; class QVector<class HbCnListCandiDrawInfo> * HbInputCnListCompositior::rectInfoList(void)
	?mousePressEvent@HbPreviewLabel@@MAEXPAVQGraphicsSceneMouseEvent@@@Z @ 352 NONAME ABSENT ; void HbPreviewLabel::mousePressEvent(class QGraphicsSceneMouseEvent *)
	?metaObject@HbInputSctLandscape@@UBEPBUQMetaObject@@XZ @ 353 NONAME ABSENT ; struct QMetaObject const * HbInputSctLandscape::metaObject(void) const
	?setAsStickyButton@HbTouchKeypadButton@@QAEX_N@Z @ 354 NONAME ABSENT ; void HbTouchKeypadButton::setAsStickyButton(bool)
	?listItemWidgetSize@HbInputCnListView@@QBE?AVQSizeF@@XZ @ 355 NONAME ABSENT ; class QSizeF HbInputCnListView::listItemWidgetSize(void) const
	?selected@HbPreviewLabel@@IAEXXZ @ 356 NONAME ABSENT ; void HbPreviewLabel::selected(void)
	?tr@HbInputSctPortrait@@SA?AVQString@@PBD0H@Z @ 357 NONAME ABSENT ; class QString HbInputSctPortrait::tr(char const *, char const *, int)
	?trUtf8@HbInputCnTouchListView@@SA?AVQString@@PBD0H@Z @ 358 NONAME ABSENT ; class QString HbInputCnTouchListView::trUtf8(char const *, char const *, int)
	?tr@HbInputUsedSymbolPane@@SA?AVQString@@PBD0@Z @ 359 NONAME ABSENT ; class QString HbInputUsedSymbolPane::tr(char const *, char const *)
	?qt_metacall@HbQwertyKeyboard@@UAEHW4Call@QMetaObject@@HPAPAX@Z @ 360 NONAME ABSENT ; int HbQwertyKeyboard::qt_metacall(enum QMetaObject::Call, int, void * *)
	?mousePressEvent@HbInputUsedSymbolPane@@MAEXPAVQGraphicsSceneMouseEvent@@@Z @ 361 NONAME ABSENT ; void HbInputUsedSymbolPane::mousePressEvent(class QGraphicsSceneMouseEvent *)
	?tr@HbInputVirtualRocker@@SA?AVQString@@PBD0H@Z @ 362 NONAME ; class QString HbInputVirtualRocker::tr(char const *, char const *, int)
	?tr@HbInputSettingDialog@@SA?AVQString@@PBD0@Z @ 363 NONAME ABSENT ; class QString HbInputSettingDialog::tr(char const *, char const *)
	?preferredKeyboardSize@HbQwertyKeyboard@@UAE?AVQSizeF@@XZ @ 364 NONAME ABSENT ; class QSizeF HbQwertyKeyboard::preferredKeyboardSize(void)
	?hideText@HbExactWordPopup@@QAEXXZ @ 365 NONAME ; void HbExactWordPopup::hideText(void)
	?trUtf8@Hb12KeyTouchKeypad@@SA?AVQString@@PBD0H@Z @ 366 NONAME ABSENT ; class QString Hb12KeyTouchKeypad::trUtf8(char const *, char const *, int)
	?trUtf8@HbInputCnListModel@@SA?AVQString@@PBD0H@Z @ 367 NONAME ABSENT ; class QString HbInputCnListModel::trUtf8(char const *, char const *, int)
	?executeLanguageDialog@HbInputVkbWidget@@QAEXXZ @ 368 NONAME ABSENT ; void HbInputVkbWidget::executeLanguageDialog(void)
	?bgColor@HbWritingBox@@QBE?AVQColor@@XZ @ 369 NONAME ABSENT ; class QColor HbWritingBox::bgColor(void) const
	?resumeKeypadPos@HbInputCnScrollKeypad@@QAEXXZ @ 370 NONAME ABSENT ; void HbInputCnScrollKeypad::resumeKeypadPos(void)
	?keyPosition@HbInputCnScrollKeypad@@QAE?AVQPointF@@H@Z @ 371 NONAME ABSENT ; class QPointF HbInputCnScrollKeypad::keyPosition(int)
	?trUtf8@HbInputCnTchButton@@SA?AVQString@@PBD0H@Z @ 372 NONAME ABSENT ; class QString HbInputCnTchButton::trUtf8(char const *, char const *, int)
	?staticMetaObject@HbRangeBar@@2UQMetaObject@@B @ 373 NONAME ABSENT ; struct QMetaObject const HbRangeBar::staticMetaObject
	?qt_metacast@HbWritingBox@@UAEPAXPBD@Z @ 374 NONAME ABSENT ; void * HbWritingBox::qt_metacast(char const *)
	?initialize@HbInputCnModel@@QAE_NABVHbInputLanguage@@@Z @ 375 NONAME ABSENT ; bool HbInputCnModel::initialize(class HbInputLanguage const &)
	?getStaticMetaObject@HbInputSctLandscape@@SAABUQMetaObject@@XZ @ 376 NONAME ABSENT ; struct QMetaObject const & HbInputSctLandscape::getStaticMetaObject(void)
	?addTab@HbInputVkbWidget@@UAEXABVQString@@@Z @ 377 NONAME ABSENT ; void HbInputVkbWidget::addTab(class QString const &)
	?setRowSize@HbInputCnTouchListView@@QAEXABVQSizeF@@@Z @ 378 NONAME ABSENT ; void HbInputCnTouchListView::setRowSize(class QSizeF const &)
	?showText@HbExactWordPopup@@QAEXVQPointF@@@Z @ 379 NONAME ; void HbExactWordPopup::showText(class QPointF)
	?keypadLayout@HbInputSctPortrait@@UAEPAVQGraphicsLayout@@XZ @ 380 NONAME ABSENT ; class QGraphicsLayout * HbInputSctPortrait::keypadLayout(void)
	?trUtf8@HbQwertyKeyboard@@SA?AVQString@@PBD0H@Z @ 381 NONAME ABSENT ; class QString HbQwertyKeyboard::trUtf8(char const *, char const *, int)
	??1HbQwertyKeyboard@@UAE@XZ @ 382 NONAME ABSENT ; HbQwertyKeyboard::~HbQwertyKeyboard(void)
	??0HbInputVkbWidget@@IAE@AAVHbInputVkbWidgetPrivate@@PAVQGraphicsItem@@@Z @ 383 NONAME ; HbInputVkbWidget::HbInputVkbWidget(class HbInputVkbWidgetPrivate &, class QGraphicsItem *)
	?tr@HbInputUsedSymbolPane@@SA?AVQString@@PBD0H@Z @ 384 NONAME ABSENT ; class QString HbInputUsedSymbolPane::tr(char const *, char const *, int)
	?rockerDirection@HbInputVkbWidget@@IAEXHW4RockerSelectionMode@HbInputVirtualRocker@@@Z @ 385 NONAME ; void HbInputVkbWidget::rockerDirection(int, enum HbInputVirtualRocker::RockerSelectionMode)
	?isButtonRepeatEnabled@HbInputCnKeypad@@QAE_NH@Z @ 386 NONAME ABSENT ; bool HbInputCnKeypad::isButtonRepeatEnabled(int)
	?tr@HbCandidateList@@SA?AVQString@@PBD0@Z @ 387 NONAME ; class QString HbCandidateList::tr(char const *, char const *)
	??0HbInputCnListHwrPredictCandModel@@QAE@PAVQObject@@H@Z @ 388 NONAME ABSENT ; HbInputCnListHwrPredictCandModel::HbInputCnListHwrPredictCandModel(class QObject *, int)
	??1HbInputCnListCandModel@@UAE@XZ @ 389 NONAME ABSENT ; HbInputCnListCandModel::~HbInputCnListCandModel(void)
	??_EHbInputSettingDialog@@UAE@I@Z @ 390 NONAME ABSENT ; HbInputSettingDialog::~HbInputSettingDialog(unsigned int)
	?penWidth@HbWritingBox@@QBEHXZ @ 391 NONAME ABSENT ; int HbWritingBox::penWidth(void) const
	?spellTapped@HbInputSpell@@IAEXW4HbCnWidgetEventType@@VQVariant@@@Z @ 392 NONAME ABSENT ; void HbInputSpell::spellTapped(enum HbCnWidgetEventType, class QVariant)
	?setOwner@HbInputCnListModel@@QAEXPAVHbInputCnListView@@@Z @ 393 NONAME ABSENT ; void HbInputCnListModel::setOwner(class HbInputCnListView *)
	??1HbInputCnTchButton@@UAE@XZ @ 394 NONAME ABSENT ; HbInputCnTchButton::~HbInputCnTchButton(void)
	?setBackgroundDrawing@HbInputVkbWidget@@UAEX_N@Z @ 395 NONAME ; void HbInputVkbWidget::setBackgroundDrawing(bool)
	??0HbWritingBox@@QAE@PAVQGraphicsItem@@VQRectF@@V?$QFlags@W4WindowType@Qt@@@@@Z @ 396 NONAME ABSENT ; HbWritingBox::HbWritingBox(class QGraphicsItem *, class QRectF, class QFlags<enum Qt::WindowType>)
	?d_func@HbExactWordPopup@@AAEPAVHbExactWordPopupPrivate@@XZ @ 397 NONAME ; class HbExactWordPopupPrivate * HbExactWordPopup::d_func(void)
	?keyPressEvent@HbCandidateList@@MAEXPAVQKeyEvent@@@Z @ 398 NONAME ; void HbCandidateList::keyPressEvent(class QKeyEvent *)
	?qt_metacall@HbPreviewLabel@@UAEHW4Call@QMetaObject@@HPAPAX@Z @ 399 NONAME ABSENT ; int HbPreviewLabel::qt_metacall(enum QMetaObject::Call, int, void * *)
	?setTextColor@HbInputSpell@@QAEXABVQColor@@@Z @ 400 NONAME ABSENT ; void HbInputSpell::setTextColor(class QColor const &)
	??1HbInputVkbWidget@@UAE@XZ @ 401 NONAME ; HbInputVkbWidget::~HbInputVkbWidget(void)
	?d_func@HbCandidateList@@ABEPBVHbCandidateListPrivate@@XZ @ 402 NONAME ; class HbCandidateListPrivate const * HbCandidateList::d_func(void) const
	?isExpandEnabled@HbInputCnListView@@QBE_NXZ @ 403 NONAME ABSENT ; bool HbInputCnListView::isExpandEnabled(void) const
	?tr@HbInputTabBar@@SA?AVQString@@PBD0@Z @ 404 NONAME ABSENT ; class QString HbInputTabBar::tr(char const *, char const *)
	?qt_metacast@HbRange@@UAEPAXPBD@Z @ 405 NONAME ABSENT ; void * HbRange::qt_metacast(char const *)
	?trUtf8@HbInputModeIndicator@@SA?AVQString@@PBD0@Z @ 406 NONAME ; class QString HbInputModeIndicator::trUtf8(char const *, char const *)
	?staticMetaObject@HbInputCnScrollKeypad@@2UQMetaObject@@B @ 407 NONAME ABSENT ; struct QMetaObject const HbInputCnScrollKeypad::staticMetaObject
	?type@HbInputCnTchButton@@UBEHXZ @ 408 NONAME ABSENT ; int HbInputCnTchButton::type(void) const
	?emitLaunchPreviewPopup@HbInputCnListView@@IAEXABVQString@@VQRectF@@@Z @ 409 NONAME ABSENT ; void HbInputCnListView::emitLaunchPreviewPopup(class QString const &, class QRectF)
	?setInputMode@HbInputCnModel@@QAEXV?$QFlags@W4HbInputModeTypeFlag@@@@@Z @ 410 NONAME ABSENT ; void HbInputCnModel::setInputMode(class QFlags<enum HbInputModeTypeFlag>)
	??1HbInputKeypadReader@@UAE@XZ @ 411 NONAME ABSENT ; HbInputKeypadReader::~HbInputKeypadReader(void)
	?trUtf8@HbInputSctLandscape@@SA?AVQString@@PBD0H@Z @ 412 NONAME ABSENT ; class QString HbInputSctLandscape::trUtf8(char const *, char const *, int)
	?strokeList@HbWritingBox@@QAEABV?$QList@VQPointF@@@@XZ @ 413 NONAME ABSENT ; class QList<class QPointF> const & HbWritingBox::strokeList(void)
	?trUtf8@HbPreviewLabel@@SA?AVQString@@PBD0@Z @ 414 NONAME ABSENT ; class QString HbPreviewLabel::trUtf8(char const *, char const *)
	?sctCharacterSelected@HbInputSctPortrait@@IAEXVQChar@@@Z @ 415 NONAME ABSENT ; void HbInputSctPortrait::sctCharacterSelected(class QChar)
	?mReader@HbInputKeypadReader@@0PAV1@A @ 416 NONAME ABSENT ; class HbInputKeypadReader * HbInputKeypadReader::mReader
	?d_func@HbInputSctLandscape@@ABEPBVHbInputSctLandscapePrivate@@XZ @ 417 NONAME ABSENT ; class HbInputSctLandscapePrivate const * HbInputSctLandscape::d_func(void) const
	?expanded@HbInputCnListView@@QBE_NXZ @ 418 NONAME ABSENT ; bool HbInputCnListView::expanded(void) const
	?readKeypad@HbInputKeypadReader@@AAEXAAV?$QHash@VQString@@UHbCnKeypadKeys@@@@@Z @ 419 NONAME ABSENT ; void HbInputKeypadReader::readKeypad(class QHash<class QString, struct HbCnKeypadKeys> &)
	??0HbInputModeIndicator@@QAE@AAVHbTouchKeypadButton@@W4HbInputModeIndicatorType@0@PAVQGraphicsWidget@@@Z @ 420 NONAME ABSENT ; HbInputModeIndicator::HbInputModeIndicator(class HbTouchKeypadButton &, enum HbInputModeIndicator::HbInputModeIndicatorType, class QGraphicsWidget *)
	?tr@HbWritingBox@@SA?AVQString@@PBD0H@Z @ 421 NONAME ABSENT ; class QString HbWritingBox::tr(char const *, char const *, int)
	?actualWidth@HbInputSpell@@AAEHXZ @ 422 NONAME ABSENT ; int HbInputSpell::actualWidth(void)
	?setTextFlags@HbInputSpell@@QAEXH@Z @ 423 NONAME ABSENT ; void HbInputSpell::setTextFlags(int)
	??_EHbInputCnListHwrPredictCandModel@@UAE@I@Z @ 424 NONAME ABSENT ; HbInputCnListHwrPredictCandModel::~HbInputCnListHwrPredictCandModel(unsigned int)
	?setMode@HbInputVkbWidget@@UAEXW4HbKeypadMode@@@Z @ 425 NONAME ABSENT ; void HbInputVkbWidget::setMode(enum HbKeypadMode)
	?tr@HbInputCnTouchListView@@SA?AVQString@@PBD0H@Z @ 426 NONAME ABSENT ; class QString HbInputCnTouchListView::tr(char const *, char const *, int)
	?initPredictEng@HbInputCnModel@@QAE_NABVHbInputLanguage@@@Z @ 427 NONAME ABSENT ; bool HbInputCnModel::initPredictEng(class HbInputLanguage const &)
	?functionType@HbInputCnListView@@QBE?AW4HbCnListType@@XZ @ 428 NONAME ABSENT ; enum HbCnListType HbInputCnListView::functionType(void) const
	??_EHbInputCnTouchListView@@UAE@I@Z @ 429 NONAME ABSENT ; HbInputCnTouchListView::~HbInputCnTouchListView(unsigned int)
	?keyboardOpened@HbInputVkbWidget@@UAEXPAVHbVkbHost@@@Z @ 430 NONAME ; void HbInputVkbWidget::keyboardOpened(class HbVkbHost *)
	??0HbCandidateList@@QAE@PAVHbInputMethod@@PAVQGraphicsItem@@@Z @ 431 NONAME ; HbCandidateList::HbCandidateList(class HbInputMethod *, class QGraphicsItem *)
	?staticMetaObject@HbInputSctLandscape@@2UQMetaObject@@B @ 432 NONAME ABSENT ; struct QMetaObject const HbInputSctLandscape::staticMetaObject
	?trUtf8@HbInputVkbWidget@@SA?AVQString@@PBD0@Z @ 433 NONAME ; class QString HbInputVkbWidget::trUtf8(char const *, char const *)
	?setGeometry@HbRangeBar@@UAEXABVQRectF@@@Z @ 434 NONAME ABSENT ; void HbRangeBar::setGeometry(class QRectF const &)
	??_EHbInputCnTchButton@@UAE@I@Z @ 435 NONAME ABSENT ; HbInputCnTchButton::~HbInputCnTchButton(unsigned int)
	?staticMetaObject@HbInputModeIndicator@@2UQMetaObject@@B @ 436 NONAME ; struct QMetaObject const HbInputModeIndicator::staticMetaObject
	??0HbInputCnListSpellModel@@QAE@PAVQObject@@H@Z @ 437 NONAME ABSENT ; HbInputCnListSpellModel::HbInputCnListSpellModel(class QObject *, int)
	??0HbInputCnModel@@AAE@XZ @ 438 NONAME ABSENT ; HbInputCnModel::HbInputCnModel(void)
	??1HbInputCnListView@@UAE@XZ @ 439 NONAME ABSENT ; HbInputCnListView::~HbInputCnListView(void)
	?tr@HbRange@@SA?AVQString@@PBD0@Z @ 440 NONAME ABSENT ; class QString HbRange::tr(char const *, char const *)
	??0HbCharPreviewPane@@QAE@PAVQGraphicsItem@@@Z @ 441 NONAME ABSENT ; HbCharPreviewPane::HbCharPreviewPane(class QGraphicsItem *)
	?keypadLayout@HbInputSctLandscape@@UAEPAVQGraphicsLayout@@XZ @ 442 NONAME ABSENT ; class QGraphicsLayout * HbInputSctLandscape::keypadLayout(void)
	??_EHbRange@@UAE@I@Z @ 443 NONAME ABSENT ; HbRange::~HbRange(unsigned int)
	?previewCharacters@HbQwertyKeyboard@@QAE_NABVQStringList@@@Z @ 444 NONAME ABSENT ; bool HbQwertyKeyboard::previewCharacters(class QStringList const &)
	?tabSelected@HbInputVkbWidget@@UAEXH@Z @ 445 NONAME ABSENT ; void HbInputVkbWidget::tabSelected(int)
	?getStaticMetaObject@Hb12KeyTouchKeypad@@SAABUQMetaObject@@XZ @ 446 NONAME ABSENT ; struct QMetaObject const & Hb12KeyTouchKeypad::getStaticMetaObject(void)
	?getStaticMetaObject@HbInputCnListModel@@SAABUQMetaObject@@XZ @ 447 NONAME ABSENT ; struct QMetaObject const & HbInputCnListModel::getStaticMetaObject(void)
	?sendKeypadEvent@HbInputCnKeypad@@QAEXW4HbCnWidgetEventType@@HVQChar@@@Z @ 448 NONAME ABSENT ; void HbInputCnKeypad::sendKeypadEvent(enum HbCnWidgetEventType, int, class QChar)
	?aboutToOpen@HbQwertyKeyboard@@UAEXPAVHbVkbHost@@@Z @ 449 NONAME ABSENT ; void HbQwertyKeyboard::aboutToOpen(class HbVkbHost *)
	?qt_metacast@HbRangeBar@@UAEPAXPBD@Z @ 450 NONAME ABSENT ; void * HbRangeBar::qt_metacast(char const *)
	??0HbInputVirtualRocker@@QAE@PAVHbInputVkbWidget@@@Z @ 451 NONAME ; HbInputVirtualRocker::HbInputVirtualRocker(class HbInputVkbWidget *)
	?owner@HbInputCnListCompositior@@QBEPAVHbInputCnListView@@XZ @ 452 NONAME ABSENT ; class HbInputCnListView * HbInputCnListCompositior::owner(void) const
	??1HbInputSctPortrait@@UAE@XZ @ 453 NONAME ABSENT ; HbInputSctPortrait::~HbInputSctPortrait(void)
	?metaObject@HbWritingBox@@UBEPBUQMetaObject@@XZ @ 454 NONAME ABSENT ; struct QMetaObject const * HbWritingBox::metaObject(void) const
	?mouseReleaseEvent@HbInputSpell@@MAEXPAVQGraphicsSceneMouseEvent@@@Z @ 455 NONAME ABSENT ; void HbInputSpell::mouseReleaseEvent(class QGraphicsSceneMouseEvent *)
	?qt_metacall@HbExactWordPopup@@UAEHW4Call@QMetaObject@@HPAPAX@Z @ 456 NONAME ; int HbExactWordPopup::qt_metacall(enum QMetaObject::Call, int, void * *)
	?buttonDisplayText@HbInputCnScrollKeypad@@QAE?AVQString@@H@Z @ 457 NONAME ABSENT ; class QString HbInputCnScrollKeypad::buttonDisplayText(int)
	??1HbInputCnListVItutCompositior@@UAE@XZ @ 458 NONAME ABSENT ; HbInputCnListVItutCompositior::~HbInputCnListVItutCompositior(void)
	?aboutToOpen@HbInputSctPortrait@@UAEXPAVHbVkbHost@@@Z @ 459 NONAME ABSENT ; void HbInputSctPortrait::aboutToOpen(class HbVkbHost *)
	?reorganizeKeypad@HbInputCnKeypad@@QAEXABUHbCnKeypadKeys@@@Z @ 460 NONAME ABSENT ; void HbInputCnKeypad::reorganizeKeypad(struct HbCnKeypadKeys const &)
	?trUtf8@HbInputCustomButtonList@@SA?AVQString@@PBD0@Z @ 461 NONAME ABSENT ; class QString HbInputCustomButtonList::trUtf8(char const *, char const *)
	?isCandExist@HbInputCnModel@@QAE_NH@Z @ 462 NONAME ABSENT ; bool HbInputCnModel::isCandExist(int)
	?itemSelected@HbInputCnListView@@IAEXW4HbCnWidgetEventType@@VQVariant@@@Z @ 463 NONAME ABSENT ; void HbInputCnListView::itemSelected(enum HbCnWidgetEventType, class QVariant)
	??1HbCandidateList@@UAE@XZ @ 464 NONAME ; HbCandidateList::~HbCandidateList(void)
	?enableLongKeyPressEvents@Hb12KeyTouchKeypad@@UAEXAAV?$QList@H@@@Z @ 465 NONAME ABSENT ; void Hb12KeyTouchKeypad::enableLongKeyPressEvents(class QList<int> &)
	?trUtf8@HbInputCnTouchListView@@SA?AVQString@@PBD0@Z @ 466 NONAME ABSENT ; class QString HbInputCnTouchListView::trUtf8(char const *, char const *)
	?d_func@HbInputCnListView@@ABEPBVHbInputCnListViewPrivate@@XZ @ 467 NONAME ABSENT ; class HbInputCnListViewPrivate const * HbInputCnListView::d_func(void) const
	?metaObject@HbInputCustomButtonList@@UBEPBUQMetaObject@@XZ @ 468 NONAME ABSENT ; struct QMetaObject const * HbInputCustomButtonList::metaObject(void) const
	?tr@HbCandidateList@@SA?AVQString@@PBD0H@Z @ 469 NONAME ; class QString HbCandidateList::tr(char const *, char const *, int)
	??1HbInputModeIndicator@@UAE@XZ @ 470 NONAME ; HbInputModeIndicator::~HbInputModeIndicator(void)
	?executeSettingsDialog@HbInputVkbWidget@@QAEXXZ @ 471 NONAME ABSENT ; void HbInputVkbWidget::executeSettingsDialog(void)
	??1HbCharPreviewPane@@UAE@XZ @ 472 NONAME ABSENT ; HbCharPreviewPane::~HbCharPreviewPane(void)
	?itemActivated@HbCandidateList@@QAEXPAVHbListWidgetItem@@@Z @ 473 NONAME ; void HbCandidateList::itemActivated(class HbListWidgetItem *)
	?charFromPreviewSelected@HbQwertyKeyboard@@IAEXVQString@@@Z @ 474 NONAME ABSENT ; void HbQwertyKeyboard::charFromPreviewSelected(class QString)
	??1HbInputCnScrollKeypad@@UAE@XZ @ 475 NONAME ABSENT ; HbInputCnScrollKeypad::~HbInputCnScrollKeypad(void)
	?orientation@HbInputCustomButtonList@@QAE?AW4Orientation@Qt@@XZ @ 476 NONAME ABSENT ; enum Qt::Orientation HbInputCustomButtonList::orientation(void)
	??0HbQwertyKeyboard@@IAE@AAVHbQwertyKeyboardPrivate@@PAVQGraphicsItem@@@Z @ 477 NONAME ABSENT ; HbQwertyKeyboard::HbQwertyKeyboard(class HbQwertyKeyboardPrivate &, class QGraphicsItem *)
	?getLineIndexOfItem@HbInputCnListCompositior@@QBEHH@Z @ 478 NONAME ABSENT ; int HbInputCnListCompositior::getLineIndexOfItem(int) const
	?tr@HbCharPreviewPane@@SA?AVQString@@PBD0@Z @ 479 NONAME ABSENT ; class QString HbCharPreviewPane::tr(char const *, char const *)
	??0HbInputCnTouchListView@@QAE@PAVHbInputCnListModel@@PAVHbInputCnListCompositior@@PAVQGraphicsItem@@W4HbCnListType@@@Z @ 480 NONAME ABSENT ; HbInputCnTouchListView::HbInputCnTouchListView(class HbInputCnListModel *, class HbInputCnListCompositior *, class QGraphicsItem *, enum HbCnListType)
	?keyboard@HbInputCnModel@@QBE?AV?$QFlags@W4HbKeyboardTypeFlag@@@@XZ @ 481 NONAME ABSENT ; class QFlags<enum HbKeyboardTypeFlag> HbInputCnModel::keyboard(void) const
	?tr@HbRange@@SA?AVQString@@PBD0H@Z @ 482 NONAME ABSENT ; class QString HbRange::tr(char const *, char const *, int)
	?type@HbTouchKeypadButton@@UBEHXZ @ 483 NONAME ABSENT ; int HbTouchKeypadButton::type(void) const
	??1HbInputCnListModel@@UAE@XZ @ 484 NONAME ABSENT ; HbInputCnListModel::~HbInputCnListModel(void)
	?asWidget@HbInputVkbWidget@@UAEPAVQWidget@@XZ @ 485 NONAME ; class QWidget * HbInputVkbWidget::asWidget(void)
	?d_func@HbInputCnKeypad@@ABEPBVHbInputCnKeypadPrivate@@XZ @ 486 NONAME ABSENT ; class HbInputCnKeypadPrivate const * HbInputCnKeypad::d_func(void) const
	?qt_metacast@HbInputSctPortrait@@UAEPAXPBD@Z @ 487 NONAME ABSENT ; void * HbInputSctPortrait::qt_metacast(char const *)
	?qt_metacall@HbTouchKeypadButton@@UAEHW4Call@QMetaObject@@HPAPAX@Z @ 488 NONAME ABSENT ; int HbTouchKeypadButton::qt_metacall(enum QMetaObject::Call, int, void * *)
	?setupToolCluster@HbInputVkbWidget@@UAEXXZ @ 489 NONAME ABSENT ; void HbInputVkbWidget::setupToolCluster(void)
	?enableAutoKeyRepeatEvents@HbInputVkbWidget@@UAEXAAV?$QList@H@@@Z @ 490 NONAME ABSENT ; void HbInputVkbWidget::enableAutoKeyRepeatEvents(class QList<int> &)
	?preferredKeyboardSize@HbInputVkbWidget@@UAE?AVQSizeF@@XZ @ 491 NONAME ; class QSizeF HbInputVkbWidget::preferredKeyboardSize(void)
	?qt_metacall@HbCandidateList@@UAEHW4Call@QMetaObject@@HPAPAX@Z @ 492 NONAME ; int HbCandidateList::qt_metacall(enum QMetaObject::Call, int, void * *)
	?d_func@HbInputCnScrollKeypad@@AAEPAVHbInputCnScrollKeypadPrivate@@XZ @ 493 NONAME ABSENT ; class HbInputCnScrollKeypadPrivate * HbInputCnScrollKeypad::d_func(void)
	?staticMetaObject@Hb12KeyTouchKeypad@@2UQMetaObject@@B @ 494 NONAME ABSENT ; struct QMetaObject const Hb12KeyTouchKeypad::staticMetaObject
	?constructListItemsInfo@HbInputCnListView@@QAEXXZ @ 495 NONAME ABSENT ; void HbInputCnListView::constructListItemsInfo(void)
	?virtualButtonReleased@HbInputCnScrollKeypad@@QAEXH@Z @ 496 NONAME ABSENT ; void HbInputCnScrollKeypad::virtualButtonReleased(int)
	?type@HbExactWordPopup@@UBEHXZ @ 497 NONAME ; int HbExactWordPopup::type(void) const
	?trUtf8@HbRange@@SA?AVQString@@PBD0@Z @ 498 NONAME ABSENT ; class QString HbRange::trUtf8(char const *, char const *)
	?tr@HbInputCnScrollKeypad@@SA?AVQString@@PBD0H@Z @ 499 NONAME ABSENT ; class QString HbInputCnScrollKeypad::tr(char const *, char const *, int)
	?tr@HbInputCnKeypad@@SA?AVQString@@PBD0@Z @ 500 NONAME ABSENT ; class QString HbInputCnKeypad::tr(char const *, char const *)
	?metaObject@HbRange@@UBEPBUQMetaObject@@XZ @ 501 NONAME ABSENT ; struct QMetaObject const * HbRange::metaObject(void) const
	?mouseReleaseEvent@HbInputVkbWidget@@MAEXPAVQGraphicsSceneMouseEvent@@@Z @ 502 NONAME ABSENT ; void HbInputVkbWidget::mouseReleaseEvent(class QGraphicsSceneMouseEvent *)
	?tr@HbTouchKeypadButton@@SA?AVQString@@PBD0@Z @ 503 NONAME ABSENT ; class QString HbTouchKeypadButton::tr(char const *, char const *)
	?tr@HbInputVkbWidget@@SA?AVQString@@PBD0H@Z @ 504 NONAME ; class QString HbInputVkbWidget::tr(char const *, char const *, int)
	?setItemInternalMargin@HbInputCnListView@@QAEXMM@Z @ 505 NONAME ABSENT ; void HbInputCnListView::setItemInternalMargin(float, float)
	?createLayout@Hb12KeyTouchKeypad@@QAEXXZ @ 506 NONAME ABSENT ; void Hb12KeyTouchKeypad::createLayout(void)
	?sizeHint@HbInputCnTouchListView@@MBE?AVQSizeF@@W4SizeHint@Qt@@ABV2@@Z @ 507 NONAME ABSENT ; class QSizeF HbInputCnTouchListView::sizeHint(enum Qt::SizeHint, class QSizeF const &) const
	?buttonSecondaryText@HbInputCnKeypad@@QAE?AVQString@@H@Z @ 508 NONAME ABSENT ; class QString HbInputCnKeypad::buttonSecondaryText(int)
	?keyboardAnimationFrame@HbInputVkbWidget@@UAEXW4HbVkbAnimationType@HbVirtualKeyboard@@M@Z @ 509 NONAME ; void HbInputVkbWidget::keyboardAnimationFrame(enum HbVirtualKeyboard::HbVkbAnimationType, float)
	?sceneEventFilter@HbInputCnScrollKeypad@@MAE_NPAVQGraphicsItem@@PAVQEvent@@@Z @ 510 NONAME ABSENT ; bool HbInputCnScrollKeypad::sceneEventFilter(class QGraphicsItem *, class QEvent *)
	?getStaticMetaObject@HbInputVkbWidget@@SAABUQMetaObject@@XZ @ 511 NONAME ; struct QMetaObject const & HbInputVkbWidget::getStaticMetaObject(void)
	?setItemHorizontalSpacing@HbInputCnListView@@QAEXM@Z @ 512 NONAME ABSENT ; void HbInputCnListView::setItemHorizontalSpacing(float)
	?metaObject@Hb12KeyTouchKeypad@@UBEPBUQMetaObject@@XZ @ 513 NONAME ABSENT ; struct QMetaObject const * Hb12KeyTouchKeypad::metaObject(void) const
	?metaObject@HbInputCnListModel@@UBEPBUQMetaObject@@XZ @ 514 NONAME ABSENT ; struct QMetaObject const * HbInputCnListModel::metaObject(void) const
	?restoreSctLine@HbInputUsedSymbolPane@@QAEXPAVHbInputFilter@@@Z @ 515 NONAME ABSENT ; void HbInputUsedSymbolPane::restoreSctLine(class HbInputFilter *)
	?onExpandEnableStatusChanged@HbInputCnListView@@MAEX_N@Z @ 516 NONAME ABSENT ; void HbInputCnListView::onExpandEnableStatusChanged(bool)
	?metaObject@HbInputCnTchButton@@UBEPBUQMetaObject@@XZ @ 517 NONAME ABSENT ; struct QMetaObject const * HbInputCnTchButton::metaObject(void) const
	?virtualButtonPressed@HbInputCnScrollKeypad@@QAEXH@Z @ 518 NONAME ABSENT ; void HbInputCnScrollKeypad::virtualButtonPressed(int)
	?type@HbCharPreviewPane@@UBEHXZ @ 519 NONAME ABSENT ; int HbCharPreviewPane::type(void) const
	?qt_metacall@HbInputUsedSymbolPane@@UAEHW4Call@QMetaObject@@HPAPAX@Z @ 520 NONAME ABSENT ; int HbInputUsedSymbolPane::qt_metacall(enum QMetaObject::Call, int, void * *)
	?tr@HbInputCustomButtonList@@SA?AVQString@@PBD0@Z @ 521 NONAME ABSENT ; class QString HbInputCustomButtonList::tr(char const *, char const *)
	?qt_metacall@HbInputSctLandscape@@UAEHW4Call@QMetaObject@@HPAPAX@Z @ 522 NONAME ABSENT ; int HbInputSctLandscape::qt_metacall(enum QMetaObject::Call, int, void * *)
	??_EHbInputCnModel@@UAE@I@Z @ 523 NONAME ABSENT ; HbInputCnModel::~HbInputCnModel(unsigned int)
	??_EHbInputCnListCandModel@@UAE@I@Z @ 524 NONAME ABSENT ; HbInputCnListCandModel::~HbInputCnListCandModel(unsigned int)
	?mouseMoveEvent@HbWritingBox@@MAEXPAVQGraphicsSceneMouseEvent@@@Z @ 525 NONAME ABSENT ; void HbWritingBox::mouseMoveEvent(class QGraphicsSceneMouseEvent *)
	?setSecondaryText@HbInputCnTchButton@@QAEXABVQString@@@Z @ 526 NONAME ABSENT ; void HbInputCnTchButton::setSecondaryText(class QString const &)
	?hoverLeaveEvent@HbRange@@MAEXPAVQGraphicsSceneHoverEvent@@@Z @ 527 NONAME ABSENT ; void HbRange::hoverLeaveEvent(class QGraphicsSceneHoverEvent *)
	?populateList@HbCandidateList@@QAEXAAVQStringList@@@Z @ 528 NONAME ABSENT ; void HbCandidateList::populateList(class QStringList &)
	?itemHorizontalSpacing@HbInputCnListView@@QBEMXZ @ 529 NONAME ABSENT ; float HbInputCnListView::itemHorizontalSpacing(void) const
	?setElideMode@HbInputSpell@@QAEXW4TextElideMode@Qt@@@Z @ 530 NONAME ABSENT ; void HbInputSpell::setElideMode(enum Qt::TextElideMode)
	?setThreshold@HbInputCnListModel@@QAEXH@Z @ 531 NONAME ABSENT ; void HbInputCnListModel::setThreshold(int)
	?setTextColor@HbRange@@QAEXVQColor@@@Z @ 532 NONAME ABSENT ; void HbRange::setTextColor(class QColor)
	?customButtonPressed@HbInputCustomButtonList@@IAEXH@Z @ 533 NONAME ABSENT ; void HbInputCustomButtonList::customButtonPressed(int)
	?setAdditionalText@HbTouchKeypadButton@@UAEXABVQString@@@Z @ 534 NONAME ABSENT ; void HbTouchKeypadButton::setAdditionalText(class QString const &)
	?spellList@HbInputCnModel@@QBEXAAVQStringList@@@Z @ 535 NONAME ABSENT ; void HbInputCnModel::spellList(class QStringList &) const
	?listDrawInfoByLines@HbInputCnListCompositior@@QAE?AV?$QVector@VHbCnListCandiDrawInfo@@@@HH@Z @ 536 NONAME ABSENT ; class QVector<class HbCnListCandiDrawInfo> HbInputCnListCompositior::listDrawInfoByLines(int, int)
	?notifyDataUpdated@HbInputCnListModel@@UAEX_N@Z @ 537 NONAME ABSENT ; void HbInputCnListModel::notifyDataUpdated(bool)
	?resetList@HbInputCnTouchListView@@QAEXXZ @ 538 NONAME ABSENT ; void HbInputCnTouchListView::resetList(void)
	?settingsClosed@HbInputVkbWidget@@QAEXXZ @ 539 NONAME ; void HbInputVkbWidget::settingsClosed(void)
	?keyboardClosed@HbInputVkbWidget@@UAEXPAVHbVkbHost@@@Z @ 540 NONAME ; void HbInputVkbWidget::keyboardClosed(class HbVkbHost *)
	?hideEvent@HbCandidateList@@MAEXPAVQHideEvent@@@Z @ 541 NONAME ; void HbCandidateList::hideEvent(class QHideEvent *)
	?item@HbInputCnListModel@@QBE?AV?$QList@VQVariant@@@@HH@Z @ 542 NONAME ABSENT ; class QList<class QVariant> HbInputCnListModel::item(int, int) const
	?trUtf8@HbExactWordPopup@@SA?AVQString@@PBD0@Z @ 543 NONAME ; class QString HbExactWordPopup::trUtf8(char const *, char const *)
	?tr@HbInputCustomButtonList@@SA?AVQString@@PBD0H@Z @ 544 NONAME ABSENT ; class QString HbInputCustomButtonList::tr(char const *, char const *, int)
	?setNumberOfCharacters@HbInputUsedSymbolPane@@QAEXH@Z @ 545 NONAME ABSENT ; void HbInputUsedSymbolPane::setNumberOfCharacters(int)
	?setFrameIcon@HbTouchKeypadButton@@QAEXVQString@@@Z @ 546 NONAME ABSENT ; void HbTouchKeypadButton::setFrameIcon(class QString)
	?InstallPenTraceDecorator@HbWritingBox@@QAEXXZ @ 547 NONAME ABSENT ; void HbWritingBox::InstallPenTraceDecorator(void)
	?updatePrimitives@HbCandidateList@@MAEXXZ @ 548 NONAME ; void HbCandidateList::updatePrimitives(void)
	?cellIdxInLine@HbInputCnListCompositior@@IAEPAV?$QList@VHbCnListCellIndexInLine@@@@XZ @ 549 NONAME ABSENT ; class QList<class HbCnListCellIndexInLine> * HbInputCnListCompositior::cellIdxInLine(void)
	?trUtf8@HbInputCnListView@@SA?AVQString@@PBD0@Z @ 550 NONAME ABSENT ; class QString HbInputCnListView::trUtf8(char const *, char const *)
	?tr@HbInputSctLandscape@@SA?AVQString@@PBD0@Z @ 551 NONAME ABSENT ; class QString HbInputSctLandscape::tr(char const *, char const *)
	?text@HbInputCnTchButton@@QAE?AVQString@@XZ @ 552 NONAME ABSENT ; class QString HbInputCnTchButton::text(void)
	?setListFunctionType@HbInputCnListView@@QAEXW4HbCnListType@@@Z @ 553 NONAME ABSENT ; void HbInputCnListView::setListFunctionType(enum HbCnListType)
	??1HbInputUsedSymbolPane@@UAE@XZ @ 554 NONAME ABSENT ; HbInputUsedSymbolPane::~HbInputUsedSymbolPane(void)
	?setMaxColumnCount@HbInputCnListView@@QAEXH@Z @ 555 NONAME ABSENT ; void HbInputCnListView::setMaxColumnCount(int)
	??_EHbInputKeypadReader@@UAE@I@Z @ 556 NONAME ABSENT ; HbInputKeypadReader::~HbInputKeypadReader(unsigned int)
	?metaObject@HbQwertyKeyboard@@UBEPBUQMetaObject@@XZ @ 557 NONAME ABSENT ; struct QMetaObject const * HbQwertyKeyboard::metaObject(void) const
	?showInputMethodSelectionDialog@HbInputCommonDialogs@@SA?AVQString@@ABVHbInputLanguage@@@Z @ 558 NONAME ABSENT ; class QString HbInputCommonDialogs::showInputMethodSelectionDialog(class HbInputLanguage const &)
	?setSmileyText@HbInputCnTchButton@@QAEXABVQString@@@Z @ 559 NONAME ABSENT ; void HbInputCnTchButton::setSmileyText(class QString const &)
	??0HbInputCnListView@@QAE@PAVHbInputCnListModel@@PAVHbInputCnListCompositior@@PAVQGraphicsItem@@W4HbCnListType@@@Z @ 560 NONAME ABSENT ; HbInputCnListView::HbInputCnListView(class HbInputCnListModel *, class HbInputCnListCompositior *, class QGraphicsItem *, enum HbCnListType)
	?listTextFont@HbInputCnListView@@QBE?AVQFont@@XZ @ 561 NONAME ABSENT ; class QFont HbInputCnListView::listTextFont(void) const
	?staticMetaObject@HbInputSettingDialog@@2UQMetaObject@@B @ 562 NONAME ABSENT ; struct QMetaObject const HbInputSettingDialog::staticMetaObject
	?itemInternalRightMargin@HbInputCnListView@@QBEMXZ @ 563 NONAME ABSENT ; float HbInputCnListView::itemInternalRightMargin(void) const
	?readUnknownElement@HbInputKeypadReader@@AAEXXZ @ 564 NONAME ABSENT ; void HbInputKeypadReader::readUnknownElement(void)
	?tr@HbPreviewLabel@@SA?AVQString@@PBD0@Z @ 565 NONAME ABSENT ; class QString HbPreviewLabel::tr(char const *, char const *)
	?textFlags@HbInputSpell@@QBEHXZ @ 566 NONAME ABSENT ; int HbInputSpell::textFlags(void) const
	?metaObject@HbPreviewLabel@@UBEPBUQMetaObject@@XZ @ 567 NONAME ABSENT ; struct QMetaObject const * HbPreviewLabel::metaObject(void) const
	??0HbInputUsedSymbolPane@@QAE@PAVHbInputVkbWidget@@PAVQGraphicsWidget@@@Z @ 568 NONAME ABSENT ; HbInputUsedSymbolPane::HbInputUsedSymbolPane(class HbInputVkbWidget *, class QGraphicsWidget *)
	?tr@HbInputSettingDialog@@SA?AVQString@@PBD0H@Z @ 569 NONAME ABSENT ; class QString HbInputSettingDialog::tr(char const *, char const *, int)
	?trUtf8@HbInputUsedSymbolPane@@SA?AVQString@@PBD0@Z @ 570 NONAME ABSENT ; class QString HbInputUsedSymbolPane::trUtf8(char const *, char const *)
	?trUtf8@HbInputSettingDialog@@SA?AVQString@@PBD0@Z @ 571 NONAME ABSENT ; class QString HbInputSettingDialog::trUtf8(char const *, char const *)
	??_EHbQwertyKeyboard@@UAE@I@Z @ 572 NONAME ABSENT ; HbQwertyKeyboard::~HbQwertyKeyboard(unsigned int)
	??0HbInputCnScrollKeypad@@IAE@AAVHbInputCnScrollKeypadPrivate@@ABUHbCnKeypadConfigure@@PAVQGraphicsItem@@@Z @ 573 NONAME ABSENT ; HbInputCnScrollKeypad::HbInputCnScrollKeypad(class HbInputCnScrollKeypadPrivate &, struct HbCnKeypadConfigure const &, class QGraphicsItem *)
	?enableAutoKeyRepeatEvents@HbInputSctLandscape@@UAEXAAV?$QList@H@@@Z @ 574 NONAME ABSENT ; void HbInputSctLandscape::enableAutoKeyRepeatEvents(class QList<int> &)
	??_EHbRangeBar@@UAE@I@Z @ 575 NONAME ABSENT ; HbRangeBar::~HbRangeBar(unsigned int)
	?trUtf8@HbInputVirtualRocker@@SA?AVQString@@PBD0H@Z @ 576 NONAME ; class QString HbInputVirtualRocker::trUtf8(char const *, char const *, int)
	?d_func@Hb12KeyTouchKeypad@@AAEPAVHb12KeyTouchKeypadPrivate@@XZ @ 577 NONAME ABSENT ; class Hb12KeyTouchKeypadPrivate * Hb12KeyTouchKeypad::d_func(void)
	?secondaryLanguageChanged@HbInputSettingDialog@@QAEXH@Z @ 578 NONAME ABSENT ; void HbInputSettingDialog::secondaryLanguageChanged(int)
	?getStaticMetaObject@HbInputTabBar@@SAABUQMetaObject@@XZ @ 579 NONAME ABSENT ; struct QMetaObject const & HbInputTabBar::getStaticMetaObject(void)
	?minimizedKeyboardSize@HbInputVkbWidget@@UAE?AVQSizeF@@XZ @ 580 NONAME ; class QSizeF HbInputVkbWidget::minimizedKeyboardSize(void)
	?mappedKeyPress@HbInputVkbWidget@@QAEXH@Z @ 581 NONAME ABSENT ; void HbInputVkbWidget::mappedKeyPress(int)
	?aboutToClose@HbInputVkbWidget@@UAEXPAVHbVkbHost@@@Z @ 582 NONAME ; void HbInputVkbWidget::aboutToClose(class HbVkbHost *)
	?addTab@HbInputTabBar@@QAEXABVQString@@@Z @ 583 NONAME ABSENT ; void HbInputTabBar::addTab(class QString const &)
	?setTimerEnabled@HbInputCnTchButton@@QAEXH@Z @ 584 NONAME ABSENT ; void HbInputCnTchButton::setTimerEnabled(int)
	??1HbInputCnListCompositior@@UAE@XZ @ 585 NONAME ABSENT ; HbInputCnListCompositior::~HbInputCnListCompositior(void)
	?qt_metacall@HbInputCnScrollKeypad@@UAEHW4Call@QMetaObject@@HPAPAX@Z @ 586 NONAME ABSENT ; int HbInputCnScrollKeypad::qt_metacall(enum QMetaObject::Call, int, void * *)
	?staticMetaObject@HbInputCnListView@@2UQMetaObject@@B @ 587 NONAME ABSENT ; struct QMetaObject const HbInputCnListView::staticMetaObject
	?setButtonType@HbTouchKeypadButton@@QAEXW4HbTouchButtonType@1@@Z @ 588 NONAME ABSENT ; void HbTouchKeypadButton::setButtonType(enum HbTouchKeypadButton::HbTouchButtonType)
	??0HbInputSctPortrait@@IAE@AAVHbInputSctPortraitPrivate@@PAVQGraphicsItem@@@Z @ 589 NONAME ABSENT ; HbInputSctPortrait::HbInputSctPortrait(class HbInputSctPortraitPrivate &, class QGraphicsItem *)
	?initialize@HbInputCnModel@@QAE_NVQString@@@Z @ 590 NONAME ABSENT ; bool HbInputCnModel::initialize(class QString)
	?getStaticMetaObject@HbInputCnListView@@SAABUQMetaObject@@XZ @ 591 NONAME ABSENT ; struct QMetaObject const & HbInputCnListView::getStaticMetaObject(void)
	?d_func@HbExactWordPopup@@ABEPBVHbExactWordPopupPrivate@@XZ @ 592 NONAME ; class HbExactWordPopupPrivate const * HbExactWordPopup::d_func(void) const
	?itemChange@HbInputCnTouchListView@@MAE?AVQVariant@@W4GraphicsItemChange@QGraphicsItem@@ABV2@@Z @ 593 NONAME ABSENT ; class QVariant HbInputCnTouchListView::itemChange(enum QGraphicsItem::GraphicsItemChange, class QVariant const &)
	?qt_metacast@HbInputSctLandscape@@UAEPAXPBD@Z @ 594 NONAME ABSENT ; void * HbInputSctLandscape::qt_metacast(char const *)
	?setPenColor@HbWritingBox@@QAEXVQColor@@@Z @ 595 NONAME ABSENT ; void HbWritingBox::setPenColor(class QColor)
	?getStaticMetaObject@HbInputSctPortrait@@SAABUQMetaObject@@XZ @ 596 NONAME ABSENT ; struct QMetaObject const & HbInputSctPortrait::getStaticMetaObject(void)
	?setBackground@HbRange@@AAEXXZ @ 597 NONAME ABSENT ; void HbRange::setBackground(void)
	?showLanguageSelectionDialog@HbInputCommonDialogs@@SA?AVHbInputLanguage@@W4Language@QLocale@@V?$QList@VHbInputLanguage@@@@@Z @ 598 NONAME ; class HbInputLanguage HbInputCommonDialogs::showLanguageSelectionDialog(enum QLocale::Language, class QList<class HbInputLanguage>)
	?setText@HbInputSpell@@QAEXABVQString@@@Z @ 599 NONAME ABSENT ; void HbInputSpell::setText(class QString const &)
	?inputModeEqual@HbInputCnModel@@QAE_NHH@Z @ 600 NONAME ABSENT ; bool HbInputCnModel::inputModeEqual(int, int)
	?trUtf8@HbInputCnListModel@@SA?AVQString@@PBD0@Z @ 601 NONAME ABSENT ; class QString HbInputCnListModel::trUtf8(char const *, char const *)
	?trUtf8@Hb12KeyTouchKeypad@@SA?AVQString@@PBD0@Z @ 602 NONAME ABSENT ; class QString Hb12KeyTouchKeypad::trUtf8(char const *, char const *)
	?modelUpdated@HbInputCnListView@@IAEXXZ @ 603 NONAME ABSENT ; void HbInputCnListView::modelUpdated(void)
	?setOrientation@HbInputCustomButtonList@@QAEXW4Orientation@Qt@@@Z @ 604 NONAME ABSENT ; void HbInputCustomButtonList::setOrientation(enum Qt::Orientation)
	?removeTab@HbInputVkbWidget@@UAEXH@Z @ 605 NONAME ABSENT ; void HbInputVkbWidget::removeTab(int)
	?d_func@HbQwertyKeyboard@@AAEPAVHbQwertyKeyboardPrivate@@XZ @ 606 NONAME ABSENT ; class HbQwertyKeyboardPrivate * HbQwertyKeyboard::d_func(void)
	?showCharacters@HbCharPreviewPane@@QAEXABVQStringList@@ABVQRectF@@@Z @ 607 NONAME ABSENT ; void HbCharPreviewPane::showCharacters(class QStringList const &, class QRectF const &)
	??0HbInputCnListCompositior@@QAE@PAVHbInputCnListModel@@@Z @ 608 NONAME ABSENT ; HbInputCnListCompositior::HbInputCnListCompositior(class HbInputCnListModel *)
	?tabSelected@HbInputTabBar@@IAEXH@Z @ 609 NONAME ABSENT ; void HbInputTabBar::tabSelected(int)
	?trUtf8@HbInputTabBar@@SA?AVQString@@PBD0H@Z @ 610 NONAME ABSENT ; class QString HbInputTabBar::trUtf8(char const *, char const *, int)
	?getStaticMetaObject@HbExactWordPopup@@SAABUQMetaObject@@XZ @ 611 NONAME ; struct QMetaObject const & HbExactWordPopup::getStaticMetaObject(void)
	??0HbRange@@QAE@HABVQString@@0PAVQGraphicsItem@@@Z @ 612 NONAME ABSENT ; HbRange::HbRange(int, class QString const &, class QString const &, class QGraphicsItem *)
	?keycode@HbInputCnTchButton@@QBEHXZ @ 613 NONAME ABSENT ; int HbInputCnTchButton::keycode(void) const
	??0HbInputCnTchButton@@IAE@HABVQString@@AAVHbInputCnTchButtonPrivate@@PAVQGraphicsItem@@@Z @ 614 NONAME ABSENT ; HbInputCnTchButton::HbInputCnTchButton(int, class QString const &, class HbInputCnTchButtonPrivate &, class QGraphicsItem *)
	?reorganizeKeypad@HbInputCnScrollKeypad@@QAEXABUHbCnKeypadKeys@@@Z @ 615 NONAME ABSENT ; void HbInputCnScrollKeypad::reorganizeKeypad(struct HbCnKeypadKeys const &)
	?d_func@HbInputCnModel@@AAEPAVHbInputCnModelPrivate@@XZ @ 616 NONAME ABSENT ; class HbInputCnModelPrivate * HbInputCnModel::d_func(void)
	?keypadEvent@HbInputCnKeypad@@IAEXW4HbCnWidgetEventType@@VQVariant@@@Z @ 617 NONAME ABSENT ; void HbInputCnKeypad::keypadEvent(enum HbCnWidgetEventType, class QVariant)
	?setPropertiesForKeys@HbInputCnKeypad@@QAEXABV?$QList@UHbCnVirtualKey@@@@@Z @ 618 NONAME ABSENT ; void HbInputCnKeypad::setPropertiesForKeys(class QList<struct HbCnVirtualKey> const &)
	??_EHbInputCnListVItutCompositior@@UAE@I@Z @ 619 NONAME ABSENT ; HbInputCnListVItutCompositior::~HbInputCnListVItutCompositior(unsigned int)
	??0HbInputCnKeypad@@QAE@ABUHbCnKeypadConfigure@@PAVQGraphicsItem@@@Z @ 620 NONAME ABSENT ; HbInputCnKeypad::HbInputCnKeypad(struct HbCnKeypadConfigure const &, class QGraphicsItem *)
	?d_func@HbCharPreviewPane@@AAEPAVHbCharPreviewPanePrivate@@XZ @ 621 NONAME ABSENT ; class HbCharPreviewPanePrivate * HbCharPreviewPane::d_func(void)
	??0HbQwertyKeyboard@@QAE@PAVHbInputMethod@@PAVHbKeyMapData@@PAVQGraphicsItem@@W4HbKeypadMode@@@Z @ 622 NONAME ABSENT ; HbQwertyKeyboard::HbQwertyKeyboard(class HbInputMethod *, class HbKeyMapData *, class QGraphicsItem *, enum HbKeypadMode)
	?setExpandEnabled@HbInputCnListView@@QAEX_N@Z @ 623 NONAME ABSENT ; void HbInputCnListView::setExpandEnabled(bool)
	?trUtf8@HbQwertyKeyboard@@SA?AVQString@@PBD0@Z @ 624 NONAME ABSENT ; class QString HbQwertyKeyboard::trUtf8(char const *, char const *)
	?buttonSmileyText@HbInputCnScrollKeypad@@QAE?AVQString@@H@Z @ 625 NONAME ABSENT ; class QString HbInputCnScrollKeypad::buttonSmileyText(int)
	?sctCharacterSelected@HbInputSctLandscape@@IAEXVQChar@@@Z @ 626 NONAME ABSENT ; void HbInputSctLandscape::sctCharacterSelected(class QChar)
	?setModifiers@HbQwertyKeyboard@@UAEXV?$QFlags@W4HbModifier@@@@@Z @ 627 NONAME ABSENT ; void HbQwertyKeyboard::setModifiers(class QFlags<enum HbModifier>)
	?customButtonReleased@HbInputCustomButtonList@@IAEXH@Z @ 628 NONAME ABSENT ; void HbInputCustomButtonList::customButtonReleased(int)
	?qt_metacall@HbInputCnListView@@UAEHW4Call@QMetaObject@@HPAPAX@Z @ 629 NONAME ABSENT ; int HbInputCnListView::qt_metacall(enum QMetaObject::Call, int, void * *)
	?selectASpell@HbInputCnModel@@QAE_NH@Z @ 630 NONAME ABSENT ; bool HbInputCnModel::selectASpell(int)
	?mousePressEvent@HbWritingBox@@MAEXPAVQGraphicsSceneMouseEvent@@@Z @ 631 NONAME ABSENT ; void HbWritingBox::mousePressEvent(class QGraphicsSceneMouseEvent *)
	?getStaticMetaObject@HbInputCustomButtonList@@SAABUQMetaObject@@XZ @ 632 NONAME ABSENT ; struct QMetaObject const & HbInputCustomButtonList::getStaticMetaObject(void)
	?tr@HbInputModeIndicator@@SA?AVQString@@PBD0H@Z @ 633 NONAME ; class QString HbInputModeIndicator::tr(char const *, char const *, int)
	??_EHbInputCnKeypad@@UAE@I@Z @ 634 NONAME ABSENT ; HbInputCnKeypad::~HbInputCnKeypad(unsigned int)
	?tr@HbPreviewLabel@@SA?AVQString@@PBD0H@Z @ 635 NONAME ABSENT ; class QString HbPreviewLabel::tr(char const *, char const *, int)
	?tr@HbInputCnKeypad@@SA?AVQString@@PBD0H@Z @ 636 NONAME ABSENT ; class QString HbInputCnKeypad::tr(char const *, char const *, int)
	?d_func@HbInputSctPortrait@@AAEPAVHbInputSctPortraitPrivate@@XZ @ 637 NONAME ABSENT ; class HbInputSctPortraitPrivate * HbInputSctPortrait::d_func(void)
	?getStaticMetaObject@HbRangeBar@@SAABUQMetaObject@@XZ @ 638 NONAME ABSENT ; struct QMetaObject const & HbRangeBar::getStaticMetaObject(void)
	?pageCount@HbInputCnListCompositior@@QBEHXZ @ 639 NONAME ABSENT ; int HbInputCnListCompositior::pageCount(void) const
	??0HbInputSettingDialog@@QAE@PAVQGraphicsWidget@@@Z @ 640 NONAME ABSENT ; HbInputSettingDialog::HbInputSettingDialog(class QGraphicsWidget *)
	?tabGeometry@HbInputTabBar@@QAE?AVQRectF@@H@Z @ 641 NONAME ABSENT ; class QRectF HbInputTabBar::tabGeometry(int)
	?candsList@HbInputCnModel@@QAEXHHAAVQStringList@@@Z @ 642 NONAME ABSENT ; void HbInputCnModel::candsList(int, int, class QStringList &)
	?qt_metacast@HbCharPreviewPane@@UAEPAXPBD@Z @ 643 NONAME ABSENT ; void * HbCharPreviewPane::qt_metacast(char const *)
	?strokeEndMark@HbWritingBox@@QBE?AVQPointF@@XZ @ 644 NONAME ABSENT ; class QPointF HbWritingBox::strokeEndMark(void) const
	?qt_metacast@HbInputCnTouchListView@@UAEPAXPBD@Z @ 645 NONAME ABSENT ; void * HbInputCnTouchListView::qt_metacast(char const *)
	?mouseDoubleClickEvent@HbInputVirtualRocker@@MAEXPAVQGraphicsSceneMouseEvent@@@Z @ 646 NONAME ; void HbInputVirtualRocker::mouseDoubleClickEvent(class QGraphicsSceneMouseEvent *)
	?staticMetaObject@HbQwertyKeyboard@@2UQMetaObject@@B @ 647 NONAME ABSENT ; struct QMetaObject const HbQwertyKeyboard::staticMetaObject
	?setBgColor@HbWritingBox@@QAEXVQColor@@@Z @ 648 NONAME ABSENT ; void HbWritingBox::setBgColor(class QColor)
	?setCharSet@HbInputSctPortrait@@QAEXABVQString@@PAVHbInputFilter@@@Z @ 649 NONAME ABSENT ; void HbInputSctPortrait::setCharSet(class QString const &, class HbInputFilter *)
	?instance@HbInputKeypadReader@@SAPAV1@XZ @ 650 NONAME ABSENT ; class HbInputKeypadReader * HbInputKeypadReader::instance(void)
	?spellCount@HbInputCnModel@@QBEHXZ @ 651 NONAME ABSENT ; int HbInputCnModel::spellCount(void) const
	?keyboardType@HbInputSctPortrait@@UBE?AV?$QFlags@W4HbKeyboardTypeFlag@@@@XZ @ 652 NONAME ABSENT ; class QFlags<enum HbKeyboardTypeFlag> HbInputSctPortrait::keyboardType(void) const
	?keyboardType@HbInputSctLandscape@@UBE?AV?$QFlags@W4HbKeyboardTypeFlag@@@@XZ @ 653 NONAME ABSENT ; class QFlags<enum HbKeyboardTypeFlag> HbInputSctLandscape::keyboardType(void) const
	?mappedKeyRelease@HbInputVkbWidget@@QAEXH@Z @ 654 NONAME ABSENT ; void HbInputVkbWidget::mappedKeyRelease(int)
	?metaObject@HbCharPreviewPane@@UBEPBUQMetaObject@@XZ @ 655 NONAME ABSENT ; struct QMetaObject const * HbCharPreviewPane::metaObject(void) const
	?trUtf8@HbRange@@SA?AVQString@@PBD0H@Z @ 656 NONAME ABSENT ; class QString HbRange::trUtf8(char const *, char const *, int)
	?setActive@HbRange@@QAEX_N@Z @ 657 NONAME ABSENT ; void HbRange::setActive(bool)
	?trUtf8@HbInputTabBar@@SA?AVQString@@PBD0@Z @ 658 NONAME ABSENT ; class QString HbInputTabBar::trUtf8(char const *, char const *)
	?tabClicked@HbInputVkbWidget@@QAEXH@Z @ 659 NONAME ABSENT ; void HbInputVkbWidget::tabClicked(int)
	??_EHbPreviewLabel@@UAE@I@Z @ 660 NONAME ABSENT ; HbPreviewLabel::~HbPreviewLabel(unsigned int)
	?setButtonType@HbInputCnTchButton@@QAEXW4HbCnTchButtonType@@@Z @ 661 NONAME ABSENT ; void HbInputCnTchButton::setButtonType(enum HbCnTchButtonType)
	?aboutToOpen@HbInputSctLandscape@@UAEXPAVHbVkbHost@@@Z @ 662 NONAME ABSENT ; void HbInputSctLandscape::aboutToOpen(class HbVkbHost *)
	?sceneEventFilter@HbWritingBox@@MAE_NPAVQGraphicsItem@@PAVQEvent@@@Z @ 663 NONAME ABSENT ; bool HbWritingBox::sceneEventFilter(class QGraphicsItem *, class QEvent *)
	?d_func@HbInputSettingDialog@@AAEPAVHbInputSettingDialogPrivate@@XZ @ 664 NONAME ABSENT ; class HbInputSettingDialogPrivate * HbInputSettingDialog::d_func(void)
	?paint@HbInputUsedSymbolPane@@MAEXPAVQPainter@@PBVQStyleOptionGraphicsItem@@PAVQWidget@@@Z @ 665 NONAME ABSENT ; void HbInputUsedSymbolPane::paint(class QPainter *, class QStyleOptionGraphicsItem const *, class QWidget *)
	??0HbRange@@QAE@HABVQString@@PAVQGraphicsItem@@@Z @ 666 NONAME ABSENT ; HbRange::HbRange(int, class QString const &, class QGraphicsItem *)
	?instance@HbExactWordPopup@@SAPAV1@W4HbExactWordPopupIndicator@1@@Z @ 667 NONAME ; class HbExactWordPopup * HbExactWordPopup::instance(enum HbExactWordPopup::HbExactWordPopupIndicator)
	?setPropertiesForKey@HbInputCnKeypad@@QAEXABUHbCnVirtualKey@@@Z @ 668 NONAME ABSENT ; void HbInputCnKeypad::setPropertiesForKey(struct HbCnVirtualKey const &)
	?trUtf8@HbWritingBox@@SA?AVQString@@PBD0H@Z @ 669 NONAME ABSENT ; class QString HbWritingBox::trUtf8(char const *, char const *, int)
	?setNumberOfVisibleLines@HbCandidateList@@QAEXH@Z @ 670 NONAME ; void HbCandidateList::setNumberOfVisibleLines(int)
	?setAlignment@HbInputSpell@@QAEXV?$QFlags@W4AlignmentFlag@Qt@@@@@Z @ 671 NONAME ABSENT ; void HbInputSpell::setAlignment(class QFlags<enum Qt::AlignmentFlag>)
	?d_func@Hb12KeyTouchKeypad@@ABEPBVHb12KeyTouchKeypadPrivate@@XZ @ 672 NONAME ABSENT ; class Hb12KeyTouchKeypadPrivate const * Hb12KeyTouchKeypad::d_func(void) const
	?mouseDoubleClickEvent@HbInputUsedSymbolPane@@MAEXPAVQGraphicsSceneMouseEvent@@@Z @ 673 NONAME ABSENT ; void HbInputUsedSymbolPane::mouseDoubleClickEvent(class QGraphicsSceneMouseEvent *)
	?trUtf8@HbExactWordPopup@@SA?AVQString@@PBD0H@Z @ 674 NONAME ; class QString HbExactWordPopup::trUtf8(char const *, char const *, int)
	??0HbRangeBar@@QAE@PAVQGraphicsItem@@MW4Orientation@Qt@@@Z @ 675 NONAME ABSENT ; HbRangeBar::HbRangeBar(class QGraphicsItem *, float, enum Qt::Orientation)
	??0HbPreviewLabel@@QAE@VQString@@@Z @ 676 NONAME ABSENT ; HbPreviewLabel::HbPreviewLabel(class QString)
	?predictionStatusChanged@HbInputSettingDialog@@QAEXH@Z @ 677 NONAME ABSENT ; void HbInputSettingDialog::predictionStatusChanged(int)
	?virtualButtonPressed@HbInputCnKeypad@@QAEXH@Z @ 678 NONAME ABSENT ; void HbInputCnKeypad::virtualButtonPressed(int)
	?getStaticMetaObject@HbInputCnScrollKeypad@@SAABUQMetaObject@@XZ @ 679 NONAME ABSENT ; struct QMetaObject const & HbInputCnScrollKeypad::getStaticMetaObject(void)
	?readKeypads@HbInputKeypadReader@@AAEXAAV?$QHash@VQString@@UHbCnKeypadKeys@@@@@Z @ 680 NONAME ABSENT ; void HbInputKeypadReader::readKeypads(class QHash<class QString, struct HbCnKeypadKeys> &)
	?staticMetaObject@HbInputCnKeypad@@2UQMetaObject@@B @ 681 NONAME ABSENT ; struct QMetaObject const HbInputCnKeypad::staticMetaObject
	?launchPreviewPopup@HbInputCnListView@@IAEXABVQString@@VQRectF@@@Z @ 682 NONAME ABSENT ; void HbInputCnListView::launchPreviewPopup(class QString const &, class QRectF)
	?enableAutoKeyRepeatEvents@HbQwertyKeyboard@@UAEXAAV?$QList@H@@@Z @ 683 NONAME ABSENT ; void HbQwertyKeyboard::enableAutoKeyRepeatEvents(class QList<int> &)
	?keypadEvent@HbInputCnScrollKeypad@@IAEXW4HbCnWidgetEventType@@VQVariant@@@Z @ 684 NONAME ABSENT ; void HbInputCnScrollKeypad::keypadEvent(enum HbCnWidgetEventType, class QVariant)
	?qt_metacast@Hb12KeyTouchKeypad@@UAEPAXPBD@Z @ 685 NONAME ABSENT ; void * Hb12KeyTouchKeypad::qt_metacast(char const *)
	?tr@HbInputCnListModel@@SA?AVQString@@PBD0@Z @ 686 NONAME ABSENT ; class QString HbInputCnListModel::tr(char const *, char const *)
	?tr@Hb12KeyTouchKeypad@@SA?AVQString@@PBD0@Z @ 687 NONAME ABSENT ; class QString Hb12KeyTouchKeypad::tr(char const *, char const *)
	?hoverEnterEvent@HbRange@@MAEXPAVQGraphicsSceneHoverEvent@@@Z @ 688 NONAME ABSENT ; void HbRange::hoverEnterEvent(class QGraphicsSceneHoverEvent *)
	?readKeypadsList@HbInputKeypadReader@@QAE_NPAVQIODevice@@AAV?$QHash@VQString@@UHbCnKeypadKeys@@@@@Z @ 689 NONAME ABSENT ; bool HbInputKeypadReader::readKeypadsList(class QIODevice *, class QHash<class QString, struct HbCnKeypadKeys> &)
	?tr@HbRangeBar@@SA?AVQString@@PBD0@Z @ 690 NONAME ABSENT ; class QString HbRangeBar::tr(char const *, char const *)
	??0HbInputVkbWidget@@QAE@PAVQGraphicsItem@@@Z @ 691 NONAME ; HbInputVkbWidget::HbInputVkbWidget(class QGraphicsItem *)
	?mouseReleaseEvent@HbInputCnTchButton@@MAEXPAVQGraphicsSceneMouseEvent@@@Z @ 692 NONAME ABSENT ; void HbInputCnTchButton::mouseReleaseEvent(class QGraphicsSceneMouseEvent *)
	?metaObject@HbInputCnTouchListView@@UBEPBUQMetaObject@@XZ @ 693 NONAME ABSENT ; struct QMetaObject const * HbInputCnTouchListView::metaObject(void) const
	?released@HbInputCnTchButton@@IAEXH@Z @ 694 NONAME ABSENT ; void HbInputCnTchButton::released(int)
	?mouseReleaseEvent@HbExactWordPopup@@MAEXPAVQGraphicsSceneMouseEvent@@@Z @ 695 NONAME ; void HbExactWordPopup::mouseReleaseEvent(class QGraphicsSceneMouseEvent *)
	?setSpacing@HbRangeBar@@QAEXM@Z @ 696 NONAME ABSENT ; void HbRangeBar::setSpacing(float)
	?currentStroke@HbWritingBox@@QAEABV?$QList@VQPointF@@@@XZ @ 697 NONAME ABSENT ; class QList<class QPointF> const & HbWritingBox::currentStroke(void)
	?getStaticMetaObject@HbQwertyKeyboard@@SAABUQMetaObject@@XZ @ 698 NONAME ABSENT ; struct QMetaObject const & HbQwertyKeyboard::getStaticMetaObject(void)
	??0HbInputCnListPreCandModel@@QAE@PAVQObject@@H@Z @ 699 NONAME ABSENT ; HbInputCnListPreCandModel::HbInputCnListPreCandModel(class QObject *, int)
	??_EHbInputSctPortrait@@UAE@I@Z @ 700 NONAME ABSENT ; HbInputSctPortrait::~HbInputSctPortrait(unsigned int)
	?onExpandEnableStatusChanged@HbInputCnTouchListView@@MAEX_N@Z @ 701 NONAME ABSENT ; void HbInputCnTouchListView::onExpandEnableStatusChanged(bool)
	?keyPosition@HbInputCnKeypad@@QAE?AVQRectF@@H@Z @ 702 NONAME ABSENT ; class QRectF HbInputCnKeypad::keyPosition(int)
	?updateActions@HbInputCustomButtonList@@QAEXAAV?$QList@PAVHbAction@@@@@Z @ 703 NONAME ABSENT ; void HbInputCustomButtonList::updateActions(class QList<class HbAction *> &)
	?d_func@HbInputCnTouchListView@@ABEPBVHbInputCnTouchListViewPrivate@@XZ @ 704 NONAME ABSENT ; class HbInputCnTouchListViewPrivate const * HbInputCnTouchListView::d_func(void) const
	?keypadCloseEventDetected@HbInputVkbWidget@@IAEXW4HbVkbCloseMethod@1@@Z @ 705 NONAME ; void HbInputVkbWidget::keypadCloseEventDetected(enum HbInputVkbWidget::HbVkbCloseMethod)
	?tr@HbInputCnScrollKeypad@@SA?AVQString@@PBD0@Z @ 706 NONAME ABSENT ; class QString HbInputCnScrollKeypad::tr(char const *, char const *)
	?setMultitapText@HbInputCnTchButton@@QAEXABVQString@@@Z @ 707 NONAME ABSENT ; void HbInputCnTchButton::setMultitapText(class QString const &)
	?setRangeProperties@HbRange@@QAEXHABVQString@@@Z @ 708 NONAME ABSENT ; void HbRange::setRangeProperties(int, class QString const &)
	?getStaticMetaObject@HbInputCnTchButton@@SAABUQMetaObject@@XZ @ 709 NONAME ABSENT ; struct QMetaObject const & HbInputCnTchButton::getStaticMetaObject(void)
	??_EHbInputTabBar@@UAE@I@Z @ 710 NONAME ABSENT ; HbInputTabBar::~HbInputTabBar(unsigned int)
	?setRangeText@HbRangeBar@@QAEXHABVQString@@@Z @ 711 NONAME ABSENT ; void HbRangeBar::setRangeText(int, class QString const &)
	?qt_metacall@HbInputCustomButtonList@@UAEHW4Call@QMetaObject@@HPAPAX@Z @ 712 NONAME ABSENT ; int HbInputCustomButtonList::qt_metacall(enum QMetaObject::Call, int, void * *)
	?emitDismissPreviewPopup@HbInputCnListView@@IAEXXZ @ 713 NONAME ABSENT ; void HbInputCnListView::emitDismissPreviewPopup(void)
	?getStaticMetaObject@HbCandidateList@@SAABUQMetaObject@@XZ @ 714 NONAME ; struct QMetaObject const & HbCandidateList::getStaticMetaObject(void)
	?trUtf8@HbCharPreviewPane@@SA?AVQString@@PBD0H@Z @ 715 NONAME ABSENT ; class QString HbCharPreviewPane::trUtf8(char const *, char const *, int)
	??0Hb12KeyTouchKeypad@@QAE@PAVHbInputMethod@@PAVQGraphicsItem@@@Z @ 716 NONAME ABSENT ; Hb12KeyTouchKeypad::Hb12KeyTouchKeypad(class HbInputMethod *, class QGraphicsItem *)
	?setLatch@HbTouchKeypadButton@@QAEX_N@Z @ 717 NONAME ABSENT ; void HbTouchKeypadButton::setLatch(bool)
	?tr@HbTouchKeypadButton@@SA?AVQString@@PBD0H@Z @ 718 NONAME ABSENT ; class QString HbTouchKeypadButton::tr(char const *, char const *, int)
	?pageDownButtonClicked@HbInputCnTouchListView@@AAEXXZ @ 719 NONAME ABSENT ; void HbInputCnTouchListView::pageDownButtonClicked(void)
	??_EHbCandidateList@@UAE@I@Z @ 720 NONAME ; HbCandidateList::~HbCandidateList(unsigned int)
	?exactWordSelected@HbExactWordPopup@@IAEXXZ @ 721 NONAME ; void HbExactWordPopup::exactWordSelected(void)
	?mouseMoveEvent@HbInputVirtualRocker@@MAEXPAVQGraphicsSceneMouseEvent@@@Z @ 722 NONAME ; void HbInputVirtualRocker::mouseMoveEvent(class QGraphicsSceneMouseEvent *)
	?trUtf8@HbInputSctPortrait@@SA?AVQString@@PBD0H@Z @ 723 NONAME ABSENT ; class QString HbInputSctPortrait::trUtf8(char const *, char const *, int)
	?timerFlag@HbInputCnTchButton@@QAEHXZ @ 724 NONAME ABSENT ; int HbInputCnTchButton::timerFlag(void)
	?onRepeatLongTimeOut@HbWritingBox@@QAEXXZ @ 725 NONAME ABSENT ; void HbWritingBox::onRepeatLongTimeOut(void)
	?setIcon@HbInputTabBar@@QAEXHABVQString@@@Z @ 726 NONAME ABSENT ; void HbInputTabBar::setIcon(int, class QString const &)
	??0HbTouchKeypadButton@@QAE@PAVHbInputVkbWidget@@ABVQString@@PAVQGraphicsWidget@@@Z @ 727 NONAME ABSENT ; HbTouchKeypadButton::HbTouchKeypadButton(class HbInputVkbWidget *, class QString const &, class QGraphicsWidget *)
	?staticMetaObject@HbInputCnListModel@@2UQMetaObject@@B @ 728 NONAME ABSENT ; struct QMetaObject const HbInputCnListModel::staticMetaObject
	?itemCount@HbInputCnListModel@@QBEHXZ @ 729 NONAME ABSENT ; int HbInputCnListModel::itemCount(void) const
	?model@HbInputCnListView@@QBEPAVHbInputCnListModel@@XZ @ 730 NONAME ABSENT ; class HbInputCnListModel * HbInputCnListView::model(void) const
	?preferredKeyboardSize@HbInputSctPortrait@@UAE?AVQSizeF@@XZ @ 731 NONAME ABSENT ; class QSizeF HbInputSctPortrait::preferredKeyboardSize(void)
	?enableAutoKeyRepeatEvents@Hb12KeyTouchKeypad@@UAEXAAV?$QList@H@@@Z @ 732 NONAME ABSENT ; void Hb12KeyTouchKeypad::enableAutoKeyRepeatEvents(class QList<int> &)
	?mousePressEvent@HbTouchKeypadButton@@MAEXPAVQGraphicsSceneMouseEvent@@@Z @ 733 NONAME ABSENT ; void HbTouchKeypadButton::mousePressEvent(class QGraphicsSceneMouseEvent *)
	?qt_metacast@HbPreviewLabel@@UAEPAXPBD@Z @ 734 NONAME ABSENT ; void * HbPreviewLabel::qt_metacast(char const *)
	?paint@HbWritingBox@@MAEXPAVQPainter@@PBVQStyleOptionGraphicsItem@@PAVQWidget@@@Z @ 735 NONAME ABSENT ; void HbWritingBox::paint(class QPainter *, class QStyleOptionGraphicsItem const *, class QWidget *)
	?updatePrimitives@HbInputCnTchButton@@UAEXXZ @ 736 NONAME ABSENT ; void HbInputCnTchButton::updatePrimitives(void)
	?d_func@HbInputSctPortrait@@ABEPBVHbInputSctPortraitPrivate@@XZ @ 737 NONAME ABSENT ; class HbInputSctPortraitPrivate const * HbInputSctPortrait::d_func(void) const
	?setExpand@HbInputCnListView@@IAEX_N@Z @ 738 NONAME ABSENT ; void HbInputCnListView::setExpand(bool)
	?onMultitapTimeOut@HbInputCnKeypad@@QAEXXZ @ 739 NONAME ABSENT ; void HbInputCnKeypad::onMultitapTimeOut(void)
	?staticMetaObject@HbPreviewLabel@@2UQMetaObject@@B @ 740 NONAME ABSENT ; struct QMetaObject const HbPreviewLabel::staticMetaObject
	?setIcon@HbInputCnTchButton@@QAEXABVQString@@@Z @ 741 NONAME ABSENT ; void HbInputCnTchButton::setIcon(class QString const &)
	?d_func@HbCharPreviewPane@@ABEPBVHbCharPreviewPanePrivate@@XZ @ 742 NONAME ABSENT ; class HbCharPreviewPanePrivate const * HbCharPreviewPane::d_func(void) const
	?updatePrimitives@HbExactWordPopup@@MAEXXZ @ 743 NONAME ; void HbExactWordPopup::updatePrimitives(void)
	?updateModel@HbInputCnListView@@QAEXXZ @ 744 NONAME ABSENT ; void HbInputCnListView::updateModel(void)
	?tr@HbQwertyKeyboard@@SA?AVQString@@PBD0H@Z @ 745 NONAME ABSENT ; class QString HbQwertyKeyboard::tr(char const *, char const *, int)
	?setPredictionBase@HbInputCnModel@@QAE_NVQString@@@Z @ 746 NONAME ABSENT ; bool HbInputCnModel::setPredictionBase(class QString)
	?mouseReleaseEvent@HbInputVirtualRocker@@MAEXPAVQGraphicsSceneMouseEvent@@@Z @ 747 NONAME ; void HbInputVirtualRocker::mouseReleaseEvent(class QGraphicsSceneMouseEvent *)
	?tr@HbWritingBox@@SA?AVQString@@PBD0@Z @ 748 NONAME ABSENT ; class QString HbWritingBox::tr(char const *, char const *)
	?settingItemDisplayed@HbInputSettingDialog@@QAEXABVQModelIndex@@@Z @ 749 NONAME ABSENT ; void HbInputSettingDialog::settingItemDisplayed(class QModelIndex const &)
	?metaObject@HbInputVirtualRocker@@UBEPBUQMetaObject@@XZ @ 750 NONAME ; struct QMetaObject const * HbInputVirtualRocker::metaObject(void) const
	?constructIconRanges@HbRangeBar@@QAEXABV?$QList@UHbIconRangePair@@@@@Z @ 751 NONAME ABSENT ; void HbRangeBar::constructIconRanges(class QList<struct HbIconRangePair> const &)
	??1HbExactWordPopup@@UAE@XZ @ 752 NONAME ; HbExactWordPopup::~HbExactWordPopup(void)
	??0HbInputSctLandscape@@IAE@AAVHbInputSctLandscapePrivate@@PAVQGraphicsItem@@@Z @ 753 NONAME ABSENT ; HbInputSctLandscape::HbInputSctLandscape(class HbInputSctLandscapePrivate &, class QGraphicsItem *)
	?staticMetaObject@HbInputCnTchButton@@2UQMetaObject@@B @ 754 NONAME ABSENT ; struct QMetaObject const HbInputCnTchButton::staticMetaObject
	?qt_metacast@HbInputCnScrollKeypad@@UAEPAXPBD@Z @ 755 NONAME ABSENT ; void * HbInputCnScrollKeypad::qt_metacast(char const *)
	?trUtf8@HbInputSctPortrait@@SA?AVQString@@PBD0@Z @ 756 NONAME ABSENT ; class QString HbInputSctPortrait::trUtf8(char const *, char const *)
	?qt_metacall@HbInputModeIndicator@@UAEHW4Call@QMetaObject@@HPAPAX@Z @ 757 NONAME ; int HbInputModeIndicator::qt_metacall(enum QMetaObject::Call, int, void * *)
	?supportsKeyboardType@HbInputCnModel@@QAE_NHV?$QFlags@W4HbKeyboardTypeFlag@@@@@Z @ 758 NONAME ABSENT ; bool HbInputCnModel::supportsKeyboardType(int, class QFlags<enum HbKeyboardTypeFlag>)
	?staticMetaObject@HbInputVkbWidget@@2UQMetaObject@@B @ 759 NONAME ; struct QMetaObject const HbInputVkbWidget::staticMetaObject
	?staticMetaObject@HbInputUsedSymbolPane@@2UQMetaObject@@B @ 760 NONAME ABSENT ; struct QMetaObject const HbInputUsedSymbolPane::staticMetaObject
	??0HbInputSpell@@QAE@PAVQGraphicsItem@@ABVQString@@@Z @ 761 NONAME ABSENT ; HbInputSpell::HbInputSpell(class QGraphicsItem *, class QString const &)
	?initialize@HbInputCnModel@@QAE_NABVHbInputLanguage@@V?$QFlags@W4HbInputModeTypeFlag@@@@@Z @ 762 NONAME ABSENT ; bool HbInputCnModel::initialize(class HbInputLanguage const &, class QFlags<enum HbInputModeTypeFlag>)
	?mappedKeyClick@HbQwertyKeyboard@@AAEXH@Z @ 763 NONAME ABSENT ; void HbQwertyKeyboard::mappedKeyClick(int)
	?trUtf8@HbInputUsedSymbolPane@@SA?AVQString@@PBD0H@Z @ 764 NONAME ABSENT ; class QString HbInputUsedSymbolPane::trUtf8(char const *, char const *, int)
	?tr@HbInputTabBar@@SA?AVQString@@PBD0H@Z @ 765 NONAME ABSENT ; class QString HbInputTabBar::tr(char const *, char const *, int)
	?paint@HbInputVirtualRocker@@MAEXPAVQPainter@@PBVQStyleOptionGraphicsItem@@PAVQWidget@@@Z @ 766 NONAME ; void HbInputVirtualRocker::paint(class QPainter *, class QStyleOptionGraphicsItem const *, class QWidget *)
	?onModelUpdated@HbInputCnTouchListView@@AAEXXZ @ 767 NONAME ABSENT ; void HbInputCnTouchListView::onModelUpdated(void)
	?trUtf8@HbInputSettingDialog@@SA?AVQString@@PBD0H@Z @ 768 NONAME ABSENT ; class QString HbInputSettingDialog::trUtf8(char const *, char const *, int)
	??1HbInputCnModel@@UAE@XZ @ 769 NONAME ABSENT ; HbInputCnModel::~HbInputCnModel(void)
	?setPropertiesForKeys@HbInputCnScrollKeypad@@QAEXABV?$QList@UHbCnVirtualKey@@@@@Z @ 770 NONAME ABSENT ; void HbInputCnScrollKeypad::setPropertiesForKeys(class QList<struct HbCnVirtualKey> const &)
	?setBackground@HbTouchKeypadButton@@IAEXVQString@@@Z @ 771 NONAME ABSENT ; void HbTouchKeypadButton::setBackground(class QString)
	?qt_metacast@HbInputCnKeypad@@UAEPAXPBD@Z @ 772 NONAME ABSENT ; void * HbInputCnKeypad::qt_metacast(char const *)
	??_EHbInputVirtualRocker@@UAE@I@Z @ 773 NONAME ; HbInputVirtualRocker::~HbInputVirtualRocker(unsigned int)
	?aboutToClose@HbQwertyKeyboard@@UAEXPAVHbVkbHost@@@Z @ 774 NONAME ABSENT ; void HbQwertyKeyboard::aboutToClose(class HbVkbHost *)
	??0HbInputCnListPreSymbolModel@@QAE@PAVQObject@@H@Z @ 775 NONAME ABSENT ; HbInputCnListPreSymbolModel::HbInputCnListPreSymbolModel(class QObject *, int)
	?itemList@HbInputCnListModel@@QBE?AV?$QList@VQVariant@@@@XZ @ 776 NONAME ABSENT ; class QList<class QVariant> HbInputCnListModel::itemList(void) const
	?qt_metacast@HbInputSpell@@UAEPAXPBD@Z @ 777 NONAME ABSENT ; void * HbInputSpell::qt_metacast(char const *)
	?charInterval@HbWritingBox@@QBEHXZ @ 778 NONAME ABSENT ; int HbWritingBox::charInterval(void) const
	?supportsKeyboardType@HbInputCnModel@@QAE_NABVHbInputLanguage@@V?$QFlags@W4HbKeyboardTypeFlag@@@@@Z @ 779 NONAME ABSENT ; bool HbInputCnModel::supportsKeyboardType(class HbInputLanguage const &, class QFlags<enum HbKeyboardTypeFlag>)
	?type@HbInputVirtualRocker@@UBEHXZ @ 780 NONAME ; int HbInputVirtualRocker::type(void) const
	??0HbInputSettingDialog@@QAE@V?$QFlags@W4HbSettingItem@HbInputSettingDialog@@@@PAVQGraphicsWidget@@@Z @ 781 NONAME ABSENT ; HbInputSettingDialog::HbInputSettingDialog(class QFlags<enum HbInputSettingDialog::HbSettingItem>, class QGraphicsWidget *)
	?supportedLanguages@HbInputCnModel@@QBE?AV?$QList@VHbInputLanguage@@@@XZ @ 782 NONAME ABSENT ; class QList<class HbInputLanguage> HbInputCnModel::supportedLanguages(void) const
	?qt_metacast@HbStackedRange@@UAEPAXPBD@Z @ 783 NONAME ABSENT ; void * HbStackedRange::qt_metacast(char const *)
	?onMouseEvent@HbInputCnKeypad@@QAEXPAVQGraphicsSceneMouseEvent@@@Z @ 784 NONAME ABSENT ; void HbInputCnKeypad::onMouseEvent(class QGraphicsSceneMouseEvent *)
	?visibleRange@HbStackedRange@@QAEPAVHbRange@@XZ @ 785 NONAME ABSENT ; class HbRange * HbStackedRange::visibleRange(void)
	?handleInputModesActivated@HbInputCnModel@@QAEXPAVHbInputMethod@@VQString@@@Z @ 786 NONAME ABSENT ; void HbInputCnModel::handleInputModesActivated(class HbInputMethod *, class QString)
	?alternativeInputModes@HbInputCnModel@@QAE?AV?$QList@V?$QFlags@W4HbInputModeTypeFlag@@@@@@PAVHbInputMethod@@VHbInputLanguage@@V?$QFlags@W4HbInputModeTypeFlag@@@@@Z @ 787 NONAME ABSENT ; class QList<class QFlags<enum HbInputModeTypeFlag> > HbInputCnModel::alternativeInputModes(class HbInputMethod *, class HbInputLanguage, class QFlags<enum HbInputModeTypeFlag>)
	?trUtf8@HbStackedRange@@SA?AVQString@@PBD0H@Z @ 788 NONAME ABSENT ; class QString HbStackedRange::trUtf8(char const *, char const *, int)
	?setSct@HbInputSctLandscape@@QAEXW4HbSctView@HbInputVkbWidget@@_N@Z @ 789 NONAME ABSENT ; void HbInputSctLandscape::setSct(enum HbInputVkbWidget::HbSctView, bool)
	?constructIconRanges@HbRangeBar@@QAEXABV?$QList@V?$QList@UHbIconRangePair@@@@@@@Z @ 790 NONAME ABSENT ; void HbRangeBar::constructIconRanges(class QList<class QList<struct HbIconRangePair> > const &)
	?addRange@HbStackedRange@@QAEXPAVHbRange@@@Z @ 791 NONAME ABSENT ; void HbStackedRange::addRange(class HbRange *)
	?setMode@HbInputVkbWidget@@UAEXW4HbKeypadMode@@V?$QFlags@W4HbModifier@@@@@Z @ 792 NONAME ; void HbInputVkbWidget::setMode(enum HbKeypadMode, class QFlags<enum HbModifier>)
	?emitGestureMouseEvent@HbRangeBar@@QAEXPAVQGraphicsSceneMouseEvent@@@Z @ 793 NONAME ABSENT ; void HbRangeBar::emitGestureMouseEvent(class QGraphicsSceneMouseEvent *)
	??0HbStackedRange@@QAE@PAVQGraphicsItem@@@Z @ 794 NONAME ABSENT ; HbStackedRange::HbStackedRange(class QGraphicsItem *)
	?setMode@HbQwertyKeyboard@@UAEXW4HbKeypadMode@@V?$QFlags@W4HbModifier@@@@@Z @ 795 NONAME ABSENT ; void HbQwertyKeyboard::setMode(enum HbKeypadMode, class QFlags<enum HbModifier>)
	?sctModeSelected@HbInputVkbWidget@@IAEXH@Z @ 796 NONAME ABSENT ; void HbInputVkbWidget::sctModeSelected(int)
	?constructRanges@HbRangeBar@@QAEXABV?$QList@V?$QList@UHbRangePair@@@@@@@Z @ 797 NONAME ABSENT ; void HbRangeBar::constructRanges(class QList<class QList<struct HbRangePair> > const &)
	?mouseReleaseEvent@HbRange@@MAEXPAVQGraphicsSceneMouseEvent@@@Z @ 798 NONAME ABSENT ; void HbRange::mouseReleaseEvent(class QGraphicsSceneMouseEvent *)
	?isCurrentPredictEngSupported@HbInputCnModel@@QAE_NV?$QFlags@W4HbInputModeTypeFlag@@@@@Z @ 799 NONAME ABSENT ; bool HbInputCnModel::isCurrentPredictEngSupported(class QFlags<enum HbInputModeTypeFlag>)
	?trUtf8@HbStackedRange@@SA?AVQString@@PBD0@Z @ 800 NONAME ABSENT ; class QString HbStackedRange::trUtf8(char const *, char const *)
	?sctModeListClosed@Hb12KeyTouchKeypad@@UAEXXZ @ 801 NONAME ABSENT ; void Hb12KeyTouchKeypad::sctModeListClosed(void)
	??_EHbStackedRange@@UAE@I@Z @ 802 NONAME ABSENT ; HbStackedRange::~HbStackedRange(unsigned int)
	?removeAllRanges@HbRangeBar@@AAEXXZ @ 803 NONAME ABSENT ; void HbRangeBar::removeAllRanges(void)
	?inputModesName@HbInputCnModel@@QAE?AVQString@@V?$QFlags@W4HbInputModeTypeFlag@@@@@Z @ 804 NONAME ABSENT ; class QString HbInputCnModel::inputModesName(class QFlags<enum HbInputModeTypeFlag>)
	?modifiers@HbInputVkbWidget@@UBE?AV?$QFlags@W4HbModifier@@@@XZ @ 805 NONAME ; class QFlags<enum HbModifier> HbInputVkbWidget::modifiers(void) const
	?initSctModeList@HbQwertyKeyboard@@MAEXXZ @ 806 NONAME ABSENT ; void HbQwertyKeyboard::initSctModeList(void)
	?gestureMouseEvent@HbRangeBar@@IAEXPAVQGraphicsSceneMouseEvent@@@Z @ 807 NONAME ABSENT ; void HbRangeBar::gestureMouseEvent(class QGraphicsSceneMouseEvent *)
	?initSctModeList@HbInputVkbWidget@@MAEXXZ @ 808 NONAME ABSENT ; void HbInputVkbWidget::initSctModeList(void)
	?metaObject@HbStackedRange@@UBEPBUQMetaObject@@XZ @ 809 NONAME ABSENT ; struct QMetaObject const * HbStackedRange::metaObject(void) const
	?mouseMoveEvent@HbRange@@MAEXPAVQGraphicsSceneMouseEvent@@@Z @ 810 NONAME ABSENT ; void HbRange::mouseMoveEvent(class QGraphicsSceneMouseEvent *)
	?emitGestureMouseEvent@HbInputCnListView@@IAEXPAVQGraphicsSceneMouseEvent@@@Z @ 811 NONAME ABSENT ; void HbInputCnListView::emitGestureMouseEvent(class QGraphicsSceneMouseEvent *)
	?onRangeChanged@HbRangeBar@@QAEXPAVHbStackedRange@@H@Z @ 812 NONAME ABSENT ; void HbRangeBar::onRangeChanged(class HbStackedRange *, int)
	?tr@HbStackedRange@@SA?AVQString@@PBD0@Z @ 813 NONAME ABSENT ; class QString HbStackedRange::tr(char const *, char const *)
	?handleInputMethodsActivated@HbInputCnModel@@QAEXPAVHbInputMethod@@VQString@@W4Orientation@Qt@@PAVHbMainWindow@@@Z @ 814 NONAME ABSENT ; void HbInputCnModel::handleInputMethodsActivated(class HbInputMethod *, class QString, enum Qt::Orientation, class HbMainWindow *)
	?buttonSmileyText@HbInputCnKeypad@@QAE?AVQString@@H@Z @ 815 NONAME ABSENT ; class QString HbInputCnKeypad::buttonSmileyText(int)
	?createRanges@HbRangeBar@@AAEPAVHbStackedRange@@ABV?$QList@UHbIconRangePair@@@@@Z @ 816 NONAME ABSENT ; class HbStackedRange * HbRangeBar::createRanges(class QList<struct HbIconRangePair> const &)
	?setMode@Hb12KeyTouchKeypad@@UAEXW4HbKeypadMode@@V?$QFlags@W4HbModifier@@@@@Z @ 817 NONAME ABSENT ; void Hb12KeyTouchKeypad::setMode(enum HbKeypadMode, class QFlags<enum HbModifier>)
	?tr@HbStackedRange@@SA?AVQString@@PBD0H@Z @ 818 NONAME ABSENT ; class QString HbStackedRange::tr(char const *, char const *, int)
	?buttonType@HbInputCnTchButton@@QAE?AW4HbCnTchButtonType@@XZ @ 819 NONAME ABSENT ; enum HbCnTchButtonType HbInputCnTchButton::buttonType(void)
	?setIndiText@HbInputCnScrollKeypad@@AAEXVQPointF@@@Z @ 820 NONAME ABSENT ; void HbInputCnScrollKeypad::setIndiText(class QPointF)
	?paint@HbInputCnScrollKeypad@@MAEXPAVQPainter@@PBVQStyleOptionGraphicsItem@@PAVQWidget@@@Z @ 821 NONAME ABSENT ; void HbInputCnScrollKeypad::paint(class QPainter *, class QStyleOptionGraphicsItem const *, class QWidget *)
	?scrollEnded@HbInputCnScrollKeypad@@QAEXXZ @ 822 NONAME ABSENT ; void HbInputCnScrollKeypad::scrollEnded(void)
	?gestureMouseEvent@HbInputCnListView@@IAEXPAVQGraphicsSceneMouseEvent@@@Z @ 823 NONAME ABSENT ; void HbInputCnListView::gestureMouseEvent(class QGraphicsSceneMouseEvent *)
	?qt_metacall@HbStackedRange@@UAEHW4Call@QMetaObject@@HPAPAX@Z @ 824 NONAME ABSENT ; int HbStackedRange::qt_metacall(enum QMetaObject::Call, int, void * *)
	?loopRange@HbStackedRange@@QAEXH_N@Z @ 825 NONAME ABSENT ; void HbStackedRange::loopRange(int, bool)
	?rangeByValue@HbStackedRange@@QAEPAVHbRange@@H@Z @ 826 NONAME ABSENT ; class HbRange * HbStackedRange::rangeByValue(int)
	?createRanges@HbRangeBar@@AAEPAVHbStackedRange@@ABV?$QList@UHbRangePair@@@@@Z @ 827 NONAME ABSENT ; class HbStackedRange * HbRangeBar::createRanges(class QList<struct HbRangePair> const &)
	?changeScreenOrientation@HbInputCnModel@@QAEXW4Orientation@Qt@@PAVHbMainWindow@@@Z @ 828 NONAME ABSENT ; void HbInputCnModel::changeScreenOrientation(enum Qt::Orientation, class HbMainWindow *)
	?rangeChange@HbStackedRange@@IAEXPAV1@H@Z @ 829 NONAME ABSENT ; void HbStackedRange::rangeChange(class HbStackedRange *, int)
	?getStaticMetaObject@HbStackedRange@@SAABUQMetaObject@@XZ @ 830 NONAME ABSENT ; struct QMetaObject const & HbStackedRange::getStaticMetaObject(void)
	?sctModeListClosed@HbQwertyKeyboard@@UAEXXZ @ 831 NONAME ABSENT ; void HbQwertyKeyboard::sctModeListClosed(void)
	?gestureMouseEvent@HbInputCnKeypad@@IAEXPAVQGraphicsSceneMouseEvent@@@Z @ 832 NONAME ABSENT ; void HbInputCnKeypad::gestureMouseEvent(class QGraphicsSceneMouseEvent *)
	?mouseMoveEvent@HbInputCnTchButton@@MAEXPAVQGraphicsSceneMouseEvent@@@Z @ 833 NONAME ABSENT ; void HbInputCnTchButton::mouseMoveEvent(class QGraphicsSceneMouseEvent *)
	?sctModeListClosed@HbInputVkbWidget@@UAEXXZ @ 834 NONAME ABSENT ; void HbInputVkbWidget::sctModeListClosed(void)
	?mousePressEvent@HbRange@@MAEXPAVQGraphicsSceneMouseEvent@@@Z @ 835 NONAME ABSENT ; void HbRange::mousePressEvent(class QGraphicsSceneMouseEvent *)
	?type@HbWritingBox@@UBEHXZ @ 836 NONAME ABSENT ; int HbWritingBox::type(void) const
	?setSct@HbInputSctPortrait@@QAEXW4HbSctView@HbInputVkbWidget@@@Z @ 837 NONAME ABSENT ; void HbInputSctPortrait::setSct(enum HbInputVkbWidget::HbSctView)
	??1HbStackedRange@@UAE@XZ @ 838 NONAME ABSENT ; HbStackedRange::~HbStackedRange(void)
	?showSctModeList@HbInputVkbWidget@@QAEXXZ @ 839 NONAME ABSENT ; void HbInputVkbWidget::showSctModeList(void)
	?initSctModeList@Hb12KeyTouchKeypad@@MAEXXZ @ 840 NONAME ABSENT ; void Hb12KeyTouchKeypad::initSctModeList(void)
	?mouseEvent@HbInputCnTchButton@@IAEXPAVQGraphicsSceneMouseEvent@@@Z @ 841 NONAME ABSENT ; void HbInputCnTchButton::mouseEvent(class QGraphicsSceneMouseEvent *)
	?staticMetaObject@HbStackedRange@@2UQMetaObject@@B @ 842 NONAME ABSENT ; struct QMetaObject const HbStackedRange::staticMetaObject
	?setKeymap@HbInputSctLandscape@@UAEXPBVHbKeymap@@@Z @ 843 NONAME ABSENT ; void HbInputSctLandscape::setKeymap(class HbKeymap const *)
	?handleInputModesActivated@HbInputCnModel@@AAEXPAVHbInputMethod@@VQString@@@Z @ 844 NONAME ABSENT ; void HbInputCnModel::handleInputModesActivated(class HbInputMethod *, class QString)
	?sctCharacterSelected@HbInputSctLandscape@@IAEXVQString@@@Z @ 845 NONAME ABSENT ; void HbInputSctLandscape::sctCharacterSelected(class QString)
	??1HbInputCnSmileyPicker@@UAE@XZ @ 846 NONAME ABSENT ; HbInputCnSmileyPicker::~HbInputCnSmileyPicker(void)
	?alternativeInputModes@HbInputCnModel@@AAE?AV?$QList@V?$QFlags@W4HbInputModeTypeFlag@@@@@@PAVHbInputMethod@@VHbInputLanguage@@V?$QFlags@W4HbInputModeTypeFlag@@@@W4Orientation@Qt@@@Z @ 847 NONAME ABSENT ; class QList<class QFlags<enum HbInputModeTypeFlag> > HbInputCnModel::alternativeInputModes(class HbInputMethod *, class HbInputLanguage, class QFlags<enum HbInputModeTypeFlag>, enum Qt::Orientation)
	?getStaticMetaObject@HbHwToolCluster@@SAABUQMetaObject@@XZ @ 848 NONAME ; struct QMetaObject const & HbHwToolCluster::getStaticMetaObject(void)
	?selected@HbInputSmileyPicker@@IAEXVQString@@@Z @ 849 NONAME ; void HbInputSmileyPicker::selected(class QString)
	?preferredKeyboardSize@HbHwToolCluster@@UAE?AVQSizeF@@XZ @ 850 NONAME ; class QSizeF HbHwToolCluster::preferredKeyboardSize(void)
	?showEvent@HbInputSmileyPicker@@UAEXPAVQShowEvent@@@Z @ 851 NONAME ; void HbInputSmileyPicker::showEvent(class QShowEvent *)
	??0HbInputSctPortrait@@QAE@PAVHbInputMethod@@PBVHbKeymap@@PAVQGraphicsItem@@@Z @ 852 NONAME ABSENT ; HbInputSctPortrait::HbInputSctPortrait(class HbInputMethod *, class HbKeymap const *, class QGraphicsItem *)
	?trUtf8@HbInputSmileyPicker@@SA?AVQString@@PBD0@Z @ 853 NONAME ; class QString HbInputSmileyPicker::trUtf8(char const *, char const *)
	?aboutToOpen@HbHwToolCluster@@UAEXPAVHbVkbHost@@@Z @ 854 NONAME ; void HbHwToolCluster::aboutToOpen(class HbVkbHost *)
	?staticMetaObject@HbHwToolCluster@@2UQMetaObject@@B @ 855 NONAME ; struct QMetaObject const HbHwToolCluster::staticMetaObject
	?trUtf8@HbHwToolCluster@@SA?AVQString@@PBD0@Z @ 856 NONAME ; class QString HbHwToolCluster::trUtf8(char const *, char const *)
	?staticMetaObject@HbInputSmileyPicker@@2UQMetaObject@@B @ 857 NONAME ; struct QMetaObject const HbInputSmileyPicker::staticMetaObject
	?trUtf8@HbHwToolCluster@@SA?AVQString@@PBD0H@Z @ 858 NONAME ; class QString HbHwToolCluster::trUtf8(char const *, char const *, int)
	?qt_metacast@HbInputCnSmileyPicker@@UAEPAXPBD@Z @ 859 NONAME ABSENT ; void * HbInputCnSmileyPicker::qt_metacast(char const *)
	?setKeymap@Hb12KeyTouchKeypad@@UAEXPBVHbKeymap@@@Z @ 860 NONAME ABSENT ; void Hb12KeyTouchKeypad::setKeymap(class HbKeymap const *)
	?setKeymap@HbInputSctPortrait@@UAEXPBVHbKeymap@@@Z @ 861 NONAME ABSENT ; void HbInputSctPortrait::setKeymap(class HbKeymap const *)
	?setGeometry@HbInputVkbWidget@@MAEXABVQRectF@@@Z @ 862 NONAME ABSENT ; void HbInputVkbWidget::setGeometry(class QRectF const &)
	?d_func@HbInputSmileyPicker@@AAEPAVHbInputSmileyPickerPrivate@@XZ @ 863 NONAME ; class HbInputSmileyPickerPrivate * HbInputSmileyPicker::d_func(void)
	?d_func@HbHwToolCluster@@AAEPAVHbHwToolClusterPrivate@@XZ @ 864 NONAME ; class HbHwToolClusterPrivate * HbHwToolCluster::d_func(void)
	?metaObject@HbHwToolCluster@@UBEPBUQMetaObject@@XZ @ 865 NONAME ; struct QMetaObject const * HbHwToolCluster::metaObject(void) const
	?insertEngPair@HbInputCnModel@@AAEXABVHbPredEngPair@@@Z @ 866 NONAME ABSENT ; void HbInputCnModel::insertEngPair(class HbPredEngPair const &)
	?tr@HbInputSmileyPicker@@SA?AVQString@@PBD0H@Z @ 867 NONAME ; class QString HbInputSmileyPicker::tr(char const *, char const *, int)
	?trUtf8@HbInputCnSmileyPicker@@SA?AVQString@@PBD0H@Z @ 868 NONAME ABSENT ; class QString HbInputCnSmileyPicker::trUtf8(char const *, char const *, int)
	?sctCharacterSelected@HbInputSctPortrait@@IAEXVQString@@@Z @ 869 NONAME ABSENT ; void HbInputSctPortrait::sctCharacterSelected(class QString)
	?itemChange@HbInputCnSmileyPicker@@UAE?AVQVariant@@W4GraphicsItemChange@QGraphicsItem@@ABV2@@Z @ 870 NONAME ABSENT ; class QVariant HbInputCnSmileyPicker::itemChange(enum QGraphicsItem::GraphicsItemChange, class QVariant const &)
	?clicked@HbInputCnSmileyPicker@@QAEXABVQModelIndex@@@Z @ 871 NONAME ABSENT ; void HbInputCnSmileyPicker::clicked(class QModelIndex const &)
	?setKeymap@HbInputVkbWidget@@UAEXPBVHbKeymap@@@Z @ 872 NONAME ; void HbInputVkbWidget::setKeymap(class HbKeymap const *)
	?metaObject@HbInputCnSmileyPicker@@UBEPBUQMetaObject@@XZ @ 873 NONAME ABSENT ; struct QMetaObject const * HbInputCnSmileyPicker::metaObject(void) const
	?d_func@HbInputSmileyPicker@@ABEPBVHbInputSmileyPickerPrivate@@XZ @ 874 NONAME ; class HbInputSmileyPickerPrivate const * HbInputSmileyPicker::d_func(void) const
	??0HbInputSctLandscape@@QAE@PAVHbInputMethod@@PBVHbKeymap@@PAVQGraphicsItem@@@Z @ 875 NONAME ABSENT ; HbInputSctLandscape::HbInputSctLandscape(class HbInputMethod *, class HbKeymap const *, class QGraphicsItem *)
	??_EHbInputSmileyPicker@@UAE@I@Z @ 876 NONAME ; HbInputSmileyPicker::~HbInputSmileyPicker(unsigned int)
	?getStaticMetaObject@HbInputCnSmileyPicker@@SAABUQMetaObject@@XZ @ 877 NONAME ABSENT ; struct QMetaObject const & HbInputCnSmileyPicker::getStaticMetaObject(void)
	??0HbInputCnSmileyPicker@@QAE@ABV?$QList@UHbCnSctPair@@@@HPAVQGraphicsItem@@@Z @ 878 NONAME ABSENT ; HbInputCnSmileyPicker::HbInputCnSmileyPicker(class QList<struct HbCnSctPair> const &, int, class QGraphicsItem *)
	?tr@HbInputCnSmileyPicker@@SA?AVQString@@PBD0@Z @ 879 NONAME ABSENT ; class QString HbInputCnSmileyPicker::tr(char const *, char const *)
	?metaObject@HbInputSmileyPicker@@UBEPBUQMetaObject@@XZ @ 880 NONAME ; struct QMetaObject const * HbInputSmileyPicker::metaObject(void) const
	?getStaticMetaObject@HbInputSmileyPicker@@SAABUQMetaObject@@XZ @ 881 NONAME ; struct QMetaObject const & HbInputSmileyPicker::getStaticMetaObject(void)
	?resizeEvent@HbInputCnTchButton@@MAEXPAVQGraphicsSceneResizeEvent@@@Z @ 882 NONAME ABSENT ; void HbInputCnTchButton::resizeEvent(class QGraphicsSceneResizeEvent *)
	?handleInputMethodsActivated@HbInputCnModel@@AAEXPAVHbInputMethod@@VQString@@W4Orientation@Qt@@PAVHbMainWindow@@@Z @ 883 NONAME ABSENT ; void HbInputCnModel::handleInputMethodsActivated(class HbInputMethod *, class QString, enum Qt::Orientation, class HbMainWindow *)
	?qt_metacall@HbInputCnSmileyPicker@@UAEHW4Call@QMetaObject@@HPAPAX@Z @ 884 NONAME ABSENT ; int HbInputCnSmileyPicker::qt_metacall(enum QMetaObject::Call, int, void * *)
	?keyboardType@HbHwToolCluster@@UBE?AV?$QFlags@W4HbKeyboardTypeFlag@@@@XZ @ 885 NONAME ; class QFlags<enum HbKeyboardTypeFlag> HbHwToolCluster::keyboardType(void) const
	?createLayout@HbHwToolCluster@@QAEXXZ @ 886 NONAME ; void HbHwToolCluster::createLayout(void)
	?trUtf8@HbInputSmileyPicker@@SA?AVQString@@PBD0H@Z @ 887 NONAME ; class QString HbInputSmileyPicker::trUtf8(char const *, char const *, int)
	?setGeometry@HbInputCustomButtonList@@UAEXABVQRectF@@@Z @ 888 NONAME ABSENT ; void HbInputCustomButtonList::setGeometry(class QRectF const &)
	?abortCurrentPressedKey@HbInputCnKeypad@@QAEXXZ @ 889 NONAME ABSENT ; void HbInputCnKeypad::abortCurrentPressedKey(void)
	?qt_metacast@HbHwToolCluster@@UAEPAXPBD@Z @ 890 NONAME ; void * HbHwToolCluster::qt_metacast(char const *)
	?inlineSpell@HbInputCnModel@@QAEXHAAVQString@@@Z @ 891 NONAME ABSENT ; void HbInputCnModel::inlineSpell(int, class QString &)
	??0HbInputSmileyPicker@@QAE@HHPAVQGraphicsItem@@@Z @ 892 NONAME ABSENT ; HbInputSmileyPicker::HbInputSmileyPicker(int, int, class QGraphicsItem *)
	?qt_metacall@HbHwToolCluster@@UAEHW4Call@QMetaObject@@HPAPAX@Z @ 893 NONAME ; int HbHwToolCluster::qt_metacall(enum QMetaObject::Call, int, void * *)
	?executeInputMethodsDialog@HbInputCnModel@@QAEXPAVHbListDialog@@VQStringList@@PAVHbMainWindow@@PAVHbInputMethod@@W4Orientation@Qt@@@Z @ 894 NONAME ABSENT ; void HbInputCnModel::executeInputMethodsDialog(class HbListDialog *, class QStringList, class HbMainWindow *, class HbInputMethod *, enum Qt::Orientation)
	?d_func@HbHwToolCluster@@ABEPBVHbHwToolClusterPrivate@@XZ @ 895 NONAME ; class HbHwToolClusterPrivate const * HbHwToolCluster::d_func(void) const
	?showMethodDialog@HbHwToolCluster@@QAEXXZ @ 896 NONAME ; void HbHwToolCluster::showMethodDialog(void)
	??_EHbHwToolCluster@@UAE@I@Z @ 897 NONAME ; HbHwToolCluster::~HbHwToolCluster(unsigned int)
	?tr@HbHwToolCluster@@SA?AVQString@@PBD0@Z @ 898 NONAME ; class QString HbHwToolCluster::tr(char const *, char const *)
	?tr@HbInputSmileyPicker@@SA?AVQString@@PBD0@Z @ 899 NONAME ; class QString HbInputSmileyPicker::tr(char const *, char const *)
	?staticMetaObject@HbInputCnSmileyPicker@@2UQMetaObject@@B @ 900 NONAME ABSENT ; struct QMetaObject const HbInputCnSmileyPicker::staticMetaObject
	??_EHbInputCnSmileyPicker@@UAE@I@Z @ 901 NONAME ABSENT ; HbInputCnSmileyPicker::~HbInputCnSmileyPicker(unsigned int)
	?trUtf8@HbInputCnSmileyPicker@@SA?AVQString@@PBD0@Z @ 902 NONAME ABSENT ; class QString HbInputCnSmileyPicker::trUtf8(char const *, char const *)
	?qt_metacall@HbInputSmileyPicker@@UAEHW4Call@QMetaObject@@HPAPAX@Z @ 903 NONAME ; int HbInputSmileyPicker::qt_metacall(enum QMetaObject::Call, int, void * *)
	?updatePrimitives@HbInputCnSmileyPicker@@UAEXXZ @ 904 NONAME ABSENT ; void HbInputCnSmileyPicker::updatePrimitives(void)
	?getFrameIcon@HbTouchKeypadButton@@QAEPAVHbFrameItem@@XZ @ 905 NONAME ABSENT ; class HbFrameItem * HbTouchKeypadButton::getFrameIcon(void)
	?d_func@HbInputCustomButtonList@@ABEPBVHbInputCustomButtonListPrivate@@XZ @ 906 NONAME ABSENT ; class HbInputCustomButtonListPrivate const * HbInputCustomButtonList::d_func(void) const
	?setActiveInputPluginName@HbInputCnModel@@QAEXVQString@@@Z @ 907 NONAME ABSENT ; void HbInputCnModel::setActiveInputPluginName(class QString)
	?setKeymap@HbQwertyKeyboard@@UAEXPBVHbKeymap@@@Z @ 908 NONAME ABSENT ; void HbQwertyKeyboard::setKeymap(class HbKeymap const *)
	??0HbQwertyKeyboard@@QAE@PAVHbInputMethod@@PBVHbKeymap@@PAVQGraphicsItem@@W4HbKeypadMode@@@Z @ 909 NONAME ABSENT ; HbQwertyKeyboard::HbQwertyKeyboard(class HbInputMethod *, class HbKeymap const *, class QGraphicsItem *, enum HbKeypadMode)
	?count@HbInputCustomButtonList@@QAEHXZ @ 910 NONAME ABSENT ; int HbInputCustomButtonList::count(void)
	?setGeometry@HbInputCnTchButton@@UAEXABVQRectF@@@Z @ 911 NONAME ABSENT ; void HbInputCnTchButton::setGeometry(class QRectF const &)
	?showSmileyPicker@HbInputVkbWidget@@QAEXHH@Z @ 912 NONAME ; void HbInputVkbWidget::showSmileyPicker(int, int)
	?findEngPairPos@HbInputCnModel@@ABE_NVQString@@AAH@Z @ 913 NONAME ABSENT ; bool HbInputCnModel::findEngPairPos(class QString, int &) const
	?tr@HbHwToolCluster@@SA?AVQString@@PBD0H@Z @ 914 NONAME ; class QString HbHwToolCluster::tr(char const *, char const *, int)
	?d_func@HbInputCustomButtonList@@AAEPAVHbInputCustomButtonListPrivate@@XZ @ 915 NONAME ABSENT ; class HbInputCustomButtonListPrivate * HbInputCustomButtonList::d_func(void)
	??1HbInputSmileyPicker@@UAE@XZ @ 916 NONAME ; HbInputSmileyPicker::~HbInputSmileyPicker(void)
	??0HbHwToolCluster@@QAE@PAVHbInputMethod@@PAVQGraphicsItem@@@Z @ 917 NONAME ; HbHwToolCluster::HbHwToolCluster(class HbInputMethod *, class QGraphicsItem *)
	?tr@HbInputCnSmileyPicker@@SA?AVQString@@PBD0H@Z @ 918 NONAME ABSENT ; class QString HbInputCnSmileyPicker::tr(char const *, char const *, int)
	?smileySelected@HbInputVkbWidget@@IAEXVQString@@@Z @ 919 NONAME ; void HbInputVkbWidget::smileySelected(class QString)
	?togglePredictionStatus@HbInputVkbWidget@@QAEXXZ @ 920 NONAME ABSENT ; void HbInputVkbWidget::togglePredictionStatus(void)
	?qt_metacast@HbInputSmileyPicker@@UAEPAXPBD@Z @ 921 NONAME ; void * HbInputSmileyPicker::qt_metacast(char const *)
	?setupToolCluster@HbHwToolCluster@@UAEXXZ @ 922 NONAME ABSENT ; void HbHwToolCluster::setupToolCluster(void)
	?showSettingsDialog@HbHwToolCluster@@QAEXXZ @ 923 NONAME ABSENT ; void HbHwToolCluster::showSettingsDialog(void)
	?activeInputPluginName@HbInputCnModel@@QBE?AVQString@@XZ @ 924 NONAME ABSENT ; class QString HbInputCnModel::activeInputPluginName(void) const
	?activated@HbInputCnSmileyPicker@@IAEXVQString@@0@Z @ 925 NONAME ABSENT ; void HbInputCnSmileyPicker::activated(class QString, class QString)
	?populateList@HbCandidateList@@QAEXABVQStringList@@@Z @ 926 NONAME ABSENT ; void HbCandidateList::populateList(class QStringList const &)
	??1HbHwToolCluster@@UAE@XZ @ 927 NONAME ; HbHwToolCluster::~HbHwToolCluster(void)
	?showLanguageDialog@HbHwToolCluster@@QAEXXZ @ 928 NONAME ; void HbHwToolCluster::showLanguageDialog(void)
	?udpdatePredictionStatus@HbInputModeIndicator@@QAEXH@Z @ 929 NONAME ABSENT ; void HbInputModeIndicator::udpdatePredictionStatus(int)
	?executeInputModesDialog@HbInputCnModel@@QAEXPAVHbListDialog@@V?$QFlags@W4HbInputModeTypeFlag@@@@PAVHbInputMethod@@W4Orientation@Qt@@@Z @ 930 NONAME ABSENT ; void HbInputCnModel::executeInputModesDialog(class HbListDialog *, class QFlags<enum HbInputModeTypeFlag>, class HbInputMethod *, enum Qt::Orientation)
	?getButtonType@HbTouchKeypadButton@@QAEHXZ @ 931 NONAME ABSENT ; int HbTouchKeypadButton::getButtonType(void)
	?applyEditorConstraints@HbInputVkbWidgetPrivate@@UAEXXZ @ 932 NONAME ; void HbInputVkbWidgetPrivate::applyEditorConstraints(void)
	?q_func@HbInputVkbWidgetPrivate@@ABEPBVHbInputVkbWidget@@XZ @ 933 NONAME ; class HbInputVkbWidget const * HbInputVkbWidgetPrivate::q_func(void) const
	?q_func@Hb12KeyTouchKeypadPrivate@@AAEPAVHb12KeyTouchKeypad@@XZ @ 934 NONAME ABSENT ; class Hb12KeyTouchKeypad * Hb12KeyTouchKeypadPrivate::q_func(void)
	?q_func@HbInputSctLandscapePrivate@@ABEPBVHbInputSctLandscape@@XZ @ 935 NONAME ABSENT ; class HbInputSctLandscape const * HbInputSctLandscapePrivate::q_func(void) const
	?applyEditorConstraints@HbQwertyKeyboardPrivate@@UAEXXZ @ 936 NONAME ABSENT ; void HbQwertyKeyboardPrivate::applyEditorConstraints(void)
	?createLayout@Hb12KeyTouchKeypadPrivate@@QAEXXZ @ 937 NONAME ABSENT ; void Hb12KeyTouchKeypadPrivate::createLayout(void)
	?createSctButtons@HbInputSctLandscapePrivate@@QAEXXZ @ 938 NONAME ABSENT ; void HbInputSctLandscapePrivate::createSctButtons(void)
	?wasFlickEvent@HbInputVkbWidget@@UAE_NXZ @ 939 NONAME ABSENT ; bool HbInputVkbWidget::wasFlickEvent(void)
	??1HbInputSctLandscapePrivate@@UAE@XZ @ 940 NONAME ABSENT ; HbInputSctLandscapePrivate::~HbInputSctLandscapePrivate(void)
	?handleStandardButtonPress@HbInputSctPortraitPrivate@@UAEXH@Z @ 941 NONAME ABSENT ; void HbInputSctPortraitPrivate::handleStandardButtonPress(int)
	?setLayoutDimensions@HbQwertyKeyboardPrivate@@QAEXVQSizeF@@@Z @ 942 NONAME ABSENT ; void HbQwertyKeyboardPrivate::setLayoutDimensions(class QSizeF)
	?additionalTextForKey@Hb12KeyTouchKeypadPrivate@@QAE?AVQString@@H@Z @ 943 NONAME ABSENT ; class QString Hb12KeyTouchKeypadPrivate::additionalTextForKey(int)
	?mouseReleaseEvent@HbPreviewLabel@@MAEXPAVQGraphicsSceneMouseEvent@@@Z @ 944 NONAME ABSENT ; void HbPreviewLabel::mouseReleaseEvent(class QGraphicsSceneMouseEvent *)
	?setFrameIcon@HbInputCnTchButton@@QAEXABVQString@@@Z @ 945 NONAME ABSENT ; void HbInputCnTchButton::setFrameIcon(class QString const &)
	?setLayoutDimensions@HbInputSctLandscapePrivate@@QAEXVQSizeF@@@Z @ 946 NONAME ABSENT ; void HbInputSctLandscapePrivate::setLayoutDimensions(class QSizeF)
	?handleStandardButtonRelease@HbInputSctLandscapePrivate@@UAEXH@Z @ 947 NONAME ABSENT ; void HbInputSctLandscapePrivate::handleStandardButtonRelease(int)
	?buttonMouseMovedIn@HbInputCnKeypad@@QAEXH@Z @ 948 NONAME ABSENT ; void HbInputCnKeypad::buttonMouseMovedIn(int)
	?redirectMouseReleaseEvent@HbInputVkbWidgetPrivate@@QAEXPAVQGraphicsSceneMouseEvent@@@Z @ 949 NONAME ; void HbInputVkbWidgetPrivate::redirectMouseReleaseEvent(class QGraphicsSceneMouseEvent *)
	??0Hb12KeyTouchKeypadPrivate@@QAE@XZ @ 950 NONAME ABSENT ; Hb12KeyTouchKeypadPrivate::Hb12KeyTouchKeypadPrivate(void)
	?launchPreviewPane@HbQwertyKeyboardPrivate@@QAEXABVQStringList@@@Z @ 951 NONAME ABSENT ; void HbQwertyKeyboardPrivate::launchPreviewPane(class QStringList const &)
	?mouseMoveIn@HbInputCnTchButton@@IAEXH@Z @ 952 NONAME ABSENT ; void HbInputCnTchButton::mouseMoveIn(int)
	?textForKey@Hb12KeyTouchKeypadPrivate@@QAE?AVQString@@H@Z @ 953 NONAME ABSENT ; class QString Hb12KeyTouchKeypadPrivate::textForKey(int)
	?handleStandardButtonRelease@HbInputSctPortraitPrivate@@UAEXH@Z @ 954 NONAME ABSENT ; void HbInputSctPortraitPrivate::handleStandardButtonRelease(int)
	?q_func@HbQwertyKeyboardPrivate@@AAEPAVHbQwertyKeyboard@@XZ @ 955 NONAME ABSENT ; class HbQwertyKeyboard * HbQwertyKeyboardPrivate::q_func(void)
	?setRockerPosition@HbInputVkbWidgetPrivate@@QAEXXZ @ 956 NONAME ABSENT ; void HbInputVkbWidgetPrivate::setRockerPosition(void)
	?keyCode@HbInputSctPortraitPrivate@@UAEHH@Z @ 957 NONAME ABSENT ; int HbInputSctPortraitPrivate::keyCode(int)
	?keyCode@Hb12KeyTouchKeypadPrivate@@UAEHH@Z @ 958 NONAME ABSENT ; int Hb12KeyTouchKeypadPrivate::keyCode(int)
	?_q_mappedKeyClick@HbInputSctLandscapePrivate@@QAEXH@Z @ 959 NONAME ABSENT ; void HbInputSctLandscapePrivate::_q_mappedKeyClick(int)
	?redirectMousePressEvent@HbInputVkbWidgetPrivate@@QAEXPAVQGraphicsSceneMouseEvent@@@Z @ 960 NONAME ; void HbInputVkbWidgetPrivate::redirectMousePressEvent(class QGraphicsSceneMouseEvent *)
	?setAsFunctionButton@HbInputSctLandscapePrivate@@QAEXHABVHbIcon@@ABVQString@@@Z @ 961 NONAME ABSENT ; void HbInputSctLandscapePrivate::setAsFunctionButton(int, class HbIcon const &, class QString const &)
	?keyCode@HbInputVkbWidgetPrivate@@UAEHH@Z @ 962 NONAME ; int HbInputVkbWidgetPrivate::keyCode(int)
	?itemChange@HbInputCnKeypad@@MAE?AVQVariant@@W4GraphicsItemChange@QGraphicsItem@@ABV2@@Z @ 963 NONAME ABSENT ; class QVariant HbInputCnKeypad::itemChange(enum QGraphicsItem::GraphicsItemChange, class QVariant const &)
	?setClrBtnVisibility@HbWritingBox@@QAEX_N@Z @ 964 NONAME ABSENT ; void HbWritingBox::setClrBtnVisibility(bool)
	??0HbInputSctPortraitPrivate@@QAE@XZ @ 965 NONAME ABSENT ; HbInputSctPortraitPrivate::HbInputSctPortraitPrivate(void)
	?setActiveView@HbInputSctLandscapePrivate@@QAEXW4HbSctView@HbInputVkbWidget@@@Z @ 966 NONAME ABSENT ; void HbInputSctLandscapePrivate::setActiveView(enum HbInputVkbWidget::HbSctView)
	?flickTriggered@HbInputSctPortrait@@QAEXW4FlickDirection@HbInputVkbWidget@@@Z @ 967 NONAME ABSENT ; void HbInputSctPortrait::flickTriggered(enum HbInputVkbWidget::FlickDirection)
	?q_func@HbInputVkbWidgetPrivate@@AAEPAVHbInputVkbWidget@@XZ @ 968 NONAME ; class HbInputVkbWidget * HbInputVkbWidgetPrivate::q_func(void)
	??0HbInputVkbWidgetPrivate@@QAE@XZ @ 969 NONAME ; HbInputVkbWidgetPrivate::HbInputVkbWidgetPrivate(void)
	?applyEditorConstraints@HbInputSctLandscapePrivate@@UAEXXZ @ 970 NONAME ABSENT ; void HbInputSctLandscapePrivate::applyEditorConstraints(void)
	?mouseMoveEvent@HbPreviewLabel@@MAEXPAVQGraphicsSceneMouseEvent@@@Z @ 971 NONAME ABSENT ; void HbPreviewLabel::mouseMoveEvent(class QGraphicsSceneMouseEvent *)
	?setLayoutDimensions@HbInputSctPortraitPrivate@@QAEXVQSizeF@@@Z @ 972 NONAME ABSENT ; void HbInputSctPortraitPrivate::setLayoutDimensions(class QSizeF)
	??0HbTouchKeypadButton@@QAE@PAVHbInputVkbWidget@@ABVHbIcon@@ABVQString@@PAVQGraphicsItem@@@Z @ 973 NONAME ABSENT ; HbTouchKeypadButton::HbTouchKeypadButton(class HbInputVkbWidget *, class HbIcon const &, class QString const &, class QGraphicsItem *)
	?setKeyMappingTitle@Hb12KeyTouchKeypadPrivate@@QAEXHPAVHbTouchKeypadButton@@V?$QFlags@W4HbModifier@@@@@Z @ 974 NONAME ABSENT ; void Hb12KeyTouchKeypadPrivate::setKeyMappingTitle(int, class HbTouchKeypadButton *, class QFlags<enum HbModifier>)
	??0HbQwertyKeyboardPrivate@@QAE@XZ @ 975 NONAME ABSENT ; HbQwertyKeyboardPrivate::HbQwertyKeyboardPrivate(void)
	?createSctButtons@HbInputSctPortraitPrivate@@QAEXXZ @ 976 NONAME ABSENT ; void HbInputSctPortraitPrivate::createSctButtons(void)
	?handleStandardButtonPress@HbQwertyKeyboardPrivate@@UAEXH@Z @ 977 NONAME ABSENT ; void HbQwertyKeyboardPrivate::handleStandardButtonPress(int)
	?init@HbInputVkbWidgetPrivate@@UAEXXZ @ 978 NONAME ; void HbInputVkbWidgetPrivate::init(void)
	?predictionStatusChanged@HbInputSettingDialog@@QAEXXZ @ 979 NONAME ABSENT ; void HbInputSettingDialog::predictionStatusChanged(void)
	?latchRangeButton@HbInputSctLandscapePrivate@@QAEXH@Z @ 980 NONAME ABSENT ; void HbInputSctLandscapePrivate::latchRangeButton(int)
	?handleStandardButtonClick@HbInputSctPortraitPrivate@@QAEXH@Z @ 981 NONAME ABSENT ; void HbInputSctPortraitPrivate::handleStandardButtonClick(int)
	??0HbInputSctLandscapePrivate@@QAE@XZ @ 982 NONAME ABSENT ; HbInputSctLandscapePrivate::HbInputSctLandscapePrivate(void)
	??_EHbQwertyKeyboardPrivate@@UAE@I@Z @ 983 NONAME ABSENT ; HbQwertyKeyboardPrivate::~HbQwertyKeyboardPrivate(unsigned int)
	?q_func@HbInputSctPortraitPrivate@@ABEPBVHbInputSctPortrait@@XZ @ 984 NONAME ABSENT ; class HbInputSctPortrait const * HbInputSctPortraitPrivate::q_func(void) const
	?applyEditorConstraints@Hb12KeyTouchKeypadPrivate@@UAEXXZ @ 985 NONAME ABSENT ; void Hb12KeyTouchKeypadPrivate::applyEditorConstraints(void)
	??_EHbInputSctLandscapePrivate@@UAE@I@Z @ 986 NONAME ABSENT ; HbInputSctLandscapePrivate::~HbInputSctLandscapePrivate(unsigned int)
	??1Hb12KeyTouchKeypadPrivate@@UAE@XZ @ 987 NONAME ABSENT ; Hb12KeyTouchKeypadPrivate::~Hb12KeyTouchKeypadPrivate(void)
	?setActiveView@HbInputSctPortraitPrivate@@QAEXW4HbSctView@HbInputVkbWidget@@@Z @ 988 NONAME ABSENT ; void HbInputSctPortraitPrivate::setActiveView(enum HbInputVkbWidget::HbSctView)
	?setDisplayTextToKey@HbInputCnKeypad@@QAEXHVQString@@@Z @ 989 NONAME ABSENT ; void HbInputCnKeypad::setDisplayTextToKey(int, class QString)
	?handleStandardButtonPress@HbInputSctLandscapePrivate@@UAEXH@Z @ 990 NONAME ABSENT ; void HbInputSctLandscapePrivate::handleStandardButtonPress(int)
	?initializeNumericKeyboard@HbQwertyKeyboardPrivate@@QAEXXZ @ 991 NONAME ABSENT ; void HbQwertyKeyboardPrivate::initializeNumericKeyboard(void)
	?getSpecialCharacters@HbInputSctLandscapePrivate@@QAEXXZ @ 992 NONAME ABSENT ; void HbInputSctLandscapePrivate::getSpecialCharacters(void)
	?handleStandardButtonPress@HbInputVkbWidgetPrivate@@UAEXH@Z @ 993 NONAME ; void HbInputVkbWidgetPrivate::handleStandardButtonPress(int)
	?q_func@Hb12KeyTouchKeypadPrivate@@ABEPBVHb12KeyTouchKeypad@@XZ @ 994 NONAME ABSENT ; class Hb12KeyTouchKeypad const * Hb12KeyTouchKeypadPrivate::q_func(void) const
	?hideAccentedPreview@HbPreviewLabel@@IAEXXZ @ 995 NONAME ABSENT ; void HbPreviewLabel::hideAccentedPreview(void)
	?indexForKeycode@HbQwertyKeyboardPrivate@@QAEHH@Z @ 996 NONAME ABSENT ; int HbQwertyKeyboardPrivate::indexForKeycode(int)
	?getSpecialCharacters@HbInputSctPortraitPrivate@@QAEXXZ @ 997 NONAME ABSENT ; void HbInputSctPortraitPrivate::getSpecialCharacters(void)
	?flickTriggered@HbInputSctLandscape@@QAEXW4FlickDirection@HbInputVkbWidget@@@Z @ 998 NONAME ABSENT ; void HbInputSctLandscape::flickTriggered(enum HbInputVkbWidget::FlickDirection)
	?updatePrimitives@HbTouchKeypadButton@@EAEXXZ @ 999 NONAME ABSENT ; void HbTouchKeypadButton::updatePrimitives(void)
	?showEvent@HbInputCnTouchListView@@MAEXPAVQShowEvent@@@Z @ 1000 NONAME ABSENT ; void HbInputCnTouchListView::showEvent(class QShowEvent *)
	?setButtonObjectName@HbQwertyKeyboardPrivate@@QAEXAAVHbTouchKeypadButton@@HHW4Key@Qt@@@Z @ 1001 NONAME ABSENT ; void HbQwertyKeyboardPrivate::setButtonObjectName(class HbTouchKeypadButton &, int, int, enum Qt::Key)
	?handleStandardButtonRelease@HbQwertyKeyboardPrivate@@UAEXH@Z @ 1002 NONAME ABSENT ; void HbQwertyKeyboardPrivate::handleStandardButtonRelease(int)
	?changeEvent@HbTouchKeypadButton@@EAEXPAVQEvent@@@Z @ 1003 NONAME ABSENT ; void HbTouchKeypadButton::changeEvent(class QEvent *)
	?handleStandardButtonClick@HbInputSctLandscapePrivate@@QAEXH@Z @ 1004 NONAME ABSENT ; void HbInputSctLandscapePrivate::handleStandardButtonClick(int)
	?createKeypad@Hb12KeyTouchKeypadPrivate@@QAEXXZ @ 1005 NONAME ABSENT ; void Hb12KeyTouchKeypadPrivate::createKeypad(void)
	?applyEditorConstraints@HbInputSctPortraitPrivate@@UAEXXZ @ 1006 NONAME ABSENT ; void HbInputSctPortraitPrivate::applyEditorConstraints(void)
	??_EHbInputVkbWidgetPrivate@@UAE@I@Z @ 1007 NONAME ; HbInputVkbWidgetPrivate::~HbInputVkbWidgetPrivate(unsigned int)
	??1HbInputSctPortraitPrivate@@UAE@XZ @ 1008 NONAME ABSENT ; HbInputSctPortraitPrivate::~HbInputSctPortraitPrivate(void)
	?q_func@HbInputSctLandscapePrivate@@AAEPAVHbInputSctLandscape@@XZ @ 1009 NONAME ABSENT ; class HbInputSctLandscape * HbInputSctLandscapePrivate::q_func(void)
	?setSctButtons@HbInputSctPortraitPrivate@@QAEXABVQString@@@Z @ 1010 NONAME ABSENT ; void HbInputSctPortraitPrivate::setSctButtons(class QString const &)
	?initializeKeyboard@HbQwertyKeyboardPrivate@@QAEXXZ @ 1011 NONAME ABSENT ; void HbQwertyKeyboardPrivate::initializeKeyboard(void)
	??1HbInputVkbWidgetPrivate@@UAE@XZ @ 1012 NONAME ; HbInputVkbWidgetPrivate::~HbInputVkbWidgetPrivate(void)
	??_EHbInputSctPortraitPrivate@@UAE@I@Z @ 1013 NONAME ABSENT ; HbInputSctPortraitPrivate::~HbInputSctPortraitPrivate(unsigned int)
	??_EHb12KeyTouchKeypadPrivate@@UAE@I@Z @ 1014 NONAME ABSENT ; Hb12KeyTouchKeypadPrivate::~Hb12KeyTouchKeypadPrivate(unsigned int)
	??1HbQwertyKeyboardPrivate@@UAE@XZ @ 1015 NONAME ABSENT ; HbQwertyKeyboardPrivate::~HbQwertyKeyboardPrivate(void)
	?setSctButtons@HbInputSctLandscapePrivate@@QAEXABVQString@@@Z @ 1016 NONAME ABSENT ; void HbInputSctLandscapePrivate::setSctButtons(class QString const &)
	?hidePreview@HbPreviewLabel@@IAEXXZ @ 1017 NONAME ABSENT ; void HbPreviewLabel::hidePreview(void)
	??0HbInputCnSmileyPicker@@QAE@ABV?$QList@UHbCnSctPair@@@@HHPAVQGraphicsItem@@V?$QFlags@W4Orientation@Qt@@@@@Z @ 1018 NONAME ABSENT ; HbInputCnSmileyPicker::HbInputCnSmileyPicker(class QList<struct HbCnSctPair> const &, int, int, class QGraphicsItem *, class QFlags<enum Qt::Orientation>)
	?q_func@HbQwertyKeyboardPrivate@@ABEPBVHbQwertyKeyboard@@XZ @ 1019 NONAME ABSENT ; class HbQwertyKeyboard const * HbQwertyKeyboardPrivate::q_func(void) const
	?showAccentedPreview@HbPreviewLabel@@IAEXABVQString@@ABVQRectF@@@Z @ 1020 NONAME ABSENT ; void HbPreviewLabel::showAccentedPreview(class QString const &, class QRectF const &)
	?textForKey@HbQwertyKeyboardPrivate@@QAE?AVQString@@H@Z @ 1021 NONAME ABSENT ; class QString HbQwertyKeyboardPrivate::textForKey(int)
	?buttonMouseMovedOut@HbInputCnKeypad@@QAEXH@Z @ 1022 NONAME ABSENT ; void HbInputCnKeypad::buttonMouseMovedOut(int)
	?addCustomButtonToLayout@HbInputVkbWidgetPrivate@@UAEXPAVHbTouchKeypadButton@@H@Z @ 1023 NONAME ; void HbInputVkbWidgetPrivate::addCustomButtonToLayout(class HbTouchKeypadButton *, int)
	?q_func@HbInputSctPortraitPrivate@@AAEPAVHbInputSctPortrait@@XZ @ 1024 NONAME ABSENT ; class HbInputSctPortrait * HbInputSctPortraitPrivate::q_func(void)
	?setKeyMappingTitleNumeric@Hb12KeyTouchKeypadPrivate@@QAEXHPAVHbTouchKeypadButton@@V?$QFlags@W4HbModifier@@@@@Z @ 1025 NONAME ABSENT ; void Hb12KeyTouchKeypadPrivate::setKeyMappingTitleNumeric(int, class HbTouchKeypadButton *, class QFlags<enum HbModifier>)
	?mouseMoveOut@HbInputCnTchButton@@IAEXH@Z @ 1026 NONAME ABSENT ; void HbInputCnTchButton::mouseMoveOut(int)
	?handleStandardButtonRelease@HbInputVkbWidgetPrivate@@UAEXH@Z @ 1027 NONAME ; void HbInputVkbWidgetPrivate::handleStandardButtonRelease(int)
	?handleStandardButtonClick@HbQwertyKeyboardPrivate@@QAEXH@Z @ 1028 NONAME ABSENT ; void HbQwertyKeyboardPrivate::handleStandardButtonClick(int)
	?setKeyEnabled@HbInputCnKeypad@@QAEXH_N@Z @ 1029 NONAME ABSENT ; void HbInputCnKeypad::setKeyEnabled(int, bool)
	?showPreview@HbQwertyKeyboardPrivate@@QAE_NH@Z @ 1030 NONAME ABSENT ; bool HbQwertyKeyboardPrivate::showPreview(int)
	?_q_enteredInNonStickyRegion@HbInputSctLandscapePrivate@@QAEXXZ @ 1031 NONAME ABSENT ; void HbInputSctLandscapePrivate::_q_enteredInNonStickyRegion(void)
	?initialize@HbInputSctPortraitPrivate@@QAEXXZ @ 1032 NONAME ABSENT ; void HbInputSctPortraitPrivate::initialize(void)
	?keyCode@HbInputSctLandscapePrivate@@UAEHH@Z @ 1033 NONAME ABSENT ; int HbInputSctLandscapePrivate::keyCode(int)
	?hideEvent@HbInputCnTouchListView@@MAEXPAVQHideEvent@@@Z @ 1034 NONAME ABSENT ; void HbInputCnTouchListView::hideEvent(class QHideEvent *)
	?_q_mappedKeyClick@HbInputSctPortraitPrivate@@QAEXH@Z @ 1035 NONAME ABSENT ; void HbInputSctPortraitPrivate::_q_mappedKeyClick(int)
	?flickEvent@HbInputVkbWidget@@IAEXW4FlickDirection@1@@Z @ 1036 NONAME ABSENT ; void HbInputVkbWidget::flickEvent(enum HbInputVkbWidget::FlickDirection)
	?setTextGeometry@HbPreviewLabel@@QAEXABVQSizeF@@@Z @ 1037 NONAME ABSENT ; void HbPreviewLabel::setTextGeometry(class QSizeF const &)
	?showCustomInputMethodSelectionDialog@HbInputCommonDialogs@@SA?AVHbInputMethodDescriptor@@ABVHbInputLanguage@@@Z @ 1038 NONAME ; class HbInputMethodDescriptor HbInputCommonDialogs::showCustomInputMethodSelectionDialog(class HbInputLanguage const &)
	??0HbPreviewLabel@@QAE@VQString@@PAVQGraphicsItem@@@Z @ 1039 NONAME ABSENT ; HbPreviewLabel::HbPreviewLabel(class QString, class QGraphicsItem *)
	?mouseMovedOutOfButton@HbInputVkbWidget@@IAEXXZ @ 1040 NONAME ; void HbInputVkbWidget::mouseMovedOutOfButton(void)
	?isFaded@HbTouchKeypadButton@@QAE_NXZ @ 1041 NONAME ABSENT ; bool HbTouchKeypadButton::isFaded(void)
	?initialize4x10Keypad@HbQwertyKeyboardPrivate@@QAEXXZ @ 1042 NONAME ABSENT ; void HbQwertyKeyboardPrivate::initialize4x10Keypad(void)
	?ConstructKeypad@HbQwertyKeyboardPrivate@@QAEXXZ @ 1043 NONAME ABSENT ; void HbQwertyKeyboardPrivate::ConstructKeypad(void)
	?initialize4x11Keypad@HbQwertyKeyboardPrivate@@QAEXXZ @ 1044 NONAME ABSENT ; void HbQwertyKeyboardPrivate::initialize4x11Keypad(void)
	?removeExistingSignalMappings@HbQwertyKeyboardPrivate@@QAEXXZ @ 1045 NONAME ABSENT ; void HbQwertyKeyboardPrivate::removeExistingSignalMappings(void)
	??0HbInputSmileyPicker@@QAE@HHPAVQGraphicsItem@@VQStringList@@@Z @ 1046 NONAME ; HbInputSmileyPicker::HbInputSmileyPicker(int, int, class QGraphicsItem *, class QStringList)
	?normalizeProbabilities@HbInputVkbWidgetPrivate@@QAEXAAV?$QList@UHbKeyPressProbability@@@@@Z @ 1047 NONAME ; void HbInputVkbWidgetPrivate::normalizeProbabilities(class QList<struct HbKeyPressProbability> &)
	?probableKeypresses@HbInputVkbWidget@@UAE?AV?$QList@UHbKeyPressProbability@@@@XZ @ 1048 NONAME ; class QList<struct HbKeyPressProbability> HbInputVkbWidget::probableKeypresses(void)
	?flickTriggered@HbInputSctPortrait@@QAEXW4HbFlickDirection@HbInputVkbWidget@@@Z @ 1049 NONAME ABSENT ; void HbInputSctPortrait::flickTriggered(enum HbInputVkbWidget::HbFlickDirection)
	?flickDirection@HbInputVkbWidget@@UAE?AW4HbFlickDirection@1@XZ @ 1050 NONAME ABSENT ; enum HbInputVkbWidget::HbFlickDirection HbInputVkbWidget::flickDirection(void)
	?animKeyboardChange@HbInputVkbWidget@@QAEXXZ @ 1051 NONAME ABSENT ; void HbInputVkbWidget::animKeyboardChange(void)
	?flickTriggered@HbInputSctLandscape@@QAEXW4HbFlickDirection@HbInputVkbWidget@@@Z @ 1052 NONAME ABSENT ; void HbInputSctLandscape::flickTriggered(enum HbInputVkbWidget::HbFlickDirection)
	?flickEvent@HbInputVkbWidget@@IAEXW4HbFlickDirection@1@@Z @ 1053 NONAME ; void HbInputVkbWidget::flickEvent(enum HbInputVkbWidget::HbFlickDirection)
	?keyCode@HbQwertyKeyboardPrivate@@UAEHPAVHbTouchKeypadButton@@@Z @ 1054 NONAME ABSENT ; int HbQwertyKeyboardPrivate::keyCode(class HbTouchKeypadButton *)
	?keyCode@HbInputVkbWidgetPrivate@@UAEHPAVHbTouchKeypadButton@@@Z @ 1055 NONAME ; int HbInputVkbWidgetPrivate::keyCode(class HbTouchKeypadButton *)
	?captureScreenshot@HbInputVkbWidgetPrivate@@QAEXXZ @ 1056 NONAME ; void HbInputVkbWidgetPrivate::captureScreenshot(void)
	?keyCode@Hb12KeyTouchKeypadPrivate@@UAEHPAVHbTouchKeypadButton@@@Z @ 1057 NONAME ABSENT ; int Hb12KeyTouchKeypadPrivate::keyCode(class HbTouchKeypadButton *)
	?pixmapAnimValueChanged@HbInputVkbWidget@@QAEXM@Z @ 1058 NONAME ABSENT ; void HbInputVkbWidget::pixmapAnimValueChanged(float)
	?timeLineFinished@HbInputVkbWidget@@QAEXXZ @ 1059 NONAME ABSENT ; void HbInputVkbWidget::timeLineFinished(void)
	?constructKeypad@HbQwertyKeyboardPrivate@@QAEXXZ @ 1060 NONAME ABSENT ; void HbQwertyKeyboardPrivate::constructKeypad(void)
	?updateMouseHitItem@HbInputVkbWidgetPrivate@@QAEXPAVHbTouchKeypadButton@@VQPointF@@@Z @ 1061 NONAME ; void HbInputVkbWidgetPrivate::updateMouseHitItem(class HbTouchKeypadButton *, class QPointF)
	?keyCode@HbQwertyKeyboardPrivate@@UAEHH@Z @ 1062 NONAME ABSENT ; int HbQwertyKeyboardPrivate::keyCode(int)
	?keypadLanguageChangeAnimationUpdate@HbInputVkbWidget@@QAEXM@Z @ 1063 NONAME ; void HbInputVkbWidget::keypadLanguageChangeAnimationUpdate(float)
	?setTextGeometry@HbPreviewLabel@@QAEXMM@Z @ 1064 NONAME ABSENT ; void HbPreviewLabel::setTextGeometry(float, float)
	??_EHbInputSettingList@@UAE@I@Z @ 1065 NONAME ; HbInputSettingList::~HbInputSettingList(unsigned int)
	?showSettingList@HbInputSettingList@@QAEXXZ @ 1066 NONAME ABSENT ; void HbInputSettingList::showSettingList(void)
	??0HbInputSettingList@@QAE@PAVQGraphicsWidget@@@Z @ 1067 NONAME ; HbInputSettingList::HbInputSettingList(class QGraphicsWidget *)
	?setRockerPosition@HbInputVkbWidgetPrivate@@UAEXXZ @ 1068 NONAME ABSENT ; void HbInputVkbWidgetPrivate::setRockerPosition(void)
	?predictionStatusChanged@HbInputSettingList@@QAEXH@Z @ 1069 NONAME ABSENT ; void HbInputSettingList::predictionStatusChanged(int)
	?setRockerPosition@HbQwertyKeyboardPrivate@@UAEXXZ @ 1070 NONAME ABSENT ; void HbQwertyKeyboardPrivate::setRockerPosition(void)
	?initialize4x11Keypad@HbQwertyKeyboardPrivate@@QAEX_N@Z @ 1071 NONAME ABSENT ; void HbQwertyKeyboardPrivate::initialize4x11Keypad(bool)
	?predictionButtonClicked@HbInputSettingList@@QAEXXZ @ 1072 NONAME ; void HbInputSettingList::predictionButtonClicked(void)
	?initializeKeyboard@HbQwertyKeyboardPrivate@@QAEX_N@Z @ 1073 NONAME ABSENT ; void HbQwertyKeyboardPrivate::initializeKeyboard(bool)
	?keyCode@HbTouchKeypadButton@@QBEHXZ @ 1074 NONAME ABSENT ; int HbTouchKeypadButton::keyCode(void) const
	?d_func@HbInputSettingList@@AAEPAVHbInputSettingListPrivate@@XZ @ 1075 NONAME ; class HbInputSettingListPrivate * HbInputSettingList::d_func(void)
	?trUtf8@HbInputSettingList@@SA?AVQString@@PBD0H@Z @ 1076 NONAME ; class QString HbInputSettingList::trUtf8(char const *, char const *, int)
	?qt_metacall@HbInputSettingList@@UAEHW4Call@QMetaObject@@HPAPAX@Z @ 1077 NONAME ; int HbInputSettingList::qt_metacall(enum QMetaObject::Call, int, void * *)
	?secondaryLanguageChanged@HbInputSettingList@@QAEXABVHbInputLanguage@@@Z @ 1078 NONAME ; void HbInputSettingList::secondaryLanguageChanged(class HbInputLanguage const &)
	?animKeyboardChange@HbInputVkbWidget@@UAEXXZ @ 1079 NONAME ; void HbInputVkbWidget::animKeyboardChange(void)
	??0HbInputModeIndicator@@QAE@AAVHbTouchKeypadButton@@PAVQGraphicsWidget@@@Z @ 1080 NONAME ABSENT ; HbInputModeIndicator::HbInputModeIndicator(class HbTouchKeypadButton &, class QGraphicsWidget *)
	?listItemActivated@HbInputSettingList@@QAEXPAVHbListWidgetItem@@@Z @ 1081 NONAME ; void HbInputSettingList::listItemActivated(class HbListWidgetItem *)
	?sizeHint@HbInputVkbWidget@@MBE?AVQSizeF@@W4SizeHint@Qt@@ABV2@@Z @ 1082 NONAME ; class QSizeF HbInputVkbWidget::sizeHint(enum Qt::SizeHint, class QSizeF const &) const
	?d_func@HbInputSettingList@@ABEPBVHbInputSettingListPrivate@@XZ @ 1083 NONAME ; class HbInputSettingListPrivate const * HbInputSettingList::d_func(void) const
	?getStaticMetaObject@HbInputSettingList@@SAABUQMetaObject@@XZ @ 1084 NONAME ; struct QMetaObject const & HbInputSettingList::getStaticMetaObject(void)
	?closeSettingList@HbInputVkbWidget@@QAEXXZ @ 1085 NONAME ; void HbInputVkbWidget::closeSettingList(void)
	?setKeyCode@HbTouchKeypadButton@@QAEXH@Z @ 1086 NONAME ABSENT ; void HbTouchKeypadButton::setKeyCode(int)
	?keypadLanguageChangeFinished@HbInputVkbWidget@@QAEXXZ @ 1087 NONAME ; void HbInputVkbWidget::keypadLanguageChangeFinished(void)
	?metaObject@HbInputSettingList@@UBEPBUQMetaObject@@XZ @ 1088 NONAME ; struct QMetaObject const * HbInputSettingList::metaObject(void) const
	?changeEvent@HbInputVkbWidget@@MAEXPAVQEvent@@@Z @ 1089 NONAME ; void HbInputVkbWidget::changeEvent(class QEvent *)
	?initialize4x10Keypad@HbQwertyKeyboardPrivate@@QAEX_N@Z @ 1090 NONAME ABSENT ; void HbQwertyKeyboardPrivate::initialize4x10Keypad(bool)
	?updatePrimitives@HbTouchKeypadButton@@MAEXXZ @ 1091 NONAME ABSENT ; void HbTouchKeypadButton::updatePrimitives(void)
	?calculateDimensions@HbQwertyKeyboardPrivate@@QAE?AVQSizeF@@V2@@Z @ 1092 NONAME ABSENT ; class QSizeF HbQwertyKeyboardPrivate::calculateDimensions(class QSizeF)
	?inputSettingsButtonClicked@HbInputSettingList@@IAEXXZ @ 1093 NONAME ; void HbInputSettingList::inputSettingsButtonClicked(void)
	?setInitialSize@HbTouchKeypadButton@@QAEXABVQSizeF@@@Z @ 1094 NONAME ABSENT ; void HbTouchKeypadButton::setInitialSize(class QSizeF const &)
	?setPredictionSelectionEnabled@HbInputSettingList@@QAEX_N@Z @ 1095 NONAME ; void HbInputSettingList::setPredictionSelectionEnabled(bool)
	?languageButtonClicked@HbInputSettingList@@QAEXXZ @ 1096 NONAME ; void HbInputSettingList::languageButtonClicked(void)
	?showSettingList@HbInputVkbWidget@@QAEXXZ @ 1097 NONAME ; void HbInputVkbWidget::showSettingList(void)
	?trUtf8@HbInputSettingList@@SA?AVQString@@PBD0@Z @ 1098 NONAME ; class QString HbInputSettingList::trUtf8(char const *, char const *)
	?saveSettings@HbInputSettingList@@QAEXXZ @ 1099 NONAME ABSENT ; void HbInputSettingList::saveSettings(void)
	?primaryLanguageChanged@HbInputSettingList@@QAEXABVHbInputLanguage@@@Z @ 1100 NONAME ; void HbInputSettingList::primaryLanguageChanged(class HbInputLanguage const &)
	?staticMetaObject@HbInputSettingList@@2UQMetaObject@@B @ 1101 NONAME ; struct QMetaObject const HbInputSettingList::staticMetaObject
	?setFrameIcon@HbTouchKeypadButton@@QAEXABVQString@@@Z @ 1102 NONAME ABSENT ; void HbTouchKeypadButton::setFrameIcon(class QString const &)
	?tr@HbInputSettingList@@SA?AVQString@@PBD0@Z @ 1103 NONAME ; class QString HbInputSettingList::tr(char const *, char const *)
	?refreshApplicationButton@HbInputVkbWidget@@QAEXXZ @ 1104 NONAME ABSENT ; void HbInputVkbWidget::refreshApplicationButton(void)
	?setBackground@HbTouchKeypadButton@@IAEXABVQString@@@Z @ 1105 NONAME ABSENT ; void HbTouchKeypadButton::setBackground(class QString const &)
	?qt_metacast@HbInputSettingList@@UAEPAXPBD@Z @ 1106 NONAME ; void * HbInputSettingList::qt_metacast(char const *)
	??1HbInputSettingList@@UAE@XZ @ 1107 NONAME ; HbInputSettingList::~HbInputSettingList(void)
	?tr@HbInputSettingList@@SA?AVQString@@PBD0H@Z @ 1108 NONAME ; class QString HbInputSettingList::tr(char const *, char const *, int)
	?changeEvent@HbTouchKeypadButton@@MAEXPAVQEvent@@@Z @ 1109 NONAME ABSENT ; void HbTouchKeypadButton::changeEvent(class QEvent *)
	?setLanguageSelectionEnabled@HbInputSettingList@@QAEX_N@Z @ 1110 NONAME ; void HbInputSettingList::setLanguageSelectionEnabled(bool)
	?sizeHint@HbTouchKeypadButton@@MBE?AVQSizeF@@W4SizeHint@Qt@@ABV2@@Z @ 1111 NONAME ABSENT ; class QSizeF HbTouchKeypadButton::sizeHint(enum Qt::SizeHint, class QSizeF const &) const
	?showEvent@HbInputSettingDialog@@MAEXPAVQShowEvent@@@Z @ 1112 NONAME ABSENT ; void HbInputSettingDialog::showEvent(class QShowEvent *)
	?inputMethodsButtonClicked@HbInputSettingList@@IAEXXZ @ 1113 NONAME ; void HbInputSettingList::inputMethodsButtonClicked(void)
	?itemChange@HbTouchKeypadButton@@MAE?AVQVariant@@W4GraphicsItemChange@QGraphicsItem@@ABV2@@Z @ 1114 NONAME ABSENT ; class QVariant HbTouchKeypadButton::itemChange(enum QGraphicsItem::GraphicsItemChange, class QVariant const &)
	?initSctModeList@Hb12KeyTouchKeypad@@IAEXXZ @ 1115 NONAME ABSENT ; void Hb12KeyTouchKeypad::initSctModeList(void)
	?isKeyboardDimmed@HbInputVkbWidgetPrivate@@QAE_NXZ @ 1116 NONAME ; bool HbInputVkbWidgetPrivate::isKeyboardDimmed(void)
	?candidatePopupCancelled@HbCandidateList@@IAEXXZ @ 1117 NONAME ; void HbCandidateList::candidatePopupCancelled(void)
	?isSmileysEnabled@HbInputVkbWidgetPrivate@@QAE_NXZ @ 1118 NONAME ; bool HbInputVkbWidgetPrivate::isSmileysEnabled(void)
	?sctModeListClosed@Hb12KeyTouchKeypad@@QAEXXZ @ 1119 NONAME ABSENT ; void Hb12KeyTouchKeypad::sctModeListClosed(void)
	?initSctModeList@HbQwertyKeyboard@@IAEXXZ @ 1120 NONAME ABSENT ; void HbQwertyKeyboard::initSctModeList(void)
	?updateButtonsText@HbQwertyKeyboardPrivate@@QAEXXZ @ 1121 NONAME ABSENT ; void HbQwertyKeyboardPrivate::updateButtonsText(void)
	?getAllowedSctCharcters@HbQwertyKeyboardPrivate@@QAEXAAVQString@@@Z @ 1122 NONAME ABSENT ; void HbQwertyKeyboardPrivate::getAllowedSctCharcters(class QString &)
	?sctModeListClosed@HbQwertyKeyboard@@QAEXXZ @ 1123 NONAME ABSENT ; void HbQwertyKeyboard::sctModeListClosed(void)
	??0HbInputSettingWidget@@QAE@PAVHbDataForm@@PAVQGraphicsWidget@@@Z @ 1124 NONAME ; HbInputSettingWidget::HbInputSettingWidget(class HbDataForm *, class QGraphicsWidget *)
	?updatePredictiveInputState@HbInputSettingWidget@@QAEXV?$QFlags@W4HbKeyboardSettingFlag@@@@_N@Z @ 1125 NONAME ; void HbInputSettingWidget::updatePredictiveInputState(class QFlags<enum HbKeyboardSettingFlag>, bool)
	?updatePrimaryCandidateMode@HbInputSettingWidget@@QAEXW4HbPrimaryCandidateMode@@@Z @ 1126 NONAME ; void HbInputSettingWidget::updatePrimaryCandidateMode(enum HbPrimaryCandidateMode)
	?setPredictionState@HbInputSettingWidget@@QAEXABVQModelIndex@@@Z @ 1127 NONAME ; void HbInputSettingWidget::setPredictionState(class QModelIndex const &)
	?tr@HbInputCheckBoxList@@SA?AVQString@@PBD0H@Z @ 1128 NONAME ; class QString HbInputCheckBoxList::tr(char const *, char const *, int)
	?gestureEvent@HbInputVkbWidget@@MAEXPAVQGestureEvent@@@Z @ 1129 NONAME ; void HbInputVkbWidget::gestureEvent(class QGestureEvent *)
	?trUtf8@HbInputSettingWidget@@SA?AVQString@@PBD0H@Z @ 1130 NONAME ; class QString HbInputSettingWidget::trUtf8(char const *, char const *, int)
	?setPrimaryLanguage@HbInputSettingWidget@@QAEXH@Z @ 1131 NONAME ; void HbInputSettingWidget::setPrimaryLanguage(int)
	?tr@HbInputCheckBoxList@@SA?AVQString@@PBD0@Z @ 1132 NONAME ; class QString HbInputCheckBoxList::tr(char const *, char const *)
	?closeSettingsView@HbInputVkbWidget@@QAEXXZ @ 1133 NONAME ; void HbInputVkbWidget::closeSettingsView(void)
	?setCorrectionLevel@HbInputSettingWidget@@QAEXH@Z @ 1134 NONAME ; void HbInputSettingWidget::setCorrectionLevel(int)
	??_EHbInputSettingWidget@@UAE@I@Z @ 1135 NONAME ; HbInputSettingWidget::~HbInputSettingWidget(unsigned int)
	?metaObject@HbInputCheckBoxList@@UBEPBUQMetaObject@@XZ @ 1136 NONAME ; struct QMetaObject const * HbInputCheckBoxList::metaObject(void) const
	?qt_metacall@HbInputCheckBoxList@@UAEHW4Call@QMetaObject@@HPAPAX@Z @ 1137 NONAME ; int HbInputCheckBoxList::qt_metacall(enum QMetaObject::Call, int, void * *)
	?itemActivated@HbInputCheckBoxList@@QAEXABVQModelIndex@@@Z @ 1138 NONAME ; void HbInputCheckBoxList::itemActivated(class QModelIndex const &)
	?updatePredictionStatus@HbInputModeIndicator@@QAEXV?$QFlags@W4HbKeyboardSettingFlag@@@@_N@Z @ 1139 NONAME ; void HbInputModeIndicator::updatePredictionStatus(class QFlags<enum HbKeyboardSettingFlag>, bool)
	?updateSettingList@HbInputSettingList@@QAEXXZ @ 1140 NONAME ; void HbInputSettingList::updateSettingList(void)
	?updateGlobalSecondaryInputLanguage@HbInputSettingWidget@@QAEXABVHbInputLanguage@@@Z @ 1141 NONAME ; void HbInputSettingWidget::updateGlobalSecondaryInputLanguage(class HbInputLanguage const &)
	?qt_metacast@HbInputSettingWidget@@UAEPAXPBD@Z @ 1142 NONAME ; void * HbInputSettingWidget::qt_metacast(char const *)
	?trUtf8@HbInputCheckBoxList@@SA?AVQString@@PBD0H@Z @ 1143 NONAME ; class QString HbInputCheckBoxList::trUtf8(char const *, char const *, int)
	?metaObject@HbInputSettingWidget@@UBEPBUQMetaObject@@XZ @ 1144 NONAME ; struct QMetaObject const * HbInputSettingWidget::metaObject(void) const
	?updateAutocompletionState@HbInputSettingWidget@@QAEXV?$QFlags@W4HbKeyboardSettingFlag@@@@_N@Z @ 1145 NONAME ; void HbInputSettingWidget::updateAutocompletionState(class QFlags<enum HbKeyboardSettingFlag>, bool)
	?gestureEvent@HbInputVirtualRocker@@MAEXPAVQGestureEvent@@@Z @ 1146 NONAME ; void HbInputVirtualRocker::gestureEvent(class QGestureEvent *)
	?canSetModelIndex@HbInputCheckBoxList@@UBE_NABVQModelIndex@@@Z @ 1147 NONAME ; bool HbInputCheckBoxList::canSetModelIndex(class QModelIndex const &) const
	?d_func@HbInputCheckBoxList@@AAEPAVHbInputCheckBoxListPrivate@@XZ @ 1148 NONAME ; class HbInputCheckBoxListPrivate * HbInputCheckBoxList::d_func(void)
	?setKeypressTimeoutValue@HbInputSettingWidget@@QAEXH@Z @ 1149 NONAME ; void HbInputSettingWidget::setKeypressTimeoutValue(int)
	?setPrimaryCandidateMode@HbInputSettingWidget@@QAEXXZ @ 1150 NONAME ; void HbInputSettingWidget::setPrimaryCandidateMode(void)
	?d_func@HbInputSettingWidget@@AAEPAVHbInputSettingWidgetPrivate@@XZ @ 1151 NONAME ; class HbInputSettingWidgetPrivate * HbInputSettingWidget::d_func(void)
	??0HbInputCheckBoxList@@AAE@ABV0@@Z @ 1152 NONAME ; HbInputCheckBoxList::HbInputCheckBoxList(class HbInputCheckBoxList const &)
	?getStaticMetaObject@HbInputSettingWidget@@SAABUQMetaObject@@XZ @ 1153 NONAME ; struct QMetaObject const & HbInputSettingWidget::getStaticMetaObject(void)
	?setCharacterPreviewState@HbInputSettingWidget@@QAEXXZ @ 1154 NONAME ; void HbInputSettingWidget::setCharacterPreviewState(void)
	?gestureEvent@HbTouchKeypadButton@@MAEXPAVQGestureEvent@@@Z @ 1155 NONAME ABSENT ; void HbTouchKeypadButton::gestureEvent(class QGestureEvent *)
	?d_func@HbInputCheckBoxList@@ABEPBVHbInputCheckBoxListPrivate@@XZ @ 1156 NONAME ; class HbInputCheckBoxListPrivate const * HbInputCheckBoxList::d_func(void) const
	?setAutocompletionState@HbInputSettingWidget@@QAEXABVQModelIndex@@@Z @ 1157 NONAME ; void HbInputSettingWidget::setAutocompletionState(class QModelIndex const &)
	?tr@HbInputSettingWidget@@SA?AVQString@@PBD0@Z @ 1158 NONAME ; class QString HbInputSettingWidget::tr(char const *, char const *)
	?getAllowedSctCharcters@Hb12KeyTouchKeypadPrivate@@QAEXAAVQString@@@Z @ 1159 NONAME ABSENT ; void Hb12KeyTouchKeypadPrivate::getAllowedSctCharcters(class QString &)
	?trUtf8@HbInputCheckBoxList@@SA?AVQString@@PBD0@Z @ 1160 NONAME ; class QString HbInputCheckBoxList::trUtf8(char const *, char const *)
	?createItem@HbInputCheckBoxList@@UAEPAVHbAbstractViewItem@@XZ @ 1161 NONAME ; class HbAbstractViewItem * HbInputCheckBoxList::createItem(void)
	?qt_metacast@HbInputCheckBoxList@@UAEPAXPBD@Z @ 1162 NONAME ; void * HbInputCheckBoxList::qt_metacast(char const *)
	?d_func@HbInputSettingWidget@@ABEPBVHbInputSettingWidgetPrivate@@XZ @ 1163 NONAME ; class HbInputSettingWidgetPrivate const * HbInputSettingWidget::d_func(void) const
	??1HbInputCheckBoxList@@UAE@XZ @ 1164 NONAME ; HbInputCheckBoxList::~HbInputCheckBoxList(void)
	?updateGlobalInputLanguage@HbInputSettingWidget@@QAEXABVHbInputLanguage@@@Z @ 1165 NONAME ; void HbInputSettingWidget::updateGlobalInputLanguage(class HbInputLanguage const &)
	?showSettingsView@HbInputVkbWidget@@QAEXXZ @ 1166 NONAME ; void HbInputVkbWidget::showSettingsView(void)
	?initializeWidget@HbInputSettingWidget@@QAEXXZ @ 1167 NONAME ; void HbInputSettingWidget::initializeWidget(void)
	??_EHbInputCheckBoxList@@UAE@I@Z @ 1168 NONAME ; HbInputCheckBoxList::~HbInputCheckBoxList(unsigned int)
	?updateKeypressTimeout@HbInputSettingWidget@@QAEXH@Z @ 1169 NONAME ; void HbInputSettingWidget::updateKeypressTimeout(int)
	?trUtf8@HbInputSettingWidget@@SA?AVQString@@PBD0@Z @ 1170 NONAME ; class QString HbInputSettingWidget::trUtf8(char const *, char const *)
	?predictionStatusChanged@HbInputSettingList@@QAEXV?$QFlags@W4HbKeyboardSettingFlag@@@@_N@Z @ 1171 NONAME ; void HbInputSettingList::predictionStatusChanged(class QFlags<enum HbKeyboardSettingFlag>, bool)
	??1HbInputSettingWidget@@UAE@XZ @ 1172 NONAME ; HbInputSettingWidget::~HbInputSettingWidget(void)
	?tr@HbInputSettingWidget@@SA?AVQString@@PBD0H@Z @ 1173 NONAME ; class QString HbInputSettingWidget::tr(char const *, char const *, int)
	?updateTypingCorrectionLevel@HbInputSettingWidget@@QAEXW4HbTypingCorrectionLevel@@@Z @ 1174 NONAME ; void HbInputSettingWidget::updateTypingCorrectionLevel(enum HbTypingCorrectionLevel)
	?mappedKeyPress@Hb12KeyTouchKeypad@@QAEXH@Z @ 1175 NONAME ABSENT ; void Hb12KeyTouchKeypad::mappedKeyPress(int)
	?setSecondaryLanguage@HbInputSettingWidget@@QAEXH@Z @ 1176 NONAME ; void HbInputSettingWidget::setSecondaryLanguage(int)
	?qt_metacall@HbInputSettingWidget@@UAEHW4Call@QMetaObject@@HPAPAX@Z @ 1177 NONAME ; int HbInputSettingWidget::qt_metacall(enum QMetaObject::Call, int, void * *)
	?getStaticMetaObject@HbInputCheckBoxList@@SAABUQMetaObject@@XZ @ 1178 NONAME ; struct QMetaObject const & HbInputCheckBoxList::getStaticMetaObject(void)
	?staticMetaObject@HbInputCheckBoxList@@2UQMetaObject@@B @ 1179 NONAME ; struct QMetaObject const HbInputCheckBoxList::staticMetaObject
	?createCustomWidget@HbInputCheckBoxList@@MAEPAVHbWidget@@XZ @ 1180 NONAME ; class HbWidget * HbInputCheckBoxList::createCustomWidget(void)
	?mappedKeyRelease@Hb12KeyTouchKeypad@@QAEXH@Z @ 1181 NONAME ABSENT ; void Hb12KeyTouchKeypad::mappedKeyRelease(int)
	?staticMetaObject@HbInputSettingWidget@@2UQMetaObject@@B @ 1182 NONAME ; struct QMetaObject const HbInputSettingWidget::staticMetaObject
	?updateCharacterPreviewStateForQwerty@HbInputSettingWidget@@QAEX_N@Z @ 1183 NONAME ; void HbInputSettingWidget::updateCharacterPreviewStateForQwerty(bool)
	??0HbInputCheckBoxList@@QAE@PAVQGraphicsItem@@@Z @ 1184 NONAME ; HbInputCheckBoxList::HbInputCheckBoxList(class QGraphicsItem *)
	?findFirstNumberCharacterBoundToKey@Hb12KeyTouchKeypadPrivate@@QAE?AVQChar@@H@Z @ 1185 NONAME ABSENT ; class QChar Hb12KeyTouchKeypadPrivate::findFirstNumberCharacterBoundToKey(int)
	?updateButtonsTextAndMappers@HbQwertyKeyboardPrivate@@QAEXXZ @ 1186 NONAME ABSENT ; void HbQwertyKeyboardPrivate::updateButtonsTextAndMappers(void)
	?sendKeyChangeEvent@HbInputVkbWidget@@UAEXABVQKeyEvent@@0@Z @ 1187 NONAME ; void HbInputVkbWidget::sendKeyChangeEvent(class QKeyEvent const &, class QKeyEvent const &)
	?d_func@HbInputButton@@AAEPAVHbInputButtonPrivate@@XZ @ 1188 NONAME ; class HbInputButtonPrivate * HbInputButton::d_func(void)
	??0HbInputButtonGroup@@QAE@PAVQGraphicsItem@@@Z @ 1189 NONAME ; HbInputButtonGroup::HbInputButtonGroup(class QGraphicsItem *)
	?updateButtonGrid@HbInputButtonGroupPrivate@@UAEXABVQSizeF@@@Z @ 1190 NONAME ; void HbInputButtonGroupPrivate::updateButtonGrid(class QSizeF const &)
	?updateCustomActions@HbInputButtonGroupPrivate@@UAEXXZ @ 1191 NONAME ; void HbInputButtonGroupPrivate::updateCustomActions(void)
	?longPressEvent@HbInputButtonGroupPrivate@@UAEXXZ @ 1192 NONAME ; void HbInputButtonGroupPrivate::longPressEvent(void)
	?d_func@HbSctKeyboard@@ABEPBVHbSctKeyboardPrivate@@XZ @ 1193 NONAME ; class HbSctKeyboardPrivate const * HbSctKeyboard::d_func(void) const
	?button@HbInputButtonGroup@@QBEPAVHbInputButton@@W4HbInputButtonKeyCode@2@@Z @ 1194 NONAME ; class HbInputButton * HbInputButtonGroup::button(enum HbInputButton::HbInputButtonKeyCode) const
	??0HbSctKeyboard@@QAE@PAVHbInputMethod@@PBVHbKeymap@@PAVQGraphicsItem@@@Z @ 1195 NONAME ; HbSctKeyboard::HbSctKeyboard(class HbInputMethod *, class HbKeymap const *, class QGraphicsItem *)
	??_EHbInputButton@@UAE@I@Z @ 1196 NONAME ; HbInputButton::~HbInputButton(unsigned int)
	?buttonReleased@HbInputButtonGroup@@IAEXABVQKeyEvent@@@Z @ 1197 NONAME ; void HbInputButtonGroup::buttonReleased(class QKeyEvent const &)
	??_EHbInputButtonGroup@@UAE@I@Z @ 1198 NONAME ; HbInputButtonGroup::~HbInputButtonGroup(unsigned int)
	?setPosition@HbInputButton@@QAEXABVQPoint@@@Z @ 1199 NONAME ; void HbInputButton::setPosition(class QPoint const &)
	?qt_metacast@HbSctKeyboard@@UAEPAXPBD@Z @ 1200 NONAME ; void * HbSctKeyboard::qt_metacast(char const *)
	?buttonLongPressed@HbInputButtonGroup@@IAEXABVQKeyEvent@@@Z @ 1201 NONAME ; void HbInputButtonGroup::buttonLongPressed(class QKeyEvent const &)
	?getStaticMetaObject@HbInputButton@@SAABUQMetaObject@@XZ @ 1202 NONAME ; struct QMetaObject const & HbInputButton::getStaticMetaObject(void)
	?d_func@HbSctKeyboard@@AAEPAVHbSctKeyboardPrivate@@XZ @ 1203 NONAME ; class HbSctKeyboardPrivate * HbSctKeyboard::d_func(void)
	?setAutoRepeat@HbInputButton@@QAEX_N@Z @ 1204 NONAME ; void HbInputButton::setAutoRepeat(bool)
	?tr@HbSctKeyboard@@SA?AVQString@@PBD0@Z @ 1205 NONAME ; class QString HbSctKeyboard::tr(char const *, char const *)
	?isEnabled@HbInputButtonGroup@@QBE_NXZ @ 1206 NONAME ; bool HbInputButtonGroup::isEnabled(void) const
	?createPrimarySingleTextLayout@HbInputButtonGroupPrivate@@MAEXHABV?$QHash@HVQString@@@@ABVQSizeF@@@Z @ 1207 NONAME ; void HbInputButtonGroupPrivate::createPrimarySingleTextLayout(int, class QHash<int, class QString> const &, class QSizeF const &)
	?hideButtonPreview@HbInputButtonGroupPrivate@@UAEXPAVHbInputButton@@@Z @ 1208 NONAME ; void HbInputButtonGroupPrivate::hideButtonPreview(class HbInputButton *)
	?q_func@HbSctKeyboardPrivate@@ABEPBVHbSctKeyboard@@XZ @ 1209 NONAME ; class HbSctKeyboard const * HbSctKeyboardPrivate::q_func(void) const
	??0HbSctKeyboardPrivate@@QAE@XZ @ 1210 NONAME ; HbSctKeyboardPrivate::HbSctKeyboardPrivate(void)
	?position@HbInputButton@@QBE?AVQPoint@@XZ @ 1211 NONAME ; class QPoint HbInputButton::position(void) const
	?isButtonPreviewEnabled@HbInputButtonGroup@@QBE_NXZ @ 1212 NONAME ; bool HbInputButtonGroup::isButtonPreviewEnabled(void) const
	?updateTextLayouts@HbInputButtonGroupPrivate@@UAEXABVQSizeF@@@Z @ 1213 NONAME ; void HbInputButtonGroupPrivate::updateTextLayouts(class QSizeF const &)
	?trUtf8@HbInputButtonGroup@@SA?AVQString@@PBD0H@Z @ 1214 NONAME ; class QString HbInputButtonGroup::trUtf8(char const *, char const *, int)
	?setTexts@HbInputButton@@QAEXABV?$QList@VQString@@@@@Z @ 1215 NONAME ; void HbInputButton::setTexts(class QList<class QString> const &)
	?qt_metacall@HbSctKeyboard@@UAEHW4Call@QMetaObject@@HPAPAX@Z @ 1216 NONAME ; int HbSctKeyboard::qt_metacall(enum QMetaObject::Call, int, void * *)
	?setMappedCharacters@HbInputButton@@QAEXABVQString@@@Z @ 1217 NONAME ; void HbInputButton::setMappedCharacters(class QString const &)
	?autoRepeat@HbInputButton@@QBE_NXZ @ 1218 NONAME ; bool HbInputButton::autoRepeat(void) const
	?sendKeyReleaseEvent@HbInputVkbWidget@@UAEXABVQKeyEvent@@@Z @ 1219 NONAME ; void HbInputVkbWidget::sendKeyReleaseEvent(class QKeyEvent const &)
	?getStaticMetaObject@HbInputButtonGroup@@SAABUQMetaObject@@XZ @ 1220 NONAME ; struct QMetaObject const & HbInputButtonGroup::getStaticMetaObject(void)
	?setButtonBorderSize@HbInputButtonGroup@@QAEXM@Z @ 1221 NONAME ; void HbInputButtonGroup::setButtonBorderSize(float)
	?trUtf8@HbInputButton@@SA?AVQString@@PBD0@Z @ 1222 NONAME ; class QString HbInputButton::trUtf8(char const *, char const *)
	??0HbInputButton@@QAE@HABVQPoint@@ABVQSize@@@Z @ 1223 NONAME ; HbInputButton::HbInputButton(int, class QPoint const &, class QSize const &)
	??1HbInputButtonGroupPrivate@@UAE@XZ @ 1224 NONAME ; HbInputButtonGroupPrivate::~HbInputButtonGroupPrivate(void)
	?setCustomButtonActions@HbInputButtonGroup@@QAEXABV?$QList@PAVHbAction@@@@@Z @ 1225 NONAME ; void HbInputButtonGroup::setCustomButtonActions(class QList<class HbAction *> const &)
	?q_func@HbInputButtonGroupPrivate@@ABEPBVHbInputButtonGroup@@XZ @ 1226 NONAME ; class HbInputButtonGroup const * HbInputButtonGroupPrivate::q_func(void) const
	??0HbInputButtonGroup@@IAE@AAVHbInputButtonGroupPrivate@@ABVQSize@@PAVQGraphicsItem@@@Z @ 1227 NONAME ; HbInputButtonGroup::HbInputButtonGroup(class HbInputButtonGroupPrivate &, class QSize const &, class QGraphicsItem *)
	?sendKeyChangeEvent@HbSctKeyboard@@UAEXABVQKeyEvent@@0@Z @ 1228 NONAME ; void HbSctKeyboard::sendKeyChangeEvent(class QKeyEvent const &, class QKeyEvent const &)
	?cancelLongPress@HbInputButtonGroupPrivate@@IAEXH@Z @ 1229 NONAME ; void HbInputButtonGroupPrivate::cancelLongPress(int)
	??0HbInputButtonGroup@@IAE@AAVHbInputButtonGroupPrivate@@PAVQGraphicsItem@@@Z @ 1230 NONAME ; HbInputButtonGroup::HbInputButtonGroup(class HbInputButtonGroupPrivate &, class QGraphicsItem *)
	?sendKeyReleaseEvent@HbSctKeyboard@@UAEXABVQKeyEvent@@@Z @ 1231 NONAME ; void HbSctKeyboard::sendKeyReleaseEvent(class QKeyEvent const &)
	?showCharacterSelectionPreview@HbInputButtonGroupPrivate@@UAEXPAVHbInputButton@@@Z @ 1232 NONAME ; void HbInputButtonGroupPrivate::showCharacterSelectionPreview(class HbInputButton *)
	?calculateButtonProbabilities@HbInputButtonGroupPrivate@@UAEXABVQPointF@@@Z @ 1233 NONAME ; void HbInputButtonGroupPrivate::calculateButtonProbabilities(class QPointF const &)
	??1HbSctKeyboard@@UAE@XZ @ 1234 NONAME ; HbSctKeyboard::~HbSctKeyboard(void)
	??1HbInputButtonGroup@@UAE@XZ @ 1235 NONAME ; HbInputButtonGroup::~HbInputButtonGroup(void)
	?setGeometry@HbInputButtonGroup@@UAEXABVQRectF@@@Z @ 1236 NONAME ; void HbInputButtonGroup::setGeometry(class QRectF const &)
	?qt_metacall@HbInputButtonGroup@@UAEHW4Call@QMetaObject@@HPAPAX@Z @ 1237 NONAME ; int HbInputButtonGroup::qt_metacall(enum QMetaObject::Call, int, void * *)
	?updateColorArray@HbInputButtonGroupPrivate@@UAEXXZ @ 1238 NONAME ; void HbInputButtonGroupPrivate::updateColorArray(void)
	?isMultiTouchEnabled@HbInputButtonGroup@@QBE_NXZ @ 1239 NONAME ; bool HbInputButtonGroup::isMultiTouchEnabled(void) const
	?init@HbSctKeyboardPrivate@@UAEXXZ @ 1240 NONAME ; void HbSctKeyboardPrivate::init(void)
	?paint@HbInputButtonGroup@@MAEXPAVQPainter@@PBVQStyleOptionGraphicsItem@@PAVQWidget@@@Z @ 1241 NONAME ; void HbInputButtonGroup::paint(class QPainter *, class QStyleOptionGraphicsItem const *, class QWidget *)
	?trUtf8@HbSctKeyboard@@SA?AVQString@@PBD0H@Z @ 1242 NONAME ; class QString HbSctKeyboard::trUtf8(char const *, char const *, int)
	?emitButtonLongPressed@HbInputButtonGroup@@MAEXABVQKeyEvent@@@Z @ 1243 NONAME ; void HbInputButtonGroup::emitButtonLongPressed(class QKeyEvent const &)
	?metaObject@HbInputButtonGroup@@UBEPBUQMetaObject@@XZ @ 1244 NONAME ; struct QMetaObject const * HbInputButtonGroup::metaObject(void) const
	?setMode@HbSctKeyboard@@UAEXW4HbKeypadMode@@V?$QFlags@W4HbModifier@@@@@Z @ 1245 NONAME ; void HbSctKeyboard::setMode(enum HbKeypadMode, class QFlags<enum HbModifier>)
	?settingListPosition@HbInputVkbWidgetPrivate@@UAEXAAVQPointF@@AAW4Placement@HbPopup@@@Z @ 1246 NONAME ; void HbInputVkbWidgetPrivate::settingListPosition(class QPointF &, enum HbPopup::Placement &)
	?getStaticMetaObject@HbSctKeyboard@@SAABUQMetaObject@@XZ @ 1247 NONAME ; struct QMetaObject const & HbSctKeyboard::getStaticMetaObject(void)
	?longPressEvent@HbInputButtonGroup@@AAEXXZ @ 1248 NONAME ; void HbInputButtonGroup::longPressEvent(void)
	?buttonGraphics@HbInputButtonGroupPrivate@@MAE?AVQString@@W4HbInputButtonType@HbInputButton@@W4HbInputButtonState@4@@Z @ 1249 NONAME ; class QString HbInputButtonGroupPrivate::buttonGraphics(enum HbInputButton::HbInputButtonType, enum HbInputButton::HbInputButtonState)
	?buttonColor@HbInputButtonGroupPrivate@@MAE?AVQString@@W4HbInputButtonType@HbInputButton@@W4HbInputButtonState@4@@Z @ 1250 NONAME ; class QString HbInputButtonGroupPrivate::buttonColor(enum HbInputButton::HbInputButtonType, enum HbInputButton::HbInputButtonState)
	?staticMetaObject@HbInputButton@@2UQMetaObject@@B @ 1251 NONAME ; struct QMetaObject const HbInputButton::staticMetaObject
	?keyCode@HbInputButton@@QBEHXZ @ 1252 NONAME ; int HbInputButton::keyCode(void) const
	?trUtf8@HbInputButtonGroup@@SA?AVQString@@PBD0@Z @ 1253 NONAME ; class QString HbInputButtonGroup::trUtf8(char const *, char const *)
	?cancelButtonPress@HbInputButtonGroup@@UAEXXZ @ 1254 NONAME ; void HbInputButtonGroup::cancelButtonPress(void)
	?pressedButtonChanged@HbInputButtonGroup@@IAEXABVQKeyEvent@@0@Z @ 1255 NONAME ; void HbInputButtonGroup::pressedButtonChanged(class QKeyEvent const &, class QKeyEvent const &)
	?updateButtons@HbSctKeyboardPrivate@@UAEXXZ @ 1256 NONAME ; void HbSctKeyboardPrivate::updateButtons(void)
	?button@HbInputButtonGroup@@QBEPAVHbInputButton@@H@Z @ 1257 NONAME ; class HbInputButton * HbInputButtonGroup::button(int) const
	?keyCode@HbSctKeyboardPrivate@@UAEHH@Z @ 1258 NONAME ; int HbSctKeyboardPrivate::keyCode(int)
	?setEnabled@HbInputButtonGroup@@QAEX_N@Z @ 1259 NONAME ; void HbInputButtonGroup::setEnabled(bool)
	?updateGraphics@HbInputButtonGroupPrivate@@UAEXABVQSizeF@@@Z @ 1260 NONAME ; void HbInputButtonGroupPrivate::updateGraphics(class QSizeF const &)
	?buttonProbabilities@HbInputButtonGroup@@QBE?AV?$QList@UHbKeyPressProbability@@@@XZ @ 1261 NONAME ; class QList<struct HbKeyPressProbability> HbInputButtonGroup::buttonProbabilities(void) const
	?startLongPress@HbInputButtonGroupPrivate@@IAEXH@Z @ 1262 NONAME ; void HbInputButtonGroupPrivate::startLongPress(int)
	?d_func@HbInputButtonGroup@@AAEPAVHbInputButtonGroupPrivate@@XZ @ 1263 NONAME ; class HbInputButtonGroupPrivate * HbInputButtonGroup::d_func(void)
	?setIcon@HbInputButton@@QAEXABVHbIcon@@W4HbInputButtonIconIndex@1@@Z @ 1264 NONAME ; void HbInputButton::setIcon(class HbIcon const &, enum HbInputButton::HbInputButtonIconIndex)
	?icon@HbInputButton@@QBE?AVHbIcon@@W4HbInputButtonIconIndex@1@@Z @ 1265 NONAME ; class HbIcon HbInputButton::icon(enum HbInputButton::HbInputButtonIconIndex) const
	?trUtf8@HbSctKeyboard@@SA?AVQString@@PBD0@Z @ 1266 NONAME ; class QString HbSctKeyboard::trUtf8(char const *, char const *)
	?pressEvent@HbInputButtonGroupPrivate@@UAEXABVQPointF@@_N@Z @ 1267 NONAME ; void HbInputButtonGroupPrivate::pressEvent(class QPointF const &, bool)
	?changePage@HbSctKeyboard@@AAEXW4HbFlickDirection@HbInputVkbWidget@@@Z @ 1268 NONAME ; void HbSctKeyboard::changePage(enum HbInputVkbWidget::HbFlickDirection)
	?moveEvent@HbInputButtonGroupPrivate@@UAEXABVQPointF@@0@Z @ 1269 NONAME ; void HbInputButtonGroupPrivate::moveEvent(class QPointF const &, class QPointF const &)
	?emitButtonDoublePressed@HbInputButtonGroup@@MAEXABVQKeyEvent@@@Z @ 1270 NONAME ; void HbInputButtonGroup::emitButtonDoublePressed(class QKeyEvent const &)
	?size@HbInputButton@@QBE?AVQSize@@XZ @ 1271 NONAME ; class QSize HbInputButton::size(void) const
	??_EHbSctKeyboard@@UAE@I@Z @ 1272 NONAME ; HbSctKeyboard::~HbSctKeyboard(unsigned int)
	?tr@HbInputButtonGroup@@SA?AVQString@@PBD0@Z @ 1273 NONAME ; class QString HbInputButtonGroup::tr(char const *, char const *)
	?qt_metacast@HbInputButton@@UAEPAXPBD@Z @ 1274 NONAME ; void * HbInputButton::qt_metacast(char const *)
	?fontSize@HbInputButtonGroupPrivate@@MAEMW4HbInputButtonTextType@1@@Z @ 1275 NONAME ABSENT ; float HbInputButtonGroupPrivate::fontSize(enum HbInputButtonGroupPrivate::HbInputButtonTextType)
	?type@HbInputButtonGroup@@MBEHXZ @ 1276 NONAME ; int HbInputButtonGroup::type(void) const
	?updateCustomButtons@HbInputButtonGroup@@AAEXXZ @ 1277 NONAME ; void HbInputButtonGroup::updateCustomButtons(void)
	?tr@HbSctKeyboard@@SA?AVQString@@PBD0H@Z @ 1278 NONAME ; class QString HbSctKeyboard::tr(char const *, char const *, int)
	??_EHbSctKeyboardPrivate@@UAE@I@Z @ 1279 NONAME ; HbSctKeyboardPrivate::~HbSctKeyboardPrivate(unsigned int)
	?showButtonPreview@HbInputButtonGroupPrivate@@UAEXPAVHbInputButton@@@Z @ 1280 NONAME ; void HbInputButtonGroupPrivate::showButtonPreview(class HbInputButton *)
	?q_func@HbSctKeyboardPrivate@@AAEPAVHbSctKeyboard@@XZ @ 1281 NONAME ; class HbSctKeyboard * HbSctKeyboardPrivate::q_func(void)
	?setKeyCode@HbInputButton@@QAEXH@Z @ 1282 NONAME ; void HbInputButton::setKeyCode(int)
	?boundingRect@HbInputButton@@QBE?AVQRectF@@XZ @ 1283 NONAME ; class QRectF HbInputButton::boundingRect(void) const
	?doublePressEvent@HbInputButtonGroupPrivate@@UAEXABVQPointF@@_N@Z @ 1284 NONAME ; void HbInputButtonGroupPrivate::doublePressEvent(class QPointF const &, bool)
	?d_func@HbInputButtonGroup@@ABEPBVHbInputButtonGroupPrivate@@XZ @ 1285 NONAME ; class HbInputButtonGroupPrivate const * HbInputButtonGroup::d_func(void) const
	??0HbInputButton@@QAE@XZ @ 1286 NONAME ; HbInputButton::HbInputButton(void)
	?q_func@HbInputButtonGroupPrivate@@AAEPAVHbInputButtonGroup@@XZ @ 1287 NONAME ; class HbInputButtonGroup * HbInputButtonGroupPrivate::q_func(void)
	?setSize@HbInputButton@@QAEXABVQSize@@@Z @ 1288 NONAME ; void HbInputButton::setSize(class QSize const &)
	?setButtons@HbInputButtonGroup@@QAEXABV?$QList@PAVHbInputButton@@@@@Z @ 1289 NONAME ; void HbInputButtonGroup::setButtons(class QList<class HbInputButton *> const &)
	?setGridSize@HbInputButtonGroup@@QAEXABVQSize@@@Z @ 1290 NONAME ; void HbInputButtonGroup::setGridSize(class QSize const &)
	?contentItem@HbInputVkbWidget@@UBEPAVQGraphicsLayoutItem@@XZ @ 1291 NONAME ; class QGraphicsLayoutItem * HbInputVkbWidget::contentItem(void) const
	?setText@HbInputButton@@QAEXABVQString@@W4HbInputButtonTextIndex@1@@Z @ 1292 NONAME ; void HbInputButton::setText(class QString const &, enum HbInputButton::HbInputButtonTextIndex)
	?icons@HbInputButton@@QBE?AV?$QList@VHbIcon@@@@XZ @ 1293 NONAME ; class QList<class HbIcon> HbInputButton::icons(void) const
	?sendKeyPressEvent@HbInputVkbWidget@@UAEXABVQKeyEvent@@@Z @ 1294 NONAME ; void HbInputVkbWidget::sendKeyPressEvent(class QKeyEvent const &)
	?button@HbInputButtonGroup@@QBEPAVHbInputButton@@HH@Z @ 1295 NONAME ; class HbInputButton * HbInputButtonGroup::button(int, int) const
	?setIcons@HbInputButton@@QAEXABV?$QList@VHbIcon@@@@@Z @ 1296 NONAME ; void HbInputButton::setIcons(class QList<class HbIcon> const &)
	?buttonBorderSize@HbInputButtonGroup@@QBEMXZ @ 1297 NONAME ; float HbInputButtonGroup::buttonBorderSize(void) const
	?setButton@HbInputButtonGroup@@QAEXPAVHbInputButton@@H@Z @ 1298 NONAME ; void HbInputButtonGroup::setButton(class HbInputButton *, int)
	?buttonPressed@HbInputButtonGroup@@IAEXABVQKeyEvent@@@Z @ 1299 NONAME ; void HbInputButtonGroup::buttonPressed(class QKeyEvent const &)
	?emitButtonPressed@HbInputButtonGroup@@MAEXABVQKeyEvent@@@Z @ 1300 NONAME ; void HbInputButtonGroup::emitButtonPressed(class QKeyEvent const &)
	?metaObject@HbSctKeyboard@@UBEPBUQMetaObject@@XZ @ 1301 NONAME ; struct QMetaObject const * HbSctKeyboard::metaObject(void) const
	?staticMetaObject@HbSctKeyboard@@2UQMetaObject@@B @ 1302 NONAME ; struct QMetaObject const HbSctKeyboard::staticMetaObject
	??0HbInputButtonGroup@@QAE@ABVQSize@@PAVQGraphicsItem@@@Z @ 1303 NONAME ; HbInputButtonGroup::HbInputButtonGroup(class QSize const &, class QGraphicsItem *)
	?trUtf8@HbInputButton@@SA?AVQString@@PBD0H@Z @ 1304 NONAME ; class QString HbInputButton::trUtf8(char const *, char const *, int)
	?candidateSelected@HbCandidateList@@IAEXHABVQString@@@Z @ 1305 NONAME ; void HbCandidateList::candidateSelected(int, class QString const &)
	?keyboardType@HbSctKeyboard@@UBE?AV?$QFlags@W4HbKeyboardTypeFlag@@@@XZ @ 1306 NONAME ; class QFlags<enum HbKeyboardTypeFlag> HbSctKeyboard::keyboardType(void) const
	?texts@HbInputButton@@QBE?AV?$QList@VQString@@@@XZ @ 1307 NONAME ; class QList<class QString> HbInputButton::texts(void) const
	?emitButtonReleased@HbInputButtonGroup@@MAEXABVQKeyEvent@@@Z @ 1308 NONAME ; void HbInputButtonGroup::emitButtonReleased(class QKeyEvent const &)
	?preferredKeyboardSize@HbSctKeyboard@@UAE?AVQSizeF@@XZ @ 1309 NONAME ; class QSizeF HbSctKeyboard::preferredKeyboardSize(void)
	?hideEvent@HbInputButtonGroup@@MAEXPAVQHideEvent@@@Z @ 1310 NONAME ; void HbInputButtonGroup::hideEvent(class QHideEvent *)
	?setButton@HbInputButtonGroup@@QAEXPAVHbInputButton@@W4HbInputButtonKeyCode@2@@Z @ 1311 NONAME ; void HbInputButtonGroup::setButton(class HbInputButton *, enum HbInputButton::HbInputButtonKeyCode)
	??0HbInputModeIndicator@@QAE@PAVHbInputButton@@PAVQGraphicsWidget@@@Z @ 1312 NONAME ; HbInputModeIndicator::HbInputModeIndicator(class HbInputButton *, class QGraphicsWidget *)
	?staticMetaObject@HbInputButtonGroup@@2UQMetaObject@@B @ 1313 NONAME ; struct QMetaObject const HbInputButtonGroup::staticMetaObject
	?showEvent@HbInputButtonGroup@@MAEXPAVQShowEvent@@@Z @ 1314 NONAME ; vhttp://start.ubuntu.com/9.10/oid HbInputButtonGroup::showEvent(class QShowEvent *)
	?setButtonPreviewEnabled@HbInputButtonGroup@@QAEX_N@Z @ 1315 NONAME ; void HbInputButtonGroup::setButtonPreviewEnabled(bool)
	??1HbInputButton@@UAE@XZ @ 1316 NONAME ; HbInputButton::~HbInputButton(void)
	?qt_metacast@HbInputButtonGroup@@UAEPAXPBD@Z @ 1317 NONAME ; void * HbInputButtonGroup::qt_metacast(char const *)
	?setMultiTouchEnabled@HbInputButtonGroup@@QAEX_N@Z @ 1318 NONAME ; void HbInputButtonGroup::setMultiTouchEnabled(bool)
	?tr@HbInputButtonGroup@@SA?AVQString@@PBD0H@Z @ 1319 NONAME ; class QString HbInputButtonGroup::tr(char const *, char const *, int)
	?sendKeyPressEvent@HbSctKeyboard@@UAEXABVQKeyEvent@@@Z @ 1320 NONAME ; void HbSctKeyboard::sendKeyPressEvent(class QKeyEvent const &)
	??0HbInputButtonGroupPrivate@@QAE@XZ @ 1321 NONAME ; HbInputButtonGroupPrivate::HbInputButtonGroupPrivate(void)
	?changeEvent@HbInputButtonGroup@@MAEXPAVQEvent@@@Z @ 1322 NONAME ; void HbInputButtonGroup::changeEvent(class QEvent *)
	?initLayout@HbInputVkbWidgetPrivate@@UAEXXZ @ 1323 NONAME ; void HbInputVkbWidgetPrivate::initLayout(void)
	?applyEditorConstraints@HbSctKeyboardPrivate@@UAEXXZ @ 1324 NONAME ; void HbSctKeyboardPrivate::applyEditorConstraints(void)
	?gridSize@HbInputButtonGroup@@QBE?AVQSize@@XZ @ 1325 NONAME ; class QSize HbInputButtonGroup::gridSize(void) const
	?sendLongPressEvent@HbInputVkbWidget@@UAEXABVQKeyEvent@@@Z @ 1326 NONAME ; void HbInputVkbWidget::sendLongPressEvent(class QKeyEvent const &)
	?mappedCharacters@HbInputButton@@QBE?AVQString@@XZ @ 1327 NONAME ; class QString HbInputButton::mappedCharacters(void) const
	?createSecondaryTextLayout@HbInputButtonGroupPrivate@@MAEXHABV?$QHash@HVQString@@@@ABVQSizeF@@@Z @ 1328 NONAME ; void HbInputButtonGroupPrivate::createSecondaryTextLayout(int, class QHash<int, class QString> const &, class QSizeF const &)
	?setContentItem@HbInputVkbWidget@@UAEXPAVQGraphicsLayoutItem@@@Z @ 1329 NONAME ; void HbInputVkbWidget::setContentItem(class QGraphicsLayoutItem *)
	?setButton@HbInputButtonGroup@@QAEXPAVHbInputButton@@HH@Z @ 1330 NONAME ; void HbInputButtonGroup::setButton(class HbInputButton *, int, int)
	??1HbSctKeyboardPrivate@@UAE@XZ @ 1331 NONAME ; HbSctKeyboardPrivate::~HbSctKeyboardPrivate(void)
	?setBoundingRect@HbInputButton@@QAEXABVQRectF@@@Z @ 1332 NONAME ; void HbInputButton::setBoundingRect(class QRectF const &)
	?buttonDoublePressed@HbInputButtonGroup@@IAEXABVQKeyEvent@@@Z @ 1333 NONAME ; void HbInputButtonGroup::buttonDoublePressed(class QKeyEvent const &)
	?buttons@HbInputButtonGroup@@QBE?AV?$QList@PAVHbInputButton@@@@XZ @ 1334 NONAME ; class QList<class HbInputButton *> HbInputButtonGroup::buttons(void) const
	?updateKeyCodes@HbSctKeyboardPrivate@@UAEXXZ @ 1335 NONAME ; void HbSctKeyboardPrivate::updateKeyCodes(void)
	??0HbSctKeyboard@@IAE@AAVHbSctKeyboardPrivate@@PAVHbInputMethod@@PBVHbKeymap@@PAVQGraphicsItem@@@Z @ 1336 NONAME ; HbSctKeyboard::HbSctKeyboard(class HbSctKeyboardPrivate &, class HbInputMethod *, class HbKeymap const *, class QGraphicsItem *)
	?createPrimaryTextLayout@HbInputButtonGroupPrivate@@MAEXHABV?$QHash@HVQString@@@@ABVQSizeF@@@Z @ 1337 NONAME ; void HbInputButtonGroupPrivate::createPrimaryTextLayout(int, class QHash<int, class QString> const &, class QSizeF const &)
	?setType@HbInputButton@@QAEXW4HbInputButtonType@1@@Z @ 1338 NONAME ; void HbInputButton::setType(enum HbInputButton::HbInputButtonType)
	?layoutTextLine@HbInputButtonGroupPrivate@@MAEXW4HbInputButtonTextType@1@PBVHbInputButton@@ABVQSizeF@@AAVQTextLine@@2@Z @ 1339 NONAME ABSENT ; void HbInputButtonGroupPrivate::layoutTextLine(enum HbInputButtonGroupPrivate::HbInputButtonTextType, class HbInputButton const *, class QSizeF const &, class QTextLine &, class QSizeF const &)
	?updateButtons@HbInputVkbWidgetPrivate@@UAEXXZ @ 1340 NONAME ; void HbInputVkbWidgetPrivate::updateButtons(void)
	?isCharacterSelectionPreviewEnabled@HbInputButtonGroup@@QBE_NXZ @ 1341 NONAME ; bool HbInputButtonGroup::isCharacterSelectionPreviewEnabled(void) const
	?tr@HbInputButton@@SA?AVQString@@PBD0H@Z @ 1342 NONAME ; class QString HbInputButton::tr(char const *, char const *, int)
	?releaseEvent@HbInputButtonGroupPrivate@@UAEXABVQPointF@@_N@Z @ 1343 NONAME ; void HbInputButtonGroupPrivate::releaseEvent(class QPointF const &, bool)
	?tr@HbInputButton@@SA?AVQString@@PBD0@Z @ 1344 NONAME ; class QString HbInputButton::tr(char const *, char const *)
	?sceneEvent@HbInputButtonGroup@@MAE_NPAVQEvent@@@Z @ 1345 NONAME ; bool HbInputButtonGroup::sceneEvent(class QEvent *)
	??_EHbInputButtonGroupPrivate@@UAE@I@Z @ 1346 NONAME ; HbInputButtonGroupPrivate::~HbInputButtonGroupPrivate(unsigned int)
	?d_func@HbInputButton@@ABEPBVHbInputButtonPrivate@@XZ @ 1347 NONAME ; class HbInputButtonPrivate const * HbInputButton::d_func(void) const
	?setCharacterSelectionPreviewEnabled@HbInputButtonGroup@@QAEX_N@Z @ 1348 NONAME ; void HbInputButtonGroup::setCharacterSelectionPreviewEnabled(bool)
	?setState@HbInputButton@@QAEXW4HbInputButtonState@1@@Z @ 1349 NONAME ; void HbInputButton::setState(enum HbInputButton::HbInputButtonState)
	?updateKeyCodes@HbInputVkbWidgetPrivate@@UAEXXZ @ 1350 NONAME ; void HbInputVkbWidgetPrivate::updateKeyCodes(void)
	?emitPressedButtonChanged@HbInputButtonGroup@@MAEXABVQKeyEvent@@0@Z @ 1351 NONAME ; void HbInputButtonGroup::emitPressedButtonChanged(class QKeyEvent const &, class QKeyEvent const &)
	?type@HbInputButton@@QBE?AW4HbInputButtonType@1@XZ @ 1352 NONAME ; enum HbInputButton::HbInputButtonType HbInputButton::type(void) const
	?customButtonActions@HbInputButtonGroup@@QBE?AV?$QList@PAVHbAction@@@@XZ @ 1353 NONAME ; class QList<class HbAction *> HbInputButtonGroup::customButtonActions(void) const
	?qt_metacall@HbInputButton@@UAEHW4Call@QMetaObject@@HPAPAX@Z @ 1354 NONAME ; int HbInputButton::qt_metacall(enum QMetaObject::Call, int, void * *)
	?state@HbInputButton@@QBE?AW4HbInputButtonState@1@XZ @ 1355 NONAME ; enum HbInputButton::HbInputButtonState HbInputButton::state(void) const
	?updateButtonPreviewStatus@HbSctKeyboard@@AAEX_N@Z @ 1356 NONAME ; void HbSctKeyboard::updateButtonPreviewStatus(bool)
	?setBackground@HbInputButtonGroup@@QAEXPAVHbFrameDrawer@@@Z @ 1357 NONAME ; void HbInputButtonGroup::setBackground(class HbFrameDrawer *)
	?metaObject@HbInputButton@@UBEPBUQMetaObject@@XZ @ 1358 NONAME ; struct QMetaObject const * HbInputButton::metaObject(void) const
	?text@HbInputButton@@QBE?AVQString@@W4HbInputButtonTextIndex@1@@Z @ 1359 NONAME ; class QString HbInputButton::text(enum HbInputButton::HbInputButtonTextIndex) const
	?sendKeyDoublePressEvent@HbInputVkbWidget@@UAEXABVQKeyEvent@@@Z @ 1360 NONAME ; void HbInputVkbWidget::sendKeyDoublePressEvent(class QKeyEvent const &)
	?flickDirection@HbInputVkbWidget@@QAE?AW4HbFlickDirection@1@XZ @ 1361 NONAME ; enum HbInputVkbWidget::HbFlickDirection HbInputVkbWidget::flickDirection(void)
	?setupToolCluster@HbHwToolCluster@@QAEXXZ @ 1362 NONAME ; void HbHwToolCluster::setupToolCluster(void)
	?launchSpellQueryDialog@HbCandidateList@@IAEXXZ @ 1363 NONAME ; void HbCandidateList::launchSpellQueryDialog(void)
	?numberCharacterBoundToKey@HbInputVkbWidgetPrivate@@UAE?AVQChar@@H@Z @ 1364 NONAME ; class QChar HbInputVkbWidgetPrivate::numberCharacterBoundToKey(int)
	?populateList@HbCandidateList@@QAEXABVQStringList@@_N@Z @ 1365 NONAME ; void HbCandidateList::populateList(class QStringList const &, bool)
	?_q_inputMethodSelectionDialogFinished@HbInputVkbWidgetPrivate@@QAEXPAVHbAction@@@Z @ 1366 NONAME ABSENT ; void HbInputVkbWidgetPrivate::_q_inputMethodSelectionDialogFinished(class HbAction *)
	?showInputMethodSelectionDialog@HbInputVkbWidgetPrivate@@QAEXXZ @ 1367 NONAME ABSENT ; void HbInputVkbWidgetPrivate::showInputMethodSelectionDialog(void)
	?aboutToActivateCustomAction@HbInputButtonGroup@@IAEXPAVHbAction@@@Z @ 1368 NONAME ; void HbInputButtonGroup::aboutToActivateCustomAction(class HbAction *)
	?aboutToActivateCustomAction@HbInputVkbWidget@@IAEXPAVHbAction@@@Z @ 1369 NONAME ; void HbInputVkbWidget::aboutToActivateCustomAction(class HbAction *)
	?rockerPosition@HbInputVkbWidget@@MAE?AVQPointF@@XZ @ 1370 NONAME ; class QPointF HbInputVkbWidget::rockerPosition(void)
	?_q_handleRockerChange@HbInputVkbWidgetPrivate@@QAEXHW4RockerSelectionMode@HbInputVirtualRocker@@@Z @ 1371 NONAME ABSENT ; void HbInputVkbWidgetPrivate::_q_handleRockerChange(int, enum HbInputVirtualRocker::RockerSelectionMode)
	?layoutTextLine@HbInputButtonGroupPrivate@@MAEXW4HbInputButtonTextType@HbInputButtonGroup@@PBVHbInputButton@@ABVQSizeF@@AAVQTextLine@@2@Z @ 1372 NONAME ; void HbInputButtonGroupPrivate::layoutTextLine(enum HbInputButtonGroup::HbInputButtonTextType, class HbInputButton const *, class QSizeF const &, class QTextLine &, class QSizeF const &)	
	?fontSize@HbInputButtonGroupPrivate@@MAEMW4HbInputButtonTextType@HbInputButtonGroup@@@Z @ 1373 NONAME ; float HbInputButtonGroupPrivate::fontSize(enum HbInputButtonGroup::HbInputButtonTextType)
	?fontSize@HbInputButtonGroup@@QAEMW4HbInputButtonTextType@1@@Z @ 1374 NONAME ; float HbInputButtonGroup::fontSize(enum HbInputButtonGroup::HbInputButtonTextType)
	?_q_settingsClosed@HbInputVkbWidgetPrivate@@QAEXPAVHbAction@@@Z @ 1375 NONAME ; void HbInputVkbWidgetPrivate::_q_settingsClosed(class HbAction *)
	?_q_customActionDestroyed@HbInputButtonGroupPrivate@@QAEXPAVQObject@@@Z @ 1376 NONAME ; void HbInputButtonGroupPrivate::_q_customActionDestroyed(class QObject *)
	?resetWidget@HbInputSettingWidget@@QAEXXZ @ 1377 NONAME ; void HbInputSettingWidget::resetWidget(void)
	?dataChange@HbInputSettingWidget@@QAEXABVQModelIndex@@0@Z @ 1378 NONAME ; void HbInputSettingWidget::dataChange(class QModelIndex const &, class QModelIndex const &)
	?inputMethodSelected@HbInputSettingList@@IAEXABVHbInputMethodDescriptor@@ABVQByteArray@@@Z @ 1379 NONAME ; void HbInputSettingList::inputMethodSelected(class HbInputMethodDescriptor const &, class QByteArray const &)
	?trUtf8@HbInputMethodSelectionList@@SA?AVQString@@PBD0H@Z @ 1380 NONAME ; class QString HbInputMethodSelectionList::trUtf8(char const *, char const *, int)
	?staticMetaObject@HbInputMethodSelectionList@@2UQMetaObject@@B @ 1381 NONAME ; struct QMetaObject const HbInputMethodSelectionList::staticMetaObject
	?_q_activateInputMethod@HbInputVkbWidgetPrivate@@QAEXABVHbInputMethodDescriptor@@ABVQByteArray@@@Z @ 1382 NONAME ; void HbInputVkbWidgetPrivate::_q_activateInputMethod(class HbInputMethodDescriptor const &, class QByteArray const &)
	??0HbInputMethodSelectionList@@QAE@PAVQGraphicsWidget@@@Z @ 1383 NONAME ; HbInputMethodSelectionList::HbInputMethodSelectionList(class QGraphicsWidget *)
	?d_func@HbInputMethodSelectionList@@AAEPAVHbInputMethodSelectionListPrivate@@XZ @ 1384 NONAME ; class HbInputMethodSelectionListPrivate * HbInputMethodSelectionList::d_func(void)
	??_EHbInputMethodSelectionList@@UAE@I@Z @ 1385 NONAME ; HbInputMethodSelectionList::~HbInputMethodSelectionList(unsigned int)
	?getStaticMetaObject@HbInputMethodSelectionList@@SAABUQMetaObject@@XZ @ 1386 NONAME ; struct QMetaObject const & HbInputMethodSelectionList::getStaticMetaObject(void)
	?qt_metacast@HbInputMethodSelectionList@@UAEPAXPBD@Z @ 1387 NONAME ; void * HbInputMethodSelectionList::qt_metacast(char const *)
	?tr@HbInputMethodSelectionList@@SA?AVQString@@PBD0H@Z @ 1388 NONAME ; class QString HbInputMethodSelectionList::tr(char const *, char const *, int)
	?tr@HbInputMethodSelectionList@@SA?AVQString@@PBD0@Z @ 1389 NONAME ; class QString HbInputMethodSelectionList::tr(char const *, char const *)
	?metaObject@HbInputMethodSelectionList@@UBEPBUQMetaObject@@XZ @ 1390 NONAME ; struct QMetaObject const * HbInputMethodSelectionList::metaObject(void) const
	??1HbInputMethodSelectionList@@UAE@XZ @ 1391 NONAME ; HbInputMethodSelectionList::~HbInputMethodSelectionList(void)
	?d_func@HbInputMethodSelectionList@@ABEPBVHbInputMethodSelectionListPrivate@@XZ @ 1392 NONAME ; class HbInputMethodSelectionListPrivate const * HbInputMethodSelectionList::d_func(void) const
	?trUtf8@HbInputMethodSelectionList@@SA?AVQString@@PBD0@Z @ 1393 NONAME ; class QString HbInputMethodSelectionList::trUtf8(char const *, char const *)
	?inputMethodSelected@HbInputMethodSelectionList@@IAEXABVHbInputMethodDescriptor@@ABVQByteArray@@@Z @ 1394 NONAME ; void HbInputMethodSelectionList::inputMethodSelected(class HbInputMethodDescriptor const &, class QByteArray const &)
	?aboutToClose@HbInputSettingList@@QAEXXZ @ 1395 NONAME ; void HbInputSettingList::aboutToClose(void)
	?activateSelectedMethod@HbInputMethodSelectionList@@QAEXPAVHbListWidgetItem@@@Z @ 1396 NONAME ; void HbInputMethodSelectionList::activateSelectedMethod(class HbListWidgetItem *)
	?closeSettings@HbInputSettingList@@QAEXABVHbInputMethodDescriptor@@ABVQByteArray@@@Z @ 1397 NONAME ; void HbInputSettingList::closeSettings(class HbInputMethodDescriptor const &, class QByteArray const &)
	?qt_metacall@HbInputMethodSelectionList@@UAEHW4Call@QMetaObject@@HPAPAX@Z @ 1398 NONAME ; int HbInputMethodSelectionList::qt_metacall(enum QMetaObject::Call, int, void * *)
	?setCangjieMode@HbInputSettingWidget@@QAEXH@Z @ 1399 NONAME ; void HbInputSettingWidget::setCangjieMode(int)
	?setLandscapeInputMethod@HbInputSettingWidget@@QAEXH@Z @ 1400 NONAME ; void HbInputSettingWidget::setLandscapeInputMethod(int)
	?setHwrSpeed@HbInputSettingWidget@@QAEXH@Z @ 1401 NONAME ; void HbInputSettingWidget::setHwrSpeed(int)
	?setPortraitInputMethod@HbInputSettingWidget@@QAEXH@Z @ 1402 NONAME ; void HbInputSettingWidget::setPortraitInputMethod(int)
	?resetChineseInputMode@HbInputSettingWidget@@QAEXXZ @ 1403 NONAME ; void HbInputSettingWidget::resetChineseInputMode(void)
	?_q_smileyPickerClosed@HbInputVkbWidgetPrivate@@QAEXXZ @ 1404 NONAME ; void HbInputVkbWidgetPrivate::_q_smileyPickerClosed(void)
	?layoutSecondaryText@HbInputButtonGroupPrivate@@MAEXHPAVHbInputButton@@AAVQFontMetricsF@@ABVQSizeF@@W4HbInputButtonTextIndex@2@W4HbInputButtonIconIndex@2@34W4HbInputButtonTextType@HbInputButtonGroup@@@Z @ 1405 NONAME ; void HbInputButtonGroupPrivate::layoutSecondaryText(int, class HbInputButton *, class QFontMetricsF &, class QSizeF const &, enum HbInputButton::HbInputButtonTextIndex, enum HbInputButton::HbInputButtonIconIndex, enum HbInputButton::HbInputButtonTextIndex, enum HbInputButton::HbInputButtonIconIndex, enum HbInputButtonGroup::HbInputButtonTextType)

