EXPORTS
	?event@HbScrollBar@@MAE_NPAVQEvent@@@Z @ 1 NONAME ; bool HbScrollBar::event(class QEvent *)
	?tr@HbLabel@@SA?AVQString@@PBD0@Z @ 2 NONAME ABSENT ; class QString HbLabel::tr(char const *, char const *)
	?priority@HbPopupBasePrivate@@QBEEXZ @ 3 NONAME ABSENT ; unsigned char HbPopupBasePrivate::priority(void) const
	?itemByIndex@HbAbstractItemContainer@@QBEPAVHbAbstractViewItem@@ABVQModelIndex@@@Z @ 4 NONAME ABSENT ; class HbAbstractViewItem * HbAbstractItemContainer::itemByIndex(class QModelIndex const &) const
	??1HbPopupBasePrivate@@UAE@XZ @ 5 NONAME ABSENT ; HbPopupBasePrivate::~HbPopupBasePrivate(void)
	?tr@HbTheme@@SA?AVQString@@PBD0H@Z @ 6 NONAME ; class QString HbTheme::tr(char const *, char const *, int)
	??0HbListItemContainer@@QAE@PAVQGraphicsItem@@@Z @ 7 NONAME ABSENT ; HbListItemContainer::HbListItemContainer(class QGraphicsItem *)
	?trUtf8@HbToolButton@@SA?AVQString@@PBD0@Z @ 8 NONAME ; class QString HbToolButton::trUtf8(char const *, char const *)
	?popupOpened@HbInteractionListener@@MAEXPBVQObject@@@Z @ 9 NONAME ABSENT ; void HbInteractionListener::popupOpened(class QObject const *)
	?qt_metacall@HbIconAnimator@@UAEHW4Call@QMetaObject@@HPAPAX@Z @ 10 NONAME ; int HbIconAnimator::qt_metacall(enum QMetaObject::Call, int, void * *)
	?setScrollDirections@HbScrollArea@@QAEXV?$QFlags@W4Orientation@Qt@@@@@Z @ 11 NONAME ; void HbScrollArea::setScrollDirections(class QFlags<enum Qt::Orientation>)
	?d_func@HbGridViewItem@@AAEPAVHbGridViewItemPrivate@@XZ @ 12 NONAME ABSENT ; class HbGridViewItemPrivate * HbGridViewItem::d_func(void)
	?tr@HbIconAnimator@@SA?AVQString@@PBD0H@Z @ 13 NONAME ; class QString HbIconAnimator::tr(char const *, char const *, int)
	?staticMetaObject@HbGridView@@2UQMetaObject@@B @ 14 NONAME ABSENT ; struct QMetaObject const HbGridView::staticMetaObject
	??0Selector@HbCss@@QAE@W4MemoryType@HbMemoryManager@@@Z @ 15 NONAME ; HbCss::Selector::Selector(enum HbMemoryManager::MemoryType)
	?error@HbIndicator@@QBEHXZ @ 16 NONAME ; int HbIndicator::error(void) const
	?qt_metacall@HbPredictionFactory@@UAEHW4Call@QMetaObject@@HPAPAX@Z @ 17 NONAME ; int HbPredictionFactory::qt_metacall(enum QMetaObject::Call, int, void * *)
	?setCurrentRow@HbListView@@QAEXH@Z @ 18 NONAME ABSENT ; void HbListView::setCurrentRow(int)
	?init@HbListViewItemPrivate@@QAEXXZ @ 19 NONAME ABSENT ; void HbListViewItemPrivate::init(void)
	?d_func@HbPopupBase@@ABEPBVHbPopupBasePrivate@@XZ @ 20 NONAME ABSENT ; class HbPopupBasePrivate const * HbPopupBase::d_func(void) const
	?extensionAction@HbToolBarExtension@@QBEPAVHbAction@@XZ @ 21 NONAME ; class HbAction * HbToolBarExtension::extensionAction(void) const
	?addItem@HbListWidget@@QAEXABVQString@@@Z @ 22 NONAME ABSENT ; void HbListWidget::addItem(class QString const &)
	??0HbAbstractItem@@IAE@AAVHbAbstractItemPrivate@@PAVQGraphicsItem@@@Z @ 23 NONAME ABSENT ; HbAbstractItem::HbAbstractItem(class HbAbstractItemPrivate &, class QGraphicsItem *)
	?specialCharacterData@HbKeyMapData@@QBE?AVQString@@V?$QFlags@W4HbKeyboardTypeFlag@@@@@Z @ 24 NONAME ABSENT ; class QString HbKeyMapData::specialCharacterData(class QFlags<enum HbKeyboardTypeFlag>) const
	?setGlobalSecondaryInputLanguage@HbInputSettingProxy@@QAEXABVHbInputLanguage@@@Z @ 25 NONAME ; void HbInputSettingProxy::setGlobalSecondaryInputLanguage(class HbInputLanguage const &)
	?numericModeSpecialCharacterData@HbKeyMapData@@QBE?AVQString@@V?$QFlags@W4HbKeyboardTypeFlag@@@@@Z @ 26 NONAME ABSENT ; class QString HbKeyMapData::numericModeSpecialCharacterData(class QFlags<enum HbKeyboardTypeFlag>) const
	?event@HbToolBarExtension@@MAE_NPAVQEvent@@@Z @ 27 NONAME ; bool HbToolBarExtension::event(class QEvent *)
	?tr@HbInputCustomButtonBank@@SA?AVQString@@PBD0@Z @ 28 NONAME ABSENT ; class QString HbInputCustomButtonBank::tr(char const *, char const *)
	?predictiveInputStateChanged@HbInputMethod@@QAEXH@Z @ 29 NONAME ABSENT ; void HbInputMethod::predictiveInputStateChanged(int)
	??0HbStyleOptionNotificationDialog@@QAE@XZ @ 30 NONAME ; HbStyleOptionNotificationDialog::HbStyleOptionNotificationDialog(void)
	?aboutToShow@HbPopupBase@@IAEXXZ @ 31 NONAME ABSENT ; void HbPopupBase::aboutToShow(void)
	?showItems@HbView@@QAEXV?$QFlags@W4SceneItem@Hb@@@@@Z @ 32 NONAME ; void HbView::showItems(class QFlags<enum Hb::SceneItem>)
	?m_instance@HbDirectoryNameLocalizer@@0PAV1@A @ 33 NONAME ABSENT ; class HbDirectoryNameLocalizer * HbDirectoryNameLocalizer::m_instance
	?activeTouchKeyboardChanged@HbInputSettingProxy@@IAEXV?$QFlags@W4HbKeyboardTypeFlag@@@@@Z @ 34 NONAME ABSENT ; void HbInputSettingProxy::activeTouchKeyboardChanged(class QFlags<enum HbKeyboardTypeFlag>)
	?trUtf8@HbWidget@@SA?AVQString@@PBD0@Z @ 35 NONAME ; class QString HbWidget::trUtf8(char const *, char const *)
	??_EHbInputLowerCaseFilter@@UAE@I@Z @ 36 NONAME ; HbInputLowerCaseFilter::~HbInputLowerCaseFilter(unsigned int)
	?defaultSize@HbIconItem@@QBE?AVQSizeF@@XZ @ 37 NONAME ; class QSizeF HbIconItem::defaultSize(void) const
	?readDocument@HbXmlLoaderAbstractSyntax@@UAE_NXZ @ 38 NONAME ABSENT ; bool HbXmlLoaderAbstractSyntax::readDocument(void)
	?metaObject@HbLanguageDatabaseInterface@@UBEPBUQMetaObject@@XZ @ 39 NONAME ; struct QMetaObject const * HbLanguageDatabaseInterface::metaObject(void) const
	?firstState@HbInputStateMachineHKChineseFinger@@UBEXAAVHbInputState@@@Z @ 40 NONAME ABSENT ; void HbInputStateMachineHKChineseFinger::firstState(class HbInputState &) const
	?paint@HbIconItem@@UAEXPAVQPainter@@PBVQStyleOptionGraphicsItem@@PAVQWidget@@@Z @ 41 NONAME ; void HbIconItem::paint(class QPainter *, class QStyleOptionGraphicsItem const *, class QWidget *)
	?indexOf@HbAnchorLayout@@QBEHPBVQGraphicsLayoutItem@@@Z @ 42 NONAME ; int HbAnchorLayout::indexOf(class QGraphicsLayoutItem const *) const
	??_EHbTouchArea@@UAE@I@Z @ 43 NONAME ; HbTouchArea::~HbTouchArea(unsigned int)
	??_EHbView@@UAE@I@Z @ 44 NONAME ; HbView::~HbView(unsigned int)
	??0HbIcon@@QAE@XZ @ 45 NONAME ; HbIcon::HbIcon(void)
	?prepend@HbString@@QAEAAV1@ABVQString@@@Z @ 46 NONAME ; class HbString & HbString::prepend(class QString const &)
	?setGeometry@HbListItemStandardLayout@@UAEXABVQRectF@@@Z @ 47 NONAME ABSENT ; void HbListItemStandardLayout::setGeometry(class QRectF const &)
	?handleBackgroundMousePressEvent@HbPopupBasePrivate@@QAEXXZ @ 48 NONAME ABSENT ; void HbPopupBasePrivate::handleBackgroundMousePressEvent(void)
	?physicalFontChanged@HbFontProvider@@IAEXXZ @ 49 NONAME ABSENT ; void HbFontProvider::physicalFontChanged(void)
	??0HbHeapMemoryManager@@AAE@XZ @ 50 NONAME ; HbHeapMemoryManager::HbHeapMemoryManager(void)
	?activateCustomMethod@HbInputMethod@@IAE_NABVQString@@@Z @ 51 NONAME ABSENT ; bool HbInputMethod::activateCustomMethod(class QString const &)
	?profileNames@HbDeviceProfile@@SA?AVQStringList@@XZ @ 52 NONAME ; class QStringList HbDeviceProfile::profileNames(void)
	?clear@HbStyleLoader@@SAXXZ @ 53 NONAME ABSENT ; void HbStyleLoader::clear(void)
	?removeButton@HbInputCustomButtonBank@@QAEXPAVHbInputCustomButton@@@Z @ 54 NONAME ABSENT ; void HbInputCustomButtonBank::removeButton(class HbInputCustomButton *)
	?metaObject@HbPredictionFactory@@UBEPBUQMetaObject@@XZ @ 55 NONAME ; struct QMetaObject const * HbPredictionFactory::metaObject(void) const
	?constData@HbString@@QBEPBVQChar@@XZ @ 56 NONAME ; class QChar const * HbString::constData(void) const
	??9HbString@@QBE_NABVQString@@@Z @ 57 NONAME ; bool HbString::operator!=(class QString const &) const
	?updateTheme@HbGraphicsPixmapItem@@AAEXXZ @ 58 NONAME ABSENT ; void HbGraphicsPixmapItem::updateTheme(void)
	?extractProgressBarParams@ValueExtractor@HbCss@@QAE_NPAVHbProgressBarParams@@@Z @ 59 NONAME ABSENT ; bool HbCss::ValueExtractor::extractProgressBarParams(class HbProgressBarParams *)
	?instance@HbUrlFilter@@SAPAV1@XZ @ 60 NONAME ; class HbUrlFilter * HbUrlFilter::instance(void)
	??1HbGridViewItemPrivate@@UAE@XZ @ 61 NONAME ABSENT ; HbGridViewItemPrivate::~HbGridViewItemPrivate(void)
	??_EHbInputStateMachine@@UAE@I@Z @ 62 NONAME ABSENT ; HbInputStateMachine::~HbInputStateMachine(unsigned int)
	??1HbAction@@UAE@XZ @ 63 NONAME ; HbAction::~HbAction(void)
	?qt_metacast@HbListWidgetViewItem@@UAEPAXPBD@Z @ 64 NONAME ABSENT ; void * HbListWidgetViewItem::qt_metacast(char const *)
	?tr@HbGridView@@SA?AVQString@@PBD0@Z @ 65 NONAME ABSENT ; class QString HbGridView::tr(char const *, char const *)
	?get@FreeBlocksList@@QAEHXZ @ 66 NONAME ABSENT ; int FreeBlocksList::get(void)
	?paint@HbBatteryIndicator@@UAEXPAVQPainter@@PBVQStyleOptionGraphicsItem@@PAVQWidget@@@Z @ 67 NONAME ABSENT ; void HbBatteryIndicator::paint(class QPainter *, class QStyleOptionGraphicsItem const *, class QWidget *)
	?orientation@HbDeviceProfile@@QBE?AW4Orientation@Qt@@XZ @ 68 NONAME ; enum Qt::Orientation HbDeviceProfile::orientation(void) const
	?closeEvent@HbPopup@@MAEXPAVQCloseEvent@@@Z @ 69 NONAME ; void HbPopup::closeEvent(class QCloseEvent *)
	?attributeToBitIndex@HbWidgetPrivate@@QBEHW4WidgetAttribute@Hb@@@Z @ 70 NONAME ABSENT ; int HbWidgetPrivate::attributeToBitIndex(enum Hb::WidgetAttribute) const
	?setValue@HbScrollBar@@QAEXM@Z @ 71 NONAME ; void HbScrollBar::setValue(float)
	??_EHbGesture@@UAE@I@Z @ 72 NONAME ABSENT ; HbGesture::~HbGesture(unsigned int)
	??1HbEvent@@UAE@XZ @ 73 NONAME ; HbEvent::~HbEvent(void)
	?insertItem@HbListWidget@@QAEXHABVHbIcon@@ABVQString@@@Z @ 74 NONAME ABSENT ; void HbListWidget::insertItem(int, class HbIcon const &, class QString const &)
	?alignment@HbRichTextItem@@QBE?AV?$QFlags@W4AlignmentFlag@Qt@@@@XZ @ 75 NONAME ; class QFlags<enum Qt::AlignmentFlag> HbRichTextItem::alignment(void) const
	?staticMetaObject@HbAction@@2UQMetaObject@@B @ 76 NONAME ; struct QMetaObject const HbAction::staticMetaObject
	??0HbListItemContainer@@IAE@AAVHbListItemContainerPrivate@@PAVQGraphicsItem@@@Z @ 77 NONAME ABSENT ; HbListItemContainer::HbListItemContainer(class HbListItemContainerPrivate &, class QGraphicsItem *)
	?updateDeviceDialog@HbDeviceDialogServer@@QAEHHABV?$QMap@VQString@@VQVariant@@@@@Z @ 78 NONAME ; int HbDeviceDialogServer::updateDeviceDialog(int, class QMap<class QString, class QVariant> const &)
	?role@HbFontSpec@@QBE?AW4Role@1@XZ @ 79 NONAME ; enum HbFontSpec::Role HbFontSpec::role(void) const
	??0HbStyleOptionTitlePane@@QAE@ABV0@@Z @ 80 NONAME ; HbStyleOptionTitlePane::HbStyleOptionTitlePane(class HbStyleOptionTitlePane const &)
	?tr@HbTheme@@SA?AVQString@@PBD0@Z @ 81 NONAME ; class QString HbTheme::tr(char const *, char const *)
	?rowsInserted@HbAbstractItemView@@MAEXABVQModelIndex@@HH@Z @ 82 NONAME ABSENT ; void HbAbstractItemView::rowsInserted(class QModelIndex const &, int, int)
	?instance@HbInputSettingProxy@@SAPAV1@XZ @ 83 NONAME ; class HbInputSettingProxy * HbInputSettingProxy::instance(void)
	?gestureStopped@HbInteractionListener@@MAEXPBVQObject@@W4Gesture@Ia@@@Z @ 84 NONAME ABSENT ; void HbInteractionListener::gestureStopped(class QObject const *, enum Ia::Gesture)
	?visualDirection@HbLayoutUtils@@SA?AW4LayoutDirection@Qt@@PAVQGraphicsLayout@@@Z @ 85 NONAME ; enum Qt::LayoutDirection HbLayoutUtils::visualDirection(class QGraphicsLayout *)
	?screenOrientation@HbInputSettingProxy@@QAE?AW4Orientation@Qt@@XZ @ 86 NONAME ABSENT ; enum Qt::Orientation HbInputSettingProxy::screenOrientation(void)
	?textFormat@HbLabel@@QBE?AW4TextFormat@Qt@@XZ @ 87 NONAME ABSENT ; enum Qt::TextFormat HbLabel::textFormat(void) const
	??0HbStyleOptionMessageBox@@QAE@XZ @ 88 NONAME ; HbStyleOptionMessageBox::HbStyleOptionMessageBox(void)
	?menu@HbAction@@QBEPAVHbMenu@@XZ @ 89 NONAME ; class HbMenu * HbAction::menu(void) const
	?setContentPosition@HbScrollAreaPrivate@@QAEXABVQPointF@@@Z @ 90 NONAME ; void HbScrollAreaPrivate::setContentPosition(class QPointF const &)
	?childItems@HbListWidgetViewItemPrivate@@QBE?AV?$QList@PAVQGraphicsLayoutItem@@@@HW4ListItemColumn@HbListWidgetItem@@_NH1HH@Z @ 91 NONAME ABSENT ; class QList<class QGraphicsLayoutItem *> HbListWidgetViewItemPrivate::childItems(int, enum HbListWidgetItem::ListItemColumn, bool, int, bool, int, int) const
	?_q_layoutChanged@HbAbstractItemViewPrivate@@QAEXXZ @ 92 NONAME ABSENT ; void HbAbstractItemViewPrivate::_q_layoutChanged(void)
	?tr@HbLabel@@SA?AVQString@@PBD0H@Z @ 93 NONAME ABSENT ; class QString HbLabel::tr(char const *, char const *, int)
	?d_func@HbSoftKey@@ABEPBVHbSoftKeyPrivate@@XZ @ 94 NONAME ABSENT ; class HbSoftKeyPrivate const * HbSoftKey::d_func(void) const
	?addSeparator@HbMenu@@QAEPAVHbAction@@XZ @ 95 NONAME ; class HbAction * HbMenu::addSeparator(void)
	?d_func@HbInputStateMachineFactory@@AAEPAVHbInputStateMachineFactoryPrivate@@XZ @ 96 NONAME ABSENT ; class HbInputStateMachineFactoryPrivate * HbInputStateMachineFactory::d_func(void)
	??_EHbMainWindow@@UAE@I@Z @ 97 NONAME ; HbMainWindow::~HbMainWindow(unsigned int)
	?type@HbAbstractItem@@UBEHXZ @ 98 NONAME ABSENT ; int HbAbstractItem::type(void) const
	??_EHbApplication@@UAE@I@Z @ 99 NONAME ; HbApplication::~HbApplication(unsigned int)
	?unsetOrientation@HbMainWindow@@QAEXXZ @ 100 NONAME ABSENT ; void HbMainWindow::unsetOrientation(void)
	?isVisible@HbToolTip@@SA_NPBVHbGraphicsScene@@@Z @ 101 NONAME ; bool HbToolTip::isVisible(class HbGraphicsScene const *)
	?updateGeometry@HbScrollBar@@MAEXXZ @ 102 NONAME ; void HbScrollBar::updateGeometry(void)
	?row@HbListWidget@@QBEHPBVHbListWidgetItem@@@Z @ 103 NONAME ABSENT ; int HbListWidget::row(class HbListWidgetItem const *) const
	?type@HbLabel@@UBEHXZ @ 104 NONAME ABSENT ; int HbLabel::type(void) const
	?tr@HbIconLoader@@SA?AVQString@@PBD0H@Z @ 105 NONAME ; class QString HbIconLoader::tr(char const *, char const *, int)
	?pressed@HbInteractionListener@@MAEXPBVQObject@@@Z @ 106 NONAME ABSENT ; void HbInteractionListener::pressed(class QObject const *)
	?mapToPrimitive@HbListWidgetViewItemPrivate@@QBE?AW4Primitive@HbStyle@@HABVQVariant@@@Z @ 107 NONAME ABSENT ; enum HbStyle::Primitive HbListWidgetViewItemPrivate::mapToPrimitive(int, class QVariant const &) const
	??_EHbIconAnimator@@UAE@I@Z @ 108 NONAME ; HbIconAnimator::~HbIconAnimator(unsigned int)
	?itemChange@HbIconItem@@MAE?AVQVariant@@W4GraphicsItemChange@QGraphicsItem@@ABV2@@Z @ 109 NONAME ; class QVariant HbIconItem::itemChange(enum QGraphicsItem::GraphicsItemChange, class QVariant const &)
	?duration@HbItemHighlight@@QBEHXZ @ 110 NONAME ABSENT ; int HbItemHighlight::duration(void) const
	?setHost@HbFocusObjectWidget@@UAEXPAVHbInputMethod@@@Z @ 111 NONAME ABSENT ; void HbFocusObjectWidget::setHost(class HbInputMethod *)
	?mousePressEvent@HbAbstractItemView@@MAEXPAVQGraphicsSceneMouseEvent@@@Z @ 112 NONAME ABSENT ; void HbAbstractItemView::mousePressEvent(class QGraphicsSceneMouseEvent *)
	?system@HbExtendedLocale@@SA?AV1@XZ @ 113 NONAME ; class HbExtendedLocale HbExtendedLocale::system(void)
	?scrollingStyle@HbScrollArea@@QBE?AW4ScrollingStyle@1@XZ @ 114 NONAME ; enum HbScrollArea::ScrollingStyle HbScrollArea::scrollingStyle(void) const
	??4HbListViewItem@@IAEAAV0@ABV0@@Z @ 115 NONAME ABSENT ; class HbListViewItem & HbListViewItem::operator=(class HbListViewItem const &)
	?columnsAboutToBeRemoved@HbAbstractItemView@@MAEXABVQModelIndex@@HH@Z @ 116 NONAME ABSENT ; void HbAbstractItemView::columnsAboutToBeRemoved(class QModelIndex const &, int, int)
	?qt_metacast@HbTestabilitySignal_p@@UAEPAXPBD@Z @ 117 NONAME ; void * HbTestabilitySignal_p::qt_metacast(char const *)
	?getStaticMetaObject@HbInteractionPluginGroup@@SAABUQMetaObject@@XZ @ 118 NONAME ABSENT ; struct QMetaObject const & HbInteractionPluginGroup::getStaticMetaObject(void)
	?visibleItems@HbMainWindow@@QBE?AV?$QFlags@W4SceneItem@Hb@@@@XZ @ 119 NONAME ABSENT ; class QFlags<enum Hb::SceneItem> HbMainWindow::visibleItems(void) const
	?setRootIndex@HbAbstractItemView@@UAEXABVQModelIndex@@@Z @ 120 NONAME ABSENT ; void HbAbstractItemView::setRootIndex(class QModelIndex const &)
	?mode@HbIconItem@@QBE?AW4Mode@QIcon@@XZ @ 121 NONAME ; enum QIcon::Mode HbIconItem::mode(void) const
	?SleepModeExit@HbEvent@@2HB @ 122 NONAME ; int const HbEvent::SleepModeExit
	?_q_delayedHide@HbPopupBasePrivate@@QAEXUEffectStatus@HbEffect@@@Z @ 123 NONAME ABSENT ; void HbPopupBasePrivate::_q_delayedHide(struct HbEffect::EffectStatus)
	?trUtf8@HbScrollArea@@SA?AVQString@@PBD0H@Z @ 124 NONAME ; class QString HbScrollArea::trUtf8(char const *, char const *, int)
	?q_func@HbAbstractButtonPrivate@@AAEPAVHbAbstractButton@@XZ @ 125 NONAME ; class HbAbstractButton * HbAbstractButtonPrivate::q_func(void)
	??_EHbListViewItemPrivate@@UAE@I@Z @ 126 NONAME ABSENT ; HbListViewItemPrivate::~HbListViewItemPrivate(unsigned int)
	?setDown@HbAbstractButton@@QAEX_N@Z @ 127 NONAME ; void HbAbstractButton::setDown(bool)
	?pageSize@HbScrollBar@@QBEMXZ @ 128 NONAME ; float HbScrollBar::pageSize(void) const
	?languageDatabasePath@HbInputSettingProxy@@SA?AVQString@@XZ @ 129 NONAME ; class QString HbInputSettingProxy::languageDatabasePath(void)
	?addFileSet@HbWidgetStyleLoader@@QAE_NABVQString@@W4Concern@HbLayeredStyleLoader@@W4LayerPriority@4@@Z @ 130 NONAME ABSENT ; bool HbWidgetStyleLoader::addFileSet(class QString const &, enum HbLayeredStyleLoader::Concern, enum HbLayeredStyleLoader::LayerPriority)
	??_EHbGestureFilter@@UAE@I@Z @ 131 NONAME ABSENT ; HbGestureFilter::~HbGestureFilter(unsigned int)
	??0HbStyleOptionScrollBar@@QAE@ABV0@@Z @ 132 NONAME ABSENT ; HbStyleOptionScrollBar::HbStyleOptionScrollBar(class HbStyleOptionScrollBar const &)
	?activeHwKeyboardChanged@HbInputMethod@@QAEXV?$QFlags@W4HbKeyboardTypeFlag@@@@@Z @ 133 NONAME ABSENT ; void HbInputMethod::activeHwKeyboardChanged(class QFlags<enum HbKeyboardTypeFlag>)
	?level@HbSignalIndicator@@QAEHXZ @ 134 NONAME ABSENT ; int HbSignalIndicator::level(void)
	?d_func@HbStyle@@AAEPAVHbStylePrivate@@XZ @ 135 NONAME ; class HbStylePrivate * HbStyle::d_func(void)
	?addItem@HbListWidget@@QAEXABVHbIcon@@ABVQString@@@Z @ 136 NONAME ABSENT ; void HbListWidget::addItem(class HbIcon const &, class QString const &)
	??0HbViewPrivate@@QAE@XZ @ 137 NONAME ; HbViewPrivate::HbViewPrivate(void)
	?brushValues@Declaration@HbCss@@QBEXPAVQBrush@@ABVQPalette@@@Z @ 138 NONAME ABSENT ; void HbCss::Declaration::brushValues(class QBrush *, class QPalette const &) const
	?add@HbEffect@@SA_NABVQString@@00@Z @ 139 NONAME ; bool HbEffect::add(class QString const &, class QString const &, class QString const &)
	?orientationAboutToChange@HbInputSettingProxy@@IAEXXZ @ 140 NONAME ABSENT ; void HbInputSettingProxy::orientationAboutToChange(void)
	?insert@HbListItemStandardLayout@@QAEXPAVQGraphicsLayoutItem@@HHH@Z @ 141 NONAME ABSENT ; void HbListItemStandardLayout::insert(class QGraphicsLayoutItem *, int, int, int)
	?setPredictiveInputStatus@HbInputSettingProxy@@QAEXH@Z @ 142 NONAME ABSENT ; void HbInputSettingProxy::setPredictiveInputStatus(int)
	?cleanup@HbMultiSegmentAlgo@@QAEXXZ @ 143 NONAME ABSENT ; void HbMultiSegmentAlgo::cleanup(void)
	?d_func@HbTheme@@ABEPBVHbThemePrivate@@XZ @ 144 NONAME ; class HbThemePrivate const * HbTheme::d_func(void) const
	??0HbStyleOptionToolTip@@QAE@ABV0@@Z @ 145 NONAME ; HbStyleOptionToolTip::HbStyleOptionToolTip(class HbStyleOptionToolTip const &)
	?isNull@HbFrameBackground@@QBE_NXZ @ 146 NONAME ; bool HbFrameBackground::isNull(void) const
	?updateScrollMetrics@HbScrollAreaPrivate@@QAEXXZ @ 147 NONAME ABSENT ; void HbScrollAreaPrivate::updateScrollMetrics(void)
	?signalEnabled@HbTestabilitySignal_p@@QBE_NXZ @ 148 NONAME ; bool HbTestabilitySignal_p::signalEnabled(void) const
	?getStaticMetaObject@HbDeviceDialog@@SAABUQMetaObject@@XZ @ 149 NONAME ; struct QMetaObject const & HbDeviceDialog::getStaticMetaObject(void)
	?setMirroringMode@HbFrameDrawer@@QAEXW4MirroringMode@HbIcon@@@Z @ 150 NONAME ; void HbFrameDrawer::setMirroringMode(enum HbIcon::MirroringMode)
	?staticMetaObject@HbGraphicsScene@@2UQMetaObject@@B @ 151 NONAME ; struct QMetaObject const HbGraphicsScene::staticMetaObject
	??1HbUserDictionary@@UAE@XZ @ 152 NONAME ; HbUserDictionary::~HbUserDictionary(void)
	??0HbFrameBackground@@QAE@ABVQString@@W4FrameType@HbFrameDrawer@@@Z @ 153 NONAME ; HbFrameBackground::HbFrameBackground(class QString const &, enum HbFrameDrawer::FrameType)
	??0HbStyleOld@@QAE@XZ @ 154 NONAME ABSENT ; HbStyleOld::HbStyleOld(void)
	?trUtf8@HbListViewItem@@SA?AVQString@@PBD0H@Z @ 155 NONAME ABSENT ; class QString HbListViewItem::trUtf8(char const *, char const *, int)
	?staticMetaObject@HbEditorInterface@@2UQMetaObject@@B @ 156 NONAME ; struct QMetaObject const HbEditorInterface::staticMetaObject
	?getStaticMetaObject@HbTreeViewItem@@SAABUQMetaObject@@XZ @ 157 NONAME ABSENT ; struct QMetaObject const & HbTreeViewItem::getStaticMetaObject(void)
	?showEvent@HbPopupBase@@MAEXPAVQShowEvent@@@Z @ 158 NONAME ABSENT ; void HbPopupBase::showEvent(class QShowEvent *)
	?releaseFocus@HbFocusObjectWidget@@UAEXXZ @ 159 NONAME ABSENT ; void HbFocusObjectWidget::releaseFocus(void)
	?qt_metacast@HbDeviceDialogPlugin@@UAEPAXPBD@Z @ 160 NONAME ; void * HbDeviceDialogPlugin::qt_metacast(char const *)
	?tr@HbInputModeCache@@SA?AVQString@@PBD0H@Z @ 161 NONAME ; class QString HbInputModeCache::tr(char const *, char const *, int)
	?removeItem@HbStackedLayout@@QAEXPAVQGraphicsLayoutItem@@@Z @ 162 NONAME ; void HbStackedLayout::removeItem(class QGraphicsLayoutItem *)
	?tr@HbPopup@@SA?AVQString@@PBD0@Z @ 163 NONAME ; class QString HbPopup::tr(char const *, char const *)
	?updateContentItem@HbListWidgetViewItem@@MAEXPAVQGraphicsLayoutItem@@ABVQVariant@@HHW4ListItemColumn@HbListWidgetItem@@@Z @ 164 NONAME ABSENT ; void HbListWidgetViewItem::updateContentItem(class QGraphicsLayoutItem *, class QVariant const &, int, int, enum HbListWidgetItem::ListItemColumn)
	?setInputMode@HbEditorInterface@@QAEXH@Z @ 165 NONAME ABSENT ; void HbEditorInterface::setInputMode(int)
	?icon@HbAction@@QBE?AVHbIcon@@XZ @ 166 NONAME ; class HbIcon HbAction::icon(void) const
	?defaultAspectRatioMode@HbIconItem@@2W4AspectRatioMode@Qt@@B @ 167 NONAME ; enum Qt::AspectRatioMode const HbIconItem::defaultAspectRatioMode
	?addDefinitionFile@HbIconAnimationManager@@QAE_NABVQString@@@Z @ 168 NONAME ; bool HbIconAnimationManager::addDefinitionFile(class QString const &)
	?hasInputMode@HbInputMethod@@QAE_NABVHbInputMode@@@Z @ 169 NONAME ABSENT ; bool HbInputMethod::hasInputMode(class HbInputMode const &)
	?staticMetaObject@HbListWidget@@2UQMetaObject@@B @ 170 NONAME ABSENT ; struct QMetaObject const HbListWidget::staticMetaObject
	??0HbIconAnimationDefinition@@QAE@XZ @ 171 NONAME ; HbIconAnimationDefinition::HbIconAnimationDefinition(void)
	?tr@HbStyleOld@@SA?AVQString@@PBD0H@Z @ 172 NONAME ABSENT ; class QString HbStyleOld::tr(char const *, char const *, int)
	?type@HbMenu@@UBEHXZ @ 173 NONAME ; int HbMenu::type(void) const
	?dataChanged@HbAbstractItemView@@MAEXABVQModelIndex@@0@Z @ 174 NONAME ABSENT ; void HbAbstractItemView::dataChanged(class QModelIndex const &, class QModelIndex const &)
	?setWidget@HbView@@QAEXPAVQGraphicsWidget@@@Z @ 175 NONAME ; void HbView::setWidget(class QGraphicsWidget *)
	?scrollContentsBy@HbMainWindow@@MAEXHH@Z @ 176 NONAME ; void HbMainWindow::scrollContentsBy(int, int)
	?enableFeature@HbInteractionPluginGroup@@QAE_NVQString@@@Z @ 177 NONAME ABSENT ; bool HbInteractionPluginGroup::enableFeature(class QString)
	?tr@HbInputContextProxy@@SA?AVQString@@PBD0H@Z @ 178 NONAME ; class QString HbInputContextProxy::tr(char const *, char const *, int)
	?isActiveMethod@HbInputMethod@@QBE_NXZ @ 179 NONAME ; bool HbInputMethod::isActiveMethod(void) const
	?setMinorTickLabels@HbSliderTickmarksItemLabel@@QAEXABVQStringList@@@Z @ 180 NONAME ABSENT ; void HbSliderTickmarksItemLabel::setMinorTickLabels(class QStringList const &)
	?rows@HbListView@@QBEHXZ @ 181 NONAME ABSENT ; int HbListView::rows(void) const
	?toLatin1@HbString@@QBE?AVQByteArray@@XZ @ 182 NONAME ; class QByteArray HbString::toLatin1(void) const
	??1HbStackedLayout@@UAE@XZ @ 183 NONAME ; HbStackedLayout::~HbStackedLayout(void)
	?styleFeaturesValue@Declaration@HbCss@@QBEHXZ @ 184 NONAME ABSENT ; int HbCss::Declaration::styleFeaturesValue(void) const
	?getStaticMetaObject@HbFocusObjectWidget@@SAABUQMetaObject@@XZ @ 185 NONAME ABSENT ; struct QMetaObject const & HbFocusObjectWidget::getStaticMetaObject(void)
	?trUtf8@HbAbstractItemView@@SA?AVQString@@PBD0@Z @ 186 NONAME ABSENT ; class QString HbAbstractItemView::trUtf8(char const *, char const *)
	??_EHbEditorInterface@@UAE@I@Z @ 187 NONAME ; HbEditorInterface::~HbEditorInterface(unsigned int)
	??1HbIndicatorInterface@@UAE@XZ @ 188 NONAME ; HbIndicatorInterface::~HbIndicatorInterface(void)
	?typefaceInfo@HbInstance@@QBEPAVHbTypefaceInfo@@XZ @ 189 NONAME ABSENT ; class HbTypefaceInfo * HbInstance::typefaceInfo(void) const
	?tr@HbStackedWidget@@SA?AVQString@@PBD0H@Z @ 190 NONAME ; class QString HbStackedWidget::tr(char const *, char const *, int)
	?scrollToTop@HbAbstractItemViewPrivate@@QAEXPBVHbAbstractViewItem@@@Z @ 191 NONAME ABSENT ; void HbAbstractItemViewPrivate::scrollToTop(class HbAbstractViewItem const *)
	?parseMedia@Parser@HbCss@@QAE_NPAUMediaRule@2@@Z @ 192 NONAME ; bool HbCss::Parser::parseMedia(struct HbCss::MediaRule *)
	?buttonIndex@HbInputCustomButtonComposition@@QBEHPAVHbInputCustomButton@@@Z @ 193 NONAME ABSENT ; int HbInputCustomButtonComposition::buttonIndex(class HbInputCustomButton *) const
	?checkStateSet@HbAbstractButton@@MAEXXZ @ 194 NONAME ; void HbAbstractButton::checkStateSet(void)
	?isExpanded@HbListWidgetViewItem@@QBE_NXZ @ 195 NONAME ABSENT ; bool HbListWidgetViewItem::isExpanded(void) const
	?unitValue@HbDeviceProfile@@QBEMXZ @ 196 NONAME ; float HbDeviceProfile::unitValue(void) const
	?qt_metacast@HbGestureFilter@@UAEPAXPBD@Z @ 197 NONAME ABSENT ; void * HbGestureFilter::qt_metacast(char const *)
	??1HbGestureSceneFilter@@UAE@XZ @ 198 NONAME ABSENT ; HbGestureSceneFilter::~HbGestureSceneFilter(void)
	?uninstallMessageHandler@HbDeviceDialogMessageHandler@@SAXXZ @ 199 NONAME ; void HbDeviceDialogMessageHandler::uninstallMessageHandler(void)
	?isEmpty@HbMenu@@QBE_NXZ @ 200 NONAME ; bool HbMenu::isEmpty(void) const
	?trUtf8@HbTheme@@SA?AVQString@@PBD0H@Z @ 201 NONAME ; class QString HbTheme::trUtf8(char const *, char const *, int)
	?isIconValid@HbGridViewItemPrivate@@QBE_NABVQVariant@@@Z @ 202 NONAME ABSENT ; bool HbGridViewItemPrivate::isIconValid(class QVariant const &) const
	?initStyleOption@HbToolButton@@IBEXPAVHbStyleOptionToolButton@@@Z @ 203 NONAME ABSENT ; void HbToolButton::initStyleOption(class HbStyleOptionToolButton *) const
	?trUtf8@HbListViewItem@@SA?AVQString@@PBD0@Z @ 204 NONAME ABSENT ; class QString HbListViewItem::trUtf8(char const *, char const *)
	?qt_metacall@HbAbstractItemContainer@@UAEHW4Call@QMetaObject@@HPAPAX@Z @ 205 NONAME ABSENT ; int HbAbstractItemContainer::qt_metacall(enum QMetaObject::Call, int, void * *)
	?styleValues@Declaration@HbCss@@QBEXPAW4BorderStyle@2@@Z @ 206 NONAME ABSENT ; void HbCss::Declaration::styleValues(enum HbCss::BorderStyle *) const
	??_EHbStyleOld@@UAE@I@Z @ 207 NONAME ABSENT ; HbStyleOld::~HbStyleOld(unsigned int)
	?panGesture@HbScrollArea@@MAEXABVQPointF@@@Z @ 208 NONAME ; void HbScrollArea::panGesture(class QPointF const &)
	?target@HbItemHighlight@@QBEPAVQGraphicsWidget@@XZ @ 209 NONAME ABSENT ; class QGraphicsWidget * HbItemHighlight::target(void) const
	??1HbStyleOptionListViewItem@@QAE@XZ @ 210 NONAME ABSENT ; HbStyleOptionListViewItem::~HbStyleOptionListViewItem(void)
	?testPseudo@Parser@HbCss@@QAE_NXZ @ 211 NONAME ; bool HbCss::Parser::testPseudo(void)
	?DeviceProfileChanged@HbEvent@@2HB @ 212 NONAME ; int const HbEvent::DeviceProfileChanged
	?shutdown@HbInputModeCache@@QAEXXZ @ 213 NONAME ; void HbInputModeCache::shutdown(void)
	?readAlienSection@HbXmlLoaderAbstractSyntax@@UAE_NXZ @ 214 NONAME ABSENT ; bool HbXmlLoaderAbstractSyntax::readAlienSection(void)
	?longPressed@HbInteractionListener@@MAEXPBVQObject@@@Z @ 215 NONAME ABSENT ; void HbInteractionListener::longPressed(class QObject const *)
	?isDragging@HbScrollArea@@QBE_NXZ @ 216 NONAME ; bool HbScrollArea::isDragging(void) const
	?q_func@HbAbstractItemViewPrivate@@AAEPAVHbAbstractItemView@@XZ @ 217 NONAME ABSENT ; class HbAbstractItemView * HbAbstractItemViewPrivate::q_func(void)
	?text@HbLabel@@QBE?AVQString@@XZ @ 218 NONAME ABSENT ; class QString HbLabel::text(void) const
	?deviceDialogClosed@HbDeviceDialog@@IAEXXZ @ 219 NONAME ; void HbDeviceDialog::deviceDialogClosed(void)
	?currentItem@HbListWidget@@QBEPAVHbListWidgetItem@@XZ @ 220 NONAME ABSENT ; class HbListWidgetItem * HbListWidget::currentItem(void) const
	?setColor@HbLabel@@QAEXABVQColor@@@Z @ 221 NONAME ABSENT ; void HbLabel::setColor(class QColor const &)
	?instance@HbInputStateMachineTaiwanChinese@@SAPAV1@XZ @ 222 NONAME ABSENT ; class HbInputStateMachineTaiwanChinese * HbInputStateMachineTaiwanChinese::instance(void)
	??0HbListWidgetItem@@QAE@H@Z @ 223 NONAME ABSENT ; HbListWidgetItem::HbListWidgetItem(int)
	??4HbVariant@@QAEAAV0@ABVQColor@@@Z @ 224 NONAME ; class HbVariant & HbVariant::operator=(class QColor const &)
	?load@HbExtraUserDictionary@@QAE_NABVQString@@@Z @ 225 NONAME ; bool HbExtraUserDictionary::load(class QString const &)
	?setSecondaryDecorationText@HbListWidgetItem@@QAEXABVQString@@@Z @ 226 NONAME ABSENT ; void HbListWidgetItem::setSecondaryDecorationText(class QString const &)
	?isKnownState@HbInputStateMachineLatinFinger@@UBE_NABVHbInputState@@@Z @ 227 NONAME ABSENT ; bool HbInputStateMachineLatinFinger::isKnownState(class HbInputState const &) const
	?addToObjectMap@HbXmlLoaderAbstractActions@@QAEXV?$QList@PAVQGraphicsItem@@@@@Z @ 228 NONAME ABSENT ; void HbXmlLoaderAbstractActions::addToObjectMap(class QList<class QGraphicsItem *>)
	?setItemRecycling@HbAbstractItemView@@QAEX_N@Z @ 229 NONAME ABSENT ; void HbAbstractItemView::setItemRecycling(bool)
	?loadCss@HbWidgetStyleLoader@@QAEXPBVHbWidget@@@Z @ 230 NONAME ; void HbWidgetStyleLoader::loadCss(class HbWidget const *)
	?event@HbSoftKey@@MAE_NPAVQEvent@@@Z @ 231 NONAME ABSENT ; bool HbSoftKey::event(class QEvent *)
	?metaObject@HbAbstractViewItem@@UBEPBUQMetaObject@@XZ @ 232 NONAME ABSENT ; struct QMetaObject const * HbAbstractViewItem::metaObject(void) const
	?event@HbToolBar@@MAE_NPAVQEvent@@@Z @ 233 NONAME ; bool HbToolBar::event(class QEvent *)
	?changeEvent@HbMainWindow@@MAEXPAVQEvent@@@Z @ 234 NONAME ; void HbMainWindow::changeEvent(class QEvent *)
	?nextState@HbInputStateMachineTaiwanChinese@@UAE_NABVHbInputState@@AAV2@W4HbInputStateModifier@@@Z @ 235 NONAME ABSENT ; bool HbInputStateMachineTaiwanChinese::nextState(class HbInputState const &, class HbInputState &, enum HbInputStateModifier)
	?q_func@HbGridViewItemPrivate@@AAEPAVHbGridViewItem@@XZ @ 236 NONAME ABSENT ; class HbGridViewItem * HbGridViewItemPrivate::q_func(void)
	?d_func@HbInputMethod@@AAEPAVHbInputMethodPrivate@@XZ @ 237 NONAME ; class HbInputMethodPrivate * HbInputMethod::d_func(void)
	?createEngine@HbPredictionFactory@@QAEPAVHbPredictionEngine@@H@Z @ 238 NONAME ; class HbPredictionEngine * HbPredictionFactory::createEngine(int)
	?handleLayoutDirectionChanged@HbGraphicsPixmapItem@@AAEXW4LayoutDirection@Qt@@@Z @ 239 NONAME ABSENT ; void HbGraphicsPixmapItem::handleLayoutDirectionChanged(enum Qt::LayoutDirection)
	?mouseMoveEvent@HbGridView@@MAEXPAVQGraphicsSceneMouseEvent@@@Z @ 240 NONAME ABSENT ; void HbGridView::mouseMoveEvent(class QGraphicsSceneMouseEvent *)
	?editorInterface@HbFocusObjectGraphicsWidget@@UBEAAVHbEditorInterface@@XZ @ 241 NONAME ABSENT ; class HbEditorInterface & HbFocusObjectGraphicsWidget::editorInterface(void) const
	??0HbStyleOption@@QAE@HH@Z @ 242 NONAME ; HbStyleOption::HbStyleOption(int, int)
	?checkingXML@HbNgNormalNumber@@CA_NAAW4Country@QLocale@@AAVQString@@1AAV?$QList@H@@@Z @ 243 NONAME ABSENT ; bool HbNgNormalNumber::checkingXML(enum QLocale::Country &, class QString &, class QString &, class QList<int> &)
	?cleanUp@HbXmlLoaderAbstractActions@@QAEXXZ @ 244 NONAME ABSENT ; void HbXmlLoaderAbstractActions::cleanUp(void)
	??1HbInputStateMachineLatinWithEditKey@@UAE@XZ @ 245 NONAME ABSENT ; HbInputStateMachineLatinWithEditKey::~HbInputStateMachineLatinWithEditKey(void)
	?setGroupSeparator@HbExtendedLocale@@QAE_NVQChar@@@Z @ 246 NONAME ; bool HbExtendedLocale::setGroupSeparator(class QChar)
	??_EHbDeviceDialog@@UAE@I@Z @ 247 NONAME ; HbDeviceDialog::~HbDeviceDialog(unsigned int)
	?negativeCurrencySymbolOpposite@HbExtendedLocale@@QBE_NXZ @ 248 NONAME ; bool HbExtendedLocale::negativeCurrencySymbolOpposite(void) const
	?notifyButtonPressed@HbInputCustomButtonBank@@QAEXH@Z @ 249 NONAME ABSENT ; void HbInputCustomButtonBank::notifyButtonPressed(int)
	?polish@HbScrollArea@@MAEXAAVHbStyleParameters@@@Z @ 250 NONAME ; void HbScrollArea::polish(class HbStyleParameters &)
	?triggered@HbToolButton@@IAEXPAVHbAction@@@Z @ 251 NONAME ; void HbToolButton::triggered(class HbAction *)
	?item@HbListModel@@QBEPAVHbListWidgetItem@@H@Z @ 252 NONAME ABSENT ; class HbListWidgetItem * HbListModel::item(int) const
	?removeAt@HbListItemStandardLayout@@UAEXH@Z @ 253 NONAME ABSENT ; void HbListItemStandardLayout::removeAt(int)
	?highlight@HbAbstractItemView@@QBEPAVHbItemHighlight@@XZ @ 254 NONAME ABSENT ; class HbItemHighlight * HbAbstractItemView::highlight(void) const
	??0HbStyleOptionSettingGroup@@QAE@XZ @ 255 NONAME ABSENT ; HbStyleOptionSettingGroup::HbStyleOptionSettingGroup(void)
	??0HbAbstractButtonPrivate@@QAE@W4ControlType@QSizePolicy@@@Z @ 256 NONAME ; HbAbstractButtonPrivate::HbAbstractButtonPrivate(enum QSizePolicy::ControlType)
	?setCurrencyTriadsAllowed@HbExtendedLocale@@QAE_N_N@Z @ 257 NONAME ; bool HbExtendedLocale::setCurrencyTriadsAllowed(bool)
	?setUnitsGeneral@HbExtendedLocale@@QAE_NW4MeasurementSystem@QLocale@@@Z @ 258 NONAME ; bool HbExtendedLocale::setUnitsGeneral(enum QLocale::MeasurementSystem)
	?isExpanded@HbTreeView@@QBE_NABVQModelIndex@@@Z @ 259 NONAME ABSENT ; bool HbTreeView::isExpanded(class QModelIndex const &) const
	?id@HbInputCustomButton@@QBEHXZ @ 260 NONAME ABSENT ; int HbInputCustomButton::id(void) const
	?changeEvent@HbScrollBar@@MAEXPAVQEvent@@@Z @ 261 NONAME ABSENT ; void HbScrollBar::changeEvent(class QEvent *)
	?receiveText@HbInputMethod@@QAEXABVQString@@@Z @ 262 NONAME ABSENT ; void HbInputMethod::receiveText(class QString const &)
	?microFocus@HbFocusObjectGraphicsWidget@@UBE?AVQRectF@@XZ @ 263 NONAME ABSENT ; class QRectF HbFocusObjectGraphicsWidget::microFocus(void) const
	?d_func@HbIconItem@@ABEPBVHbIconItemPrivate@@XZ @ 264 NONAME ; class HbIconItemPrivate const * HbIconItem::d_func(void) const
	?setState@HbLabel@@QAEXW4State@QIcon@@@Z @ 265 NONAME ABSENT ; void HbLabel::setState(enum QIcon::State)
	?setPreEditString@HbFocusObjectGraphicsWidget@@IAEXABVQString@@@Z @ 266 NONAME ABSENT ; void HbFocusObjectGraphicsWidget::setPreEditString(class QString const &)
	??0HbInstance@@AAE@XZ @ 267 NONAME ; HbInstance::HbInstance(void)
	??0HbInputStateMachinePrcChineseFinger@@AAE@XZ @ 268 NONAME ABSENT ; HbInputStateMachinePrcChineseFinger::HbInputStateMachinePrcChineseFinger(void)
	?tr@HbAbstractItemView@@SA?AVQString@@PBD0@Z @ 269 NONAME ABSENT ; class QString HbAbstractItemView::tr(char const *, char const *)
	?extractBorder@ValueExtractor@HbCss@@QAE_NPAMPAVQBrush@@PAW4BorderStyle@2@PAVQSize@@@Z @ 270 NONAME ABSENT ; bool HbCss::ValueExtractor::extractBorder(float *, class QBrush *, enum HbCss::BorderStyle *, class QSize *)
	?addWords@HbExtraUserDictionary@@UAE_NABVQStringList@@@Z @ 271 NONAME ; bool HbExtraUserDictionary::addWords(class QStringList const &)
	??1HbStyleOptionMenuItem@@QAE@XZ @ 272 NONAME ABSENT ; HbStyleOptionMenuItem::~HbStyleOptionMenuItem(void)
	?resizeEvent@HbPopupBase@@MAEXPAVQGraphicsSceneResizeEvent@@@Z @ 273 NONAME ABSENT ; void HbPopupBase::resizeEvent(class QGraphicsSceneResizeEvent *)
	?expandAnimation@HbListWidgetViewItem@@UAEXM@Z @ 274 NONAME ABSENT ; void HbListWidgetViewItem::expandAnimation(float)
	?valueChanged@HbScrollBar@@IAEXMW4Orientation@Qt@@@Z @ 275 NONAME ; void HbScrollBar::valueChanged(float, enum Qt::Orientation)
	??1HbListWidgetItem@@UAE@XZ @ 276 NONAME ABSENT ; HbListWidgetItem::~HbListWidgetItem(void)
	?testAttrib@Parser@HbCss@@QAE_NXZ @ 277 NONAME ; bool HbCss::Parser::testAttrib(void)
	?orientation@HbMainWindow@@QBE?AW4Orientation@Qt@@XZ @ 278 NONAME ; enum Qt::Orientation HbMainWindow::orientation(void) const
	?itemChange@HbDecorator@@MAE?AVQVariant@@W4GraphicsItemChange@QGraphicsItem@@ABV2@@Z @ 279 NONAME ABSENT ; class QVariant HbDecorator::itemChange(enum QGraphicsItem::GraphicsItemChange, class QVariant const &)
	?emitReleased@HbAbstractButtonPrivate@@QAEXXZ @ 280 NONAME ; void HbAbstractButtonPrivate::emitReleased(void)
	?nextState@HbInputStateMachineLatinFinger@@UAE_NABVHbInputState@@AAV2@W4HbInputStateModifier@@@Z @ 281 NONAME ABSENT ; bool HbInputStateMachineLatinFinger::nextState(class HbInputState const &, class HbInputState &, enum HbInputStateModifier)
	?getStaticMetaObject@HbListWidget@@SAABUQMetaObject@@XZ @ 282 NONAME ABSENT ; struct QMetaObject const & HbListWidget::getStaticMetaObject(void)
	?setTextFlags@HbTextItem@@QAEXH@Z @ 283 NONAME ABSENT ; void HbTextItem::setTextFlags(int)
	?parsePage@Parser@HbCss@@QAE_NPAUPageRule@2@@Z @ 284 NONAME ; bool HbCss::Parser::parsePage(struct HbCss::PageRule *)
	?instance@HbInputStateMachineHKChinese@@SAPAV1@XZ @ 285 NONAME ABSENT ; class HbInputStateMachineHKChinese * HbInputStateMachineHKChinese::instance(void)
	?lastOffsetBeingUsed@HbMultiSegmentAlgo@@QBEHXZ @ 286 NONAME ABSENT ; int HbMultiSegmentAlgo::lastOffsetBeingUsed(void) const
	?trUtf8@HbLabel@@SA?AVQString@@PBD0H@Z @ 287 NONAME ABSENT ; class QString HbLabel::trUtf8(char const *, char const *, int)
	?getStaticMetaObject@HbInputMethod@@SAABUQMetaObject@@XZ @ 288 NONAME ; struct QMetaObject const & HbInputMethod::getStaticMetaObject(void)
	??0HbAction@@QAE@ABVQString@@PAVQObject@@@Z @ 289 NONAME ; HbAction::HbAction(class QString const &, class QObject *)
	?instance@HbInputModeCache@@SAPAV1@XZ @ 290 NONAME ; class HbInputModeCache * HbInputModeCache::instance(void)
	?paint@HbRichTextItem@@MAEXPAVQPainter@@PBVQStyleOptionGraphicsItem@@PAVQWidget@@@Z @ 291 NONAME ABSENT ; void HbRichTextItem::paint(class QPainter *, class QStyleOptionGraphicsItem const *, class QWidget *)
	?currentWidget@HbStackedWidget@@QBEPAVQGraphicsWidget@@XZ @ 292 NONAME ; class QGraphicsWidget * HbStackedWidget::currentWidget(void) const
	?unsetLayoutDirection@HbTextItem@@QAEXXZ @ 293 NONAME ABSENT ; void HbTextItem::unsetLayoutDirection(void)
	?setSecondaryLanguage@HbPredictionEngine@@UAE_NABVHbInputLanguage@@@Z @ 294 NONAME ; bool HbPredictionEngine::setSecondaryLanguage(class HbInputLanguage const &)
	??0HbDecorator@@IAE@AAVHbDecoratorPrivate@@W4DecoratorType@0@PAVQGraphicsItem@@@Z @ 295 NONAME ABSENT ; HbDecorator::HbDecorator(class HbDecoratorPrivate &, enum HbDecorator::DecoratorType, class QGraphicsItem *)
	??0HbIcon@@QAE@ABV0@@Z @ 296 NONAME ; HbIcon::HbIcon(class HbIcon const &)
	?setScrollBarMetrics@HbScrollAreaPrivate@@UAEXW4Orientation@Qt@@@Z @ 297 NONAME ; void HbScrollAreaPrivate::setScrollBarMetrics(enum Qt::Orientation)
	?trUtf8@HbInteractionPlugin@@SA?AVQString@@PBD0@Z @ 298 NONAME ABSENT ; class QString HbInteractionPlugin::trUtf8(char const *, char const *)
	?listCustomModePlugins@HbInputModeCache@@QAEXAAUHbInputMethodList@@ABVHbInputLanguage@@@Z @ 299 NONAME ABSENT ; void HbInputModeCache::listCustomModePlugins(struct HbInputMethodList &, class HbInputLanguage const &)
	?tr@HbGestureFilter@@SA?AVQString@@PBD0@Z @ 300 NONAME ABSENT ; class QString HbGestureFilter::tr(char const *, char const *)
	?updateIconItem@HbGridViewItemPrivate@@QAE_NABVHbGridViewPrivate@@@Z @ 301 NONAME ABSENT ; bool HbGridViewItemPrivate::updateIconItem(class HbGridViewPrivate const &)
	?trUtf8@HbFocusObjectGraphicsWidget@@SA?AVQString@@PBD0@Z @ 302 NONAME ABSENT ; class QString HbFocusObjectGraphicsWidget::trUtf8(char const *, char const *)
	??1HbStyleOptionSelectionControl@@QAE@XZ @ 303 NONAME ABSENT ; HbStyleOptionSelectionControl::~HbStyleOptionSelectionControl(void)
	?qt_metacall@HbInputSettingProxy@@UAEHW4Call@QMetaObject@@HPAPAX@Z @ 304 NONAME ; int HbInputSettingProxy::qt_metacall(enum QMetaObject::Call, int, void * *)
	?focusLost@HbInputMethod@@UAEXXZ @ 305 NONAME ABSENT ; void HbInputMethod::focusLost(void)
	?editorCursorPosition@HbFocusObjectGraphicsWidget@@UAEHXZ @ 306 NONAME ABSENT ; int HbFocusObjectGraphicsWidget::editorCursorPosition(void)
	?defaultSizeAdjustmentChanged@HbIconLoader@@IAEXXZ @ 307 NONAME ; void HbIconLoader::defaultSizeAdjustmentChanged(void)
	?id@HbInputCustomButtonBank@@QBEHXZ @ 308 NONAME ABSENT ; int HbInputCustomButtonBank::id(void) const
	?d_func@HbTreeViewItem@@AAEPAVHbTreeViewItemPrivate@@XZ @ 309 NONAME ABSENT ; class HbTreeViewItemPrivate * HbTreeViewItem::d_func(void)
	?init@HbPopupPrivate@@QAEXXZ @ 310 NONAME ; void HbPopupPrivate::init(void)
	??1AttributeSelector@HbCss@@QAE@XZ @ 311 NONAME ; HbCss::AttributeSelector::~AttributeSelector(void)
	?type@HbPopup@@UBEHXZ @ 312 NONAME ; int HbPopup::type(void) const
	?trUtf8@HbSignalIndicator@@SA?AVQString@@PBD0@Z @ 313 NONAME ; class QString HbSignalIndicator::trUtf8(char const *, char const *)
	?verticalScrollBarPolicy@HbScrollArea@@QBE?AW4ScrollBarPolicy@1@XZ @ 314 NONAME ; enum HbScrollArea::ScrollBarPolicy HbScrollArea::verticalScrollBarPolicy(void) const
	?numberGrouping@HbNumberGrouping@@SA?AVQString@@V2@W4NumberStyle@1@W4Country@QLocale@@@Z @ 315 NONAME ABSENT ; class QString HbNumberGrouping::numberGrouping(class QString, enum HbNumberGrouping::NumberStyle, enum QLocale::Country)
	?setExpanded@HbTreeViewItem@@QAEX_N@Z @ 316 NONAME ABSENT ; void HbTreeViewItem::setExpanded(bool)
	?mirroringMode@HbIcon@@QBE?AW4MirroringMode@1@XZ @ 317 NONAME ; enum HbIcon::MirroringMode HbIcon::mirroringMode(void) const
	?setMode@HbLabel@@QAEXW4Mode@QIcon@@@Z @ 318 NONAME ABSENT ; void HbLabel::setMode(enum QIcon::Mode)
	?messageHandler@HbDeviceDialogMessageHandler@@CAXW4QtMsgType@@PBD@Z @ 319 NONAME ; void HbDeviceDialogMessageHandler::messageHandler(enum QtMsgType, char const *)
	?until@Parser@HbCss@@QAE_NW4TokenType@2@0@Z @ 320 NONAME ; bool HbCss::Parser::until(enum HbCss::TokenType, enum HbCss::TokenType)
	?tr@HbFontProvider@@SA?AVQString@@PBD0H@Z @ 321 NONAME ABSENT ; class QString HbFontProvider::tr(char const *, char const *, int)
	?updateGeometry@HbTouchArea@@UAEXXZ @ 322 NONAME ; void HbTouchArea::updateGeometry(void)
	?instance@HbInputStateMachinePrcChineseFinger@@SAPAV1@XZ @ 323 NONAME ABSENT ; class HbInputStateMachinePrcChineseFinger * HbInputStateMachinePrcChineseFinger::instance(void)
	?metaObject@HbAbstractItemContainer@@UBEPBUQMetaObject@@XZ @ 324 NONAME ABSENT ; struct QMetaObject const * HbAbstractItemContainer::metaObject(void) const
	?q_func@HbWidgetPrivate@@AAEPAVHbWidget@@XZ @ 325 NONAME ; class HbWidget * HbWidgetPrivate::q_func(void)
	?language@HbPredictionBase@@UBE?AVHbInputLanguage@@XZ @ 326 NONAME ; class HbInputLanguage HbPredictionBase::language(void) const
	??0HbString@@QAE@W4MemoryType@HbMemoryManager@@@Z @ 327 NONAME ; HbString::HbString(enum HbMemoryManager::MemoryType)
	?qt_metacast@HbInputStateMachineFactory@@UAEPAXPBD@Z @ 328 NONAME ABSENT ; void * HbInputStateMachineFactory::qt_metacast(char const *)
	?metaObject@HbInputFilter@@UBEPBUQMetaObject@@XZ @ 329 NONAME ; struct QMetaObject const * HbInputFilter::metaObject(void) const
	?readContainerEndItem@HbXmlLoaderAbstractSyntax@@UAE_NXZ @ 330 NONAME ABSENT ; bool HbXmlLoaderAbstractSyntax::readContainerEndItem(void)
	??_EHbIndicator@@UAE@I@Z @ 331 NONAME ; HbIndicator::~HbIndicator(unsigned int)
	?dataChanged@HbGridView@@MAEXABVQModelIndex@@0@Z @ 332 NONAME ABSENT ; void HbGridView::dataChanged(class QModelIndex const &, class QModelIndex const &)
	?addAction@HbToolBarExtension@@QAEPAVHbAction@@ABVQString@@PBVQObject@@PBD@Z @ 333 NONAME ; class HbAction * HbToolBarExtension::addAction(class QString const &, class QObject const *, char const *)
	?qt_metacast@HbGraphicsPixmapItem@@UAEPAXPBD@Z @ 334 NONAME ABSENT ; void * HbGraphicsPixmapItem::qt_metacast(char const *)
	??1BasicSelector@HbCss@@QAE@XZ @ 335 NONAME ; HbCss::BasicSelector::~BasicSelector(void)
	?indexInBindingTable@HbKeyMapData@@IBEHV?$QFlags@W4HbKeyboardTypeFlag@@@@HV?$QFlags@W4HbModifier@@@@@Z @ 336 NONAME ABSENT ; int HbKeyMapData::indexInBindingTable(class QFlags<enum HbKeyboardTypeFlag>, int, class QFlags<enum HbModifier>) const
	?getStaticMetaObject@HbListWidgetViewItem@@SAABUQMetaObject@@XZ @ 337 NONAME ABSENT ; struct QMetaObject const & HbListWidgetViewItem::getStaticMetaObject(void)
	?setGlobalInputLanguage@HbInputSettingProxy@@QAEXABVHbInputLanguage@@@Z @ 338 NONAME ; void HbInputSettingProxy::setGlobalInputLanguage(class HbInputLanguage const &)
	??0HbStyleOptionTreeViewItem@@QAE@XZ @ 339 NONAME ABSENT ; HbStyleOptionTreeViewItem::HbStyleOptionTreeViewItem(void)
	?tr@HbAbstractButton@@SA?AVQString@@PBD0H@Z @ 340 NONAME ; class QString HbAbstractButton::tr(char const *, char const *, int)
	?staticMetaObject@HbIconAnimator@@2UQMetaObject@@B @ 341 NONAME ; struct QMetaObject const HbIconAnimator::staticMetaObject
	??0HbStringVector@@QAE@W4MemoryType@HbMemoryManager@@@Z @ 342 NONAME ; HbStringVector::HbStringVector(enum HbMemoryManager::MemoryType)
	?setSelectionMode@HbAbstractItemView@@QAEXW4SelectionMode@1@_N@Z @ 343 NONAME ABSENT ; void HbAbstractItemView::setSelectionMode(enum HbAbstractItemView::SelectionMode, bool)
	??_EHbRichTextItem@@UAE@I@Z @ 344 NONAME ; HbRichTextItem::~HbRichTextItem(unsigned int)
	?initStyleOption@HbAbstractButton@@IBEXPAVHbStyleOption@@@Z @ 345 NONAME ; void HbAbstractButton::initStyleOption(class HbStyleOption *) const
	?getStaticMetaObject@HbGridViewItem@@SAABUQMetaObject@@XZ @ 346 NONAME ABSENT ; struct QMetaObject const & HbGridViewItem::getStaticMetaObject(void)
	??0HbStyleOptionSettingForm@@QAE@ABV0@@Z @ 347 NONAME ABSENT ; HbStyleOptionSettingForm::HbStyleOptionSettingForm(class HbStyleOptionSettingForm const &)
	?trUtf8@HbPopupBase@@SA?AVQString@@PBD0@Z @ 348 NONAME ABSENT ; class QString HbPopupBase::trUtf8(char const *, char const *)
	?trUtf8@HbInteractionPlugin@@SA?AVQString@@PBD0H@Z @ 349 NONAME ABSENT ; class QString HbInteractionPlugin::trUtf8(char const *, char const *, int)
	?pixelSize@HbFontSpec@@QBEHXZ @ 350 NONAME ABSENT ; int HbFontSpec::pixelSize(void) const
	?getStaticMetaObject@HbPopupBase@@SAABUQMetaObject@@XZ @ 351 NONAME ABSENT ; struct QMetaObject const & HbPopupBase::getStaticMetaObject(void)
	??1HbStyleOptionCheckBox@@QAE@XZ @ 352 NONAME ; HbStyleOptionCheckBox::~HbStyleOptionCheckBox(void)
	??0HbInputCustomButtonBank@@AAE@H@Z @ 353 NONAME ABSENT ; HbInputCustomButtonBank::HbInputCustomButtonBank(int)
	?setTooltip@HbInputCustomButton@@QAEXABVQString@@@Z @ 354 NONAME ABSENT ; void HbInputCustomButton::setTooltip(class QString const &)
	?decorationText@HbListWidgetItem@@QBE?AVQString@@XZ @ 355 NONAME ABSENT ; class QString HbListWidgetItem::decorationText(void) const
	?timeoutValue@HbPopupBasePrivate@@SAHW4DefaultTimeout@HbPopupBase@@@Z @ 356 NONAME ABSENT ; int HbPopupBasePrivate::timeoutValue(enum HbPopupBase::DefaultTimeout)
	?staticMetaObject@HbNgNormalNumber@@2UQMetaObject@@B @ 357 NONAME ABSENT ; struct QMetaObject const HbNgNormalNumber::staticMetaObject
	?q_func@HbListWidgetViewItemPrivate@@AAEPAVHbListWidgetViewItem@@XZ @ 358 NONAME ABSENT ; class HbListWidgetViewItem * HbListWidgetViewItemPrivate::q_func(void)
	?mask@HbFrameDrawer@@QBE?AVQPixmap@@XZ @ 359 NONAME ; class QPixmap HbFrameDrawer::mask(void) const
	?cancel@HbDeviceDialog@@QAE_NXZ @ 360 NONAME ; bool HbDeviceDialog::cancel(void)
	?lostFocus@HbAbstractViewItem@@UAEXXZ @ 361 NONAME ABSENT ; void HbAbstractViewItem::lostFocus(void)
	?orientationChanged@HbInputMethod@@QAEXW4Orientation@Qt@@@Z @ 362 NONAME ; void HbInputMethod::orientationChanged(enum Qt::Orientation)
	??0HbAbstractItemContainer@@IAE@AAVHbAbstractItemContainerPrivate@@PAVQGraphicsItem@@@Z @ 363 NONAME ABSENT ; HbAbstractItemContainer::HbAbstractItemContainer(class HbAbstractItemContainerPrivate &, class QGraphicsItem *)
	?mousePressEvent@HbGraphicsScene@@MAEXPAVQGraphicsSceneMouseEvent@@@Z @ 364 NONAME ; void HbGraphicsScene::mousePressEvent(class QGraphicsSceneMouseEvent *)
	??_EHbSharedMemoryManager@@UAE@I@Z @ 365 NONAME ; HbSharedMemoryManager::~HbSharedMemoryManager(unsigned int)
	?tr@HbListViewItem@@SA?AVQString@@PBD0@Z @ 366 NONAME ABSENT ; class QString HbListViewItem::tr(char const *, char const *)
	?tr@HbGestureFilter@@SA?AVQString@@PBD0H@Z @ 367 NONAME ABSENT ; class QString HbGestureFilter::tr(char const *, char const *, int)
	?secondaryDecorationIcon@HbListWidgetItem@@QBE?AVHbIcon@@XZ @ 368 NONAME ABSENT ; class HbIcon HbListWidgetItem::secondaryDecorationIcon(void) const
	?isAutomaticallyMirrored@HbIconLoader@@QAE_NABVQString@@@Z @ 369 NONAME ; bool HbIconLoader::isAutomaticallyMirrored(class QString const &)
	?installMessageHandler@HbDeviceDialogMessageHandler@@SAXABVQString@@_N@Z @ 370 NONAME ; void HbDeviceDialogMessageHandler::installMessageHandler(class QString const &, bool)
	?tr@HbMenu@@SA?AVQString@@PBD0H@Z @ 371 NONAME ; class QString HbMenu::tr(char const *, char const *, int)
	?trUtf8@HbInputStateMachineFactory@@SA?AVQString@@PBD0H@Z @ 372 NONAME ABSENT ; class QString HbInputStateMachineFactory::trUtf8(char const *, char const *, int)
	?firstState@HbInputStateMachineTaiwanChineseFinger@@UBEXAAVHbInputState@@@Z @ 373 NONAME ABSENT ; void HbInputStateMachineTaiwanChineseFinger::firstState(class HbInputState &) const
	?qt_metacast@HbToolButton@@UAEPAXPBD@Z @ 374 NONAME ; void * HbToolButton::qt_metacast(char const *)
	?convert@HbVariant@@QAE_NW4Type@1@@Z @ 375 NONAME ; bool HbVariant::convert(enum HbVariant::Type)
	?trUtf8@HbAbstractItemContainer@@SA?AVQString@@PBD0@Z @ 376 NONAME ABSENT ; class QString HbAbstractItemContainer::trUtf8(char const *, char const *)
	??_EHbAbstractItemPrivate@@UAE@I@Z @ 377 NONAME ABSENT ; HbAbstractItemPrivate::~HbAbstractItemPrivate(unsigned int)
	??4HbVariant@@QAEAAV0@ABVQString@@@Z @ 378 NONAME ; class HbVariant & HbVariant::operator=(class QString const &)
	?editorFont@HbFocusObjectGraphicsWidget@@UAE?AVQFont@@XZ @ 379 NONAME ABSENT ; class QFont HbFocusObjectGraphicsWidget::editorFont(void)
	??1HbStyleOptionNotificationDialog@@QAE@XZ @ 380 NONAME ; HbStyleOptionNotificationDialog::~HbStyleOptionNotificationDialog(void)
	??1HbStyleOld@@UAE@XZ @ 381 NONAME ABSENT ; HbStyleOld::~HbStyleOld(void)
	??0HbVariant@@QAE@ABVQString@@W4MemoryType@HbMemoryManager@@@Z @ 382 NONAME ; HbVariant::HbVariant(class QString const &, enum HbMemoryManager::MemoryType)
	?q_func@HbListViewItemPrivate@@AAEPAVHbListViewItem@@XZ @ 383 NONAME ABSENT ; class HbListViewItem * HbListViewItemPrivate::q_func(void)
	??0BasicSelector@HbCss@@QAE@ABU01@@Z @ 384 NONAME ; HbCss::BasicSelector::BasicSelector(struct HbCss::BasicSelector const &)
	??0HbLabel@@QAE@ABVQString@@PAVQGraphicsItem@@@Z @ 385 NONAME ABSENT ; HbLabel::HbLabel(class QString const &, class QGraphicsItem *)
	?setGeometry@HbTreeLayout@@UAEXABVQRectF@@@Z @ 386 NONAME ABSENT ; void HbTreeLayout::setGeometry(class QRectF const &)
	?setElideMode@HbLabel@@QAEXW4TextElideMode@Qt@@@Z @ 387 NONAME ABSENT ; void HbLabel::setElideMode(enum Qt::TextElideMode)
	?findWidget@HbXmlLoaderAbstractActions@@QAEPAVQGraphicsWidget@@ABVQString@@@Z @ 388 NONAME ABSENT ; class QGraphicsWidget * HbXmlLoaderAbstractActions::findWidget(class QString const &)
	?trUtf8@HbInputMethod@@SA?AVQString@@PBD0@Z @ 389 NONAME ; class QString HbInputMethod::trUtf8(char const *, char const *)
	?setModel@HbAbstractItemViewPrivate@@QAEXPAVQAbstractItemModel@@@Z @ 390 NONAME ABSENT ; void HbAbstractItemViewPrivate::setModel(class QAbstractItemModel *)
	?staticMetaObject@HbScrollArea@@2UQMetaObject@@B @ 391 NONAME ; struct QMetaObject const HbScrollArea::staticMetaObject
	?d_func@HbAbstractButton@@ABEPBVHbAbstractButtonPrivate@@XZ @ 392 NONAME ; class HbAbstractButtonPrivate const * HbAbstractButton::d_func(void) const
	??0HbStyleOptionProgressNote@@QAE@XZ @ 393 NONAME ABSENT ; HbStyleOptionProgressNote::HbStyleOptionProgressNote(void)
	?enable@HbInteractionListener@@UAEXXZ @ 394 NONAME ABSENT ; void HbInteractionListener::enable(void)
	?drawPrimitive@HbStyleOld@@QBEXW4PrimitiveElement@QStyle@@PBVQStyleOption@@PAVQPainter@@PBVQWidget@@@Z @ 395 NONAME ABSENT ; void HbStyleOld::drawPrimitive(enum QStyle::PrimitiveElement, class QStyleOption const *, class QPainter *, class QWidget const *) const
	?setAlignment@HbRichTextItem@@QAEXV?$QFlags@W4AlignmentFlag@Qt@@@@@Z @ 396 NONAME ; void HbRichTextItem::setAlignment(class QFlags<enum Qt::AlignmentFlag>)
	?notifyChecked@HbAbstractButtonPrivate@@QAEXXZ @ 397 NONAME ; void HbAbstractButtonPrivate::notifyChecked(void)
	??0HbDeviceDialog@@QAE@V?$QFlags@W4DeviceDialogFlag@HbDeviceDialog@@@@PAVQObject@@@Z @ 398 NONAME ; HbDeviceDialog::HbDeviceDialog(class QFlags<enum HbDeviceDialog::DeviceDialogFlag>, class QObject *)
	?existingDictionary@HbExtraDictionaryFactory@@QAEPAVHbExtraUserDictionary@@H@Z @ 399 NONAME ; class HbExtraUserDictionary * HbExtraDictionaryFactory::existingDictionary(int)
	?triggered@HbInteractionManagerStatic@@SAXPBVHbWidget@@W4Interaction@Ia@@@Z @ 400 NONAME ABSENT ; void HbInteractionManagerStatic::triggered(class HbWidget const *, enum Ia::Interaction)
	?takeMenu@HbView@@QAEPAVHbMenu@@XZ @ 401 NONAME ; class HbMenu * HbView::takeMenu(void)
	?qt_metacast@HbTreeView@@UAEPAXPBD@Z @ 402 NONAME ABSENT ; void * HbTreeView::qt_metacast(char const *)
	?d_func@HbListWidget@@AAEPAVHbListWidgetPrivate@@XZ @ 403 NONAME ABSENT ; class HbListWidgetPrivate * HbListWidget::d_func(void)
	?leftBoundary@HbScrollAreaPrivate@@QAEMXZ @ 404 NONAME ABSENT ; float HbScrollAreaPrivate::leftBoundary(void)
	??9HbFrameBackground@@QBE_NABV0@@Z @ 405 NONAME ; bool HbFrameBackground::operator!=(class HbFrameBackground const &) const
	?addAction@HbMenu@@QAEPAVHbAction@@ABVQString@@@Z @ 406 NONAME ; class HbAction * HbMenu::addAction(class QString const &)
	?editorTextSelection@HbFocusObjectGraphicsWidget@@UAE?AVQString@@XZ @ 407 NONAME ABSENT ; class QString HbFocusObjectGraphicsWidget::editorTextSelection(void)
	??_EHbStackedWidget@@UAE@I@Z @ 408 NONAME ; HbStackedWidget::~HbStackedWidget(unsigned int)
	??0HbXmlLoaderAbstractActions@@QAE@XZ @ 409 NONAME ; HbXmlLoaderAbstractActions::HbXmlLoaderAbstractActions(void)
	?extractGeometry@ValueExtractor@HbCss@@QAE_NPAM00000PAVQSizePolicy@@PAV?$QFlags@W4GeometryAttrFlag@HbCss@@@@@Z @ 410 NONAME ABSENT ; bool HbCss::ValueExtractor::extractGeometry(float *, float *, float *, float *, float *, float *, class QSizePolicy *, class QFlags<enum HbCss::GeometryAttrFlag> *)
	?qt_metacast@HbWidget@@UAEPAXPBD@Z @ 411 NONAME ; void * HbWidget::qt_metacast(char const *)
	?maskRect@HbStyleOld@@ABE?AVQPixmap@@MMAAV2@@Z @ 412 NONAME ABSENT ; class QPixmap HbStyleOld::maskRect(float, float, class QPixmap &) const
	?setContentWidget@HbScrollArea@@QAEXPAVQGraphicsWidget@@@Z @ 413 NONAME ; void HbScrollArea::setContentWidget(class QGraphicsWidget *)
	?mouseMoveEvent@HbDecorator@@MAEXPAVQGraphicsSceneMouseEvent@@@Z @ 414 NONAME ABSENT ; void HbDecorator::mouseMoveEvent(class QGraphicsSceneMouseEvent *)
	?inputStateToEditor@HbInputMethod@@IAEXABVHbInputState@@@Z @ 415 NONAME ; void HbInputMethod::inputStateToEditor(class HbInputState const &)
	??0HbListView@@QAE@PAVQGraphicsItem@@@Z @ 416 NONAME ABSENT ; HbListView::HbListView(class QGraphicsItem *)
	?testPseudoPage@Parser@HbCss@@QAE_NXZ @ 417 NONAME ; bool HbCss::Parser::testPseudoPage(void)
	?itemRecycling@HbAbstractItemView@@QBE_NXZ @ 418 NONAME ABSENT ; bool HbAbstractItemView::itemRecycling(void) const
	?frameGraphicsName@HbFrameDrawer@@QBE?AVQString@@XZ @ 419 NONAME ; class QString HbFrameDrawer::frameGraphicsName(void) const
	??0HbAbstractViewItemPrivate@@QAE@ABV0@@Z @ 420 NONAME ABSENT ; HbAbstractViewItemPrivate::HbAbstractViewItemPrivate(class HbAbstractViewItemPrivate const &)
	?dataForKey@HbKeyMapData@@UBEPBVQChar@@V?$QFlags@W4HbKeyboardTypeFlag@@@@AAHH@Z @ 421 NONAME ABSENT ; class QChar const * HbKeyMapData::dataForKey(class QFlags<enum HbKeyboardTypeFlag>, int &, int) const
	?createWrapperWidget@HbInputUtils@@SAPAVQWidget@@PAVQGraphicsWidget@@@Z @ 422 NONAME ; class QWidget * HbInputUtils::createWrapperWidget(class QGraphicsWidget *)
	?horizontalScrollBar@HbScrollArea@@QBEPAVHbScrollBar@@XZ @ 423 NONAME ; class HbScrollBar * HbScrollArea::horizontalScrollBar(void) const
	?find@HbInputCustomButtonBank@@QBEPAVHbInputCustomButton@@H@Z @ 424 NONAME ABSENT ; class HbInputCustomButton * HbInputCustomButtonBank::find(int) const
	?aspectRatioMode@HbSignalIndicator@@QBE?AW4AspectRatioMode@Qt@@XZ @ 425 NONAME ABSENT ; enum Qt::AspectRatioMode HbSignalIndicator::aspectRatioMode(void) const
	?trUtf8@HbVkbHost@@SA?AVQString@@PBD0H@Z @ 426 NONAME ; class QString HbVkbHost::trUtf8(char const *, char const *, int)
	??8HbInputLanguage@@QBE_NABV0@@Z @ 427 NONAME ; bool HbInputLanguage::operator==(class HbInputLanguage const &) const
	?startLongPressWatcher@HbGestureSceneFilter@@AAEXXZ @ 428 NONAME ABSENT ; void HbGestureSceneFilter::startLongPressWatcher(void)
	?getStaticMetaObject@HbScrollArea@@SAABUQMetaObject@@XZ @ 429 NONAME ; struct QMetaObject const & HbScrollArea::getStaticMetaObject(void)
	?d_func@HbRichTextItem@@AAEPAVHbRichTextItemPrivate@@XZ @ 430 NONAME ; class HbRichTextItemPrivate * HbRichTextItem::d_func(void)
	??0FreeBlocksList@@QAE@XZ @ 431 NONAME ABSENT ; FreeBlocksList::FreeBlocksList(void)
	??0HbStyleOptionProgressBar@@QAE@ABV0@@Z @ 432 NONAME ; HbStyleOptionProgressBar::HbStyleOptionProgressBar(class HbStyleOptionProgressBar const &)
	??0HbTreeViewItem@@IAE@ABV0@@Z @ 433 NONAME ABSENT ; HbTreeViewItem::HbTreeViewItem(class HbTreeViewItem const &)
	??0HbStyleOptionCommonNote@@QAE@ABV0@@Z @ 434 NONAME ABSENT ; HbStyleOptionCommonNote::HbStyleOptionCommonNote(class HbStyleOptionCommonNote const &)
	?createEngine@HbPredictionFactory@@QAEPAVHbPredictionEngine@@ABVQString@@@Z @ 435 NONAME ; class HbPredictionEngine * HbPredictionFactory::createEngine(class QString const &)
	?editorDeleted@HbInputFocusObject@@IAEXXZ @ 436 NONAME ABSENT ; void HbInputFocusObject::editorDeleted(void)
	?setLogicalFont@HbLabel@@QAEXW4LogicalFontName@Hb@@@Z @ 437 NONAME ABSENT ; void HbLabel::setLogicalFont(enum Hb::LogicalFontName)
	?qt_metacast@HbStyleOld@@UAEPAXPBD@Z @ 438 NONAME ABSENT ; void * HbStyleOld::qt_metacast(char const *)
	?addButton@HbInputCustomButtonComposition@@QAEXPAVHbInputCustomButton@@@Z @ 439 NONAME ABSENT ; void HbInputCustomButtonComposition::addButton(class HbInputCustomButton *)
	?setTitle@HbView@@QAEXABVQString@@@Z @ 440 NONAME ; void HbView::setTitle(class QString const &)
	?removeItem@HbAnchorLayout@@QAEXPAVQGraphicsLayoutItem@@@Z @ 441 NONAME ; void HbAnchorLayout::removeItem(class QGraphicsLayoutItem *)
	?trUtf8@HbFocusObjectGraphicsWidget@@SA?AVQString@@PBD0H@Z @ 442 NONAME ABSENT ; class QString HbFocusObjectGraphicsWidget::trUtf8(char const *, char const *, int)
	?prev@Parser@HbCss@@QAEXXZ @ 443 NONAME ; void HbCss::Parser::prev(void)
	?topBoundary@HbScrollAreaPrivate@@QAEMXZ @ 444 NONAME ABSENT ; float HbScrollAreaPrivate::topBoundary(void)
	??4HbString@@QAEAAV0@ABV0@@Z @ 445 NONAME ; class HbString & HbString::operator=(class HbString const &)
	?dictionaryPath@HbInputSettingProxy@@SA?AVQString@@XZ @ 446 NONAME ; class QString HbInputSettingProxy::dictionaryPath(void)
	?deactivateIndicator@HbDeviceDialogServer@@QAEHABVQString@@ABVQVariant@@@Z @ 447 NONAME ABSENT ; int HbDeviceDialogServer::deactivateIndicator(class QString const &, class QVariant const &)
	?setCurrentIndex@HbStackedWidget@@QAEXH@Z @ 448 NONAME ; void HbStackedWidget::setCurrentIndex(int)
	?qt_metacall@HbInputFilter@@UAEHW4Call@QMetaObject@@HPAPAX@Z @ 449 NONAME ; int HbInputFilter::qt_metacall(enum QMetaObject::Call, int, void * *)
	?pushDocument@HbXmlLoaderAbstractActions@@QAE_NABVQString@@@Z @ 450 NONAME ABSENT ; bool HbXmlLoaderAbstractActions::pushDocument(class QString const &)
	?staticMetaObject@HbVkbHost@@2UQMetaObject@@B @ 451 NONAME ; struct QMetaObject const HbVkbHost::staticMetaObject
	?findVkbHost@HbFocusObjectWidget@@UBEPAVHbVkbHost@@XZ @ 452 NONAME ABSENT ; class HbVkbHost * HbFocusObjectWidget::findVkbHost(void) const
	?d_func@HbGridView@@ABEPBVHbGridViewPrivate@@XZ @ 453 NONAME ABSENT ; class HbGridViewPrivate const * HbGridView::d_func(void) const
	?tr@HbInputSettingProxy@@SA?AVQString@@PBD0H@Z @ 454 NONAME ; class QString HbInputSettingProxy::tr(char const *, char const *, int)
	?focusedWidget@HbFocusObjectWidget@@QBEPAVQWidget@@XZ @ 455 NONAME ABSENT ; class QWidget * HbFocusObjectWidget::focusedWidget(void) const
	?state@HbAbstractViewItem@@UBE?AV?$QMap@HVQVariant@@@@XZ @ 456 NONAME ABSENT ; class QMap<int, class QVariant> HbAbstractViewItem::state(void) const
	?d_func@HbAbstractViewItem@@ABEPBVHbAbstractViewItemPrivate@@XZ @ 457 NONAME ABSENT ; class HbAbstractViewItemPrivate const * HbAbstractViewItem::d_func(void) const
	??0HbInputCustomButton@@IAE@PAVHbInputCustomButtonPrivate@@@Z @ 458 NONAME ABSENT ; HbInputCustomButton::HbInputCustomButton(class HbInputCustomButtonPrivate *)
	?showLanguageSelectionDialog@HbInputMethod@@MAE?AVHbInputLanguage@@W4Language@QLocale@@V?$QList@VHbInputLanguage@@@@@Z @ 459 NONAME ABSENT ; class HbInputLanguage HbInputMethod::showLanguageSelectionDialog(enum QLocale::Language, class QList<class HbInputLanguage>)
	?secondaryInputLanguageChanged@HbInputMethod@@MAEXABVHbInputLanguage@@@Z @ 460 NONAME ; void HbInputMethod::secondaryInputLanguageChanged(class HbInputLanguage const &)
	??_EHbLanguageDatabaseInterface@@UAE@I@Z @ 461 NONAME ; HbLanguageDatabaseInterface::~HbLanguageDatabaseInterface(unsigned int)
	?qt_metacall@HbInputModeCache@@UAEHW4Call@QMetaObject@@HPAPAX@Z @ 462 NONAME ; int HbInputModeCache::qt_metacall(enum QMetaObject::Call, int, void * *)
	?isCaseSensitiveLanguage@HbInputUtils@@SA_NABVHbInputLanguage@@@Z @ 463 NONAME ABSENT ; bool HbInputUtils::isCaseSensitiveLanguage(class HbInputLanguage const &)
	?preEditString@HbFocusObjectWidget@@UBE?AVQString@@XZ @ 464 NONAME ABSENT ; class QString HbFocusObjectWidget::preEditString(void) const
	?indentation@HbTreeLayout@@QBEMXZ @ 465 NONAME ABSENT ; float HbTreeLayout::indentation(void) const
	??1HbMenu@@UAE@XZ @ 466 NONAME ; HbMenu::~HbMenu(void)
	??0HbVariant@@QAE@PBDW4MemoryType@HbMemoryManager@@@Z @ 467 NONAME ; HbVariant::HbVariant(char const *, enum HbMemoryManager::MemoryType)
	?trUtf8@HbToolButton@@SA?AVQString@@PBD0H@Z @ 468 NONAME ; class QString HbToolButton::trUtf8(char const *, char const *, int)
	?tr@HbBatteryIndicator@@SA?AVQString@@PBD0H@Z @ 469 NONAME ; class QString HbBatteryIndicator::tr(char const *, char const *, int)
	?setInteractive@HbScrollBar@@QAEX_N@Z @ 470 NONAME ; void HbScrollBar::setInteractive(bool)
	?parsePrio@Parser@HbCss@@QAE_NPAUDeclaration@2@@Z @ 471 NONAME ; bool HbCss::Parser::parsePrio(struct HbCss::Declaration *)
	??_EHbEvent@@UAE@I@Z @ 472 NONAME ; HbEvent::~HbEvent(unsigned int)
	?removeAction@HbSoftKey@@QAEXPAVHbAction@@@Z @ 473 NONAME ABSENT ; void HbSoftKey::removeAction(class HbAction *)
	?rawNumericModeSpecialCharacterData@HbKeyMapData@@MBEPAVQChar@@V?$QFlags@W4HbKeyboardTypeFlag@@@@AAH@Z @ 474 NONAME ABSENT ; class QChar * HbKeyMapData::rawNumericModeSpecialCharacterData(class QFlags<enum HbKeyboardTypeFlag>, int &) const
	?orientationChangeCompleted@HbInputSettingProxy@@QBE_NXZ @ 475 NONAME ABSENT ; bool HbInputSettingProxy::orientationChangeCompleted(void) const
	??0HbInputUpperCaseFilter@@AAE@XZ @ 476 NONAME ; HbInputUpperCaseFilter::HbInputUpperCaseFilter(void)
	?staticMetaObject@HbDeviceDialogPlugin@@2UQMetaObject@@B @ 477 NONAME ; struct QMetaObject const HbDeviceDialogPlugin::staticMetaObject
	?inputPluginInstance@HbInputUtils@@SAPAVQInputContextPlugin@@ABVQString@@@Z @ 478 NONAME ABSENT ; class QInputContextPlugin * HbInputUtils::inputPluginInstance(class QString const &)
	?qt_metacast@HbListWidget@@UAEPAXPBD@Z @ 479 NONAME ABSENT ; void * HbListWidget::qt_metacast(char const *)
	?softKeyId@HbSoftKey@@QAE?AW4SoftKeyId@Hb@@XZ @ 480 NONAME ABSENT ; enum Hb::SoftKeyId HbSoftKey::softKeyId(void)
	?color@HbColorScheme@@SA?AVQColor@@ABVQString@@H@Z @ 481 NONAME ABSENT ; class QColor HbColorScheme::color(class QString const &, int)
	?tr@HbDeviceDialogPlugin@@SA?AVQString@@PBD0@Z @ 482 NONAME ; class QString HbDeviceDialogPlugin::tr(char const *, char const *)
	??_EHbVirtualKeyboard@@UAE@I@Z @ 483 NONAME ; HbVirtualKeyboard::~HbVirtualKeyboard(unsigned int)
	??0HbVariant@@QAE@W4MemoryType@HbMemoryManager@@@Z @ 484 NONAME ; HbVariant::HbVariant(enum HbMemoryManager::MemoryType)
	?clampingStyle@HbScrollArea@@QBE?AW4ClampingStyle@1@XZ @ 485 NONAME ; enum HbScrollArea::ClampingStyle HbScrollArea::clampingStyle(void) const
	?theme@HbInstance@@QBEPAVHbTheme@@XZ @ 486 NONAME ; class HbTheme * HbInstance::theme(void) const
	??_EHbListViewPrivate@@UAE@I@Z @ 487 NONAME ABSENT ; HbListViewPrivate::~HbListViewPrivate(unsigned int)
	??1HbInputCustomButtonStore@@EAE@XZ @ 488 NONAME ABSENT ; HbInputCustomButtonStore::~HbInputCustomButtonStore(void)
	?metaObject@HbGridView@@UBEPBUQMetaObject@@XZ @ 489 NONAME ABSENT ; struct QMetaObject const * HbGridView::metaObject(void) const
	?formatingGroup@HbNgNormalNumber@@CA?AVQString@@AAV2@AAH11AA_N00AAV?$QList@H@@@Z @ 490 NONAME ABSENT ; class QString HbNgNormalNumber::formatingGroup(class QString &, int &, int &, int &, bool &, class QString &, class QString &, class QList<int> &)
	??BHbFrameBackground@@QBE?AVQVariant@@XZ @ 491 NONAME ; HbFrameBackground::operator class QVariant(void) const
	?testAttribute@HbWidget@@QBE_NW4WidgetAttribute@Qt@@@Z @ 492 NONAME ABSENT ; bool HbWidget::testAttribute(enum Qt::WidgetAttribute) const
	??1HbAbstractItemViewPrivate@@UAE@XZ @ 493 NONAME ABSENT ; HbAbstractItemViewPrivate::~HbAbstractItemViewPrivate(void)
	?hideItems@HbView@@QAEXV?$QFlags@W4SceneItem@Hb@@@@@Z @ 494 NONAME ; void HbView::hideItems(class QFlags<enum Hb::SceneItem>)
	?addAction@HbToolBar@@QAEPAVHbAction@@ABVQString@@PBVQObject@@PBD@Z @ 495 NONAME ; class HbAction * HbToolBar::addAction(class QString const &, class QObject const *, char const *)
	?getStaticMetaObject@HbStyleOld@@SAABUQMetaObject@@XZ @ 496 NONAME ABSENT ; struct QMetaObject const & HbStyleOld::getStaticMetaObject(void)
	?allMainWindows@HbInstance@@QBE?AV?$QList@PAVHbMainWindow@@@@XZ @ 497 NONAME ; class QList<class HbMainWindow *> HbInstance::allMainWindows(void) const
	?moveDraggedItemTo@HbListViewPrivate@@QAEXABVQPointF@@@Z @ 498 NONAME ABSENT ; void HbListViewPrivate::moveDraggedItemTo(class QPointF const &)
	?toggled@HbAbstractButton@@IAEX_N@Z @ 499 NONAME ; void HbAbstractButton::toggled(bool)
	??4HbStringVector@@QAEAAV0@ABV0@@Z @ 500 NONAME ; class HbStringVector & HbStringVector::operator=(class HbStringVector const &)
	?qt_metacall@HbInputContextProxy@@UAEHW4Call@QMetaObject@@HPAPAX@Z @ 501 NONAME ; int HbInputContextProxy::qt_metacall(enum QMetaObject::Call, int, void * *)
	?boundaryReached@HbInteractionListener@@MAEXPBVQObject@@@Z @ 502 NONAME ABSENT ; void HbInteractionListener::boundaryReached(class QObject const *)
	??4HbStyleOption@@QAEAAV0@ABV0@@Z @ 503 NONAME ABSENT ; class HbStyleOption & HbStyleOption::operator=(class HbStyleOption const &)
	?tr@HbInputStateMachineFactory@@SA?AVQString@@PBD0@Z @ 504 NONAME ABSENT ; class QString HbInputStateMachineFactory::tr(char const *, char const *)
	?listCustomInputMethods@HbInputUtils@@SAXAAUHbInputMethodList@@ABVHbInputLanguage@@@Z @ 505 NONAME ABSENT ; void HbInputUtils::listCustomInputMethods(struct HbInputMethodList &, class HbInputLanguage const &)
	?qt_metacall@HbIconLoader@@UAEHW4Call@QMetaObject@@HPAPAX@Z @ 506 NONAME ; int HbIconLoader::qt_metacall(enum QMetaObject::Call, int, void * *)
	?togglePrediction@HbInputSettingProxy@@QAEXXZ @ 507 NONAME ; void HbInputSettingProxy::togglePrediction(void)
	?checkingNumber@HbNgNormalNumber@@CA_NAAVQString@@AAH11AA_N@Z @ 508 NONAME ABSENT ; bool HbNgNormalNumber::checkingNumber(class QString &, int &, int &, int &, bool &)
	?takeWidget@HbView@@QAEPAVQGraphicsWidget@@XZ @ 509 NONAME ; class QGraphicsWidget * HbView::takeWidget(void)
	??0HbListViewItem@@IAE@AAVHbListViewItemPrivate@@PAVQGraphicsItem@@@Z @ 510 NONAME ABSENT ; HbListViewItem::HbListViewItem(class HbListViewItemPrivate &, class QGraphicsItem *)
	?readContainerStartItem@HbXmlLoaderAbstractSyntax@@UAE_NXZ @ 511 NONAME ABSENT ; bool HbXmlLoaderAbstractSyntax::readContainerStartItem(void)
	?invalidate@HbStackedLayout@@UAEXXZ @ 512 NONAME ; void HbStackedLayout::invalidate(void)
	?removeBank@HbInputCustomButtonStore@@QAEXH@Z @ 513 NONAME ABSENT ; void HbInputCustomButtonStore::removeBank(int)
	?nextState@HbInputStateMachineHKChinese@@UAE_NABVHbInputState@@AAV2@W4HbInputStateModifier@@@Z @ 514 NONAME ABSENT ; bool HbInputStateMachineHKChinese::nextState(class HbInputState const &, class HbInputState &, enum HbInputStateModifier)
	?at@HbInputCustomButtonBank@@QBEPAVHbInputCustomButton@@H@Z @ 515 NONAME ABSENT ; class HbInputCustomButton * HbInputCustomButtonBank::at(int) const
	??1HbListWidgetViewItem@@UAE@XZ @ 516 NONAME ABSENT ; HbListWidgetViewItem::~HbListWidgetViewItem(void)
	?metaObject@HbListViewItem@@UBEPBUQMetaObject@@XZ @ 517 NONAME ABSENT ; struct QMetaObject const * HbListViewItem::metaObject(void) const
	??0HbStyleOption@@QAE@ABV0@@Z @ 518 NONAME ; HbStyleOption::HbStyleOption(class HbStyleOption const &)
	?tr@HbIconLoader@@SA?AVQString@@PBD0@Z @ 519 NONAME ; class QString HbIconLoader::tr(char const *, char const *)
	?releaseInstance@HbMemoryManager@@SAXW4MemoryType@1@@Z @ 520 NONAME ; void HbMemoryManager::releaseInstance(enum HbMemoryManager::MemoryType)
	?disableFeature@HbPredictionEngine@@UAE_NW4HbInputPredictionFeature@HbPredictionBase@@@Z @ 521 NONAME ABSENT ; bool HbPredictionEngine::disableFeature(enum HbPredictionBase::HbInputPredictionFeature)
	??1HbRichTextItem@@UAE@XZ @ 522 NONAME ; HbRichTextItem::~HbRichTextItem(void)
	?closeAllLanguages@HbKeyMapFactory@@QAEXXZ @ 523 NONAME ABSENT ; void HbKeyMapFactory::closeAllLanguages(void)
	??0StyleRule@HbCss@@QAE@W4MemoryType@HbMemoryManager@@@Z @ 524 NONAME ; HbCss::StyleRule::StyleRule(enum HbMemoryManager::MemoryType)
	?scrollByAmount@HbAbstractItemView@@MAE_NABVQPointF@@@Z @ 525 NONAME ABSENT ; bool HbAbstractItemView::scrollByAmount(class QPointF const &)
	?keyPressEvent@HbMainWindow@@MAEXPAVQKeyEvent@@@Z @ 526 NONAME ; void HbMainWindow::keyPressEvent(class QKeyEvent *)
	?staticMetaObject@HbListWidgetViewItem@@2UQMetaObject@@B @ 527 NONAME ABSENT ; struct QMetaObject const HbListWidgetViewItem::staticMetaObject
	?d_func@HbTextItem@@AAEPAVHbTextItemPrivate@@XZ @ 528 NONAME ; class HbTextItemPrivate * HbTextItem::d_func(void)
	?setPhysicalFont@HbFontProvider@@QAEXW4LogicalFontName@Hb@@ABVQFont@@@Z @ 529 NONAME ABSENT ; void HbFontProvider::setPhysicalFont(enum Hb::LogicalFontName, class QFont const &)
	?removeItem@HbAbstractItemContainer@@UAEXH@Z @ 530 NONAME ABSENT ; void HbAbstractItemContainer::removeItem(int)
	??1HbListViewItem@@UAE@XZ @ 531 NONAME ABSENT ; HbListViewItem::~HbListViewItem(void)
	??_EHbAbstractButtonPrivate@@UAE@I@Z @ 532 NONAME ; HbAbstractButtonPrivate::~HbAbstractButtonPrivate(unsigned int)
	?qt_metacast@HbGestureSceneFilter@@UAEPAXPBD@Z @ 533 NONAME ABSENT ; void * HbGestureSceneFilter::qt_metacast(char const *)
	?indexPosition@HbTreeView@@UBEHABVQModelIndex@@@Z @ 534 NONAME ABSENT ; int HbTreeView::indexPosition(class QModelIndex const &) const
	?setItemPrototypes@HbListWidget@@UAEXV?$QList@PAVHbAbstractViewItem@@@@@Z @ 535 NONAME ABSENT ; void HbListWidget::setItemPrototypes(class QList<class HbAbstractViewItem *>)
	??0HbIndicator@@IAE@AAVHbIndicatorPrivate@@PAVQObject@@@Z @ 536 NONAME ; HbIndicator::HbIndicator(class HbIndicatorPrivate &, class QObject *)
	?staticMetaObject@HbSoftKey@@2UQMetaObject@@B @ 537 NONAME ABSENT ; struct QMetaObject const HbSoftKey::staticMetaObject
	?setSourceResolution@HbIconLoader@@QAEXH@Z @ 538 NONAME ; void HbIconLoader::setSourceResolution(int)
	?activate@HbIndicator@@QAE_NABVQString@@ABVQVariant@@@Z @ 539 NONAME ; bool HbIndicator::activate(class QString const &, class QVariant const &)
	?texts@HbListWidgetItem@@QBE?AVQStringList@@W4ListItemColumn@1@@Z @ 540 NONAME ABSENT ; class QStringList HbListWidgetItem::texts(enum HbListWidgetItem::ListItemColumn) const
	?alignment@HbTextItem@@QBE?AV?$QFlags@W4AlignmentFlag@Qt@@@@XZ @ 541 NONAME ; class QFlags<enum Qt::AlignmentFlag> HbTextItem::alignment(void) const
	?staticMetaObject@HbLayoutDirectionNotifier@@2UQMetaObject@@B @ 542 NONAME ; struct QMetaObject const HbLayoutDirectionNotifier::staticMetaObject
	?selectionCommand@HbAbstractItemView@@MAE?AV?$QFlags@W4SelectionFlag@QItemSelectionModel@@@@PBVHbAbstractViewItem@@PBVQEvent@@_N@Z @ 543 NONAME ABSENT ; class QFlags<enum QItemSelectionModel::SelectionFlag> HbAbstractItemView::selectionCommand(class HbAbstractViewItem const *, class QEvent const *, bool)
	?moveFocus@HbAbstractButtonPrivate@@QAEXH@Z @ 544 NONAME ; void HbAbstractButtonPrivate::moveFocus(int)
	??0HbAbstractItemContainer@@QAE@PAVQGraphicsItem@@@Z @ 545 NONAME ABSENT ; HbAbstractItemContainer::HbAbstractItemContainer(class QGraphicsItem *)
	?flags@HbIcon@@QBE?AV?$QFlags@W4Flag@HbIcon@@@@XZ @ 546 NONAME ; class QFlags<enum HbIcon::Flag> HbIcon::flags(void) const
	?sourceResolution@HbIconLoader@@QBEHXZ @ 547 NONAME ; int HbIconLoader::sourceResolution(void) const
	?candidatePopupClosed@HbInputMethod@@UAEXH@Z @ 548 NONAME ABSENT ; void HbInputMethod::candidatePopupClosed(int)
	?stateMachineRemoved@HbInputStateMachineFactory@@IAEXPAVHbInputStateMachine@@@Z @ 549 NONAME ABSENT ; void HbInputStateMachineFactory::stateMachineRemoved(class HbInputStateMachine *)
	?isKeyboardDataAvailableForLanguage@HbKeyMapFactory@@QAE_NHV?$QFlags@W4HbKeyboardTypeFlag@@@@@Z @ 550 NONAME ABSENT ; bool HbKeyMapFactory::isKeyboardDataAvailableForLanguage(int, class QFlags<enum HbKeyboardTypeFlag>)
	??_EHbInputMethodNull@@UAE@I@Z @ 551 NONAME ; HbInputMethodNull::~HbInputMethodNull(unsigned int)
	?sendCommitString@HbFocusObjectGraphicsWidget@@UAEXABVQString@@@Z @ 552 NONAME ABSENT ; void HbFocusObjectGraphicsWidget::sendCommitString(class QString const &)
	??0HbStyleOptionSettingItem@@QAE@XZ @ 553 NONAME ABSENT ; HbStyleOptionSettingItem::HbStyleOptionSettingItem(void)
	?majorTickLabels@HbSliderTickmarksItemLabel@@QBE?AVQStringList@@XZ @ 554 NONAME ABSENT ; class QStringList HbSliderTickmarksItemLabel::majorTickLabels(void) const
	?setSelectionModel@HbAbstractItemViewPrivate@@QAEXPAVQItemSelectionModel@@@Z @ 555 NONAME ABSENT ; void HbAbstractItemViewPrivate::setSelectionModel(class QItemSelectionModel *)
	?height@HbIcon@@QBEMXZ @ 556 NONAME ; float HbIcon::height(void) const
	?cancelLongPress@HbGestureSceneFilter@@AAEXXZ @ 557 NONAME ABSENT ; void HbGestureSceneFilter::cancelLongPress(void)
	?tr@HbTreeView@@SA?AVQString@@PBD0H@Z @ 558 NONAME ABSENT ; class QString HbTreeView::tr(char const *, char const *, int)
	??0HbStyleOptionProgressBar@@QAE@XZ @ 559 NONAME ; HbStyleOptionProgressBar::HbStyleOptionProgressBar(void)
	?isTouchKeyboard@HbInputUtils@@SA_NV?$QFlags@W4HbKeyboardTypeFlag@@@@@Z @ 560 NONAME ; bool HbInputUtils::isTouchKeyboard(class QFlags<enum HbKeyboardTypeFlag>)
	?iconCache@HbIconLoader@@SAPAVHbIconCache@@XZ @ 561 NONAME ABSENT ; class HbIconCache * HbIconLoader::iconCache(void)
	?fontProvider@HbInstance@@QBEPAVHbFontProvider@@XZ @ 562 NONAME ABSENT ; class HbFontProvider * HbInstance::fontProvider(void) const
	??0HbEditorInterface@@QAE@PAVQObject@@@Z @ 563 NONAME ; HbEditorInterface::HbEditorInterface(class QObject *)
	??1HbInputCustomButtonBank@@EAE@XZ @ 564 NONAME ABSENT ; HbInputCustomButtonBank::~HbInputCustomButtonBank(void)
	?tr@HbScrollBar@@SA?AVQString@@PBD0@Z @ 565 NONAME ; class QString HbScrollBar::tr(char const *, char const *)
	?sizeHint@HbListWidgetViewItem@@MBE?AVQSizeF@@W4SizeHint@Qt@@ABV2@@Z @ 566 NONAME ABSENT ; class QSizeF HbListWidgetViewItem::sizeHint(enum Qt::SizeHint, class QSizeF const &) const
	?setCommandRole@HbAction@@QAEXW4CommandRole@1@@Z @ 567 NONAME ; void HbAction::setCommandRole(enum HbAction::CommandRole)
	?q_func@HbScrollAreaPrivate@@ABEPBVHbScrollArea@@XZ @ 568 NONAME ; class HbScrollArea const * HbScrollAreaPrivate::q_func(void) const
	?fontDelta@HbFontSpec@@QBE?AVQFont@@XZ @ 569 NONAME ABSENT ; class QFont HbFontSpec::fontDelta(void) const
	?count@HbListItemStandardLayout@@UBEHXZ @ 570 NONAME ABSENT ; int HbListItemStandardLayout::count(void) const
	??0HbInteractionEvent@@QAE@PBVQObject@@W4Interaction@Ia@@@Z @ 571 NONAME ABSENT ; HbInteractionEvent::HbInteractionEvent(class QObject const *, enum Ia::Interaction)
	?editorGeometry@HbFocusObjectWidget@@UBE?AVQRectF@@XZ @ 572 NONAME ABSENT ; class QRectF HbFocusObjectWidget::editorGeometry(void) const
	??0HbPopupPrivate@@QAE@XZ @ 573 NONAME ; HbPopupPrivate::HbPopupPrivate(void)
	?addView@HbMainWindow@@QAEPAVHbView@@PAVQGraphicsWidget@@@Z @ 574 NONAME ; class HbView * HbMainWindow::addView(class QGraphicsWidget *)
	?parseNextDeclaration@Parser@HbCss@@QAE_NPAUDeclaration@2@@Z @ 575 NONAME ; bool HbCss::Parser::parseNextDeclaration(struct HbCss::Declaration *)
	?currentViewItem@HbAbstractItemView@@QBEPAVHbAbstractViewItem@@XZ @ 576 NONAME ABSENT ; class HbAbstractViewItem * HbAbstractItemView::currentViewItem(void) const
	?state@HbTreeViewItem@@UBE?AV?$QMap@HVQVariant@@@@XZ @ 577 NONAME ABSENT ; class QMap<int, class QVariant> HbTreeViewItem::state(void) const
	??0HbVariant@@QAE@ABVQColor@@W4MemoryType@HbMemoryManager@@@Z @ 578 NONAME ; HbVariant::HbVariant(class QColor const &, enum HbMemoryManager::MemoryType)
	??1HbToolBarExtension@@UAE@XZ @ 579 NONAME ; HbToolBarExtension::~HbToolBarExtension(void)
	?trUtf8@HbDeviceDialog@@SA?AVQString@@PBD0@Z @ 580 NONAME ; class QString HbDeviceDialog::trUtf8(char const *, char const *)
	?setCurrentIndex@HbAbstractItemView@@QAEXABVQModelIndex@@V?$QFlags@W4SelectionFlag@QItemSelectionModel@@@@@Z @ 581 NONAME ABSENT ; void HbAbstractItemView::setCurrentIndex(class QModelIndex const &, class QFlags<enum QItemSelectionModel::SelectionFlag>)
	?tr@HbListModel@@SA?AVQString@@PBD0@Z @ 582 NONAME ABSENT ; class QString HbListModel::tr(char const *, char const *)
	?keypadClosed@HbVkbHost@@IAEXXZ @ 583 NONAME ; void HbVkbHost::keypadClosed(void)
	?fillColorData@HbVariant@@AAEXABVQColor@@@Z @ 584 NONAME ; void HbVariant::fillColorData(class QColor const &)
	?d_func@HbInputCustomButtonComposition@@ABEPBVHbInputCustomButtonCompositionPrivate@@XZ @ 585 NONAME ABSENT ; class HbInputCustomButtonCompositionPrivate const * HbInputCustomButtonComposition::d_func(void) const
	?d_func@HbAbstractItemView@@ABEPBVHbAbstractItemViewPrivate@@XZ @ 586 NONAME ABSENT ; class HbAbstractItemViewPrivate const * HbAbstractItemView::d_func(void) const
	?qt_metacast@HbInputSettingProxy@@UAEPAXPBD@Z @ 587 NONAME ; void * HbInputSettingProxy::qt_metacast(char const *)
	?trUtf8@HbTreeViewItem@@SA?AVQString@@PBD0@Z @ 588 NONAME ABSENT ; class QString HbTreeViewItem::trUtf8(char const *, char const *)
	?autoRepeatInterval@HbAbstractButton@@QBEHXZ @ 589 NONAME ; int HbAbstractButton::autoRepeatInterval(void) const
	?setHighlightMode@HbAbstractItemView@@QAEXW4HighlightMode@HbItemHighlight@@@Z @ 590 NONAME ABSENT ; void HbAbstractItemView::setHighlightMode(enum HbItemHighlight::HighlightMode)
	?text@HbRichTextItem@@QBE?AVQString@@XZ @ 591 NONAME ; class QString HbRichTextItem::text(void) const
	?itemChange@HbToolBar@@MAE?AVQVariant@@W4GraphicsItemChange@QGraphicsItem@@ABV2@@Z @ 592 NONAME ; class QVariant HbToolBar::itemChange(enum QGraphicsItem::GraphicsItemChange, class QVariant const &)
	?nextIndex@HbAbstractItemView@@UBE?AVQModelIndex@@ABV2@@Z @ 593 NONAME ABSENT ; class QModelIndex HbAbstractItemView::nextIndex(class QModelIndex const &) const
	?d_func@HbLabel@@AAEPAVHbLabelPrivate@@XZ @ 594 NONAME ABSENT ; class HbLabelPrivate * HbLabel::d_func(void)
	?tr@HbNumberGrouping@@SA?AVQString@@PBD0H@Z @ 595 NONAME ABSENT ; class QString HbNumberGrouping::tr(char const *, char const *, int)
	?isPrototype@HbAbstractViewItemPrivate@@QBE_NXZ @ 596 NONAME ABSENT ; bool HbAbstractViewItemPrivate::isPrototype(void) const
	?trUtf8@HbMainWindow@@SA?AVQString@@PBD0@Z @ 597 NONAME ; class QString HbMainWindow::trUtf8(char const *, char const *)
	?setCurrentWidget@HbStackedWidget@@QAEXPAVQGraphicsWidget@@@Z @ 598 NONAME ; void HbStackedWidget::setCurrentWidget(class QGraphicsWidget *)
	?indexOf@HbStackedWidget@@QBEHPAVQGraphicsWidget@@@Z @ 599 NONAME ; int HbStackedWidget::indexOf(class QGraphicsWidget *) const
	?expandAnimationTimeOut@HbListWidgetViewItem@@IAEXM@Z @ 600 NONAME ABSENT ; void HbListWidgetViewItem::expandAnimationTimeOut(float)
	?addGesture@HbGestureFilter@@QAEXPAVHbGesture@@@Z @ 601 NONAME ABSENT ; void HbGestureFilter::addGesture(class HbGesture *)
	?qt_metacall@HbPopup@@UAEHW4Call@QMetaObject@@HPAPAX@Z @ 602 NONAME ; int HbPopup::qt_metacall(enum QMetaObject::Call, int, void * *)
	?d_func@HbPopup@@ABEPBVHbPopupPrivate@@XZ @ 603 NONAME ; class HbPopupPrivate const * HbPopup::d_func(void) const
	?characterAllowedInEditor@HbInputFocusObject@@UBE_NVQChar@@@Z @ 604 NONAME ABSENT ; bool HbInputFocusObject::characterAllowedInEditor(class QChar) const
	?setZeroDigit@HbExtendedLocale@@QAE_NW4DigitType@@@Z @ 605 NONAME ; bool HbExtendedLocale::setZeroDigit(enum DigitType)
	?tr@HbGraphicsScene@@SA?AVQString@@PBD0@Z @ 606 NONAME ; class QString HbGraphicsScene::tr(char const *, char const *)
	??_EHbScrollBar@@UAE@I@Z @ 607 NONAME ; HbScrollBar::~HbScrollBar(unsigned int)
	?setUpAsLatinAlphabetOnlyEditor@HbEditorInterface@@QAEXXZ @ 608 NONAME ; void HbEditorInterface::setUpAsLatinAlphabetOnlyEditor(void)
	?metaObject@HbFocusObjectGraphicsWidget@@UBEPBUQMetaObject@@XZ @ 609 NONAME ABSENT ; struct QMetaObject const * HbFocusObjectGraphicsWidget::metaObject(void) const
	?instance@HbLayoutDirectionNotifier@@SAPAV1@XZ @ 610 NONAME ; class HbLayoutDirectionNotifier * HbLayoutDirectionNotifier::instance(void)
	?exec@HbPopupBase@@QAEXXZ @ 611 NONAME ABSENT ; void HbPopupBase::exec(void)
	??_EHbGridViewItemPrivate@@UAE@I@Z @ 612 NONAME ABSENT ; HbGridViewItemPrivate::~HbGridViewItemPrivate(unsigned int)
	?unsetOrientation@HbToolBar@@QAEXXZ @ 613 NONAME ABSENT ; void HbToolBar::unsetOrientation(void)
	?listAvailableInputPlugins@HbInputUtils@@SAXAAVQStringList@@@Z @ 614 NONAME ABSENT ; void HbInputUtils::listAvailableInputPlugins(class QStringList &)
	??_EHbInputStateMachineLatinWithEditKey@@UAE@I@Z @ 615 NONAME ABSENT ; HbInputStateMachineLatinWithEditKey::~HbInputStateMachineLatinWithEditKey(unsigned int)
	?text@HbListWidget@@QBE?AVQString@@H@Z @ 616 NONAME ABSENT ; class QString HbListWidget::text(int) const
	??4Declaration@HbCss@@QAEAAU01@ABU01@@Z @ 617 NONAME ; struct HbCss::Declaration & HbCss::Declaration::operator=(struct HbCss::Declaration const &)
	?translate@HbXmlLoaderAbstractActions@@QAE?AVQString@@ABV2@0@Z @ 618 NONAME ABSENT ; class QString HbXmlLoaderAbstractActions::translate(class QString const &, class QString const &)
	?staticMetaObject@HbTreeView@@2UQMetaObject@@B @ 619 NONAME ABSENT ; struct QMetaObject const HbTreeView::staticMetaObject
	?staticMetaObject@Hb@@2UQMetaObject@@B @ 620 NONAME ; struct QMetaObject const Hb::staticMetaObject
	?metaObject@HbScrollBar@@UBEPBUQMetaObject@@XZ @ 621 NONAME ; struct QMetaObject const * HbScrollBar::metaObject(void) const
	??0HbView@@IAE@AAVHbViewPrivate@@PAVQGraphicsItem@@@Z @ 622 NONAME ; HbView::HbView(class HbViewPrivate &, class QGraphicsItem *)
	?realloc@HbMultiSegmentAlgo@@QAEHHH@Z @ 623 NONAME ABSENT ; int HbMultiSegmentAlgo::realloc(int, int)
	?staticMetaObject@HbSignalIndicator@@2UQMetaObject@@B @ 624 NONAME ; struct QMetaObject const HbSignalIndicator::staticMetaObject
	?setFillWholeRect@HbFrameDrawer@@QAEX_N@Z @ 625 NONAME ; void HbFrameDrawer::setFillWholeRect(bool)
	?touch@HbDeviceProfile@@QBE_NXZ @ 626 NONAME ; bool HbDeviceProfile::touch(void) const
	?q_func@HbAbstractItemPrivate@@ABEPBVHbAbstractItem@@XZ @ 627 NONAME ABSENT ; class HbAbstractItem const * HbAbstractItemPrivate::q_func(void) const
	?testImport@Parser@HbCss@@QAE_NXZ @ 628 NONAME ; bool HbCss::Parser::testImport(void)
	?isCheckable@HbAbstractButton@@QBE_NXZ @ 629 NONAME ; bool HbAbstractButton::isCheckable(void) const
	?isCaseSensitiveMode@HbInputUtils@@SA_NV?$QFlags@W4HbInputModeTypeFlag@@@@@Z @ 630 NONAME ; bool HbInputUtils::isCaseSensitiveMode(class QFlags<enum HbInputModeTypeFlag>)
	?deadKeyDataForKey@HbKeyMapData@@UBEPBVQChar@@V?$QFlags@W4HbKeyboardTypeFlag@@@@AAHHV?$QFlags@W4HbModifier@@@@@Z @ 631 NONAME ABSENT ; class QChar const * HbKeyMapData::deadKeyDataForKey(class QFlags<enum HbKeyboardTypeFlag>, int &, int, class QFlags<enum HbModifier>) const
	?itemChange@HbAbstractItemView@@MAE?AVQVariant@@W4GraphicsItemChange@QGraphicsItem@@ABV2@@Z @ 632 NONAME ABSENT ; class QVariant HbAbstractItemView::itemChange(enum QGraphicsItem::GraphicsItemChange, class QVariant const &)
	?d_func@HbWidget@@AAEPAVHbWidgetPrivate@@XZ @ 633 NONAME ; class HbWidgetPrivate * HbWidget::d_func(void)
	??0Parser@HbCss@@QAE@ABVQString@@_N@Z @ 634 NONAME ; HbCss::Parser::Parser(class QString const &, bool)
	?isReadOnlyWidget@HbFocusObjectWidget@@SA_NPAVQWidget@@@Z @ 635 NONAME ABSENT ; bool HbFocusObjectWidget::isReadOnlyWidget(class QWidget *)
	?setTextPaneHeight@HbFontSpec@@QAEXM@Z @ 636 NONAME ABSENT ; void HbFontSpec::setTextPaneHeight(float)
	?qt_metacall@HbGestureSceneFilter@@UAEHW4Call@QMetaObject@@HPAPAX@Z @ 637 NONAME ABSENT ; int HbGestureSceneFilter::qt_metacall(enum QMetaObject::Call, int, void * *)
	?d_func@HbDecorator@@AAEPAVHbDecoratorPrivate@@XZ @ 638 NONAME ABSENT ; class HbDecoratorPrivate * HbDecorator::d_func(void)
	?secondaryText@HbListWidgetItem@@QBE?AVQString@@XZ @ 639 NONAME ABSENT ; class QString HbListWidgetItem::secondaryText(void) const
	?focusReceived@HbInputMethod@@UAEXXZ @ 640 NONAME ; void HbInputMethod::focusReceived(void)
	??_EHbStyleParameters@@UAE@I@Z @ 641 NONAME ; HbStyleParameters::~HbStyleParameters(unsigned int)
	?trUtf8@HbGraphicsScene@@SA?AVQString@@PBD0H@Z @ 642 NONAME ; class QString HbGraphicsScene::trUtf8(char const *, char const *, int)
	?event@HbScrollArea@@MAE_NPAVQEvent@@@Z @ 643 NONAME ; bool HbScrollArea::event(class QEvent *)
	??0HbGestureFilter@@QAE@W4MouseButton@Qt@@PAVQObject@@@Z @ 644 NONAME ABSENT ; HbGestureFilter::HbGestureFilter(enum Qt::MouseButton, class QObject *)
	?testClass@Parser@HbCss@@QAE_NXZ @ 645 NONAME ; bool HbCss::Parser::testClass(void)
	?localisedLanguageName@HbInputUtils@@SAXABVHbInputLanguage@@AAVQString@@@Z @ 646 NONAME ABSENT ; void HbInputUtils::localisedLanguageName(class HbInputLanguage const &, class QString &)
	?helpEvent@HbGraphicsScene@@MAEXPAVQGraphicsSceneHelpEvent@@@Z @ 647 NONAME ; void HbGraphicsScene::helpEvent(class QGraphicsSceneHelpEvent *)
	?contains@HbInteractionManager@@QAE_NPAVHbInteractionListener@@@Z @ 648 NONAME ABSENT ; bool HbInteractionManager::contains(class HbInteractionListener *)
	?unquotedLexem@Parser@HbCss@@QBE?AVQString@@XZ @ 649 NONAME ; class QString HbCss::Parser::unquotedLexem(void) const
	?setDuration@HbItemHighlight@@QAEXHW4HighlightMode@1@@Z @ 650 NONAME ABSENT ; void HbItemHighlight::setDuration(int, enum HbItemHighlight::HighlightMode)
	??_EHbInputFilter@@UAE@I@Z @ 651 NONAME ; HbInputFilter::~HbInputFilter(unsigned int)
	?segmentStartOffset@FreeBlocksList@@QBEHXZ @ 652 NONAME ABSENT ; int FreeBlocksList::segmentStartOffset(void) const
	?isEmpty@HbString@@QBE_NXZ @ 653 NONAME ; bool HbString::isEmpty(void) const
	??0HbScrollArea@@IAE@AAVHbScrollAreaPrivate@@PAVQGraphicsItem@@@Z @ 654 NONAME ; HbScrollArea::HbScrollArea(class HbScrollAreaPrivate &, class QGraphicsItem *)
	??1HbStyleOptionDecorator@@QAE@XZ @ 655 NONAME ABSENT ; HbStyleOptionDecorator::~HbStyleOptionDecorator(void)
	?inputMethodQuery@HbFocusObjectGraphicsWidget@@UBE?AVQVariant@@W4InputMethodQuery@Qt@@@Z @ 656 NONAME ABSENT ; class QVariant HbFocusObjectGraphicsWidget::inputMethodQuery(enum Qt::InputMethodQuery) const
	?data@HbListWidgetItem@@QBE?AVQVariant@@H@Z @ 657 NONAME ABSENT ; class QVariant HbListWidgetItem::data(int) const
	?setTimeout@HbPopupBase@@QAEXH@Z @ 658 NONAME ABSENT ; void HbPopupBase::setTimeout(int)
	?setBorderWidths@HbFrameDrawer@@QAEXMMMM@Z @ 659 NONAME ; void HbFrameDrawer::setBorderWidths(float, float, float, float)
	?activeLanguage@HbInputMethod@@IBE?AVHbInputLanguage@@XZ @ 660 NONAME ; class HbInputLanguage HbInputMethod::activeLanguage(void) const
	??0HbExtraDictionaryFactory@@AAE@XZ @ 661 NONAME ; HbExtraDictionaryFactory::HbExtraDictionaryFactory(void)
	?insertItem@HbTreeLayout@@QAEXHPAVQGraphicsLayoutItem@@H@Z @ 662 NONAME ABSENT ; void HbTreeLayout::insertItem(int, class QGraphicsLayoutItem *, int)
	?d_func@HbAbstractItem@@AAEPAVHbAbstractItemPrivate@@XZ @ 663 NONAME ABSENT ; class HbAbstractItemPrivate * HbAbstractItem::d_func(void)
	?setOrientation@HbScrollBar@@QAEXW4Orientation@Qt@@@Z @ 664 NONAME ; void HbScrollBar::setOrientation(enum Qt::Orientation)
	?metaObject@HbTestabilitySignal_p@@UBEPBUQMetaObject@@XZ @ 665 NONAME ; struct QMetaObject const * HbTestabilitySignal_p::metaObject(void) const
	?bufferSize@HbAbstractItemContainer@@QBEHXZ @ 666 NONAME ABSENT ; int HbAbstractItemContainer::bufferSize(void) const
	?rawDeadKeyData@HbKeyMapData@@MBEPBVQChar@@V?$QFlags@W4HbKeyboardTypeFlag@@@@AAH@Z @ 667 NONAME ABSENT ; class QChar const * HbKeyMapData::rawDeadKeyData(class QFlags<enum HbKeyboardTypeFlag>, int &) const
	?instance@HbInstance@@SAPAV1@XZ @ 668 NONAME ; class HbInstance * HbInstance::instance(void)
	?getStaticMetaObject@HbIconAnimator@@SAABUQMetaObject@@XZ @ 669 NONAME ; struct QMetaObject const & HbIconAnimator::getStaticMetaObject(void)
	??0HbInputCustomButton@@QAE@XZ @ 670 NONAME ABSENT ; HbInputCustomButton::HbInputCustomButton(void)
	??9HbString@@QBE_NABVQLatin1String@@@Z @ 671 NONAME ; bool HbString::operator!=(class QLatin1String const &) const
	?qt_metacall@HbAbstractItemView@@UAEHW4Call@QMetaObject@@HPAPAX@Z @ 672 NONAME ABSENT ; int HbAbstractItemView::qt_metacall(enum QMetaObject::Call, int, void * *)
	?columnsInserted@HbTreeView@@MAEXABVQModelIndex@@HH@Z @ 673 NONAME ABSENT ; void HbTreeView::columnsInserted(class QModelIndex const &, int, int)
	?testTerm@Parser@HbCss@@QAE_NXZ @ 674 NONAME ; bool HbCss::Parser::testTerm(void)
	?amPmSymbolPosition@HbExtendedLocale@@QBE?AW4SymbolPos@1@XZ @ 675 NONAME ; enum HbExtendedLocale::SymbolPos HbExtendedLocale::amPmSymbolPosition(void) const
	??0HbExtendedLocale@@QAE@XZ @ 676 NONAME ; HbExtendedLocale::HbExtendedLocale(void)
	?trUtf8@HbNgNormalNumber@@SA?AVQString@@PBD0H@Z @ 677 NONAME ABSENT ; class QString HbNgNormalNumber::trUtf8(char const *, char const *, int)
	??1HbAbstractViewItem@@UAE@XZ @ 678 NONAME ABSENT ; HbAbstractViewItem::~HbAbstractViewItem(void)
	?listenerEnabled@HbInteractionListener@@IAEXXZ @ 679 NONAME ABSENT ; void HbInteractionListener::listenerEnabled(void)
	??_EHbInputStateMachineHKChineseFinger@@UAE@I@Z @ 680 NONAME ABSENT ; HbInputStateMachineHKChineseFinger::~HbInputStateMachineHKChineseFinger(unsigned int)
	??_EHbListWidgetItem@@UAE@I@Z @ 681 NONAME ABSENT ; HbListWidgetItem::~HbListWidgetItem(unsigned int)
	?getStaticMetaObject@HbGestureFilter@@SAABUQMetaObject@@XZ @ 682 NONAME ABSENT ; struct QMetaObject const & HbGestureFilter::getStaticMetaObject(void)
	??1HbDeviceDialogInterface@@UAE@XZ @ 683 NONAME ; HbDeviceDialogInterface::~HbDeviceDialogInterface(void)
	?mouseReleaseEvent@HbDecorator@@MAEXPAVQGraphicsSceneMouseEvent@@@Z @ 684 NONAME ABSENT ; void HbDecorator::mouseReleaseEvent(class QGraphicsSceneMouseEvent *)
	?loadIcon@HbIconLoader@@QAE?AVQPixmap@@ABVQString@@W4Purpose@1@ABVQSizeF@@W4AspectRatioMode@Qt@@W4Mode@QIcon@@V?$QFlags@W4IconLoaderOption@HbIconLoader@@@@PAPAVHbIconAnimation@@@Z @ 685 NONAME ABSENT ; class QPixmap HbIconLoader::loadIcon(class QString const &, enum HbIconLoader::Purpose, class QSizeF const &, enum Qt::AspectRatioMode, enum QIcon::Mode, class QFlags<enum HbIconLoader::IconLoaderOption>, class HbIconAnimation * *)
	??0HbToolButton@@QAE@PAVQGraphicsItem@@@Z @ 686 NONAME ; HbToolButton::HbToolButton(class QGraphicsItem *)
	?trUtf8@HbExtraDictionaryFactory@@SA?AVQString@@PBD0H@Z @ 687 NONAME ; class QString HbExtraDictionaryFactory::trUtf8(char const *, char const *, int)
	?d_ptr@HbScrollAreaPrivate@@CAPAV1@PAVHbScrollArea@@@Z @ 688 NONAME ; class HbScrollAreaPrivate * HbScrollAreaPrivate::d_ptr(class HbScrollArea *)
	?activeAction@HbMenu@@QBEPAVHbAction@@XZ @ 689 NONAME ; class HbAction * HbMenu::activeAction(void) const
	?collationMethods@HbStringUtil@@SAHXZ @ 690 NONAME ABSENT ; int HbStringUtil::collationMethods(void)
	?viewItem@HbListView@@QBEPAVHbAbstractViewItem@@H@Z @ 691 NONAME ABSENT ; class HbAbstractViewItem * HbListView::viewItem(int) const
	?event@HbInteractionListener@@UAE_NPAVQEvent@@@Z @ 692 NONAME ABSENT ; bool HbInteractionListener::event(class QEvent *)
	?trUtf8@HbListWidgetViewItem@@SA?AVQString@@PBD0@Z @ 693 NONAME ABSENT ; class QString HbListWidgetViewItem::trUtf8(char const *, char const *)
	?defaultSize@HbIconLoader@@QBE?AVQSizeF@@ABVQString@@0V?$QFlags@W4IconLoaderOption@HbIconLoader@@@@@Z @ 694 NONAME ABSENT ; class QSizeF HbIconLoader::defaultSize(class QString const &, class QString const &, class QFlags<enum HbIconLoader::IconLoaderOption>) const
	?trUtf8@HbMenu@@SA?AVQString@@PBD0@Z @ 695 NONAME ; class QString HbMenu::trUtf8(char const *, char const *)
	?q_func@HbAbstractButtonPrivate@@ABEPBVHbAbstractButton@@XZ @ 696 NONAME ; class HbAbstractButton const * HbAbstractButtonPrivate::q_func(void) const
	?toInt@HbVariant@@QBEHXZ @ 697 NONAME ; int HbVariant::toInt(void) const
	?getStaticMetaObject@HbDecorator@@SAABUQMetaObject@@XZ @ 698 NONAME ABSENT ; struct QMetaObject const & HbDecorator::getStaticMetaObject(void)
	??1HbListViewItemPrivate@@UAE@XZ @ 699 NONAME ABSENT ; HbListViewItemPrivate::~HbListViewItemPrivate(void)
	?trUtf8@HbDecorator@@SA?AVQString@@PBD0@Z @ 700 NONAME ABSENT ; class QString HbDecorator::trUtf8(char const *, char const *)
	?addStateMachine@HbInputStateMachineFactory@@QAE_NABVHbInputLanguage@@V?$QFlags@W4HbKeyboardTypeFlag@@@@PAVHbInputStateMachine@@W4HbInputStateModifier@@@Z @ 701 NONAME ABSENT ; bool HbInputStateMachineFactory::addStateMachine(class HbInputLanguage const &, class QFlags<enum HbKeyboardTypeFlag>, class HbInputStateMachine *, enum HbInputStateModifier)
	?setFocusObject@HbInputMethod@@QAEXPAVHbInputFocusObject@@@Z @ 702 NONAME ; void HbInputMethod::setFocusObject(class HbInputFocusObject *)
	?iconItemSize@HbIconItem@@QBE?AVQSizeF@@XZ @ 703 NONAME ; class QSizeF HbIconItem::iconItemSize(void) const
	?staticMetaObject@HbIndicator@@2UQMetaObject@@B @ 704 NONAME ; struct QMetaObject const HbIndicator::staticMetaObject
	?itemAt@HbGridView@@QBEPAVHbAbstractViewItem@@H@Z @ 705 NONAME ABSENT ; class HbAbstractViewItem * HbGridView::itemAt(int) const
	??4HbAnchor@@QAEAAV0@ABV0@@Z @ 706 NONAME ; class HbAnchor & HbAnchor::operator=(class HbAnchor const &)
	??0HbIconAnimationDefinition@@QAE@ABV0@@Z @ 707 NONAME ; HbIconAnimationDefinition::HbIconAnimationDefinition(class HbIconAnimationDefinition const &)
	?triggered@HbGesture@@IAEXH@Z @ 708 NONAME ABSENT ; void HbGesture::triggered(int)
	?receivedFocus@HbAbstractViewItem@@UAEXXZ @ 709 NONAME ABSENT ; void HbAbstractViewItem::receivedFocus(void)
	?isVisible@HbAbstractItemView@@QBE_NPAVHbAbstractViewItem@@@Z @ 710 NONAME ABSENT ; bool HbAbstractItemView::isVisible(class HbAbstractViewItem *) const
	?tr@HbGridViewItem@@SA?AVQString@@PBD0H@Z @ 711 NONAME ABSENT ; class QString HbGridViewItem::tr(char const *, char const *, int)
	?type@HbItemHighlight@@UBEHXZ @ 712 NONAME ABSENT ; int HbItemHighlight::type(void) const
	?deleteAll@HbXmlLoaderAbstractActions@@QAEXXZ @ 713 NONAME ABSENT ; void HbXmlLoaderAbstractActions::deleteAll(void)
	?setSize@HbTouchArea@@QAEXABVQSizeF@@@Z @ 714 NONAME ; void HbTouchArea::setSize(class QSizeF const &)
	?activateIndicator@HbDeviceDialogServer@@QAEHABVQString@@ABVQVariant@@@Z @ 715 NONAME ABSENT ; int HbDeviceDialogServer::activateIndicator(class QString const &, class QVariant const &)
	??_EHbSoftKey@@UAE@I@Z @ 716 NONAME ABSENT ; HbSoftKey::~HbSoftKey(unsigned int)
	?editorCursorPosition@HbFocusObjectWidget@@UAEHXZ @ 717 NONAME ABSENT ; int HbFocusObjectWidget::editorCursorPosition(void)
	?brush@HbIconItem@@QBE?AVQBrush@@XZ @ 718 NONAME ; class QBrush HbIconItem::brush(void) const
	?staticMetaObject@HbTestabilitySignal_p@@2UQMetaObject@@B @ 719 NONAME ; struct QMetaObject const HbTestabilitySignal_p::staticMetaObject
	?currentSelectionChanged@HbTreeView@@MAEXABVQItemSelection@@0@Z @ 720 NONAME ABSENT ; void HbTreeView::currentSelectionChanged(class QItemSelection const &, class QItemSelection const &)
	?setErrorCorrectionLevel@HbPredictionEngine@@UAE_NW4HbErrorCorrectionLevel@1@@Z @ 721 NONAME ; bool HbPredictionEngine::setErrorCorrectionLevel(enum HbPredictionEngine::HbErrorCorrectionLevel)
	?modified@HbEditorInterface@@IAEXXZ @ 722 NONAME ; void HbEditorInterface::modified(void)
	?unitsDistanceLong@HbExtendedLocale@@QBE?AW4MeasurementSystem@QLocale@@XZ @ 723 NONAME ; enum QLocale::MeasurementSystem HbExtendedLocale::unitsDistanceLong(void) const
	?d_func@HbSliderTickmarksItemLabel@@AAEPAVHbSliderTickmarksItemLabelPrivate@@XZ @ 724 NONAME ABSENT ; class HbSliderTickmarksItemLabelPrivate * HbSliderTickmarksItemLabel::d_func(void)
	?font@HbInputContextProxy@@UBE?AVQFont@@XZ @ 725 NONAME ; class QFont HbInputContextProxy::font(void) const
	??1HbGridView@@UAE@XZ @ 726 NONAME ABSENT ; HbGridView::~HbGridView(void)
	??0HbTreeViewItem@@QAE@PAVQGraphicsItem@@@Z @ 727 NONAME ABSENT ; HbTreeViewItem::HbTreeViewItem(class QGraphicsItem *)
	?pressed@HbAbstractItemView@@IAEXABVQModelIndex@@@Z @ 728 NONAME ABSENT ; void HbAbstractItemView::pressed(class QModelIndex const &)
	?type@HbPopupBase@@UBEHXZ @ 729 NONAME ABSENT ; int HbPopupBase::type(void) const
	?fontChangeEvent@HbWidgetPrivate@@QAEXXZ @ 730 NONAME ABSENT ; void HbWidgetPrivate::fontChangeEvent(void)
	?setUniformItemSizes@HbAbstractItemContainer@@QAEX_N@Z @ 731 NONAME ABSENT ; void HbAbstractItemContainer::setUniformItemSizes(bool)
	?qt_metacall@HbVkbHost@@UAEHW4Call@QMetaObject@@HPAPAX@Z @ 732 NONAME ; int HbVkbHost::qt_metacall(enum QMetaObject::Call, int, void * *)
	?setBorderWidths@HbFrameDrawer@@QAEXMM@Z @ 733 NONAME ; void HbFrameDrawer::setBorderWidths(float, float)
	??0HbAbstractViewItemPrivate@@QAE@PAVHbAbstractViewItem@@@Z @ 734 NONAME ABSENT ; HbAbstractViewItemPrivate::HbAbstractViewItemPrivate(class HbAbstractViewItem *)
	?instance@HbInputStateMachineLatin@@SAPAV1@XZ @ 735 NONAME ABSENT ; class HbInputStateMachineLatin * HbInputStateMachineLatin::instance(void)
	?asSizePolicy@ValueExtractor@HbCss@@AAE?AVQSizePolicy@@ABUDeclaration@2@@Z @ 736 NONAME ABSENT ; class QSizePolicy HbCss::ValueExtractor::asSizePolicy(struct HbCss::Declaration const &)
	??0HbGraphicsSceneMouseEvent@@QAE@H@Z @ 737 NONAME ABSENT ; HbGraphicsSceneMouseEvent::HbGraphicsSceneMouseEvent(int)
	??1HbAbstractItemView@@UAE@XZ @ 738 NONAME ABSENT ; HbAbstractItemView::~HbAbstractItemView(void)
	?qt_metacast@HbPredictionFactory@@UAEPAXPBD@Z @ 739 NONAME ; void * HbPredictionFactory::qt_metacast(char const *)
	?staticMetaObject@HbToolBar@@2UQMetaObject@@B @ 740 NONAME ; struct QMetaObject const HbToolBar::staticMetaObject
	??_EHbListViewItem@@UAE@I@Z @ 741 NONAME ABSENT ; HbListViewItem::~HbListViewItem(unsigned int)
	?handleKeyEvent@HbPopupBasePrivate@@QAEXPAVQKeyEvent@@@Z @ 742 NONAME ABSENT ; void HbPopupBasePrivate::handleKeyEvent(class QKeyEvent *)
	?unload@HbStyleLoader@@SA_NH@Z @ 743 NONAME ABSENT ; bool HbStyleLoader::unload(int)
	?trUtf8@HbSignalIndicator@@SA?AVQString@@PBD0H@Z @ 744 NONAME ; class QString HbSignalIndicator::trUtf8(char const *, char const *, int)
	?sizeValue@ValueExtractor@HbCss@@AAE?AVQSize@@ABUDeclaration@2@@Z @ 745 NONAME ABSENT ; class QSize HbCss::ValueExtractor::sizeValue(struct HbCss::Declaration const &)
	?highlightMode@HbItemHighlight@@QBE?AW4HighlightMode@1@XZ @ 746 NONAME ABSENT ; enum HbItemHighlight::HighlightMode HbItemHighlight::highlightMode(void) const
	?staticMetaObject@HbFocusObjectGraphicsWidget@@2UQMetaObject@@B @ 747 NONAME ABSENT ; struct QMetaObject const HbFocusObjectGraphicsWidget::staticMetaObject
	?keypadOpened@HbVkbHost@@IAEXXZ @ 748 NONAME ; void HbVkbHost::keypadOpened(void)
	?staticMetaObject@HbInputFocusObject@@2UQMetaObject@@B @ 749 NONAME ; struct QMetaObject const HbInputFocusObject::staticMetaObject
	?updateChildItems@HbTreeViewItem@@UAEXXZ @ 750 NONAME ABSENT ; void HbTreeViewItem::updateChildItems(void)
	?d_func@HbListViewItem@@AAEPAVHbListViewItemPrivate@@XZ @ 751 NONAME ABSENT ; class HbListViewItemPrivate * HbListViewItem::d_func(void)
	?selectionChanged@HbInteractionListener@@MAEXPBVQObject@@@Z @ 752 NONAME ABSENT ; void HbInteractionListener::selectionChanged(class QObject const *)
	?interactionManager@HbInstance@@SAPAVHbInteractionManager@@XZ @ 753 NONAME ABSENT ; class HbInteractionManager * HbInstance::interactionManager(void)
	??1PageRule@HbCss@@QAE@XZ @ 754 NONAME ; HbCss::PageRule::~PageRule(void)
	?totalMemoryConsumed@HbMultiSegmentAlgo@@QBEHXZ @ 755 NONAME ABSENT ; int HbMultiSegmentAlgo::totalMemoryConsumed(void) const
	?startOfWeek@HbExtendedLocale@@QAE?AW4WeekDay@1@XZ @ 756 NONAME ABSENT ; enum HbExtendedLocale::WeekDay HbExtendedLocale::startOfWeek(void)
	?setPointSize@HbFontSpec@@QAEXH@Z @ 757 NONAME ABSENT ; void HbFontSpec::setPointSize(int)
	?instance@HbConverterNumberFilter@@SAPAV1@XZ @ 758 NONAME ABSENT ; class HbConverterNumberFilter * HbConverterNumberFilter::instance(void)
	?dataChanged@HbListView@@MAEXABVQModelIndex@@0@Z @ 759 NONAME ABSENT ; void HbListView::dataChanged(class QModelIndex const &, class QModelIndex const &)
	?metaObject@HbScrollArea@@UBEPBUQMetaObject@@XZ @ 760 NONAME ; struct QMetaObject const * HbScrollArea::metaObject(void) const
	?source@HbInteractionGestureEvent@@QBEPBVQObject@@XZ @ 761 NONAME ABSENT ; class QObject const * HbInteractionGestureEvent::source(void) const
	?tr@HbDeviceDialog@@SA?AVQString@@PBD0@Z @ 762 NONAME ; class QString HbDeviceDialog::tr(char const *, char const *)
	?setAspectRatioMode@HbSignalIndicator@@QAEXW4AspectRatioMode@Qt@@@Z @ 763 NONAME ABSENT ; void HbSignalIndicator::setAspectRatioMode(enum Qt::AspectRatioMode)
	?asReal@ValueExtractor@HbCss@@QAEMABUDeclaration@2@@Z @ 764 NONAME ABSENT ; float HbCss::ValueExtractor::asReal(struct HbCss::Declaration const &)
	??0HbFrameDrawer@@QAE@ABVQString@@W4FrameType@0@@Z @ 765 NONAME ABSENT ; HbFrameDrawer::HbFrameDrawer(class QString const &, enum HbFrameDrawer::FrameType)
	??1HbIndicatorPluginInterface@@UAE@XZ @ 766 NONAME ; HbIndicatorPluginInterface::~HbIndicatorPluginInterface(void)
	?orientationChanged@HbGridView@@MAEXW4Orientation@Qt@@@Z @ 767 NONAME ABSENT ; void HbGridView::orientationChanged(enum Qt::Orientation)
	?maxItemCount@HbAbstractItemContainer@@MBEHXZ @ 768 NONAME ABSENT ; int HbAbstractItemContainer::maxItemCount(void) const
	?handleBackgroundMouseReleaseEvent@HbPopupBasePrivate@@QAEXPAVQGraphicsSceneMouseEvent@@@Z @ 769 NONAME ABSENT ; void HbPopupBasePrivate::handleBackgroundMouseReleaseEvent(class QGraphicsSceneMouseEvent *)
	?tr@HbTreeViewItem@@SA?AVQString@@PBD0@Z @ 770 NONAME ABSENT ; class QString HbTreeViewItem::tr(char const *, char const *)
	?setLayoutName@HbAbstractItemView@@QAEXABVQString@@@Z @ 771 NONAME ABSENT ; void HbAbstractItemView::setLayoutName(class QString const &)
	?mousePressEvent@HbScrollArea@@MAEXPAVQGraphicsSceneMouseEvent@@@Z @ 772 NONAME ; void HbScrollArea::mousePressEvent(class QGraphicsSceneMouseEvent *)
	?closeLanguage@HbKeyMapFactory@@QAEXH@Z @ 773 NONAME ABSENT ; void HbKeyMapFactory::closeLanguage(int)
	??1HbKeyMapData@@UAE@XZ @ 774 NONAME ABSENT ; HbKeyMapData::~HbKeyMapData(void)
	?inputMethodQuery@HbFocusObjectWidget@@UBE?AVQVariant@@W4InputMethodQuery@Qt@@@Z @ 775 NONAME ABSENT ; class QVariant HbFocusObjectWidget::inputMethodQuery(enum Qt::InputMethodQuery) const
	?qt_metacast@HbBatteryIndicator@@UAEPAXPBD@Z @ 776 NONAME ; void * HbBatteryIndicator::qt_metacast(char const *)
	??0HbListWidgetViewItem@@QAE@PAVQGraphicsItem@@@Z @ 777 NONAME ABSENT ; HbListWidgetViewItem::HbListWidgetViewItem(class QGraphicsItem *)
	?setText@HbListWidgetItem@@QAEXABVQString@@@Z @ 778 NONAME ABSENT ; void HbListWidgetItem::setText(class QString const &)
	?setIconFlags@HbLabel@@QAEXV?$QFlags@W4Flag@HbIcon@@@@@Z @ 779 NONAME ABSENT ; void HbLabel::setIconFlags(class QFlags<enum HbIcon::Flag>)
	?isFocused@HbAbstractViewItem@@QBE_NXZ @ 780 NONAME ABSENT ; bool HbAbstractViewItem::isFocused(void) const
	??1HbAnchorLayout@@UAE@XZ @ 781 NONAME ; HbAnchorLayout::~HbAnchorLayout(void)
	?defaultFrame@HbAbstractViewItem@@QBE?AVHbFrameBackground@@XZ @ 782 NONAME ABSENT ; class HbFrameBackground HbAbstractViewItem::defaultFrame(void) const
	??0HbTreeLayout@@QAE@PAVQGraphicsLayoutItem@@@Z @ 783 NONAME ABSENT ; HbTreeLayout::HbTreeLayout(class QGraphicsLayoutItem *)
	??_EHbGridView@@UAE@I@Z @ 784 NONAME ABSENT ; HbGridView::~HbGridView(unsigned int)
	??1HbFrameDrawer@@QAE@XZ @ 785 NONAME ; HbFrameDrawer::~HbFrameDrawer(void)
	?staticMetaObject@HbInteractionPluginGroup@@2UQMetaObject@@B @ 786 NONAME ABSENT ; struct QMetaObject const HbInteractionPluginGroup::staticMetaObject
	?q_func@HbAbstractItemViewPrivate@@ABEPBVHbAbstractItemView@@XZ @ 787 NONAME ABSENT ; class HbAbstractItemView const * HbAbstractItemViewPrivate::q_func(void) const
	?paint@HbSliderTickmarksItemLabel@@UAEXPAVQPainter@@PBVQStyleOptionGraphicsItem@@PAVQWidget@@@Z @ 788 NONAME ABSENT ; void HbSliderTickmarksItemLabel::paint(class QPainter *, class QStyleOptionGraphicsItem const *, class QWidget *)
	?type@HbListView@@UBEHXZ @ 789 NONAME ABSENT ; int HbListView::type(void) const
	??0HbStyleOptionDataQuery@@QAE@ABV0@@Z @ 790 NONAME ABSENT ; HbStyleOptionDataQuery::HbStyleOptionDataQuery(class HbStyleOptionDataQuery const &)
	?scrollByAmount@HbScrollAreaPrivate@@QAE_NABVQPointF@@@Z @ 791 NONAME ; bool HbScrollAreaPrivate::scrollByAmount(class QPointF const &)
	?handleClientRequest@HbIndicatorInterface@@MAE_NW4RequestType@1@ABVQVariant@@@Z @ 792 NONAME ; bool HbIndicatorInterface::handleClientRequest(enum HbIndicatorInterface::RequestType, class QVariant const &)
	?action@HbToolButton@@QBEPAVHbAction@@XZ @ 793 NONAME ; class HbAction * HbToolButton::action(void) const
	?createItem@HbTreeViewItem@@UAEPAVHbAbstractViewItem@@XZ @ 794 NONAME ABSENT ; class HbAbstractViewItem * HbTreeViewItem::createItem(void)
	?frameDrawer@HbFrameItem@@QBEAAVHbFrameDrawer@@XZ @ 795 NONAME ; class HbFrameDrawer & HbFrameItem::frameDrawer(void) const
	?setExtraUserDictionary@HbPredictionBase@@UAEXH@Z @ 796 NONAME ; void HbPredictionBase::setExtraUserDictionary(int)
	?type@HbGraphicsPixmapItem@@UBEHXZ @ 797 NONAME ABSENT ; int HbGraphicsPixmapItem::type(void) const
	?tr@HbNgNormalNumber@@SA?AVQString@@PBD0@Z @ 798 NONAME ABSENT ; class QString HbNgNormalNumber::tr(char const *, char const *)
	?setItemLevel@HbTreeLayout@@QAEXPAVQGraphicsLayoutItem@@H@Z @ 799 NONAME ABSENT ; void HbTreeLayout::setItemLevel(class QGraphicsLayoutItem *, int)
	?d_func@HbTreeView@@AAEPAVHbTreeViewPrivate@@XZ @ 800 NONAME ABSENT ; class HbTreeViewPrivate * HbTreeView::d_func(void)
	?_q_modelDestroyed@HbAbstractItemViewPrivate@@QAEXXZ @ 801 NONAME ABSENT ; void HbAbstractItemViewPrivate::_q_modelDestroyed(void)
	??1HbWidgetStyleLoader@@QAE@XZ @ 802 NONAME ; HbWidgetStyleLoader::~HbWidgetStyleLoader(void)
	?trUtf8@HbGridViewItem@@SA?AVQString@@PBD0@Z @ 803 NONAME ABSENT ; class QString HbGridViewItem::trUtf8(char const *, char const *)
	?metaObject@HbMenu@@UBEPBUQMetaObject@@XZ @ 804 NONAME ; struct QMetaObject const * HbMenu::metaObject(void) const
	?focusObjectType@HbFocusObjectGraphicsWidget@@UBEHXZ @ 805 NONAME ABSENT ; int HbFocusObjectGraphicsWidget::focusObjectType(void) const
	??_EHbAbstractItem@@UAE@I@Z @ 806 NONAME ABSENT ; HbAbstractItem::~HbAbstractItem(unsigned int)
	?instance@HbExtraDictionaryFactory@@SAPAV1@XZ @ 807 NONAME ; class HbExtraDictionaryFactory * HbExtraDictionaryFactory::instance(void)
	??_EHbInteractionEvent@@UAE@I@Z @ 808 NONAME ABSENT ; HbInteractionEvent::~HbInteractionEvent(unsigned int)
	?d_func@HbToolButton@@AAEPAVHbToolButtonPrivate@@XZ @ 809 NONAME ; class HbToolButtonPrivate * HbToolButton::d_func(void)
	?waitForClosed@HbDeviceDialog@@QAE_NW4ProcessEventsFlag@QEventLoop@@@Z @ 810 NONAME ; bool HbDeviceDialog::waitForClosed(enum QEventLoop::ProcessEventsFlag)
	?setDuration@HbItemHighlight@@QAEXH@Z @ 811 NONAME ABSENT ; void HbItemHighlight::setDuration(int)
	?text@HbGridViewItemPrivate@@QAE?AVQString@@ABVQVariant@@@Z @ 812 NONAME ABSENT ; class QString HbGridViewItemPrivate::text(class QVariant const &)
	?resizeEvent@HbSoftKey@@MAEXPAVQGraphicsSceneResizeEvent@@@Z @ 813 NONAME ABSENT ; void HbSoftKey::resizeEvent(class QGraphicsSceneResizeEvent *)
	?polish@HbStyle@@MAEXPAVHbWidget@@AAVHbStyleParameters@@@Z @ 814 NONAME ; void HbStyle::polish(class HbWidget *, class HbStyleParameters &)
	?metaObject@HbSoftKey@@UBEPBUQMetaObject@@XZ @ 815 NONAME ABSENT ; struct QMetaObject const * HbSoftKey::metaObject(void) const
	?setText@HbTextItem@@QAEXABVQString@@@Z @ 816 NONAME ; void HbTextItem::setText(class QString const &)
	?tr@HbIndicator@@SA?AVQString@@PBD0@Z @ 817 NONAME ; class QString HbIndicator::tr(char const *, char const *)
	??_EHbEmailAddressFilter@@UAE@I@Z @ 818 NONAME ; HbEmailAddressFilter::~HbEmailAddressFilter(unsigned int)
	?removeView@HbMainWindow@@QAEPAVQGraphicsWidget@@H@Z @ 819 NONAME ABSENT ; class QGraphicsWidget * HbMainWindow::removeView(int)
	?alignment@HbScrollArea@@QBE?AV?$QFlags@W4AlignmentFlag@Qt@@@@XZ @ 820 NONAME ; class QFlags<enum Qt::AlignmentFlag> HbScrollArea::alignment(void) const
	?animationTimeLine@HbItemHighlight@@QBEPAVQTimeLine@@XZ @ 821 NONAME ABSENT ; class QTimeLine * HbItemHighlight::animationTimeLine(void) const
	??0HbInputLanguage@@QAE@ABV0@@Z @ 822 NONAME ; HbInputLanguage::HbInputLanguage(class HbInputLanguage const &)
	?setText@HbInputCustomButton@@QAEXABVQString@@@Z @ 823 NONAME ABSENT ; void HbInputCustomButton::setText(class QString const &)
	?manager@HbInteractionListener@@QBEPAVHbInteractionManager@@XZ @ 824 NONAME ABSENT ; class HbInteractionManager * HbInteractionListener::manager(void) const
	?tr@HbToolButton@@SA?AVQString@@PBD0@Z @ 825 NONAME ; class QString HbToolButton::tr(char const *, char const *)
	?setPrimaryAction@HbPopup@@QAEXPAVHbAction@@@Z @ 826 NONAME ABSENT ; void HbPopup::setPrimaryAction(class HbAction *)
	??0HbTreeView@@QAE@PAVQGraphicsItem@@@Z @ 827 NONAME ABSENT ; HbTreeView::HbTreeView(class QGraphicsItem *)
	?setState@HbAbstractViewItem@@UAEXABV?$QMap@HVQVariant@@@@@Z @ 828 NONAME ABSENT ; void HbAbstractViewItem::setState(class QMap<int, class QVariant> const &)
	?qt_metacall@HbBatteryIndicator@@UAEHW4Call@QMetaObject@@HPAPAX@Z @ 829 NONAME ; int HbBatteryIndicator::qt_metacall(enum QMetaObject::Call, int, void * *)
	?LongPress@HbGraphicsSceneMouseEvent@@2HB @ 830 NONAME ABSENT ; int const HbGraphicsSceneMouseEvent::LongPress
	??8HbFrameBackground@@QBE_NABV0@@Z @ 831 NONAME ; bool HbFrameBackground::operator==(class HbFrameBackground const &) const
	??0HbSignalIndicator@@QAE@PAVQGraphicsItem@@@Z @ 832 NONAME ; HbSignalIndicator::HbSignalIndicator(class QGraphicsItem *)
	?mouseReleaseEvent@HbListView@@MAEXPAVQGraphicsSceneMouseEvent@@@Z @ 833 NONAME ABSENT ; void HbListView::mouseReleaseEvent(class QGraphicsSceneMouseEvent *)
	?setUpAsPhoneNumberEditor@HbEditorInterface@@QAEXXZ @ 834 NONAME ABSENT ; void HbEditorInterface::setUpAsPhoneNumberEditor(void)
	?changeLayoutDirection@HbScrollAreaPrivate@@QAEXW4LayoutDirection@Qt@@@Z @ 835 NONAME ; void HbScrollAreaPrivate::changeLayoutDirection(enum Qt::LayoutDirection)
	?setTimeout@HbPopupBase@@QAEXW4DefaultTimeout@1@@Z @ 836 NONAME ABSENT ; void HbPopupBase::setTimeout(enum HbPopupBase::DefaultTimeout)
	??1HbGraphicsScene@@UAE@XZ @ 837 NONAME ; HbGraphicsScene::~HbGraphicsScene(void)
	??0HbInteractionListener@@QAE@PAVHbInteractionManager@@@Z @ 838 NONAME ABSENT ; HbInteractionListener::HbInteractionListener(class HbInteractionManager *)
	?setScreenOrientation@HbInputSettingProxy@@QAEXW4Orientation@Qt@@@Z @ 839 NONAME ABSENT ; void HbInputSettingProxy::setScreenOrientation(enum Qt::Orientation)
	?attachmentValue@Declaration@HbCss@@QBE?AW4Attachment@2@XZ @ 840 NONAME ABSENT ; enum HbCss::Attachment HbCss::Declaration::attachmentValue(void) const
	?trUtf8@HbDeviceDialogServer@@SA?AVQString@@PBD0H@Z @ 841 NONAME ; class QString HbDeviceDialogServer::trUtf8(char const *, char const *, int)
	?tr@HbSignalIndicator@@SA?AVQString@@PBD0H@Z @ 842 NONAME ; class QString HbSignalIndicator::tr(char const *, char const *, int)
	?trUtf8@HbIndicatorInterface@@SA?AVQString@@PBD0H@Z @ 843 NONAME ; class QString HbIndicatorInterface::trUtf8(char const *, char const *, int)
	?d_func@HbToolBarExtension@@ABEPBVHbToolBarExtensionPrivate@@XZ @ 844 NONAME ; class HbToolBarExtensionPrivate const * HbToolBarExtension::d_func(void) const
	?showInputMethodSelectionDialog@HbInputMethod@@MAE?AVQString@@ABVHbInputLanguage@@@Z @ 845 NONAME ABSENT ; class QString HbInputMethod::showInputMethodSelectionDialog(class HbInputLanguage const &)
	?setDateStyle@HbExtendedLocale@@QAE_NW4DateStyle@1@@Z @ 846 NONAME ; bool HbExtendedLocale::setDateStyle(enum HbExtendedLocale::DateStyle)
	?container@HbAbstractItemView@@IBEPAVHbAbstractItemContainer@@XZ @ 847 NONAME ABSENT ; class HbAbstractItemContainer * HbAbstractItemView::container(void) const
	?metaObject@HbInputModeCache@@UBEPBUQMetaObject@@XZ @ 848 NONAME ; struct QMetaObject const * HbInputModeCache::metaObject(void) const
	?directory@HbExtraUserDictionary@@QBEPAVHbExtraUDDirectoryEntry@@XZ @ 849 NONAME ; class HbExtraUDDirectoryEntry * HbExtraUserDictionary::directory(void) const
	?syncEditorInterface@HbFocusObjectWidget@@UAEXXZ @ 850 NONAME ABSENT ; void HbFocusObjectWidget::syncEditorInterface(void)
	?standardPalette@HbStyleOld@@QBE?AVQPalette@@XZ @ 851 NONAME ABSENT ; class QPalette HbStyleOld::standardPalette(void) const
	?isTypeOf@HbRichTextItem@@UBE_NH@Z @ 852 NONAME ABSENT ; bool HbRichTextItem::isTypeOf(int) const
	?mainWindow@HbWidget@@QBEPAVHbMainWindow@@XZ @ 853 NONAME ; class HbMainWindow * HbWidget::mainWindow(void) const
	?language@HbInputLanguage@@QBE?AW4Language@QLocale@@XZ @ 854 NONAME ; enum QLocale::Language HbInputLanguage::language(void) const
	?registerCustomGesture@HbInteractionManager@@SAHXZ @ 855 NONAME ABSENT ; int HbInteractionManager::registerCustomGesture(void)
	??0HbStyleOptionToolBarExtension@@QAE@ABV0@@Z @ 856 NONAME ABSENT ; HbStyleOptionToolBarExtension::HbStyleOptionToolBarExtension(class HbStyleOptionToolBarExtension const &)
	?aspectRatioMode@HbLabel@@QBE?AW4AspectRatioMode@Qt@@XZ @ 857 NONAME ABSENT ; enum Qt::AspectRatioMode HbLabel::aspectRatioMode(void) const
	?setFrameGraphicsName@HbFrameBackground@@QAEXABVQString@@@Z @ 858 NONAME ; void HbFrameBackground::setFrameGraphicsName(class QString const &)
	??_EHbLabel@@UAE@I@Z @ 859 NONAME ABSENT ; HbLabel::~HbLabel(unsigned int)
	?setFileNameSuffixList@HbFrameDrawer@@QAEXABVQStringList@@@Z @ 860 NONAME ; void HbFrameDrawer::setFileNameSuffixList(class QStringList const &)
	?tr@HbInputSettingProxy@@SA?AVQString@@PBD0@Z @ 861 NONAME ; class QString HbInputSettingProxy::tr(char const *, char const *)
	?stringAllowedInEditor@HbInputFocusObject@@UBE_NABVQString@@@Z @ 862 NONAME ABSENT ; bool HbInputFocusObject::stringAllowedInEditor(class QString const &) const
	?detach@HbVariant@@AAEXXZ @ 863 NONAME ; void HbVariant::detach(void)
	?Gesture@HbInteractionGestureEvent@@2HB @ 864 NONAME ABSENT ; int const HbInteractionGestureEvent::Gesture
	?pixelsToScroll@HbAbstractItemViewPrivate@@QAE?AVQPointF@@PBVHbAbstractViewItem@@@Z @ 865 NONAME ABSENT ; class QPointF HbAbstractItemViewPrivate::pixelsToScroll(class HbAbstractViewItem const *)
	?softKeyAction@HbMainWindow@@QBEPAVHbAction@@W4SoftKeyId@Hb@@@Z @ 866 NONAME ABSENT ; class HbAction * HbMainWindow::softKeyAction(enum Hb::SoftKeyId) const
	?setIcon@HbAction@@QAEXABVHbIcon@@@Z @ 867 NONAME ; void HbAction::setIcon(class HbIcon const &)
	?setAlignment@HbTextItem@@QAEXV?$QFlags@W4AlignmentFlag@Qt@@@@@Z @ 868 NONAME ; void HbTextItem::setAlignment(class QFlags<enum Qt::AlignmentFlag>)
	?getStaticMetaObject@HbInteractionManager@@SAABUQMetaObject@@XZ @ 869 NONAME ABSENT ; struct QMetaObject const & HbInteractionManager::getStaticMetaObject(void)
	?readLayoutEndItem@HbXmlLoaderAbstractSyntax@@UAE_NXZ @ 870 NONAME ABSENT ; bool HbXmlLoaderAbstractSyntax::readLayoutEndItem(void)
	?qt_metacast@HbInputMethod@@UAEPAXPBD@Z @ 871 NONAME ; void * HbInputMethod::qt_metacast(char const *)
	?toPixels@HbXmlLoaderAbstractSyntax@@UBE_NABVQString@@AAM@Z @ 872 NONAME ABSENT ; bool HbXmlLoaderAbstractSyntax::toPixels(class QString const &, float &) const
	?qt_metacast@HbNgNormalNumber@@UAEPAXPBD@Z @ 873 NONAME ABSENT ; void * HbNgNormalNumber::qt_metacast(char const *)
	?buttonCode@HbInputCustomButtonBank@@QAEHPAVHbInputCustomButton@@@Z @ 874 NONAME ABSENT ; int HbInputCustomButtonBank::buttonCode(class HbInputCustomButton *)
	?paint@HbTextItem@@MAEXPAVQPainter@@PBVQStyleOptionGraphicsItem@@PAVQWidget@@@Z @ 875 NONAME ABSENT ; void HbTextItem::paint(class QPainter *, class QStyleOptionGraphicsItem const *, class QWidget *)
	?takeItem@HbListWidget@@QAEPAVHbListWidgetItem@@H@Z @ 876 NONAME ABSENT ; class HbListWidgetItem * HbListWidget::takeItem(int)
	??_EHbInputSettingProxy@@UAE@I@Z @ 877 NONAME ; HbInputSettingProxy::~HbInputSettingProxy(unsigned int)
	??0HbStyleOptionDataItem@@QAE@ABV0@@Z @ 878 NONAME ABSENT ; HbStyleOptionDataItem::HbStyleOptionDataItem(class HbStyleOptionDataItem const &)
	??1HbInputStateMachinePrcChinese@@UAE@XZ @ 879 NONAME ABSENT ; HbInputStateMachinePrcChinese::~HbInputStateMachinePrcChinese(void)
	?inputMethodPluginPaths@HbInputSettingProxy@@SA?AVQStringList@@XZ @ 880 NONAME ; class QStringList HbInputSettingProxy::inputMethodPluginPaths(void)
	?uniformItemSizes@HbAbstractItemContainer@@QBE_NXZ @ 881 NONAME ABSENT ; bool HbAbstractItemContainer::uniformItemSizes(void) const
	?d_func@HbListView@@AAEPAVHbListViewPrivate@@XZ @ 882 NONAME ABSENT ; class HbListViewPrivate * HbListView::d_func(void)
	?setGraphicsItem@HbIconAnimator@@QAEXPAVQGraphicsItem@@@Z @ 883 NONAME ; void HbIconAnimator::setGraphicsItem(class QGraphicsItem *)
	?trUtf8@HbBatteryIndicator@@SA?AVQString@@PBD0H@Z @ 884 NONAME ; class QString HbBatteryIndicator::trUtf8(char const *, char const *, int)
	?identifierName@HbInputContextProxy@@UAE?AVQString@@XZ @ 885 NONAME ; class QString HbInputContextProxy::identifierName(void)
	?getStaticMetaObject@HbSoftKey@@SAABUQMetaObject@@XZ @ 886 NONAME ABSENT ; struct QMetaObject const & HbSoftKey::getStaticMetaObject(void)
	??1HbStyle@@UAE@XZ @ 887 NONAME ; HbStyle::~HbStyle(void)
	?setEnabled@HbListWidgetItem@@QAEX_N@Z @ 888 NONAME ABSENT ; void HbListWidgetItem::setEnabled(bool)
	?setPluginBaseId@HbWidget@@IAEXH@Z @ 889 NONAME ABSENT ; void HbWidget::setPluginBaseId(int)
	?setSelectionModel@HbAbstractItemView@@QAEXPAVQItemSelectionModel@@@Z @ 890 NONAME ABSENT ; void HbAbstractItemView::setSelectionModel(class QItemSelectionModel *)
	??0HbWidgetParams@@QAE@XZ @ 891 NONAME ABSENT ; HbWidgetParams::HbWidgetParams(void)
	??1HbToolButton@@UAE@XZ @ 892 NONAME ; HbToolButton::~HbToolButton(void)
	?filter@HbUrlFilter@@UAE_NVQChar@@@Z @ 893 NONAME ; bool HbUrlFilter::filter(class QChar)
	?mouseReleaseEvent@HbPopupBase@@MAEXPAVQGraphicsSceneMouseEvent@@@Z @ 894 NONAME ABSENT ; void HbPopupBase::mouseReleaseEvent(class QGraphicsSceneMouseEvent *)
	??0HbKeyMapFactory@@AAE@XZ @ 895 NONAME ABSENT ; HbKeyMapFactory::HbKeyMapFactory(void)
	??_EHbListView@@UAE@I@Z @ 896 NONAME ABSENT ; HbListView::~HbListView(unsigned int)
	?staticMetaObject@HbTreeViewItem@@2UQMetaObject@@B @ 897 NONAME ABSENT ; struct QMetaObject const HbTreeViewItem::staticMetaObject
	?setCurrentItem@HbListWidget@@QAEXPAVHbListWidgetItem@@@Z @ 898 NONAME ABSENT ; void HbListWidget::setCurrentItem(class HbListWidgetItem *)
	??0HbStyleOptionDataQuery@@QAE@XZ @ 899 NONAME ABSENT ; HbStyleOptionDataQuery::HbStyleOptionDataQuery(void)
	?tr@HbPredictionFactory@@SA?AVQString@@PBD0@Z @ 900 NONAME ; class QString HbPredictionFactory::tr(char const *, char const *)
	?callback@HbGesture@@QAEXH@Z @ 901 NONAME ABSENT ; void HbGesture::callback(int)
	?values@HbStyleParameters@@AAEAAV?$QList@VQVariant@@@@XZ @ 902 NONAME ; class QList<class QVariant> & HbStyleParameters::values(void)
	?event@HbAbstractItem@@UAE_NPAVQEvent@@@Z @ 903 NONAME ABSENT ; bool HbAbstractItem::event(class QEvent *)
	?addItem@HbTreeLayout@@QAEXPAVQGraphicsLayoutItem@@H@Z @ 904 NONAME ABSENT ; void HbTreeLayout::addItem(class QGraphicsLayoutItem *, int)
	??0HbListViewPrivate@@QAE@XZ @ 905 NONAME ABSENT ; HbListViewPrivate::HbListViewPrivate(void)
	??_EHbInputStateMachineLatin@@UAE@I@Z @ 906 NONAME ABSENT ; HbInputStateMachineLatin::~HbInputStateMachineLatin(unsigned int)
	?global@HbIconAnimationManager@@SAPAV1@XZ @ 907 NONAME ; class HbIconAnimationManager * HbIconAnimationManager::global(void)
	??1HbListWidget@@UAE@XZ @ 908 NONAME ABSENT ; HbListWidget::~HbListWidget(void)
	?aspectRatioMode@HbBatteryIndicator@@QBE?AW4AspectRatioMode@Qt@@XZ @ 909 NONAME ABSENT ; enum Qt::AspectRatioMode HbBatteryIndicator::aspectRatioMode(void) const
	?staticMetaObject@HbLanguageDatabaseInterface@@2UQMetaObject@@B @ 910 NONAME ; struct QMetaObject const HbLanguageDatabaseInterface::staticMetaObject
	?setFrameGraphicsName@HbFrameDrawer@@QAEXABVQString@@@Z @ 911 NONAME ; void HbFrameDrawer::setFrameGraphicsName(class QString const &)
	??0HbPredictionFactory@@AAE@XZ @ 912 NONAME ; HbPredictionFactory::HbPredictionFactory(void)
	?getStaticMetaObject@HbGridView@@SAABUQMetaObject@@XZ @ 913 NONAME ABSENT ; struct QMetaObject const & HbGridView::getStaticMetaObject(void)
	?initialize@HbMultiSegmentAlgo@@QAEXPAVQSharedMemory@@H@Z @ 914 NONAME ABSENT ; void HbMultiSegmentAlgo::initialize(class QSharedMemory *, int)
	?ModifyEvent@HbInputMethod@@QAEX_N@Z @ 915 NONAME ABSENT ; void HbInputMethod::ModifyEvent(bool)
	?setSecondaryAction@HbPopup@@QAEXPAVHbAction@@@Z @ 916 NONAME ABSENT ; void HbPopup::setSecondaryAction(class HbAction *)
	?appendRow@HbListModel@@QAEXPAVHbListWidgetItem@@@Z @ 917 NONAME ABSENT ; void HbListModel::appendRow(class HbListWidgetItem *)
	?unregisterPlugin@HbStyle@@QAEXVQString@@@Z @ 918 NONAME ABSENT ; void HbStyle::unregisterPlugin(class QString)
	?contains@HbStringVector@@QBE_NABVHbString@@W4CaseSensitivity@Qt@@@Z @ 919 NONAME ; bool HbStringVector::contains(class HbString const &, enum Qt::CaseSensitivity) const
	?realValue@Declaration@HbCss@@QBE_NPAMPBD@Z @ 920 NONAME ABSENT ; bool HbCss::Declaration::realValue(float *, char const *) const
	?trUtf8@HbTreeView@@SA?AVQString@@PBD0@Z @ 921 NONAME ABSENT ; class QString HbTreeView::trUtf8(char const *, char const *)
	??4HbListViewItemPrivate@@QAEAAV0@ABV0@@Z @ 922 NONAME ABSENT ; class HbListViewItemPrivate & HbListViewItemPrivate::operator=(class HbListViewItemPrivate const &)
	??8HbString@@QBE_NABVQLatin1String@@@Z @ 923 NONAME ; bool HbString::operator==(class QLatin1String const &) const
	??0HbStyleOptionSoftKey@@QAE@XZ @ 924 NONAME ABSENT ; HbStyleOptionSoftKey::HbStyleOptionSoftKey(void)
	?trUtf8@HbScrollBar@@SA?AVQString@@PBD0H@Z @ 925 NONAME ; class QString HbScrollBar::trUtf8(char const *, char const *, int)
	?horizontalScrollBarPolicy@HbScrollArea@@QBE?AW4ScrollBarPolicy@1@XZ @ 926 NONAME ; enum HbScrollArea::ScrollBarPolicy HbScrollArea::horizontalScrollBarPolicy(void) const
	?globalInputLanguage@HbInputSettingProxy@@QBE?AVHbInputLanguage@@XZ @ 927 NONAME ; class HbInputLanguage HbInputSettingProxy::globalInputLanguage(void) const
	?stopAnimating@HbScrollAreaPrivate@@QAEXXZ @ 928 NONAME ; void HbScrollAreaPrivate::stopAnimating(void)
	?qt_metacast@HbScrollArea@@UAEPAXPBD@Z @ 929 NONAME ; void * HbScrollArea::qt_metacast(char const *)
	?d_func@HbDeviceDialog@@AAEPAVHbDeviceDialogPrivate@@XZ @ 930 NONAME ; class HbDeviceDialogPrivate * HbDeviceDialog::d_func(void)
	??0HbVariant@@QAE@NW4MemoryType@HbMemoryManager@@@Z @ 931 NONAME ; HbVariant::HbVariant(double, enum HbMemoryManager::MemoryType)
	?instance@HbMemoryManager@@SAPAV1@W4MemoryType@1@@Z @ 932 NONAME ; class HbMemoryManager * HbMemoryManager::instance(enum HbMemoryManager::MemoryType)
	?removeAt@HbStackedLayout@@UAEXH@Z @ 933 NONAME ; void HbStackedLayout::removeAt(int)
	?getStaticMetaObject@HbLanguageDatabaseInterface@@SAABUQMetaObject@@XZ @ 934 NONAME ; struct QMetaObject const & HbLanguageDatabaseInterface::getStaticMetaObject(void)
	?createItem@HbListViewItem@@UAEPAVHbAbstractViewItem@@XZ @ 935 NONAME ABSENT ; class HbAbstractViewItem * HbListViewItem::createItem(void)
	?handleInteraction@HbIndicatorInterface@@UAE_NW4InteractionType@1@@Z @ 936 NONAME ; bool HbIndicatorInterface::handleInteraction(enum HbIndicatorInterface::InteractionType)
	?staticMetaObject@HbStyleOld@@2UQMetaObject@@B @ 937 NONAME ABSENT ; struct QMetaObject const HbStyleOld::staticMetaObject
	?metaObject@HbGesture@@UBEPBUQMetaObject@@XZ @ 938 NONAME ABSENT ; struct QMetaObject const * HbGesture::metaObject(void) const
	?d_func@HbStyle@@ABEPBVHbStylePrivate@@XZ @ 939 NONAME ; class HbStylePrivate const * HbStyle::d_func(void) const
	?triggered@HbInteractionListener@@MAEXPBVQObject@@W4Interaction@Ia@@@Z @ 940 NONAME ABSENT ; void HbInteractionListener::triggered(class QObject const *, enum Ia::Interaction)
	?realloc@HbSharedMemoryManager@@UAEHHH@Z @ 941 NONAME ; int HbSharedMemoryManager::realloc(int, int)
	?ChildFocusIn@HbEvent@@2HB @ 942 NONAME ; int const HbEvent::ChildFocusIn
	?plugins@HbInteractionPluginGroup@@QBEAAV?$QList@V?$QPointer@VHbInteractionPlugin@@@@@@XZ @ 943 NONAME ABSENT ; class QList<class QPointer<class HbInteractionPlugin> > & HbInteractionPluginGroup::plugins(void) const
	?qt_metacast@HbToolBarExtension@@UAEPAXPBD@Z @ 944 NONAME ; void * HbToolBarExtension::qt_metacast(char const *)
	?effectiveFont@HbLabel@@QBE?AVQFont@@XZ @ 945 NONAME ABSENT ; class QFont HbLabel::effectiveFont(void) const
	?childItem@HbListWidgetViewItem@@UBEPAVQGraphicsLayoutItem@@HW4ListItemColumn@HbListWidgetItem@@H@Z @ 946 NONAME ABSENT ; class QGraphicsLayoutItem * HbListWidgetViewItem::childItem(int, enum HbListWidgetItem::ListItemColumn, int) const
	?style@HbInstance@@QBEPAVHbStyle@@XZ @ 947 NONAME ; class HbStyle * HbInstance::style(void) const
	?cursorLeft@HbInputFocusObject@@UAEXH@Z @ 948 NONAME ABSENT ; void HbInputFocusObject::cursorLeft(int)
	??0HbToolBar@@QAE@PAVQGraphicsItem@@@Z @ 949 NONAME ; HbToolBar::HbToolBar(class QGraphicsItem *)
	?contentWidget@HbScrollArea@@QBEPAVQGraphicsWidget@@XZ @ 950 NONAME ; class QGraphicsWidget * HbScrollArea::contentWidget(void) const
	??0HbAbstractItemView@@IAE@AAVHbAbstractItemViewPrivate@@PAVHbAbstractItemContainer@@PAVQGraphicsItem@@@Z @ 951 NONAME ABSENT ; HbAbstractItemView::HbAbstractItemView(class HbAbstractItemViewPrivate &, class HbAbstractItemContainer *, class QGraphicsItem *)
	?setMask@HbFrameDrawer@@QAEXABVQPixmap@@@Z @ 952 NONAME ; void HbFrameDrawer::setMask(class QPixmap const &)
	?removeAt@HbAnchorLayout@@UAEXH@Z @ 953 NONAME ; void HbAnchorLayout::removeAt(int)
	?current@HbDeviceProfile@@SA?AV1@XZ @ 954 NONAME ; class HbDeviceProfile HbDeviceProfile::current(void)
	?timerEvent@HbAbstractButton@@MAEXPAVQTimerEvent@@@Z @ 955 NONAME ; void HbAbstractButton::timerEvent(class QTimerEvent *)
	?itemPrototypes@HbAbstractItemView@@QBE?AV?$QList@PAVHbAbstractViewItem@@@@XZ @ 956 NONAME ABSENT ; class QList<class HbAbstractViewItem *> HbAbstractItemView::itemPrototypes(void) const
	?extraDictionaryId@HbEditorInterface@@QBEHXZ @ 957 NONAME ; int HbEditorInterface::extraDictionaryId(void) const
	?nextState@HbInputStateMachineLatinWithEditKey@@UAE_NABVHbInputState@@AAV2@W4HbInputStateModifier@@@Z @ 958 NONAME ABSENT ; bool HbInputStateMachineLatinWithEditKey::nextState(class HbInputState const &, class HbInputState &, enum HbInputStateModifier)
	??9HbString@@QBE_NABV0@@Z @ 959 NONAME ; bool HbString::operator!=(class HbString const &) const
	?free@HbMultiSegmentAlgo@@QAEXH@Z @ 960 NONAME ABSENT ; void HbMultiSegmentAlgo::free(int)
	??4HbVariant@@QAEAAV0@ABVQStringList@@@Z @ 961 NONAME ; class HbVariant & HbVariant::operator=(class QStringList const &)
	?tr@HbItemHighlight@@SA?AVQString@@PBD0@Z @ 962 NONAME ABSENT ; class QString HbItemHighlight::tr(char const *, char const *)
	??0HbListViewItem@@IAE@ABV0@@Z @ 963 NONAME ABSENT ; HbListViewItem::HbListViewItem(class HbListViewItem const &)
	??0Declaration@HbCss@@QAE@W4MemoryType@HbMemoryManager@@@Z @ 964 NONAME ; HbCss::Declaration::Declaration(enum HbMemoryManager::MemoryType)
	??_EHbPopup@@UAE@I@Z @ 965 NONAME ; HbPopup::~HbPopup(unsigned int)
	?localLanguage@HbEditorInterface@@QBE?AVHbInputLanguage@@XZ @ 966 NONAME ABSENT ; class HbInputLanguage HbEditorInterface::localLanguage(void) const
	?setExtraUserDictionaries@HbPredictionBase@@UAEXABV?$QList@H@@@Z @ 967 NONAME ; void HbPredictionBase::setExtraUserDictionaries(class QList<int> const &)
	?firstState@HbInputStateMachineLatinWithEditKey@@UBEXAAVHbInputState@@@Z @ 968 NONAME ABSENT ; void HbInputStateMachineLatinWithEditKey::firstState(class HbInputState &) const
	?languageDatabasePluginInstance@HbInputUtils@@SAPAVHbLanguageDatabaseInterface@@ABVQString@@0@Z @ 969 NONAME ; class HbLanguageDatabaseInterface * HbInputUtils::languageDatabasePluginInstance(class QString const &, class QString const &)
	?clear@HbString@@QAEXXZ @ 970 NONAME ; void HbString::clear(void)
	?addDictionary@HbExtraDictionaryCollection@@QAE_NPAVHbExtraUserDictionary@@@Z @ 971 NONAME ; bool HbExtraDictionaryCollection::addDictionary(class HbExtraUserDictionary *)
	?memoryType@HbVariant@@QAE?AW4MemoryType@HbMemoryManager@@XZ @ 972 NONAME ; enum HbMemoryManager::MemoryType HbVariant::memoryType(void)
	?activateNextState@HbInputMethod@@QAEXW4HbInputStateModifier@@@Z @ 973 NONAME ABSENT ; void HbInputMethod::activateNextState(enum HbInputStateModifier)
	?rootIndex@HbAbstractItemView@@QBE?AVQModelIndex@@XZ @ 974 NONAME ABSENT ; class QModelIndex HbAbstractItemView::rootIndex(void) const
	?incrementUseCount@HbExtraUserDictionary@@QAEXABVQString@@@Z @ 975 NONAME ; void HbExtraUserDictionary::incrementUseCount(class QString const &)
	??1HbInteractionListener@@UAE@XZ @ 976 NONAME ABSENT ; HbInteractionListener::~HbInteractionListener(void)
	?launchPopup@HbDecorator@@IAEXABVQPointF@@@Z @ 977 NONAME ABSENT ; void HbDecorator::launchPopup(class QPointF const &)
	?updateScrollBar@HbScrollAreaPrivate@@UAEXW4Orientation@Qt@@@Z @ 978 NONAME ; void HbScrollAreaPrivate::updateScrollBar(enum Qt::Orientation)
	??0HbAbstractItemViewPrivate@@QAE@XZ @ 979 NONAME ABSENT ; HbAbstractItemViewPrivate::HbAbstractItemViewPrivate(void)
	?broadcastEvent@HbMainWindow@@QAEXH@Z @ 980 NONAME ; void HbMainWindow::broadcastEvent(int)
	?trUtf8@HbInputFilter@@SA?AVQString@@PBD0H@Z @ 981 NONAME ; class QString HbInputFilter::trUtf8(char const *, char const *, int)
	?getStaticMetaObject@HbGraphicsScene@@SAABUQMetaObject@@XZ @ 982 NONAME ; struct QMetaObject const & HbGraphicsScene::getStaticMetaObject(void)
	??1HbListViewPrivate@@UAE@XZ @ 983 NONAME ABSENT ; HbListViewPrivate::~HbListViewPrivate(void)
	?tr@HbGridViewItem@@SA?AVQString@@PBD0@Z @ 984 NONAME ABSENT ; class QString HbGridViewItem::tr(char const *, char const *)
	?createDictionary@HbExtraDictionaryFactory@@QAEPAVHbExtraUserDictionary@@HABVQStringList@@@Z @ 985 NONAME ; class HbExtraUserDictionary * HbExtraDictionaryFactory::createDictionary(int, class QStringList const &)
	??0HbStyleOptionNotificationDialog@@QAE@ABV0@@Z @ 986 NONAME ; HbStyleOptionNotificationDialog::HbStyleOptionNotificationDialog(class HbStyleOptionNotificationDialog const &)
	?setSecondaryText@HbListWidgetItem@@QAEXABVQString@@@Z @ 987 NONAME ABSENT ; void HbListWidgetItem::setSecondaryText(class QString const &)
	?parseAttrib@Parser@HbCss@@QAE_NPAUAttributeSelector@2@@Z @ 988 NONAME ; bool HbCss::Parser::parseAttrib(struct HbCss::AttributeSelector *)
	??_EHbInputStateMachineLatinFinger@@UAE@I@Z @ 989 NONAME ABSENT ; HbInputStateMachineLatinFinger::~HbInputStateMachineLatinFinger(unsigned int)
	?setTimeStyle@HbExtendedLocale@@QAE_NW4TimeStyle@1@@Z @ 990 NONAME ; bool HbExtendedLocale::setTimeStyle(enum HbExtendedLocale::TimeStyle)
	?qt_metacast@HbGraphicsScene@@UAEPAXPBD@Z @ 991 NONAME ; void * HbGraphicsScene::qt_metacast(char const *)
	?dateStyle@HbExtendedLocale@@QBE?AW4DateStyle@1@XZ @ 992 NONAME ; enum HbExtendedLocale::DateStyle HbExtendedLocale::dateStyle(void) const
	?d_func@HbListWidgetViewItem@@AAEPAVHbListWidgetViewItemPrivate@@XZ @ 993 NONAME ABSENT ; class HbListWidgetViewItemPrivate * HbListWidgetViewItem::d_func(void)
	??_EHbAbstractItemView@@UAE@I@Z @ 994 NONAME ABSENT ; HbAbstractItemView::~HbAbstractItemView(unsigned int)
	?setState@HbIconItem@@QAEXW4State@QIcon@@@Z @ 995 NONAME ; void HbIconItem::setState(enum QIcon::State)
	??1HbIconAnimator@@EAE@XZ @ 996 NONAME ABSENT ; HbIconAnimator::~HbIconAnimator(void)
	?tr@HbDeviceDialog@@SA?AVQString@@PBD0H@Z @ 997 NONAME ; class QString HbDeviceDialog::tr(char const *, char const *, int)
	?realloc@HbHeapMemoryManager@@UAEHHH@Z @ 998 NONAME ; int HbHeapMemoryManager::realloc(int, int)
	?removeWidget@HbStackedWidget@@QAEXPAVQGraphicsWidget@@@Z @ 999 NONAME ; void HbStackedWidget::removeWidget(class QGraphicsWidget *)
	?editorClass@HbEditorInterface@@QBE?AW4HbInputEditorClass@@XZ @ 1000 NONAME ; enum HbInputEditorClass HbEditorInterface::editorClass(void) const
	??_EHbTheme@@UAE@I@Z @ 1001 NONAME ; HbTheme::~HbTheme(unsigned int)
	?setPhysicalFont@HbFontProvider@@QAEXW4Role@HbFontSpec@@ABVQFont@@@Z @ 1002 NONAME ABSENT ; void HbFontProvider::setPhysicalFont(enum HbFontSpec::Role, class QFont const &)
	?palette@HbTextItem@@QBE?AVQPalette@@XZ @ 1003 NONAME ABSENT ; class QPalette HbTextItem::palette(void) const
	??4HbFrameDrawer@@AAEAAV0@ABV0@@Z @ 1004 NONAME ; class HbFrameDrawer & HbFrameDrawer::operator=(class HbFrameDrawer const &)
	?setFontSpec@HbWidget@@QAEXABVHbFontSpec@@@Z @ 1005 NONAME ABSENT ; void HbWidget::setFontSpec(class HbFontSpec const &)
	?borderWidths@HbFrameDrawer@@QBEXAAM000@Z @ 1006 NONAME ; void HbFrameDrawer::borderWidths(float &, float &, float &, float &) const
	??1HbInputFocusObject@@UAE@XZ @ 1007 NONAME ; HbInputFocusObject::~HbInputFocusObject(void)
	?flags@HbInputCustomButton@@QBEHXZ @ 1008 NONAME ABSENT ; int HbInputCustomButton::flags(void) const
	?trUtf8@HbInteractionManager@@SA?AVQString@@PBD0H@Z @ 1009 NONAME ABSENT ; class QString HbInteractionManager::trUtf8(char const *, char const *, int)
	?stopAnimation@HbIconAnimator@@QAEXXZ @ 1010 NONAME ; void HbIconAnimator::stopAnimation(void)
	?trUtf8@HbAbstractViewItem@@SA?AVQString@@PBD0@Z @ 1011 NONAME ABSENT ; class QString HbAbstractViewItem::trUtf8(char const *, char const *)
	?eventFilter@HbItemHighlight@@UAE_NPAVQObject@@PAVQEvent@@@Z @ 1012 NONAME ABSENT ; bool HbItemHighlight::eventFilter(class QObject *, class QEvent *)
	??0Pseudo@HbCss@@QAE@W4MemoryType@HbMemoryManager@@@Z @ 1013 NONAME ; HbCss::Pseudo::Pseudo(enum HbMemoryManager::MemoryType)
	?setNum@HbLabel@@QAEXH@Z @ 1014 NONAME ABSENT ; void HbLabel::setNum(int)
	?trUtf8@HbPredictionFactory@@SA?AVQString@@PBD0H@Z @ 1015 NONAME ; class QString HbPredictionFactory::trUtf8(char const *, char const *, int)
	??1HbInputStateMachineHKChineseFinger@@UAE@XZ @ 1016 NONAME ABSENT ; HbInputStateMachineHKChineseFinger::~HbInputStateMachineHKChineseFinger(void)
	?extractLayout@ValueExtractor@HbCss@@QAE_NPAVQString@@0@Z @ 1017 NONAME ABSENT ; bool HbCss::ValueExtractor::extractLayout(class QString *, class QString *)
	?profile@HbDeviceProfile@@SA?AV1@PBVHbMainWindow@@@Z @ 1018 NONAME ; class HbDeviceProfile HbDeviceProfile::profile(class HbMainWindow const *)
	?gestureStopped@HbInteractionManager@@QAEXPBVQObject@@W4Gesture@Ia@@@Z @ 1019 NONAME ABSENT ; void HbInteractionManager::gestureStopped(class QObject const *, enum Ia::Gesture)
	?qt_metacall@HbInteractionPluginGroup@@UAEHW4Call@QMetaObject@@HPAPAX@Z @ 1020 NONAME ABSENT ; int HbInteractionPluginGroup::qt_metacall(enum QMetaObject::Call, int, void * *)
	?metaObject@HbAction@@UBEPBUQMetaObject@@XZ @ 1021 NONAME ; struct QMetaObject const * HbAction::metaObject(void) const
	?keyboardType@HbVirtualKeyboard@@UBE?AV?$QFlags@W4HbKeyboardTypeFlag@@@@XZ @ 1022 NONAME ; class QFlags<enum HbKeyboardTypeFlag> HbVirtualKeyboard::keyboardType(void) const
	?qt_metacall@HbIndicator@@UAEHW4Call@QMetaObject@@HPAPAX@Z @ 1023 NONAME ; int HbIndicator::qt_metacall(enum QMetaObject::Call, int, void * *)
	??1HbInputModeCache@@EAE@XZ @ 1024 NONAME ; HbInputModeCache::~HbInputModeCache(void)
	??1Selector@HbCss@@QAE@XZ @ 1025 NONAME ; HbCss::Selector::~Selector(void)
	?qt_metacall@HbDeviceDialogPlugin@@UAEHW4Call@QMetaObject@@HPAPAX@Z @ 1026 NONAME ; int HbDeviceDialogPlugin::qt_metacall(enum QMetaObject::Call, int, void * *)
	?isModal@HbPopupBase@@QBE_NXZ @ 1027 NONAME ABSENT ; bool HbPopupBase::isModal(void) const
	?itemBoundingRect@HbAbstractItemViewPrivate@@QBE?AVQRectF@@PBVQGraphicsItem@@@Z @ 1028 NONAME ABSENT ; class QRectF HbAbstractItemViewPrivate::itemBoundingRect(class QGraphicsItem const *) const
	??0HbMenu@@IAE@AAVHbMenuPrivate@@PAVQGraphicsItem@@@Z @ 1029 NONAME ; HbMenu::HbMenu(class HbMenuPrivate &, class QGraphicsItem *)
	??0HbGridView@@QAE@PAVQGraphicsItem@@@Z @ 1030 NONAME ABSENT ; HbGridView::HbGridView(class QGraphicsItem *)
	??1HbFocusObjectWidget@@UAE@XZ @ 1031 NONAME ABSENT ; HbFocusObjectWidget::~HbFocusObjectWidget(void)
	?setStateMachine@HbInputMethod@@IAEXPAVHbInputStateMachine@@@Z @ 1032 NONAME ABSENT ; void HbInputMethod::setStateMachine(class HbInputStateMachine *)
	??_EHbWidgetParams@@UAE@I@Z @ 1033 NONAME ABSENT ; HbWidgetParams::~HbWidgetParams(unsigned int)
	?parseTerm@Parser@HbCss@@QAE_NPAUValue@2@@Z @ 1034 NONAME ; bool HbCss::Parser::parseTerm(struct HbCss::Value *)
	?addParameter@HbStyleParameters@@QAEXABVQString@@ABVQVariant@@@Z @ 1035 NONAME ; void HbStyleParameters::addParameter(class QString const &, class QVariant const &)
	?sendEvent@HbFocusObjectWidget@@UAEXAAVQEvent@@@Z @ 1036 NONAME ABSENT ; void HbFocusObjectWidget::sendEvent(class QEvent &)
	?trUtf8@HbInteractionListener@@SA?AVQString@@PBD0@Z @ 1037 NONAME ABSENT ; class QString HbInteractionListener::trUtf8(char const *, char const *)
	?tr@HbInteractionPlugin@@SA?AVQString@@PBD0H@Z @ 1038 NONAME ABSENT ; class QString HbInteractionPlugin::tr(char const *, char const *, int)
	?setBufferSize@HbAbstractItemView@@QAEXH@Z @ 1039 NONAME ABSENT ; void HbAbstractItemView::setBufferSize(int)
	?currentIndex@HbStackedWidget@@QBEHXZ @ 1040 NONAME ; int HbStackedWidget::currentIndex(void) const
	??0Symbol@HbCss@@QAE@XZ @ 1041 NONAME ; HbCss::Symbol::Symbol(void)
	?q_func@HbGridViewItemPrivate@@ABEPBVHbGridViewItem@@XZ @ 1042 NONAME ABSENT ; class HbGridViewItem const * HbGridViewItemPrivate::q_func(void) const
	?tr@HbListView@@SA?AVQString@@PBD0H@Z @ 1043 NONAME ABSENT ; class QString HbListView::tr(char const *, char const *, int)
	?setButtonType@HbInputCustomButton@@QAEXW4HbCustomButtonType@1@@Z @ 1044 NONAME ABSENT ; void HbInputCustomButton::setButtonType(enum HbInputCustomButton::HbCustomButtonType)
	?q_func@HbListViewPrivate@@AAEPAVHbListView@@XZ @ 1045 NONAME ABSENT ; class HbListView * HbListViewPrivate::q_func(void)
	??1HbStyleOptionSettingItem@@QAE@XZ @ 1046 NONAME ABSENT ; HbStyleOptionSettingItem::~HbStyleOptionSettingItem(void)
	??_EHbScrollArea@@UAE@I@Z @ 1047 NONAME ; HbScrollArea::~HbScrollArea(unsigned int)
	?setCurrencySpace@HbExtendedLocale@@QAE_N_N@Z @ 1048 NONAME ; bool HbExtendedLocale::setCurrencySpace(bool)
	?metaObject@HbAbstractButton@@UBEPBUQMetaObject@@XZ @ 1049 NONAME ; struct QMetaObject const * HbAbstractButton::metaObject(void) const
	?language@HbInputContextProxy@@UAE?AVQString@@XZ @ 1050 NONAME ; class QString HbInputContextProxy::language(void)
	?staticMetaObject@HbInputContextProxy@@2UQMetaObject@@B @ 1051 NONAME ; struct QMetaObject const HbInputContextProxy::staticMetaObject
	?d_func@HbInputMethod@@ABEPBVHbInputMethodPrivate@@XZ @ 1052 NONAME ; class HbInputMethodPrivate const * HbInputMethod::d_func(void) const
	??1HbStyleOptionProgressBar@@QAE@XZ @ 1053 NONAME ; HbStyleOptionProgressBar::~HbStyleOptionProgressBar(void)
	?metaObject@HbDeviceDialogServer@@UBEPBUQMetaObject@@XZ @ 1054 NONAME ; struct QMetaObject const * HbDeviceDialogServer::metaObject(void) const
	?remove@HbEffect@@SA_NABVQString@@00@Z @ 1055 NONAME ; bool HbEffect::remove(class QString const &, class QString const &, class QString const &)
	?qt_metacast@HbScrollBar@@UAEPAXPBD@Z @ 1056 NONAME ; void * HbScrollBar::qt_metacast(char const *)
	?metaObject@HbIndicatorInterface@@UBEPBUQMetaObject@@XZ @ 1057 NONAME ; struct QMetaObject const * HbIndicatorInterface::metaObject(void) const
	?itemAt@HbAbstractItemViewPrivate@@QBEPAVHbAbstractViewItem@@ABVQPointF@@@Z @ 1058 NONAME ABSENT ; class HbAbstractViewItem * HbAbstractItemViewPrivate::itemAt(class QPointF const &) const
	?qt_metacall@HbInputFocusObject@@UAEHW4Call@QMetaObject@@HPAPAX@Z @ 1059 NONAME ; int HbInputFocusObject::qt_metacall(enum QMetaObject::Call, int, void * *)
	?mouseReleaseEvent@HbScrollArea@@MAEXPAVQGraphicsSceneMouseEvent@@@Z @ 1060 NONAME ABSENT ; void HbScrollArea::mouseReleaseEvent(class QGraphicsSceneMouseEvent *)
	?getStaticMetaObject@HbInputCustomButtonBank@@SAABUQMetaObject@@XZ @ 1061 NONAME ABSENT ; struct QMetaObject const & HbInputCustomButtonBank::getStaticMetaObject(void)
	?checkEndElementCorrectness@HbXmlLoaderAbstractSyntax@@UAE_NXZ @ 1062 NONAME ABSENT ; bool HbXmlLoaderAbstractSyntax::checkEndElementCorrectness(void)
	??1HbStyleOptionDataGroup@@QAE@XZ @ 1063 NONAME ; HbStyleOptionDataGroup::~HbStyleOptionDataGroup(void)
	??0HbFrameDrawer@@AAE@ABV0@@Z @ 1064 NONAME ; HbFrameDrawer::HbFrameDrawer(class HbFrameDrawer const &)
	??1HbStyleOption@@QAE@XZ @ 1065 NONAME ; HbStyleOption::~HbStyleOption(void)
	?addAction@HbToolBar@@QAEPAVHbAction@@ABVQString@@@Z @ 1066 NONAME ; class HbAction * HbToolBar::addAction(class QString const &)
	??1HbSliderTickmarksItemLabel@@UAE@XZ @ 1067 NONAME ABSENT ; HbSliderTickmarksItemLabel::~HbSliderTickmarksItemLabel(void)
	?d_func@HbGraphicsScene@@ABEPBVHbGraphicsScenePrivate@@XZ @ 1068 NONAME ; class HbGraphicsScenePrivate const * HbGraphicsScene::d_func(void) const
	??0HbInputStateMachineLatinWithEditKey@@AAE@XZ @ 1069 NONAME ABSENT ; HbInputStateMachineLatinWithEditKey::HbInputStateMachineLatinWithEditKey(void)
	?setFontDelta@HbFontSpec@@QAEXABVQFont@@@Z @ 1070 NONAME ABSENT ; void HbFontSpec::setFontDelta(class QFont const &)
	?trUtf8@HbToolBar@@SA?AVQString@@PBD0H@Z @ 1071 NONAME ; class QString HbToolBar::trUtf8(char const *, char const *, int)
	??1HbInteractionEvent@@UAE@XZ @ 1072 NONAME ABSENT ; HbInteractionEvent::~HbInteractionEvent(void)
	?updatePrimitives@HbAbstractViewItem@@UAEXXZ @ 1073 NONAME ABSENT ; void HbAbstractViewItem::updatePrimitives(void)
	??0HbAbstractButton@@QAE@PAVQGraphicsItem@@@Z @ 1074 NONAME ; HbAbstractButton::HbAbstractButton(class QGraphicsItem *)
	??0HbFrameBackground@@QAE@ABV0@@Z @ 1075 NONAME ; HbFrameBackground::HbFrameBackground(class HbFrameBackground const &)
	?rawSpecialCharacterData@HbKeyMapData@@MBEPBVQChar@@V?$QFlags@W4HbKeyboardTypeFlag@@@@AAH@Z @ 1076 NONAME ABSENT ; class QChar const * HbKeyMapData::rawSpecialCharacterData(class QFlags<enum HbKeyboardTypeFlag>, int &) const
	?cancel@HbEffect@@SA_NPAVQGraphicsItem@@ABVQString@@_N2@Z @ 1077 NONAME ABSENT ; bool HbEffect::cancel(class QGraphicsItem *, class QString const &, bool, bool)
	?setCustomPluginName@HbInputSettingProxy@@QAEXABVQString@@@Z @ 1078 NONAME ABSENT ; void HbInputSettingProxy::setCustomPluginName(class QString const &)
	?indexOfView@HbMainWindow@@QBEHPAVHbView@@@Z @ 1079 NONAME ABSENT ; int HbMainWindow::indexOfView(class HbView *) const
	??_EHbFocusObjectGraphicsWidget@@UAE@I@Z @ 1080 NONAME ABSENT ; HbFocusObjectGraphicsWidget::~HbFocusObjectGraphicsWidget(unsigned int)
	?wordAt@HbExtraUserDictionary@@QBE?AVQString@@H@Z @ 1081 NONAME ; class QString HbExtraUserDictionary::wordAt(int) const
	?listenerDisabled@HbInteractionListener@@IAEXXZ @ 1082 NONAME ABSENT ; void HbInteractionListener::listenerDisabled(void)
	??1HbPredictionBase@@UAE@XZ @ 1083 NONAME ; HbPredictionBase::~HbPredictionBase(void)
	?detach@HbString@@AAEXH@Z @ 1084 NONAME ; void HbString::detach(int)
	??_EHbPopupBasePrivate@@UAE@I@Z @ 1085 NONAME ABSENT ; HbPopupBasePrivate::~HbPopupBasePrivate(unsigned int)
	?getStaticMetaObject@HbIndicatorInterface@@SAABUQMetaObject@@XZ @ 1086 NONAME ; struct QMetaObject const & HbIndicatorInterface::getStaticMetaObject(void)
	?changeEvent@HbPopup@@MAEXPAVQEvent@@@Z @ 1087 NONAME ABSENT ; void HbPopup::changeEvent(class QEvent *)
	?setIcon@HbIconItem@@QAEXABVHbIcon@@@Z @ 1088 NONAME ABSENT ; void HbIconItem::setIcon(class HbIcon const &)
	?model@HbAbstractItemView@@QBEPAVQAbstractItemModel@@XZ @ 1089 NONAME ABSENT ; class QAbstractItemModel * HbAbstractItemView::model(void) const
	?prototype@HbAbstractViewItem@@QBEPAV1@XZ @ 1090 NONAME ABSENT ; class HbAbstractViewItem * HbAbstractViewItem::prototype(void) const
	?setVerticalScrollBarPolicy@HbScrollArea@@QAEXW4ScrollBarPolicy@1@@Z @ 1091 NONAME ; void HbScrollArea::setVerticalScrollBarPolicy(enum HbScrollArea::ScrollBarPolicy)
	?instance@HbInputStateMachinePrcChinese@@SAPAV1@XZ @ 1092 NONAME ABSENT ; class HbInputStateMachinePrcChinese * HbInputStateMachinePrcChinese::instance(void)
	?parameter@HbStyleParameters@@QAE?AVQString@@H@Z @ 1093 NONAME ; class QString HbStyleParameters::parameter(int)
	?getStaticMetaObject@HbMenu@@SAABUQMetaObject@@XZ @ 1094 NONAME ; struct QMetaObject const & HbMenu::getStaticMetaObject(void)
	??1StyleRule@HbCss@@QAE@XZ @ 1095 NONAME ; HbCss::StyleRule::~StyleRule(void)
	?qt_metacall@HbToolBarExtension@@UAEHW4Call@QMetaObject@@HPAPAX@Z @ 1096 NONAME ; int HbToolBarExtension::qt_metacall(enum QMetaObject::Call, int, void * *)
	??4HbIconAnimationDefinition@@QAEAAV0@ABV0@@Z @ 1097 NONAME ; class HbIconAnimationDefinition & HbIconAnimationDefinition::operator=(class HbIconAnimationDefinition const &)
	?isDown@HbAbstractButton@@QBE_NXZ @ 1098 NONAME ; bool HbAbstractButton::isDown(void) const
	?qt_metacast@HbIconAnimator@@UAEPAXPBD@Z @ 1099 NONAME ; void * HbIconAnimator::qt_metacast(char const *)
	?nextState@HbInputStateMachinePrcChineseFinger@@UAE_NABVHbInputState@@AAV2@W4HbInputStateModifier@@@Z @ 1100 NONAME ABSENT ; bool HbInputStateMachinePrcChineseFinger::nextState(class HbInputState const &, class HbInputState &, enum HbInputStateModifier)
	?longPress@HbGesture@@IAEXVQPointF@@@Z @ 1101 NONAME ABSENT ; void HbGesture::longPress(class QPointF)
	?findC@HbStringUtil@@SAHABVQString@@0H@Z @ 1102 NONAME ; int HbStringUtil::findC(class QString const &, class QString const &, int)
	?_q_hideScrollBars@HbScrollAreaPrivate@@QAEXXZ @ 1103 NONAME ; void HbScrollAreaPrivate::_q_hideScrollBars(void)
	?aboutToChangeOrientation@HbMainWindow@@IAEXXZ @ 1104 NONAME ; void HbMainWindow::aboutToChangeOrientation(void)
	?trUtf8@HbIconAnimator@@SA?AVQString@@PBD0@Z @ 1105 NONAME ; class QString HbIconAnimator::trUtf8(char const *, char const *)
	?tr@HbAbstractViewItem@@SA?AVQString@@PBD0@Z @ 1106 NONAME ABSENT ; class QString HbAbstractViewItem::tr(char const *, char const *)
	?setGlobalDigitType@HbInputSettingProxy@@QAEXW4HbInputDigitType@@@Z @ 1107 NONAME ; void HbInputSettingProxy::setGlobalDigitType(enum HbInputDigitType)
	??_EHbXmlLoaderAbstractActions@@UAE@I@Z @ 1108 NONAME ; HbXmlLoaderAbstractActions::~HbXmlLoaderAbstractActions(unsigned int)
	?insertWidget@HbStackedWidget@@QAEHHPAVQGraphicsWidget@@@Z @ 1109 NONAME ; int HbStackedWidget::insertWidget(int, class QGraphicsWidget *)
	??0HbFontProvider@@QAE@PAVQObject@@@Z @ 1110 NONAME ABSENT ; HbFontProvider::HbFontProvider(class QObject *)
	?startAnimation@HbIconAnimator@@QAEXXZ @ 1111 NONAME ; void HbIconAnimator::startAnimation(void)
	?metaObject@HbToolButton@@UBEPBUQMetaObject@@XZ @ 1112 NONAME ; struct QMetaObject const * HbToolButton::metaObject(void) const
	?disable@HbInteractionListener@@UAEXXZ @ 1113 NONAME ABSENT ; void HbInteractionListener::disable(void)
	?d_func@HbInputStateMachineFactory@@ABEPBVHbInputStateMachineFactoryPrivate@@XZ @ 1114 NONAME ABSENT ; class HbInputStateMachineFactoryPrivate const * HbInputStateMachineFactory::d_func(void) const
	?addPlugin@HbInteractionPluginGroup@@QAEXPAVHbInteractionPlugin@@@Z @ 1115 NONAME ABSENT ; void HbInteractionPluginGroup::addPlugin(class HbInteractionPlugin *)
	?setAttribute@HbWidget@@QAEXW4WidgetAttribute@Qt@@_N@Z @ 1116 NONAME ABSENT ; void HbWidget::setAttribute(enum Qt::WidgetAttribute, bool)
	?qt_metacast@HbTreeViewItem@@UAEPAXPBD@Z @ 1117 NONAME ABSENT ; void * HbTreeViewItem::qt_metacast(char const *)
	?updateScrollBarForVariableSizedItems@HbAbstractItemViewPrivate@@QAEXXZ @ 1118 NONAME ABSENT ; void HbAbstractItemViewPrivate::updateScrollBarForVariableSizedItems(void)
	?updateScrollBar@HbAbstractItemViewPrivate@@UAEXW4Orientation@Qt@@@Z @ 1119 NONAME ABSENT ; void HbAbstractItemViewPrivate::updateScrollBar(enum Qt::Orientation)
	?checkingPattern@HbNgNormalNumber@@CA?AV?$QList@H@@AAVQString@@@Z @ 1120 NONAME ABSENT ; class QList<int> HbNgNormalNumber::checkingPattern(class QString &)
	?timeStyle@HbExtendedLocale@@QBE?AW4TimeStyle@1@XZ @ 1121 NONAME ; enum HbExtendedLocale::TimeStyle HbExtendedLocale::timeStyle(void) const
	?setAnchor@HbAnchorLayout@@QAEXPAVQGraphicsLayoutItem@@W4Edge@Hb@@01M@Z @ 1122 NONAME ABSENT ; void HbAnchorLayout::setAnchor(class QGraphicsLayoutItem *, enum Hb::Edge, class QGraphicsLayoutItem *, enum Hb::Edge, float)
	??1HbLayoutDirectionNotifier@@EAE@XZ @ 1123 NONAME ; HbLayoutDirectionNotifier::~HbLayoutDirectionNotifier(void)
	?qt_metacast@HbStyle@@UAEPAXPBD@Z @ 1124 NONAME ; void * HbStyle::qt_metacast(char const *)
	?staticMetaObject@HbListViewItem@@2UQMetaObject@@B @ 1125 NONAME ABSENT ; struct QMetaObject const HbListViewItem::staticMetaObject
	?updateGeometry@HbListItemStandardLayout@@UAEXXZ @ 1126 NONAME ABSENT ; void HbListItemStandardLayout::updateGeometry(void)
	?tooltip@HbInputCustomButton@@QBE?AVQString@@XZ @ 1127 NONAME ABSENT ; class QString HbInputCustomButton::tooltip(void) const
	?setItemPrototype@HbAbstractItemContainer@@QAE_NPAVHbAbstractViewItem@@@Z @ 1128 NONAME ABSENT ; bool HbAbstractItemContainer::setItemPrototype(class HbAbstractViewItem *)
	?isFeatureEnabled@HbInteractionPluginGroup@@QAE_NVQString@@@Z @ 1129 NONAME ABSENT ; bool HbInteractionPluginGroup::isFeatureEnabled(class QString)
	??0HbSliderTickmarksItemLabel@@QAE@PAVQGraphicsItem@@@Z @ 1130 NONAME ABSENT ; HbSliderTickmarksItemLabel::HbSliderTickmarksItemLabel(class QGraphicsItem *)
	?isTypeOf@HbAbstractItem@@UBE_NH@Z @ 1131 NONAME ABSENT ; bool HbAbstractItem::isTypeOf(int) const
	?startsWith@HbString@@QBE_NABUQLatin1Char@@W4CaseSensitivity@Qt@@@Z @ 1132 NONAME ; bool HbString::startsWith(struct QLatin1Char const &, enum Qt::CaseSensitivity) const
	?allowPermanentToBeOverridden@HbInputMethod@@UBE_NABVHbInputMode@@@Z @ 1133 NONAME ABSENT ; bool HbInputMethod::allowPermanentToBeOverridden(class HbInputMode const &) const
	?physicalSize@HbDeviceProfile@@QBE?AVQSizeF@@XZ @ 1134 NONAME ; class QSizeF HbDeviceProfile::physicalSize(void) const
	?tr@HbVkbHost@@SA?AVQString@@PBD0H@Z @ 1135 NONAME ; class QString HbVkbHost::tr(char const *, char const *, int)
	?trUtf8@HbListWidget@@SA?AVQString@@PBD0@Z @ 1136 NONAME ABSENT ; class QString HbListWidget::trUtf8(char const *, char const *)
	?isQwertyKeyboard@HbInputUtils@@SA_NV?$QFlags@W4HbKeyboardTypeFlag@@@@@Z @ 1137 NONAME ; bool HbInputUtils::isQwertyKeyboard(class QFlags<enum HbKeyboardTypeFlag>)
	?dataForKey@HbKeyMapData@@UBEPBVQChar@@V?$QFlags@W4HbKeyboardTypeFlag@@@@AAHHV?$QFlags@W4HbModifier@@@@@Z @ 1138 NONAME ABSENT ; class QChar const * HbKeyMapData::dataForKey(class QFlags<enum HbKeyboardTypeFlag>, int &, int, class QFlags<enum HbModifier>) const
	?alloc@HbMultiSegmentAlgo@@QAEHH@Z @ 1139 NONAME ABSENT ; int HbMultiSegmentAlgo::alloc(int)
	?getStaticMetaObject@HbStyle@@SAABUQMetaObject@@XZ @ 1140 NONAME ; struct QMetaObject const & HbStyle::getStaticMetaObject(void)
	??0HbTreeViewItem@@IAE@AAVHbTreeViewItemPrivate@@PAVQGraphicsItem@@@Z @ 1141 NONAME ABSENT ; HbTreeViewItem::HbTreeViewItem(class HbTreeViewItemPrivate &, class QGraphicsItem *)
	??0HbAction@@QAE@ABVHbIcon@@ABVQString@@PAVQObject@@@Z @ 1142 NONAME ; HbAction::HbAction(class HbIcon const &, class QString const &, class QObject *)
	?staticMetaObject@HbPopup@@2UQMetaObject@@B @ 1143 NONAME ; struct QMetaObject const HbPopup::staticMetaObject
	?keyRepeated@HbInteractionListener@@MAEXPBVQObject@@@Z @ 1144 NONAME ABSENT ; void HbInteractionListener::keyRepeated(class QObject const *)
	??0HbApplication@@QAE@AAHQAPAD@Z @ 1145 NONAME ABSENT ; HbApplication::HbApplication(int &, char * * const)
	?trUtf8@HbListView@@SA?AVQString@@PBD0@Z @ 1146 NONAME ABSENT ; class QString HbListView::trUtf8(char const *, char const *)
	?cursorPositionChanged@HbEditorInterface@@IAEXXZ @ 1147 NONAME ABSENT ; void HbEditorInterface::cursorPositionChanged(void)
	?tr@HbInputFilter@@SA?AVQString@@PBD0H@Z @ 1148 NONAME ; class QString HbInputFilter::tr(char const *, char const *, int)
	?d_func@HbInputCustomButton@@ABEPBVHbInputCustomButtonPrivate@@XZ @ 1149 NONAME ABSENT ; class HbInputCustomButtonPrivate const * HbInputCustomButton::d_func(void) const
	?event@HbMenu@@MAE_NPAVQEvent@@@Z @ 1150 NONAME ; bool HbMenu::event(class QEvent *)
	?event@HbAbstractItemContainer@@MAE_NPAVQEvent@@@Z @ 1151 NONAME ABSENT ; bool HbAbstractItemContainer::event(class QEvent *)
	?setGeometry@HbLabel@@UAEXABVQRectF@@@Z @ 1152 NONAME ABSENT ; void HbLabel::setGeometry(class QRectF const &)
	?qt_metacast@HbExtraDictionaryFactory@@UAEPAXPBD@Z @ 1153 NONAME ; void * HbExtraDictionaryFactory::qt_metacast(char const *)
	?tr@HbExtraDictionaryFactory@@SA?AVQString@@PBD0H@Z @ 1154 NONAME ; class QString HbExtraDictionaryFactory::tr(char const *, char const *, int)
	?setIconFile@HbInputCustomButton@@QAEXABVQString@@@Z @ 1155 NONAME ABSENT ; void HbInputCustomButton::setIconFile(class QString const &)
	?parseNextSelector@Parser@HbCss@@QAE_NPAUSelector@2@@Z @ 1156 NONAME ; bool HbCss::Parser::parseNextSelector(struct HbCss::Selector *)
	??1HbViewPrivate@@UAE@XZ @ 1157 NONAME ; HbViewPrivate::~HbViewPrivate(void)
	?textPaneHeight@HbFontSpec@@QBEMXZ @ 1158 NONAME ABSENT ; float HbFontSpec::textPaneHeight(void) const
	?commandRole@HbAction@@QBE?AW4CommandRole@1@XZ @ 1159 NONAME ; enum HbAction::CommandRole HbAction::commandRole(void) const
	?staticMetaObject@HbToolButton@@2UQMetaObject@@B @ 1160 NONAME ; struct QMetaObject const HbToolButton::staticMetaObject
	?addMenu@HbMenu@@QAEPAV1@ABVQString@@@Z @ 1161 NONAME ; class HbMenu * HbMenu::addMenu(class QString const &)
	?setTextColor@HbTextItem@@QAEXABVQColor@@@Z @ 1162 NONAME ; void HbTextItem::setTextColor(class QColor const &)
	?q_func@HbListWidgetViewItemPrivate@@ABEPBVHbListWidgetViewItem@@XZ @ 1163 NONAME ABSENT ; class HbListWidgetViewItem const * HbListWidgetViewItemPrivate::q_func(void) const
	?amPmSpace@HbExtendedLocale@@QBE_NXZ @ 1164 NONAME ; bool HbExtendedLocale::amPmSpace(void) const
	?headingWidget@HbPopup@@QBEPAVQGraphicsWidget@@XZ @ 1165 NONAME ABSENT ; class QGraphicsWidget * HbPopup::headingWidget(void) const
	??1HbScrollAreaPrivate@@UAE@XZ @ 1166 NONAME ; HbScrollAreaPrivate::~HbScrollAreaPrivate(void)
	??_EHbPredictionEngine@@UAE@I@Z @ 1167 NONAME ; HbPredictionEngine::~HbPredictionEngine(unsigned int)
	?processClientRequest@HbIndicatorInterface@@QAEXW4RequestType@1@ABVQVariant@@@Z @ 1168 NONAME ; void HbIndicatorInterface::processClientRequest(enum HbIndicatorInterface::RequestType, class QVariant const &)
	?columnsAboutToBeInserted@HbAbstractItemView@@MAEXABVQModelIndex@@HH@Z @ 1169 NONAME ABSENT ; void HbAbstractItemView::columnsAboutToBeInserted(class QModelIndex const &, int, int)
	?contains@HbString@@QBE_NABVQChar@@@Z @ 1170 NONAME ; bool HbString::contains(class QChar const &) const
	?setHost@HbFocusObjectGraphicsWidget@@UAEXPAVHbInputMethod@@@Z @ 1171 NONAME ABSENT ; void HbFocusObjectGraphicsWidget::setHost(class HbInputMethod *)
	?qt_metacast@HbAction@@UAEPAXPBD@Z @ 1172 NONAME ; void * HbAction::qt_metacast(char const *)
	?setDismissPolicy@HbPopupBase@@QAEXW4DismissPolicy@1@@Z @ 1173 NONAME ABSENT ; void HbPopupBase::setDismissPolicy(enum HbPopupBase::DismissPolicy)
	?staticMetaObject@HbInputSettingProxy@@2UQMetaObject@@B @ 1174 NONAME ; struct QMetaObject const HbInputSettingProxy::staticMetaObject
	?rowCount@HbListModel@@UBEHABVQModelIndex@@@Z @ 1175 NONAME ABSENT ; int HbListModel::rowCount(class QModelIndex const &) const
	?q_func@HbListViewItemPrivate@@ABEPBVHbListViewItem@@XZ @ 1176 NONAME ABSENT ; class HbListViewItem const * HbListViewItemPrivate::q_func(void) const
	?orientationContextSwitchInProgress@HbInputMethod@@IAE_NXZ @ 1177 NONAME ABSENT ; bool HbInputMethod::orientationContextSwitchInProgress(void)
	?mousePressEvent@HbTreeViewItem@@MAEXPAVQGraphicsSceneMouseEvent@@@Z @ 1178 NONAME ABSENT ; void HbTreeViewItem::mousePressEvent(class QGraphicsSceneMouseEvent *)
	?firstState@HbInputStateMachineLatinFinger@@UBEXAAVHbInputState@@@Z @ 1179 NONAME ABSENT ; void HbInputStateMachineLatinFinger::firstState(class HbInputState &) const
	??0HbListView@@IAE@AAVHbListViewPrivate@@PAVHbAbstractItemContainer@@PAVQGraphicsItem@@@Z @ 1180 NONAME ABSENT ; HbListView::HbListView(class HbListViewPrivate &, class HbAbstractItemContainer *, class QGraphicsItem *)
	?closeEvent@HbMainWindow@@MAEXPAVQCloseEvent@@@Z @ 1181 NONAME ; void HbMainWindow::closeEvent(class QCloseEvent *)
	?sizeHint@HbListItemStandardLayout@@MBE?AVQSizeF@@W4SizeHint@Qt@@ABV2@@Z @ 1182 NONAME ABSENT ; class QSizeF HbListItemStandardLayout::sizeHint(enum Qt::SizeHint, class QSizeF const &) const
	?setIcon@HbLabel@@QAEXABVHbIcon@@@Z @ 1183 NONAME ABSENT ; void HbLabel::setIcon(class HbIcon const &)
	?toolBarExtension@HbAction@@QBEPAVHbToolBarExtension@@XZ @ 1184 NONAME ; class HbToolBarExtension * HbAction::toolBarExtension(void) const
	?isNull@HbFrameDrawer@@QBE_NXZ @ 1185 NONAME ; bool HbFrameDrawer::isNull(void) const
	??1HbStyleOptionColorGridViewItem@@QAE@XZ @ 1186 NONAME ABSENT ; HbStyleOptionColorGridViewItem::~HbStyleOptionColorGridViewItem(void)
	?mouseReleaseEvent@HbScrollAreaPrivate@@QAEXPAVQGraphicsSceneMouseEvent@@@Z @ 1187 NONAME ABSENT ; void HbScrollAreaPrivate::mouseReleaseEvent(class QGraphicsSceneMouseEvent *)
	?globalDigitType@HbInputSettingProxy@@QBE?AW4HbInputDigitType@@XZ @ 1188 NONAME ; enum HbInputDigitType HbInputSettingProxy::globalDigitType(void) const
	?findByButtonCode@HbInputCustomButtonBank@@QAEPAVHbInputCustomButton@@H@Z @ 1189 NONAME ABSENT ; class HbInputCustomButton * HbInputCustomButtonBank::findByButtonCode(int)
	?paint@HbSignalIndicator@@UAEXPAVQPainter@@PBVQStyleOptionGraphicsItem@@PAVQWidget@@@Z @ 1190 NONAME ABSENT ; void HbSignalIndicator::paint(class QPainter *, class QStyleOptionGraphicsItem const *, class QWidget *)
	?primitive@HbToolButton@@UBEPAVQGraphicsItem@@W4Primitive@HbStyle@@@Z @ 1191 NONAME ABSENT ; class QGraphicsItem * HbToolButton::primitive(enum HbStyle::Primitive) const
	?trUtf8@HbInteractionManager@@SA?AVQString@@PBD0@Z @ 1192 NONAME ABSENT ; class QString HbInteractionManager::trUtf8(char const *, char const *)
	?setFrameType@HbFrameDrawer@@QAEXW4FrameType@1@@Z @ 1193 NONAME ; void HbFrameDrawer::setFrameType(enum HbFrameDrawer::FrameType)
	??0HbTextItem@@QAE@PAVQGraphicsItem@@@Z @ 1194 NONAME ; HbTextItem::HbTextItem(class QGraphicsItem *)
	?hideText@HbToolTip@@SAXPAVHbGraphicsScene@@@Z @ 1195 NONAME ; void HbToolTip::hideText(class HbGraphicsScene *)
	?metaObject@HbStyle@@UBEPBUQMetaObject@@XZ @ 1196 NONAME ; struct QMetaObject const * HbStyle::metaObject(void) const
	?setFrameList@HbIconAnimationDefinition@@QAEXABV?$QList@UAnimationFrame@HbIconAnimationDefinition@@@@@Z @ 1197 NONAME ; void HbIconAnimationDefinition::setFrameList(class QList<struct HbIconAnimationDefinition::AnimationFrame> const &)
	??4HbWidgetParams@@QAEAAV0@AAV0@@Z @ 1198 NONAME ABSENT ; class HbWidgetParams & HbWidgetParams::operator=(class HbWidgetParams &)
	?metaObject@HbInteractionManager@@UBEPBUQMetaObject@@XZ @ 1199 NONAME ABSENT ; struct QMetaObject const * HbInteractionManager::metaObject(void) const
	?font@HbFontSpec@@QBE?AVQFont@@XZ @ 1200 NONAME ; class QFont HbFontSpec::font(void) const
	?d_func@HbListWidgetViewItem@@ABEPBVHbListWidgetViewItemPrivate@@XZ @ 1201 NONAME ABSENT ; class HbListWidgetViewItemPrivate const * HbListWidgetViewItem::d_func(void) const
	??0HbFrameBackground@@QAE@XZ @ 1202 NONAME ; HbFrameBackground::HbFrameBackground(void)
	?isTypeOf@HbFrameItem@@UBE_NH@Z @ 1203 NONAME ABSENT ; bool HbFrameItem::isTypeOf(int) const
	?indicatorType@HbIndicatorInterface@@QBE?AVQString@@XZ @ 1204 NONAME ; class QString HbIndicatorInterface::indicatorType(void) const
	??1HbInteractionPluginGroup@@UAE@XZ @ 1205 NONAME ABSENT ; HbInteractionPluginGroup::~HbInteractionPluginGroup(void)
	?trUtf8@HbItemHighlight@@SA?AVQString@@PBD0H@Z @ 1206 NONAME ABSENT ; class QString HbItemHighlight::trUtf8(char const *, char const *, int)
	?d_func@HbDecorator@@ABEPBVHbDecoratorPrivate@@XZ @ 1207 NONAME ABSENT ; class HbDecoratorPrivate const * HbDecorator::d_func(void) const
	?tr@HbTreeViewItem@@SA?AVQString@@PBD0H@Z @ 1208 NONAME ABSENT ; class QString HbTreeViewItem::tr(char const *, char const *, int)
	??1HbStyleOptionIndicatorGroup@@QAE@XZ @ 1209 NONAME ; HbStyleOptionIndicatorGroup::~HbStyleOptionIndicatorGroup(void)
	?disableFeature@HbInteractionPluginGroup@@QAE_NVQString@@@Z @ 1210 NONAME ABSENT ; bool HbInteractionPluginGroup::disableFeature(class QString)
	?qt_metacast@HbInputCustomButtonBank@@UAEPAXPBD@Z @ 1211 NONAME ABSENT ; void * HbInputCustomButtonBank::qt_metacast(char const *)
	?findVkbHost@HbFocusObjectGraphicsWidget@@UBEPAVHbVkbHost@@XZ @ 1212 NONAME ABSENT ; class HbVkbHost * HbFocusObjectGraphicsWidget::findVkbHost(void) const
	??1HbExtraDictionaryCollection@@QAE@XZ @ 1213 NONAME ; HbExtraDictionaryCollection::~HbExtraDictionaryCollection(void)
	?triggered@HbInteractionManager@@QAEXPBVQObject@@W4Interaction@Ia@@@Z @ 1214 NONAME ABSENT ; void HbInteractionManager::triggered(class QObject const *, enum Ia::Interaction)
	??0HbGraphicsPixmapItem@@QAE@ABVQString@@PAVQGraphicsItem@@@Z @ 1215 NONAME ABSENT ; HbGraphicsPixmapItem::HbGraphicsPixmapItem(class QString const &, class QGraphicsItem *)
	?viewCount@HbMainWindow@@QBEHXZ @ 1216 NONAME ABSENT ; int HbMainWindow::viewCount(void) const
	?initStyleOption@HbLabel@@IBEXPAVHbStyleOptionLabel@@@Z @ 1217 NONAME ABSENT ; void HbLabel::initStyleOption(class HbStyleOptionLabel *) const
	?add@HbEffectInternal@@SA_NPAVQGraphicsItem@@ABVQString@@1@Z @ 1218 NONAME ; bool HbEffectInternal::add(class QGraphicsItem *, class QString const &, class QString const &)
	?metaObject@HbStyleOld@@UBEPBUQMetaObject@@XZ @ 1219 NONAME ABSENT ; struct QMetaObject const * HbStyleOld::metaObject(void) const
	??1HbStyleOptionDataItem@@QAE@XZ @ 1220 NONAME ABSENT ; HbStyleOptionDataItem::~HbStyleOptionDataItem(void)
	?setCentered@HbPopupBasePrivate@@QAEX_N@Z @ 1221 NONAME ABSENT ; void HbPopupBasePrivate::setCentered(bool)
	?d_func@HbAbstractViewItem@@AAEPAVHbAbstractViewItemPrivate@@XZ @ 1222 NONAME ABSENT ; class HbAbstractViewItemPrivate * HbAbstractViewItem::d_func(void)
	??1HbStyleOptionTitlePane@@QAE@XZ @ 1223 NONAME ; HbStyleOptionTitlePane::~HbStyleOptionTitlePane(void)
	?color@HbLabel@@QBE?AVQColor@@XZ @ 1224 NONAME ABSENT ; class QColor HbLabel::color(void) const
	?metaObject@HbListModel@@UBEPBUQMetaObject@@XZ @ 1225 NONAME ABSENT ; struct QMetaObject const * HbListModel::metaObject(void) const
	??0HbStyleOptionPopup@@QAE@ABV0@@Z @ 1226 NONAME ; HbStyleOptionPopup::HbStyleOptionPopup(class HbStyleOptionPopup const &)
	?changeEvent@HbToolBar@@MAEXPAVQEvent@@@Z @ 1227 NONAME ; void HbToolBar::changeEvent(class QEvent *)
	??1HbHeapMemoryManager@@UAE@XZ @ 1228 NONAME ; HbHeapMemoryManager::~HbHeapMemoryManager(void)
	?type@HbGridViewItem@@UBEHXZ @ 1229 NONAME ABSENT ; int HbGridViewItem::type(void) const
	?getStaticMetaObject@HbToolBarExtension@@SAABUQMetaObject@@XZ @ 1230 NONAME ; struct QMetaObject const & HbToolBarExtension::getStaticMetaObject(void)
	?customTriggered@HbInteractionListener@@MAEXPBVQObject@@W4Interaction@Ia@@@Z @ 1231 NONAME ABSENT ; void HbInteractionListener::customTriggered(class QObject const *, enum Ia::Interaction)
	?title@HbView@@QBE?AVQString@@XZ @ 1232 NONAME ; class QString HbView::title(void) const
	?setItemPrototypes@HbAbstractItemView@@QAEXABV?$QList@PAVHbAbstractViewItem@@@@@Z @ 1233 NONAME ABSENT ; void HbAbstractItemView::setItemPrototypes(class QList<class HbAbstractViewItem *> const &)
	?getStaticMetaObject@HbNgNormalNumber@@SAABUQMetaObject@@XZ @ 1234 NONAME ABSENT ; struct QMetaObject const & HbNgNormalNumber::getStaticMetaObject(void)
	?trUtf8@HbGridView@@SA?AVQString@@PBD0H@Z @ 1235 NONAME ABSENT ; class QString HbGridView::trUtf8(char const *, char const *, int)
	??1HbInputSettingProxy@@EAE@XZ @ 1236 NONAME ; HbInputSettingProxy::~HbInputSettingProxy(void)
	?clearSelection@HbAbstractItemView@@UAEXXZ @ 1237 NONAME ABSENT ; void HbAbstractItemView::clearSelection(void)
	??1HbInputStateMachineTaiwanChineseFinger@@UAE@XZ @ 1238 NONAME ABSENT ; HbInputStateMachineTaiwanChineseFinger::~HbInputStateMachineTaiwanChineseFinger(void)
	?aboutToClose@HbPopupBase@@IAEXXZ @ 1239 NONAME ABSENT ; void HbPopupBase::aboutToClose(void)
	?staticMetaObject@HbStackedWidget@@2UQMetaObject@@B @ 1240 NONAME ; struct QMetaObject const HbStackedWidget::staticMetaObject
	?type@HbIconItem@@UBEHXZ @ 1241 NONAME ; int HbIconItem::type(void) const
	??8HbIcon@@QBE_NABV0@@Z @ 1242 NONAME ; bool HbIcon::operator==(class HbIcon const &) const
	?nextCheckState@HbToolButton@@MAEXXZ @ 1243 NONAME ; void HbToolButton::nextCheckState(void)
	?mouseReleaseEvent@HbAbstractViewItem@@MAEXPAVQGraphicsSceneMouseEvent@@@Z @ 1244 NONAME ABSENT ; void HbAbstractViewItem::mouseReleaseEvent(class QGraphicsSceneMouseEvent *)
	??0HbAnchor@@QAE@XZ @ 1245 NONAME ABSENT ; HbAnchor::HbAnchor(void)
	?keyPressEvent@HbAbstractItemView@@MAEXPAVQKeyEvent@@@Z @ 1246 NONAME ABSENT ; void HbAbstractItemView::keyPressEvent(class QKeyEvent *)
	?setRect@HbFrameDrawer@@IAEXABVQRectF@@@Z @ 1247 NONAME ; void HbFrameDrawer::setRect(class QRectF const &)
	?isNumericEditor@HbEditorInterface@@QBE_NXZ @ 1248 NONAME ; bool HbEditorInterface::isNumericEditor(void) const
	?type@HbWidget@@UBEHXZ @ 1249 NONAME ; int HbWidget::type(void) const
	?setToolBarExtension@HbAction@@QAEXPAVHbToolBarExtension@@@Z @ 1250 NONAME ; void HbAction::setToolBarExtension(class HbToolBarExtension *)
	??0ValueExtractor@HbCss@@QAE@ABV?$QVector@UDeclaration@HbCss@@@@_N@Z @ 1251 NONAME ABSENT ; HbCss::ValueExtractor::ValueExtractor(class QVector<struct HbCss::Declaration> const &, bool)
	?addAction@HbToolBarExtension@@QAEPAVHbAction@@ABVHbIcon@@ABVQString@@@Z @ 1252 NONAME ; class HbAction * HbToolBarExtension::addAction(class HbIcon const &, class QString const &)
	?attachHost@HbVkbHost@@SAXPAV1@PAVQObject@@@Z @ 1253 NONAME ; void HbVkbHost::attachHost(class HbVkbHost *, class QObject *)
	?listWidget@HbListWidgetViewItem@@QBEPAVHbListWidget@@XZ @ 1254 NONAME ABSENT ; class HbListWidget * HbListWidgetViewItem::listWidget(void) const
	?toString@HbVariant@@QBE?AVQString@@XZ @ 1255 NONAME ; class QString HbVariant::toString(void) const
	?d_func@HbMenu@@AAEPAVHbMenuPrivate@@XZ @ 1256 NONAME ; class HbMenuPrivate * HbMenu::d_func(void)
	??0HbInputStateMachineFactory@@AAE@XZ @ 1257 NONAME ABSENT ; HbInputStateMachineFactory::HbInputStateMachineFactory(void)
	?getStaticMetaObject@HbSignalIndicator@@SAABUQMetaObject@@XZ @ 1258 NONAME ; struct QMetaObject const & HbSignalIndicator::getStaticMetaObject(void)
	??1ImportRule@HbCss@@QAE@XZ @ 1259 NONAME ; HbCss::ImportRule::~ImportRule(void)
	?released@HbListWidget@@IAEXPAVHbListWidgetItem@@@Z @ 1260 NONAME ABSENT ; void HbListWidget::released(class HbListWidgetItem *)
	?activeTouchKeyboard@HbInputSettingProxy@@QBE?AV?$QFlags@W4HbKeyboardTypeFlag@@@@XZ @ 1261 NONAME ABSENT ; class QFlags<enum HbKeyboardTypeFlag> HbInputSettingProxy::activeTouchKeyboard(void) const
	?trUtf8@HbInputSettingProxy@@SA?AVQString@@PBD0@Z @ 1262 NONAME ; class QString HbInputSettingProxy::trUtf8(char const *, char const *)
	?trUtf8@HbAction@@SA?AVQString@@PBD0H@Z @ 1263 NONAME ; class QString HbAction::trUtf8(char const *, char const *, int)
	?tr@HbFocusObjectWidget@@SA?AVQString@@PBD0@Z @ 1264 NONAME ABSENT ; class QString HbFocusObjectWidget::tr(char const *, char const *)
	?setFeatureName@HbInteractionPlugin@@IAEXABVQString@@@Z @ 1265 NONAME ABSENT ; void HbInteractionPlugin::setFeatureName(class QString const &)
	?event@HbAbstractButton@@MAE_NPAVQEvent@@@Z @ 1266 NONAME ; bool HbAbstractButton::event(class QEvent *)
	?initStyleOption@HbSoftKey@@IBEXPAVHbStyleOptionSoftKey@@@Z @ 1267 NONAME ABSENT ; void HbSoftKey::initStyleOption(class HbStyleOptionSoftKey *) const
	?colorValues@Declaration@HbCss@@QBEXPAVQColor@@ABVQPalette@@@Z @ 1268 NONAME ABSENT ; void HbCss::Declaration::colorValues(class QColor *, class QPalette const &) const
	?tr@HbInputCustomButtonBank@@SA?AVQString@@PBD0H@Z @ 1269 NONAME ABSENT ; class QString HbInputCustomButtonBank::tr(char const *, char const *, int)
	?setGeometry@HbIconItem@@UAEXABVQRectF@@@Z @ 1270 NONAME ; void HbIconItem::setGeometry(class QRectF const &)
	?initStyleOption@HbWidget@@IBEXPAVHbStyleOption@@@Z @ 1271 NONAME ABSENT ; void HbWidget::initStyleOption(class HbStyleOption *) const
	?currentSelectionChanged@HbAbstractItemView@@MAEXABVQItemSelection@@0@Z @ 1272 NONAME ABSENT ; void HbAbstractItemView::currentSelectionChanged(class QItemSelection const &, class QItemSelection const &)
	??0HbAbstractViewItem@@QAE@PAVQGraphicsItem@@@Z @ 1273 NONAME ABSENT ; HbAbstractViewItem::HbAbstractViewItem(class QGraphicsItem *)
	?tr@HbIconAnimator@@SA?AVQString@@PBD0@Z @ 1274 NONAME ; class QString HbIconAnimator::tr(char const *, char const *)
	?getStaticMetaObject@HbInputContextProxy@@SAABUQMetaObject@@XZ @ 1275 NONAME ; struct QMetaObject const & HbInputContextProxy::getStaticMetaObject(void)
	?direction@HbGesture@@QBE?AW4Direction@1@XZ @ 1276 NONAME ABSENT ; enum HbGesture::Direction HbGesture::direction(void) const
	??1HbDeviceDialog@@UAE@XZ @ 1277 NONAME ; HbDeviceDialog::~HbDeviceDialog(void)
	??_EHbMenu@@UAE@I@Z @ 1278 NONAME ; HbMenu::~HbMenu(unsigned int)
	?removeDefinitionFile@HbIconAnimationManager@@QAEXABVQString@@@Z @ 1279 NONAME ; void HbIconAnimationManager::removeDefinitionFile(class QString const &)
	?trUtf8@HbScrollArea@@SA?AVQString@@PBD0@Z @ 1280 NONAME ; class QString HbScrollArea::trUtf8(char const *, char const *)
	?pointSize@HbFontSpec@@QBEHXZ @ 1281 NONAME ABSENT ; int HbFontSpec::pointSize(void) const
	??_EHbWidgetParams_PushButton@@UAE@I@Z @ 1282 NONAME ABSENT ; HbWidgetParams_PushButton::~HbWidgetParams_PushButton(unsigned int)
	?selectionModel@HbAbstractItemView@@QBEPAVQItemSelectionModel@@XZ @ 1283 NONAME ABSENT ; class QItemSelectionModel * HbAbstractItemView::selectionModel(void) const
	?qt_metacall@HbToolBar@@UAEHW4Call@QMetaObject@@HPAPAX@Z @ 1284 NONAME ; int HbToolBar::qt_metacall(enum QMetaObject::Call, int, void * *)
	?draggedOver@HbInteractionListener@@MAEXPBVQObject@@@Z @ 1285 NONAME ABSENT ; void HbInteractionListener::draggedOver(class QObject const *)
	?metaObject@HbNumberGrouping@@UBEPBUQMetaObject@@XZ @ 1286 NONAME ABSENT ; struct QMetaObject const * HbNumberGrouping::metaObject(void) const
	?resizeEvent@HbWidget@@MAEXPAVQGraphicsSceneResizeEvent@@@Z @ 1287 NONAME ; void HbWidget::resizeEvent(class QGraphicsSceneResizeEvent *)
	?index@HbListModel@@QBE?AVQModelIndex@@PAVHbListWidgetItem@@@Z @ 1288 NONAME ABSENT ; class QModelIndex HbListModel::index(class HbListWidgetItem *) const
	??0HbStyleOptionMessageBox@@QAE@ABV0@@Z @ 1289 NONAME ; HbStyleOptionMessageBox::HbStyleOptionMessageBox(class HbStyleOptionMessageBox const &)
	?setItemStateValue@HbAbstractItemContainer@@QAEXABVQModelIndex@@HVQVariant@@@Z @ 1290 NONAME ABSENT ; void HbAbstractItemContainer::setItemStateValue(class QModelIndex const &, int, class QVariant)
	?qt_metacall@HbFocusObjectGraphicsWidget@@UAEHW4Call@QMetaObject@@HPAPAX@Z @ 1291 NONAME ABSENT ; int HbFocusObjectGraphicsWidget::qt_metacall(enum QMetaObject::Call, int, void * *)
	??0HbExtraDictionaryCollection@@QAE@V?$QList@H@@@Z @ 1292 NONAME ; HbExtraDictionaryCollection::HbExtraDictionaryCollection(class QList<int>)
	?trUtf8@HbIconLoader@@SA?AVQString@@PBD0H@Z @ 1293 NONAME ; class QString HbIconLoader::trUtf8(char const *, char const *, int)
	?getColor@HbVariant@@ABE?AVQColor@@XZ @ 1294 NONAME ; class QColor HbVariant::getColor(void) const
	??0HbInputStateMachineLatin@@AAE@XZ @ 1295 NONAME ABSENT ; HbInputStateMachineLatin::HbInputStateMachineLatin(void)
	?setEditorClass@HbEditorInterface@@QAEXW4HbInputEditorClass@@@Z @ 1296 NONAME ; void HbEditorInterface::setEditorClass(enum HbInputEditorClass)
	?readTargetSection@HbXmlLoaderAbstractSyntax@@UAE_NXZ @ 1297 NONAME ABSENT ; bool HbXmlLoaderAbstractSyntax::readTargetSection(void)
	?setText@HbListWidget@@QAEXHABVQString@@@Z @ 1298 NONAME ABSENT ; void HbListWidget::setText(int, class QString const &)
	?keyReleaseEvent@HbMainWindow@@MAEXPAVQKeyEvent@@@Z @ 1299 NONAME ; void HbMainWindow::keyReleaseEvent(class QKeyEvent *)
	?instance@HbInputStateMachineHKChineseFinger@@SAPAV1@XZ @ 1300 NONAME ABSENT ; class HbInputStateMachineHKChineseFinger * HbInputStateMachineHKChineseFinger::instance(void)
	?deactivate@HbIndicatorInterface@@IAEXXZ @ 1301 NONAME ; void HbIndicatorInterface::deactivate(void)
	?contextSwitch@HbInputMethod@@AAEXPAV1@@Z @ 1302 NONAME ABSENT ; void HbInputMethod::contextSwitch(class HbInputMethod *)
	?isScrolling@HbScrollArea@@QBE_NXZ @ 1303 NONAME ; bool HbScrollArea::isScrolling(void) const
	?clear@HbInputModeCache@@QAEXXZ @ 1304 NONAME ABSENT ; void HbInputModeCache::clear(void)
	?scenePos@HbInputFocusObject@@UBE?AVQPointF@@XZ @ 1305 NONAME ABSENT ; class QPointF HbInputFocusObject::scenePos(void) const
	?qt_metacall@HbToolButton@@UAEHW4Call@QMetaObject@@HPAPAX@Z @ 1306 NONAME ; int HbToolButton::qt_metacall(enum QMetaObject::Call, int, void * *)
	?removeRows@HbListModel@@UAE_NHHABVQModelIndex@@@Z @ 1307 NONAME ABSENT ; bool HbListModel::removeRows(int, int, class QModelIndex const &)
	?sceneEventFilter@HbGestureSceneFilter@@UAE_NPAVQGraphicsItem@@PAVQEvent@@@Z @ 1308 NONAME ABSENT ; bool HbGestureSceneFilter::sceneEventFilter(class QGraphicsItem *, class QEvent *)
	?findObject@HbXmlLoaderAbstractActions@@QAEPAVQObject@@ABVQString@@@Z @ 1309 NONAME ABSENT ; class QObject * HbXmlLoaderAbstractActions::findObject(class QString const &)
	??0HbFontSpec@@QAE@W4Role@0@@Z @ 1310 NONAME ; HbFontSpec::HbFontSpec(enum HbFontSpec::Role)
	?trUtf8@HbPredictionFactory@@SA?AVQString@@PBD0@Z @ 1311 NONAME ; class QString HbPredictionFactory::trUtf8(char const *, char const *)
	?changeEvent@HbAbstractButton@@MAEXPAVQEvent@@@Z @ 1312 NONAME ; void HbAbstractButton::changeEvent(class QEvent *)
	?deleteItem@HbListViewItemPrivate@@QAEXPAVQGraphicsLayoutItem@@@Z @ 1313 NONAME ABSENT ; void HbListViewItemPrivate::deleteItem(class QGraphicsLayoutItem *)
	?widget@HbView@@QBEPAVQGraphicsWidget@@XZ @ 1314 NONAME ; class QGraphicsWidget * HbView::widget(void) const
	?load@HbStyleLoader@@SAHPAVQIODevice@@@Z @ 1315 NONAME ABSENT ; int HbStyleLoader::load(class QIODevice *)
	?getStaticMetaObject@HbItemHighlight@@SAABUQMetaObject@@XZ @ 1316 NONAME ABSENT ; struct QMetaObject const & HbItemHighlight::getStaticMetaObject(void)
	??1HbBatteryIndicator@@UAE@XZ @ 1317 NONAME ; HbBatteryIndicator::~HbBatteryIndicator(void)
	??1HbPopupPrivate@@UAE@XZ @ 1318 NONAME ; HbPopupPrivate::~HbPopupPrivate(void)
	?mousePressEvent@HbListView@@MAEXPAVQGraphicsSceneMouseEvent@@@Z @ 1319 NONAME ABSENT ; void HbListView::mousePressEvent(class QGraphicsSceneMouseEvent *)
	?filter@HbEmailAddressFilter@@UAE_NVQChar@@@Z @ 1320 NONAME ; bool HbEmailAddressFilter::filter(class QChar)
	?background@HbToolButton@@QBE?AVHbIcon@@XZ @ 1321 NONAME ; class HbIcon HbToolButton::background(void) const
	?color@HbColorScheme@@SA?AVQColor@@PBVQGraphicsWidget@@ABVQString@@H@Z @ 1322 NONAME ABSENT ; class QColor HbColorScheme::color(class QGraphicsWidget const *, class QString const &, int)
	?replaceScrollBar@HbScrollAreaPrivate@@QAEXW4Orientation@Qt@@PAVHbScrollBar@@@Z @ 1323 NONAME ; void HbScrollAreaPrivate::replaceScrollBar(enum Qt::Orientation, class HbScrollBar *)
	?isTextValid@HbGridViewItemPrivate@@QBE_NABVQVariant@@@Z @ 1324 NONAME ABSENT ; bool HbGridViewItemPrivate::isTextValid(class QVariant const &) const
	??_EHbFrameItem@@UAE@I@Z @ 1325 NONAME ; HbFrameItem::~HbFrameItem(unsigned int)
	?nextState@HbInputStateMachineLatin@@UAE_NABVHbInputState@@AAV2@W4HbInputStateModifier@@@Z @ 1326 NONAME ABSENT ; bool HbInputStateMachineLatin::nextState(class HbInputState const &, class HbInputState &, enum HbInputStateModifier)
	??_EHbInputStateMachineTaiwanChineseFinger@@UAE@I@Z @ 1327 NONAME ABSENT ; HbInputStateMachineTaiwanChineseFinger::~HbInputStateMachineTaiwanChineseFinger(unsigned int)
	?minDistance@HbGesture@@QBEHXZ @ 1328 NONAME ABSENT ; int HbGesture::minDistance(void) const
	??_EHbVkbHost@@UAE@I@Z @ 1329 NONAME ; HbVkbHost::~HbVkbHost(unsigned int)
	?setFrameType@HbFrameBackground@@QAEXW4FrameType@HbFrameDrawer@@@Z @ 1330 NONAME ; void HbFrameBackground::setFrameType(enum HbFrameDrawer::FrameType)
	?setLayoutDirection@HbFrameDrawer@@QAEXW4LayoutDirection@Qt@@@Z @ 1331 NONAME ; void HbFrameDrawer::setLayoutDirection(enum Qt::LayoutDirection)
	?readGeneralEndItem@HbXmlLoaderAbstractSyntax@@UAE_NXZ @ 1332 NONAME ABSENT ; bool HbXmlLoaderAbstractSyntax::readGeneralEndItem(void)
	?qt_metacall@HbIndicatorInterface@@UAEHW4Call@QMetaObject@@HPAPAX@Z @ 1333 NONAME ; int HbIndicatorInterface::qt_metacall(enum QMetaObject::Call, int, void * *)
	??0HbView@@QAE@PAVQGraphicsItem@@@Z @ 1334 NONAME ; HbView::HbView(class QGraphicsItem *)
	??0HbInputStateMachinePrcChinese@@AAE@XZ @ 1335 NONAME ABSENT ; HbInputStateMachinePrcChinese::HbInputStateMachinePrcChinese(void)
	?alignRect@HbStackedLayout@@AAEXAAVQRectF@@ABV2@@Z @ 1336 NONAME ; void HbStackedLayout::alignRect(class QRectF &, class QRectF const &)
	??0HbStyleOptionGridViewItem@@QAE@ABV0@@Z @ 1337 NONAME ABSENT ; HbStyleOptionGridViewItem::HbStyleOptionGridViewItem(class HbStyleOptionGridViewItem const &)
	?eventFilter@HbGestureFilter@@EAE_NPAVQObject@@PAVQEvent@@@Z @ 1338 NONAME ABSENT ; bool HbGestureFilter::eventFilter(class QObject *, class QEvent *)
	??_EHbMemoryManager@@UAE@I@Z @ 1339 NONAME ; HbMemoryManager::~HbMemoryManager(unsigned int)
	?focusObject@HbInputMethod@@QBEPAVHbInputFocusObject@@XZ @ 1340 NONAME ; class HbInputFocusObject * HbInputMethod::focusObject(void) const
	?totalNumberOfButtons@HbInputCustomButtonComposition@@QBEHXZ @ 1341 NONAME ABSENT ; int HbInputCustomButtonComposition::totalNumberOfButtons(void) const
	?trUtf8@HbIconAnimator@@SA?AVQString@@PBD0H@Z @ 1342 NONAME ; class QString HbIconAnimator::trUtf8(char const *, char const *, int)
	?upGesture@HbScrollArea@@MAEXH@Z @ 1343 NONAME ; void HbScrollArea::upGesture(int)
	?microFocus@HbFocusObjectWidget@@UBE?AVQRectF@@XZ @ 1344 NONAME ABSENT ; class QRectF HbFocusObjectWidget::microFocus(void) const
	?duration@HbItemHighlight@@QBEHW4HighlightMode@1@@Z @ 1345 NONAME ABSENT ; int HbItemHighlight::duration(enum HbItemHighlight::HighlightMode) const
	?colorValue@Declaration@HbCss@@QBE?AVQColor@@ABVQPalette@@@Z @ 1346 NONAME ABSENT ; class QColor HbCss::Declaration::colorValue(class QPalette const &) const
	?indexOf@HbListItemStandardLayout@@QBEHPBVQGraphicsLayoutItem@@@Z @ 1347 NONAME ABSENT ; int HbListItemStandardLayout::indexOf(class QGraphicsLayoutItem const *) const
	?textVisible@HbGridView@@QBE_NXZ @ 1348 NONAME ABSENT ; bool HbGridView::textVisible(void) const
	?tr@HbLanguageDatabaseInterface@@SA?AVQString@@PBD0@Z @ 1349 NONAME ; class QString HbLanguageDatabaseInterface::tr(char const *, char const *)
	?minorTickLabels@HbSliderTickmarksItemLabel@@QBE?AVQStringList@@XZ @ 1350 NONAME ABSENT ; class QStringList HbSliderTickmarksItemLabel::minorTickLabels(void) const
	?tr@HbAbstractItemContainer@@SA?AVQString@@PBD0@Z @ 1351 NONAME ABSENT ; class QString HbAbstractItemContainer::tr(char const *, char const *)
	??1HbLanguageDatabaseInterface@@UAE@XZ @ 1352 NONAME ; HbLanguageDatabaseInterface::~HbLanguageDatabaseInterface(void)
	?adjustContent@HbScrollAreaPrivate@@QAEXXZ @ 1353 NONAME ; void HbScrollAreaPrivate::adjustContent(void)
	?keymapPluginPaths@HbInputSettingProxy@@SA?AVQStringList@@XZ @ 1354 NONAME ; class QStringList HbInputSettingProxy::keymapPluginPaths(void)
	?showText@HbToolTip@@SAXABVQString@@PAVQGraphicsItem@@ABVQRectF@@V?$QFlags@W4AlignmentFlag@Qt@@@@@Z @ 1355 NONAME ; void HbToolTip::showText(class QString const &, class QGraphicsItem *, class QRectF const &, class QFlags<enum Qt::AlignmentFlag>)
	?setOrientation@HbMainWindow@@QAEXW4Orientation@Qt@@@Z @ 1356 NONAME ABSENT ; void HbMainWindow::setOrientation(enum Qt::Orientation)
	??1HbAbstractButtonPrivate@@UAE@XZ @ 1357 NONAME ; HbAbstractButtonPrivate::~HbAbstractButtonPrivate(void)
	?activateInputModeSet@HbInputMethod@@IAE_NAAV?$QVector@VHbInputMode@@@@@Z @ 1358 NONAME ABSENT ; bool HbInputMethod::activateInputModeSet(class QVector<class HbInputMode> &)
	?setUnitsDistanceLong@HbExtendedLocale@@QAE_NW4MeasurementSystem@QLocale@@@Z @ 1359 NONAME ; bool HbExtendedLocale::setUnitsDistanceLong(enum QLocale::MeasurementSystem)
	?getStaticMetaObject@HbInputFocusObject@@SAABUQMetaObject@@XZ @ 1360 NONAME ; struct QMetaObject const & HbInputFocusObject::getStaticMetaObject(void)
	?restore@HbItemHighlight@@UAEXPAVQGraphicsWidget@@@Z @ 1361 NONAME ABSENT ; void HbItemHighlight::restore(class QGraphicsWidget *)
	?changeFinished@HbTheme@@IAEXXZ @ 1362 NONAME ; void HbTheme::changeFinished(void)
	?setModelIndexes@HbAbstractItemContainer@@QAEXABVQModelIndex@@@Z @ 1363 NONAME ABSENT ; void HbAbstractItemContainer::setModelIndexes(class QModelIndex const &)
	?qt_metacall@HbStyle@@UAEHW4Call@QMetaObject@@HPAPAX@Z @ 1364 NONAME ; int HbStyle::qt_metacall(enum QMetaObject::Call, int, void * *)
	??_EHbIconLoader@@UAE@I@Z @ 1365 NONAME ; HbIconLoader::~HbIconLoader(unsigned int)
	??0HbAbstractViewItem@@IAE@ABV0@@Z @ 1366 NONAME ABSENT ; HbAbstractViewItem::HbAbstractViewItem(class HbAbstractViewItem const &)
	?tr@HbListWidgetViewItem@@SA?AVQString@@PBD0@Z @ 1367 NONAME ABSENT ; class QString HbListWidgetViewItem::tr(char const *, char const *)
	?staticMetaObject@HbWidget@@2UQMetaObject@@B @ 1368 NONAME ; struct QMetaObject const HbWidget::staticMetaObject
	?alignmentValue@Declaration@HbCss@@QBE?AV?$QFlags@W4AlignmentFlag@Qt@@@@XZ @ 1369 NONAME ABSENT ; class QFlags<enum Qt::AlignmentFlag> HbCss::Declaration::alignmentValue(void) const
	?buildMasterModeList@HbInputModeCache@@QAEXPAVHbInputMethod@@@Z @ 1370 NONAME ABSENT ; void HbInputModeCache::buildMasterModeList(class HbInputMethod *)
	??1HbStyleOptionToolTip@@QAE@XZ @ 1371 NONAME ; HbStyleOptionToolTip::~HbStyleOptionToolTip(void)
	?defined@HbInputLanguage@@QBE_NXZ @ 1372 NONAME ; bool HbInputLanguage::defined(void) const
	?qt_metacast@HbGridView@@UAEPAXPBD@Z @ 1373 NONAME ABSENT ; void * HbGridView::qt_metacast(char const *)
	?layoutDirection@HbTextItem@@QBE?AW4LayoutDirection@Qt@@XZ @ 1374 NONAME ABSENT ; enum Qt::LayoutDirection HbTextItem::layoutDirection(void) const
	?timerEvent@HbScrollBar@@MAEXPAVQTimerEvent@@@Z @ 1375 NONAME ; void HbScrollBar::timerEvent(class QTimerEvent *)
	?viewResized@HbListItemContainer@@MAEXABVQSizeF@@@Z @ 1376 NONAME ABSENT ; void HbListItemContainer::viewResized(class QSizeF const &)
	?trUtf8@HbGraphicsPixmapItem@@SA?AVQString@@PBD0H@Z @ 1377 NONAME ABSENT ; class QString HbGraphicsPixmapItem::trUtf8(char const *, char const *, int)
	?asReals@ValueExtractor@HbCss@@AAEXABUDeclaration@2@PAM@Z @ 1378 NONAME ABSENT ; void HbCss::ValueExtractor::asReals(struct HbCss::Declaration const &, float *)
	?initializeFramework@HbInputMethod@@SA_NAAVQApplication@@@Z @ 1379 NONAME ; bool HbInputMethod::initializeFramework(class QApplication &)
	?metaObject@HbWidget@@UBEPBUQMetaObject@@XZ @ 1380 NONAME ; struct QMetaObject const * HbWidget::metaObject(void) const
	?d_func@HbAbstractItemView@@AAEPAVHbAbstractItemViewPrivate@@XZ @ 1381 NONAME ABSENT ; class HbAbstractItemViewPrivate * HbAbstractItemView::d_func(void)
	?indexPosition@HbAbstractItemView@@UBEHABVQModelIndex@@@Z @ 1382 NONAME ABSENT ; int HbAbstractItemView::indexPosition(class QModelIndex const &) const
	?addAction@HbToolBarExtension@@QAEPAVHbAction@@ABVHbIcon@@ABVQString@@PBVQObject@@PBD@Z @ 1383 NONAME ; class HbAction * HbToolBarExtension::addAction(class HbIcon const &, class QString const &, class QObject const *, char const *)
	?setToolBar@HbView@@QAEXPAVHbToolBar@@@Z @ 1384 NONAME ; void HbView::setToolBar(class HbToolBar *)
	?contiguousSelectionArea@HbAbstractViewItem@@UBE?AVQRectF@@XZ @ 1385 NONAME ABSENT ; class QRectF HbAbstractViewItem::contiguousSelectionArea(void) const
	?metaObject@HbInputFocusObject@@UBEPBUQMetaObject@@XZ @ 1386 NONAME ; struct QMetaObject const * HbInputFocusObject::metaObject(void) const
	?queryCheckedButton@HbAbstractButtonPrivate@@QBEPAVHbAbstractButton@@XZ @ 1387 NONAME ; class HbAbstractButton * HbAbstractButtonPrivate::queryCheckedButton(void) const
	?tr@HbListWidget@@SA?AVQString@@PBD0H@Z @ 1388 NONAME ABSENT ; class QString HbListWidget::tr(char const *, char const *, int)
	??1HbInputContextProxy@@UAE@XZ @ 1389 NONAME ; HbInputContextProxy::~HbInputContextProxy(void)
	?validate@HbInputStateMachine@@QAE_NXZ @ 1390 NONAME ABSENT ; bool HbInputStateMachine::validate(void)
	?currentViewIndex@HbMainWindow@@QBEHXZ @ 1391 NONAME ABSENT ; int HbMainWindow::currentViewIndex(void) const
	?paint@HbIcon@@QBEXPAVQPainter@@ABVQRectF@@W4AspectRatioMode@Qt@@V?$QFlags@W4AlignmentFlag@Qt@@@@W4Mode@QIcon@@W4State@8@@Z @ 1392 NONAME ; void HbIcon::paint(class QPainter *, class QRectF const &, enum Qt::AspectRatioMode, class QFlags<enum Qt::AlignmentFlag>, enum QIcon::Mode, enum QIcon::State) const
	?fileNameSuffixList@HbFrameDrawer@@QBE?AVQStringList@@XZ @ 1393 NONAME ; class QStringList HbFrameDrawer::fileNameSuffixList(void) const
	?d_func@HbLabel@@ABEPBVHbLabelPrivate@@XZ @ 1394 NONAME ABSENT ; class HbLabelPrivate const * HbLabel::d_func(void) const
	?userDictionary@HbPredictionBase@@UBEPAVHbUserDictionary@@XZ @ 1395 NONAME ; class HbUserDictionary * HbPredictionBase::userDictionary(void) const
	?metaObject@HbToolBarExtension@@UBEPBUQMetaObject@@XZ @ 1396 NONAME ; struct QMetaObject const * HbToolBarExtension::metaObject(void) const
	??0HbInteractionListener@@QAE@XZ @ 1397 NONAME ABSENT ; HbInteractionListener::HbInteractionListener(void)
	?qt_metacall@HbSignalIndicator@@UAEHW4Call@QMetaObject@@HPAPAX@Z @ 1398 NONAME ; int HbSignalIndicator::qt_metacall(enum QMetaObject::Call, int, void * *)
	?updateStyleOption@HbSliderTickmarksItemLabel@@QAEXPAVQStyleOption@@@Z @ 1399 NONAME ABSENT ; void HbSliderTickmarksItemLabel::updateStyleOption(class QStyleOption *)
	?SleepModeEnter@HbEvent@@2HB @ 1400 NONAME ; int const HbEvent::SleepModeEnter
	?vkbNumericTable@HbKeyMapData@@UBEPBUHbVirtualKey@@V?$QFlags@W4HbKeyboardTypeFlag@@@@AAH@Z @ 1401 NONAME ABSENT ; struct HbVirtualKey const * HbKeyMapData::vkbNumericTable(class QFlags<enum HbKeyboardTypeFlag>, int &) const
	?keyReleaseEvent@HbAbstractItemView@@MAEXPAVQKeyEvent@@@Z @ 1402 NONAME ABSENT ; void HbAbstractItemView::keyReleaseEvent(class QKeyEvent *)
	??1HbUrlFilter@@UAE@XZ @ 1403 NONAME ; HbUrlFilter::~HbUrlFilter(void)
	?d_func@HbAnchorLayout@@AAEPAVHbAnchorLayoutPrivate@@XZ @ 1404 NONAME ; class HbAnchorLayoutPrivate * HbAnchorLayout::d_func(void)
	?mousePressEvent@HbAbstractButton@@MAEXPAVQGraphicsSceneMouseEvent@@@Z @ 1405 NONAME ABSENT ; void HbAbstractButton::mousePressEvent(class QGraphicsSceneMouseEvent *)
	??0HbVariant@@QAE@ABV0@@Z @ 1406 NONAME ; HbVariant::HbVariant(class HbVariant const &)
	??0HbStyleOptionLabel@@QAE@ABV0@@Z @ 1407 NONAME ; HbStyleOptionLabel::HbStyleOptionLabel(class HbStyleOptionLabel const &)
	?trUtf8@HbIndicatorInterface@@SA?AVQString@@PBD0@Z @ 1408 NONAME ; class QString HbIndicatorInterface::trUtf8(char const *, char const *)
	?swiped@HbInteractionListener@@MAEXPBVQObject@@@Z @ 1409 NONAME ABSENT ; void HbInteractionListener::swiped(class QObject const *)
	?memoryConsumed@FreeBlocksList@@QAEHXZ @ 1410 NONAME ABSENT ; int FreeBlocksList::memoryConsumed(void)
	?trUtf8@HbBatteryIndicator@@SA?AVQString@@PBD0@Z @ 1411 NONAME ; class QString HbBatteryIndicator::trUtf8(char const *, char const *)
	?q_func@HbAbstractViewItemPrivate@@AAEPAVHbAbstractViewItem@@XZ @ 1412 NONAME ABSENT ; class HbAbstractViewItem * HbAbstractViewItemPrivate::q_func(void)
	?setLongPressEnabled@HbScrollArea@@QAEX_N@Z @ 1413 NONAME ; void HbScrollArea::setLongPressEnabled(bool)
	??0HbStyleOptionSlider@@QAE@ABV0@@Z @ 1414 NONAME ; HbStyleOptionSlider::HbStyleOptionSlider(class HbStyleOptionSlider const &)
	??1HbWidgetPrivate@@UAE@XZ @ 1415 NONAME ; HbWidgetPrivate::~HbWidgetPrivate(void)
	?mode@HbLabel@@QBE?AW4Mode@QIcon@@XZ @ 1416 NONAME ABSENT ; enum QIcon::Mode HbLabel::mode(void) const
	?addButton@HbInputCustomButtonBank@@QAEXPAVHbInputCustomButton@@@Z @ 1417 NONAME ABSENT ; void HbInputCustomButtonBank::addButton(class HbInputCustomButton *)
	?clear@HbExtraUserDictionary@@UAEXXZ @ 1418 NONAME ; void HbExtraUserDictionary::clear(void)
	?exec@HbPopup@@QAEPAVHbAction@@XZ @ 1419 NONAME ABSENT ; class HbAction * HbPopup::exec(void)
	?syncEditorInterface@HbFocusObjectGraphicsWidget@@UAEXXZ @ 1420 NONAME ABSENT ; void HbFocusObjectGraphicsWidget::syncEditorInterface(void)
	?removeItem@HbTreeLayout@@QAEXPAVQGraphicsLayoutItem@@@Z @ 1421 NONAME ABSENT ; void HbTreeLayout::removeItem(class QGraphicsLayoutItem *)
	?d_func@HbIndicator@@AAEPAVHbIndicatorPrivate@@XZ @ 1422 NONAME ; class HbIndicatorPrivate * HbIndicator::d_func(void)
	?qt_metacall@HbNumberGrouping@@UAEHW4Call@QMetaObject@@HPAPAX@Z @ 1423 NONAME ABSENT ; int HbNumberGrouping::qt_metacall(enum QMetaObject::Call, int, void * *)
	?setConstraints@HbEditorInterface@@QAEXH@Z @ 1424 NONAME ABSENT ; void HbEditorInterface::setConstraints(int)
	?iconVisible@HbGridView@@QBE_NXZ @ 1425 NONAME ABSENT ; bool HbGridView::iconVisible(void) const
	??1HbIndicator@@UAE@XZ @ 1426 NONAME ; HbIndicator::~HbIndicator(void)
	?completeLongPress@HbGestureSceneFilter@@AAEXXZ @ 1427 NONAME ABSENT ; void HbGestureSceneFilter::completeLongPress(void)
	?parsePseudo@Parser@HbCss@@QAE_NPAUPseudo@2@@Z @ 1428 NONAME ; bool HbCss::Parser::parsePseudo(struct HbCss::Pseudo *)
	?ThemeChanged@HbEvent@@2HB @ 1429 NONAME ; int const HbEvent::ThemeChanged
	?asReal@ValueExtractor@HbCss@@AAEMABUValue@2@@Z @ 1430 NONAME ABSENT ; float HbCss::ValueExtractor::asReal(struct HbCss::Value const &)
	?globalSecondaryInputLanguage@HbInputSettingProxy@@QBE?AVHbInputLanguage@@XZ @ 1431 NONAME ; class HbInputLanguage HbInputSettingProxy::globalSecondaryInputLanguage(void) const
	?currencyTriadsAllowed@HbExtendedLocale@@QAE_NXZ @ 1432 NONAME ABSENT ; bool HbExtendedLocale::currencyTriadsAllowed(void)
	??1HbSharedMemoryManager@@MAE@XZ @ 1433 NONAME ; HbSharedMemoryManager::~HbSharedMemoryManager(void)
	?removeButton@HbInputCustomButtonComposition@@QAEXPAVHbInputCustomButton@@@Z @ 1434 NONAME ABSENT ; void HbInputCustomButtonComposition::removeButton(class HbInputCustomButton *)
	??_EHbExtraDictionaryFactory@@UAE@I@Z @ 1435 NONAME ; HbExtraDictionaryFactory::~HbExtraDictionaryFactory(unsigned int)
	?qt_metacast@HbIndicatorInterface@@UAEPAXPBD@Z @ 1436 NONAME ; void * HbIndicatorInterface::qt_metacast(char const *)
	?qt_metacall@HbItemHighlight@@UAEHW4Call@QMetaObject@@HPAPAX@Z @ 1437 NONAME ABSENT ; int HbItemHighlight::qt_metacall(enum QMetaObject::Call, int, void * *)
	?state@HbLabel@@QBE?AW4State@QIcon@@XZ @ 1438 NONAME ABSENT ; enum QIcon::State HbLabel::state(void) const
	??0HbFontSpec@@QAE@XZ @ 1439 NONAME ; HbFontSpec::HbFontSpec(void)
	?event@HbAbstractItemView@@MAE_NPAVQEvent@@@Z @ 1440 NONAME ABSENT ; bool HbAbstractItemView::event(class QEvent *)
	?d_func@HbGraphicsPixmapItem@@AAEPAVHbGraphicsPixmapItemPrivate@@XZ @ 1441 NONAME ABSENT ; class HbGraphicsPixmapItemPrivate * HbGraphicsPixmapItem::d_func(void)
	??1HbFontProvider@@UAE@XZ @ 1442 NONAME ABSENT ; HbFontProvider::~HbFontProvider(void)
	?toolBarChanged@HbView@@IAEXXZ @ 1443 NONAME ; void HbView::toolBarChanged(void)
	?tr@HbMainWindow@@SA?AVQString@@PBD0@Z @ 1444 NONAME ; class QString HbMainWindow::tr(char const *, char const *)
	?eventFilter@HbAbstractItemContainer@@UAE_NPAVQObject@@PAVQEvent@@@Z @ 1445 NONAME ABSENT ; bool HbAbstractItemContainer::eventFilter(class QObject *, class QEvent *)
	??0HbLabel@@IAE@AAVHbLabelPrivate@@PAVQGraphicsItem@@@Z @ 1446 NONAME ABSENT ; HbLabel::HbLabel(class HbLabelPrivate &, class QGraphicsItem *)
	?instance@HbInputStateMachineLatinFinger@@SAPAV1@XZ @ 1447 NONAME ABSENT ; class HbInputStateMachineLatinFinger * HbInputStateMachineLatinFinger::instance(void)
	?isTypeOf@HbSliderTickmarksItemLabel@@UBE_NH@Z @ 1448 NONAME ABSENT ; bool HbSliderTickmarksItemLabel::isTypeOf(int) const
	?d_func@HbGridViewItem@@ABEPBVHbGridViewItemPrivate@@XZ @ 1449 NONAME ABSENT ; class HbGridViewItemPrivate const * HbGridViewItem::d_func(void) const
	??0HbStyleOptionNote@@QAE@XZ @ 1450 NONAME ABSENT ; HbStyleOptionNote::HbStyleOptionNote(void)
	??0HbGridViewItemPrivate@@QAE@PAVHbAbstractViewItem@@@Z @ 1451 NONAME ABSENT ; HbGridViewItemPrivate::HbGridViewItemPrivate(class HbAbstractViewItem *)
	?q_func@HbPopupBasePrivate@@ABEPBVHbPopupBase@@XZ @ 1452 NONAME ABSENT ; class HbPopupBase const * HbPopupBasePrivate::q_func(void) const
	?qt_metacast@HbPopupBase@@UAEPAXPBD@Z @ 1453 NONAME ABSENT ; void * HbPopupBase::qt_metacast(char const *)
	?trUtf8@HbStackedWidget@@SA?AVQString@@PBD0H@Z @ 1454 NONAME ; class QString HbStackedWidget::trUtf8(char const *, char const *, int)
	?tr@HbStyle@@SA?AVQString@@PBD0@Z @ 1455 NONAME ; class QString HbStyle::tr(char const *, char const *)
	?processContainer@HbXmlLoaderAbstractSyntax@@UAE_NXZ @ 1456 NONAME ABSENT ; bool HbXmlLoaderAbstractSyntax::processContainer(void)
	?initializeNewModel@HbAbstractItemViewPrivate@@QAEXXZ @ 1457 NONAME ABSENT ; void HbAbstractItemViewPrivate::initializeNewModel(void)
	?qt_metacall@HbGraphicsScene@@UAEHW4Call@QMetaObject@@HPAPAX@Z @ 1458 NONAME ; int HbGraphicsScene::qt_metacall(enum QMetaObject::Call, int, void * *)
	?setMenu@HbView@@QAEXPAVHbMenu@@@Z @ 1459 NONAME ; void HbView::setMenu(class HbMenu *)
	?indexOf@HbStackedLayout@@QBEHPAVQGraphicsLayoutItem@@@Z @ 1460 NONAME ; int HbStackedLayout::indexOf(class QGraphicsLayoutItem *) const
	?toggleState@HbLabel@@QAEXXZ @ 1461 NONAME ABSENT ; void HbLabel::toggleState(void)
	?setDateSeparator@HbExtendedLocale@@QAE_NVQChar@@H@Z @ 1462 NONAME ; bool HbExtendedLocale::setDateSeparator(class QChar, int)
	?readGeneralStartItem@HbXmlLoaderAbstractSyntax@@UAE_NXZ @ 1463 NONAME ABSENT ; bool HbXmlLoaderAbstractSyntax::readGeneralStartItem(void)
	?move@HbListView@@MAEXABVQModelIndex@@0@Z @ 1464 NONAME ABSENT ; void HbListView::move(class QModelIndex const &, class QModelIndex const &)
	?mouseMoveEvent@HbScrollBar@@MAEXPAVQGraphicsSceneMouseEvent@@@Z @ 1465 NONAME ; void HbScrollBar::mouseMoveEvent(class QGraphicsSceneMouseEvent *)
	?title@HbInputCustomButton@@QBE?AVQString@@XZ @ 1466 NONAME ABSENT ; class QString HbInputCustomButton::title(void) const
	?currentIndexChanged@HbAbstractItemView@@MAEXABVQModelIndex@@0@Z @ 1467 NONAME ABSENT ; void HbAbstractItemView::currentIndexChanged(class QModelIndex const &, class QModelIndex const &)
	?resizeEvent@HbLabel@@MAEXPAVQGraphicsSceneResizeEvent@@@Z @ 1468 NONAME ABSENT ; void HbLabel::resizeEvent(class QGraphicsSceneResizeEvent *)
	?trUtf8@HbEditorInterface@@SA?AVQString@@PBD0@Z @ 1469 NONAME ; class QString HbEditorInterface::trUtf8(char const *, char const *)
	??0HbStyleOptionIndicatorGroup@@QAE@XZ @ 1470 NONAME ; HbStyleOptionIndicatorGroup::HbStyleOptionIndicatorGroup(void)
	?selectionMode@HbAbstractItemView@@QBE?AW4SelectionMode@1@XZ @ 1471 NONAME ABSENT ; enum HbAbstractItemView::SelectionMode HbAbstractItemView::selectionMode(void) const
	?mouseMoveEvent@HbToolBar@@MAEXPAVQGraphicsSceneMouseEvent@@@Z @ 1472 NONAME ABSENT ; void HbToolBar::mouseMoveEvent(class QGraphicsSceneMouseEvent *)
	?value@HbScrollBar@@QBEMXZ @ 1473 NONAME ; float HbScrollBar::value(void) const
	??0HbFrameDrawer@@QAE@XZ @ 1474 NONAME ABSENT ; HbFrameDrawer::HbFrameDrawer(void)
	??0HbStyleOptionDecorator@@QAE@ABV0@@Z @ 1475 NONAME ABSENT ; HbStyleOptionDecorator::HbStyleOptionDecorator(class HbStyleOptionDecorator const &)
	?tr@HbAbstractViewItem@@SA?AVQString@@PBD0H@Z @ 1476 NONAME ABSENT ; class QString HbAbstractViewItem::tr(char const *, char const *, int)
	?indexOf@HbTreeLayout@@QBEHPAVQGraphicsLayoutItem@@@Z @ 1477 NONAME ABSENT ; int HbTreeLayout::indexOf(class QGraphicsLayoutItem *) const
	?setActiveTouchKeyboard@HbInputSettingProxy@@QAEXV?$QFlags@W4HbKeyboardTypeFlag@@@@@Z @ 1478 NONAME ABSENT ; void HbInputSettingProxy::setActiveTouchKeyboard(class QFlags<enum HbKeyboardTypeFlag>)
	??1HbKeyMapFactory@@AAE@XZ @ 1479 NONAME ABSENT ; HbKeyMapFactory::~HbKeyMapFactory(void)
	??0HbExtraDictionaryCollection@@QAE@XZ @ 1480 NONAME ; HbExtraDictionaryCollection::HbExtraDictionaryCollection(void)
	?hasVowelSequences@HbKeyMapData@@UBE_NV?$QFlags@W4HbKeyboardTypeFlag@@@@@Z @ 1481 NONAME ABSENT ; bool HbKeyMapData::hasVowelSequences(class QFlags<enum HbKeyboardTypeFlag>) const
	?hasListItemExpansion@HbListWidget@@QBE_NXZ @ 1482 NONAME ABSENT ; bool HbListWidget::hasListItemExpansion(void) const
	?iconName@HbIconItem@@QBE?AVQString@@XZ @ 1483 NONAME ; class QString HbIconItem::iconName(void) const
	??_EHbListModel@@UAE@I@Z @ 1484 NONAME ABSENT ; HbListModel::~HbListModel(unsigned int)
	?contiguousSelectionCommand@HbAbstractItemViewPrivate@@QAE?AV?$QFlags@W4SelectionFlag@QItemSelectionModel@@@@PBVHbAbstractViewItem@@PBVQEvent@@_N@Z @ 1485 NONAME ABSENT ; class QFlags<enum QItemSelectionModel::SelectionFlag> HbAbstractItemViewPrivate::contiguousSelectionCommand(class HbAbstractViewItem const *, class QEvent const *, bool)
	?trUtf8@HbGestureSceneFilter@@SA?AVQString@@PBD0H@Z @ 1486 NONAME ABSENT ; class QString HbGestureSceneFilter::trUtf8(char const *, char const *, int)
	?resizeEvent@HbToolBar@@MAEXPAVQGraphicsSceneResizeEvent@@@Z @ 1487 NONAME ; void HbToolBar::resizeEvent(class QGraphicsSceneResizeEvent *)
	?alternateProfileName@HbDeviceProfile@@QBE?AVQString@@XZ @ 1488 NONAME ; class QString HbDeviceProfile::alternateProfileName(void) const
	??0HbPopupBase@@IAE@AAVHbPopupBasePrivate@@PAVQGraphicsItem@@@Z @ 1489 NONAME ABSENT ; HbPopupBase::HbPopupBase(class HbPopupBasePrivate &, class QGraphicsItem *)
	?autoExclusive@HbAbstractButton@@QBE_NXZ @ 1490 NONAME ; bool HbAbstractButton::autoExclusive(void) const
	?currencySymbolPosition@HbExtendedLocale@@QBE?AW4SymbolPos@1@XZ @ 1491 NONAME ; enum HbExtendedLocale::SymbolPos HbExtendedLocale::currencySymbolPosition(void) const
	?setOrientation@HbInstance@@QAEXW4Orientation@Qt@@@Z @ 1492 NONAME ABSENT ; void HbInstance::setOrientation(enum Qt::Orientation)
	?qt_metacast@HbView@@UAEPAXPBD@Z @ 1493 NONAME ; void * HbView::qt_metacast(char const *)
	?setMirroringMode@HbLabel@@QAEXW4MirroringMode@HbIcon@@@Z @ 1494 NONAME ABSENT ; void HbLabel::setMirroringMode(enum HbIcon::MirroringMode)
	?setAlignment@HbIconItem@@QAEXV?$QFlags@W4AlignmentFlag@Qt@@@@@Z @ 1495 NONAME ; void HbIconItem::setAlignment(class QFlags<enum Qt::AlignmentFlag>)
	?_q_animateScrollTimeout@HbScrollAreaPrivate@@QAEXXZ @ 1496 NONAME ; void HbScrollAreaPrivate::_q_animateScrollTimeout(void)
	?enableDictionary@HbExtraDictionaryCollection@@QAEXH@Z @ 1497 NONAME ; void HbExtraDictionaryCollection::enableDictionary(int)
	??0HbPopup@@IAE@AAVHbPopupPrivate@@PAVQGraphicsItem@@@Z @ 1498 NONAME ; HbPopup::HbPopup(class HbPopupPrivate &, class QGraphicsItem *)
	?load@HbXmlLoaderAbstractSyntax@@UAE_NPAVQIODevice@@ABVQString@@@Z @ 1499 NONAME ; bool HbXmlLoaderAbstractSyntax::load(class QIODevice *, class QString const &)
	??0HbListViewItem@@QAE@PAVQGraphicsItem@@@Z @ 1500 NONAME ABSENT ; HbListViewItem::HbListViewItem(class QGraphicsItem *)
	??0HbGraphicsPixmapItem@@QAE@ABVQString@@ABVQSizeF@@W4AspectRatioMode@Qt@@PAVQGraphicsItem@@@Z @ 1501 NONAME ABSENT ; HbGraphicsPixmapItem::HbGraphicsPixmapItem(class QString const &, class QSizeF const &, enum Qt::AspectRatioMode, class QGraphicsItem *)
	??1HbLabel@@UAE@XZ @ 1502 NONAME ABSENT ; HbLabel::~HbLabel(void)
	?keyBindingForCharacter@HbKeyMapData@@UBEPBUHbKeyBinding@@V?$QFlags@W4HbKeyboardTypeFlag@@@@VQChar@@@Z @ 1503 NONAME ABSENT ; struct HbKeyBinding const * HbKeyMapData::keyBindingForCharacter(class QFlags<enum HbKeyboardTypeFlag>, class QChar) const
	?action@HbSoftKey@@QBEPAVHbAction@@XZ @ 1504 NONAME ABSENT ; class HbAction * HbSoftKey::action(void) const
	?staticMetaObject@HbScrollBar@@2UQMetaObject@@B @ 1505 NONAME ; struct QMetaObject const HbScrollBar::staticMetaObject
	?multiSelectionCommand@HbAbstractItemViewPrivate@@QAE?AV?$QFlags@W4SelectionFlag@QItemSelectionModel@@@@PBVHbAbstractViewItem@@PBVQEvent@@@Z @ 1506 NONAME ABSENT ; class QFlags<enum QItemSelectionModel::SelectionFlag> HbAbstractItemViewPrivate::multiSelectionCommand(class HbAbstractViewItem const *, class QEvent const *)
	??0HbLabel@@QAE@PAVQGraphicsItem@@@Z @ 1507 NONAME ABSENT ; HbLabel::HbLabel(class QGraphicsItem *)
	?shutdown@HbInputSettingProxy@@QAEXXZ @ 1508 NONAME ; void HbInputSettingProxy::shutdown(void)
	?aboutToHide@HbPopupBase@@IAEXXZ @ 1509 NONAME ABSENT ; void HbPopupBase::aboutToHide(void)
	?pseudoClass@Selector@HbCss@@QBE_KPA_K@Z @ 1510 NONAME ; unsigned long long HbCss::Selector::pseudoClass(unsigned long long *) const
	?enableFeature@HbPredictionEngine@@UAE_NW4HbInputPredictionFeature@HbPredictionBase@@@Z @ 1511 NONAME ABSENT ; bool HbPredictionEngine::enableFeature(enum HbPredictionBase::HbInputPredictionFeature)
	??1HbPopupBase@@UAE@XZ @ 1512 NONAME ABSENT ; HbPopupBase::~HbPopupBase(void)
	?staticMetaObject@HbFocusObjectWidget@@2UQMetaObject@@B @ 1513 NONAME ABSENT ; struct QMetaObject const HbFocusObjectWidget::staticMetaObject
	?getVkbHost@HbVkbHost@@SAPAV1@PAVQObject@@@Z @ 1514 NONAME ; class HbVkbHost * HbVkbHost::getVkbHost(class QObject *)
	?availableHwKeyboard@HbInputSettingProxy@@QBEXAAV?$QList@V?$QFlags@W4HbKeyboardTypeFlag@@@@@@@Z @ 1515 NONAME ; void HbInputSettingProxy::availableHwKeyboard(class QList<class QFlags<enum HbKeyboardTypeFlag> > &) const
	?nextState@HbInputStateMachinePrcChinese@@UAE_NABVHbInputState@@AAV2@W4HbInputStateModifier@@@Z @ 1516 NONAME ABSENT ; bool HbInputStateMachinePrcChinese::nextState(class HbInputState const &, class HbInputState &, enum HbInputStateModifier)
	?trUtf8@HbTestabilitySignal_p@@SA?AVQString@@PBD0H@Z @ 1517 NONAME ; class QString HbTestabilitySignal_p::trUtf8(char const *, char const *, int)
	?addDictionary@HbExtraDictionaryCollection@@QAE_NH@Z @ 1518 NONAME ; bool HbExtraDictionaryCollection::addDictionary(int)
	?filter@HbInputLowerCaseFilter@@UAE_NVQChar@@@Z @ 1519 NONAME ; bool HbInputLowerCaseFilter::filter(class QChar)
	?tr@HbDeviceDialogServer@@SA?AVQString@@PBD0H@Z @ 1520 NONAME ; class QString HbDeviceDialogServer::tr(char const *, char const *, int)
	?tr@HbIndicatorInterface@@SA?AVQString@@PBD0H@Z @ 1521 NONAME ; class QString HbIndicatorInterface::tr(char const *, char const *, int)
	?tr@HbBatteryIndicator@@SA?AVQString@@PBD0@Z @ 1522 NONAME ; class QString HbBatteryIndicator::tr(char const *, char const *)
	?staticMetaObject@HbInputModeCache@@2UQMetaObject@@B @ 1523 NONAME ; struct QMetaObject const HbInputModeCache::staticMetaObject
	?animationProgressed@HbIconAnimator@@IAEXXZ @ 1524 NONAME ; void HbIconAnimator::animationProgressed(void)
	?fontSpec@HbTextItem@@QBE?AVHbFontSpec@@XZ @ 1525 NONAME ABSENT ; class HbFontSpec HbTextItem::fontSpec(void) const
	?listAvailableLanguageDatabasePlugins@HbInputUtils@@SAXAAVQStringList@@ABVQString@@@Z @ 1526 NONAME ; void HbInputUtils::listAvailableLanguageDatabasePlugins(class QStringList &, class QString const &)
	?d_func@HbListWidget@@ABEPBVHbListWidgetPrivate@@XZ @ 1527 NONAME ABSENT ; class HbListWidgetPrivate const * HbListWidget::d_func(void) const
	?indexCount@HbTreeView@@UBEHXZ @ 1528 NONAME ABSENT ; int HbTreeView::indexCount(void) const
	?resolution@HbIconLoader@@QBEHXZ @ 1529 NONAME ; int HbIconLoader::resolution(void) const
	??1HbVariant@@QAE@XZ @ 1530 NONAME ; HbVariant::~HbVariant(void)
	??0HbStringVector@@QAE@ABV0@@Z @ 1531 NONAME ; HbStringVector::HbStringVector(class HbStringVector const &)
	?d_func@HbTextItem@@ABEPBVHbTextItemPrivate@@XZ @ 1532 NONAME ; class HbTextItemPrivate const * HbTextItem::d_func(void) const
	?sizeHint@HbIconItem@@MBE?AVQSizeF@@W4SizeHint@Qt@@ABV2@@Z @ 1533 NONAME ABSENT ; class QSizeF HbIconItem::sizeHint(enum Qt::SizeHint, class QSizeF const &) const
	??0HbTheme@@QAE@XZ @ 1534 NONAME ABSENT ; HbTheme::HbTheme(void)
	?preEditString@HbFocusObjectGraphicsWidget@@UBE?AVQString@@XZ @ 1535 NONAME ABSENT ; class QString HbFocusObjectGraphicsWidget::preEditString(void) const
	??1HbTextItem@@UAE@XZ @ 1536 NONAME ; HbTextItem::~HbTextItem(void)
	?tr@HbExtraDictionaryFactory@@SA?AVQString@@PBD0@Z @ 1537 NONAME ; class QString HbExtraDictionaryFactory::tr(char const *, char const *)
	?removeAt@HbStyleParameters@@QAEXH@Z @ 1538 NONAME ; void HbStyleParameters::removeAt(int)
	?init@HbAbstractViewItemPrivate@@QAEXXZ @ 1539 NONAME ABSENT ; void HbAbstractViewItemPrivate::init(void)
	?trUtf8@HbListModel@@SA?AVQString@@PBD0H@Z @ 1540 NONAME ABSENT ; class QString HbListModel::trUtf8(char const *, char const *, int)
	?gestureStopped@HbInteractionManagerStatic@@SAXPBVHbWidget@@W4Gesture@Ia@@@Z @ 1541 NONAME ABSENT ; void HbInteractionManagerStatic::gestureStopped(class HbWidget const *, enum Ia::Gesture)
	??0HbListWidgetViewItemPrivate@@QAE@PAVHbListWidgetViewItem@@@Z @ 1542 NONAME ABSENT ; HbListWidgetViewItemPrivate::HbListWidgetViewItemPrivate(class HbListWidgetViewItem *)
	??_EHbInteractionGestureEvent@@UAE@I@Z @ 1543 NONAME ABSENT ; HbInteractionGestureEvent::~HbInteractionGestureEvent(unsigned int)
	?type@HbToolButton@@UBEHXZ @ 1544 NONAME ; int HbToolButton::type(void) const
	?metaObject@HbIndicator@@UBEPBUQMetaObject@@XZ @ 1545 NONAME ; struct QMetaObject const * HbIndicator::metaObject(void) const
	?asBool@ValueExtractor@HbCss@@QAE_NABUDeclaration@2@@Z @ 1546 NONAME ABSENT ; bool HbCss::ValueExtractor::asBool(struct HbCss::Declaration const &)
	??_EHbPopupPrivate@@UAE@I@Z @ 1547 NONAME ; HbPopupPrivate::~HbPopupPrivate(unsigned int)
	??0HbIcon@@QAE@ABVQIcon@@@Z @ 1548 NONAME ; HbIcon::HbIcon(class QIcon const &)
	??BHbString@@QBE?AVQString@@XZ @ 1549 NONAME ; HbString::operator class QString(void) const
	??_EHbLayoutDirectionNotifier@@UAE@I@Z @ 1550 NONAME ; HbLayoutDirectionNotifier::~HbLayoutDirectionNotifier(unsigned int)
	?getStaticMetaObject@HbAction@@SAABUQMetaObject@@XZ @ 1551 NONAME ; struct QMetaObject const & HbAction::getStaticMetaObject(void)
	?arrangeMode@HbListView@@QBE_NXZ @ 1552 NONAME ABSENT ; bool HbListView::arrangeMode(void) const
	??0HbInputCustomButton@@QAE@HHABVQString@@00@Z @ 1553 NONAME ABSENT ; HbInputCustomButton::HbInputCustomButton(int, int, class QString const &, class QString const &, class QString const &)
	??_EHbInteractionManager@@UAE@I@Z @ 1554 NONAME ABSENT ; HbInteractionManager::~HbInteractionManager(unsigned int)
	?toReal@HbXmlLoaderAbstractSyntax@@UBE_NABVQString@@AAM@Z @ 1555 NONAME ABSENT ; bool HbXmlLoaderAbstractSyntax::toReal(class QString const &, float &) const
	?allPredictionEnginesForLanguage@HbPredictionFactory@@QAE?AV?$QList@H@@ABVHbInputLanguage@@@Z @ 1556 NONAME ; class QList<int> HbPredictionFactory::allPredictionEnginesForLanguage(class HbInputLanguage const &)
	?scrollTo@HbTreeView@@UAEXABVQModelIndex@@@Z @ 1557 NONAME ABSENT ; void HbTreeView::scrollTo(class QModelIndex const &)
	?Instance@HbInputMethodNull@@SAPAV1@XZ @ 1558 NONAME ; class HbInputMethodNull * HbInputMethodNull::Instance(void)
	?isInputPluginInPermanentMemory@HbInputUtils@@SA_NABVQString@@@Z @ 1559 NONAME ABSENT ; bool HbInputUtils::isInputPluginInPermanentMemory(class QString const &)
	?rowsRemoved@HbListView@@MAEXABVQModelIndex@@HH@Z @ 1560 NONAME ABSENT ; void HbListView::rowsRemoved(class QModelIndex const &, int, int)
	?rowsAboutToBeRemoved@HbTreeView@@MAEXABVQModelIndex@@HH@Z @ 1561 NONAME ABSENT ; void HbTreeView::rowsAboutToBeRemoved(class QModelIndex const &, int, int)
	?elideMode@HbLabel@@QBE?AW4TextElideMode@Qt@@XZ @ 1562 NONAME ABSENT ; enum Qt::TextElideMode HbLabel::elideMode(void) const
	?isCentered@HbPopupBasePrivate@@QBE_NXZ @ 1563 NONAME ABSENT ; bool HbPopupBasePrivate::isCentered(void) const
	?font@HbTextItem@@QBE?AVQFont@@XZ @ 1564 NONAME ABSENT ; class QFont HbTextItem::font(void) const
	??_EHbPredictionFactory@@UAE@I@Z @ 1565 NONAME ; HbPredictionFactory::~HbPredictionFactory(unsigned int)
	??1Symbol@HbCss@@QAE@XZ @ 1566 NONAME ; HbCss::Symbol::~Symbol(void)
	?backgroundPrimitive@HbWidgetPrivate@@QBEPAVQGraphicsItem@@XZ @ 1567 NONAME ABSENT ; class QGraphicsItem * HbWidgetPrivate::backgroundPrimitive(void) const
	??_EHbMenuListViewPrivate@@UAE@I@Z @ 1568 NONAME ABSENT ; HbMenuListViewPrivate::~HbMenuListViewPrivate(unsigned int)
	?extractBox@ValueExtractor@HbCss@@QAE_NPAM00@Z @ 1569 NONAME ABSENT ; bool HbCss::ValueExtractor::extractBox(float *, float *, float *)
	?layoutName@HbAbstractItemView@@QBE?AVQString@@XZ @ 1570 NONAME ABSENT ; class QString HbAbstractItemView::layoutName(void) const
	?focusOutEvent@HbScrollArea@@MAEXPAVQFocusEvent@@@Z @ 1571 NONAME ; void HbScrollArea::focusOutEvent(class QFocusEvent *)
	?contentWidget@HbPopup@@QBEPAVQGraphicsWidget@@XZ @ 1572 NONAME ABSENT ; class QGraphicsWidget * HbPopup::contentWidget(void) const
	?setTitle@HbInputCustomButton@@QAEXABVQString@@@Z @ 1573 NONAME ABSENT ; void HbInputCustomButton::setTitle(class QString const &)
	?memoryType@HbString@@QAE?AW4MemoryType@HbMemoryManager@@XZ @ 1574 NONAME ABSENT ; enum HbMemoryManager::MemoryType HbString::memoryType(void)
	?isKnownState@HbInputStateMachineTaiwanChineseFinger@@UBE_NABVHbInputState@@@Z @ 1575 NONAME ABSENT ; bool HbInputStateMachineTaiwanChineseFinger::isKnownState(class HbInputState const &) const
	?rawDataAreaSize@HbExtraUserDictionary@@QBEHXZ @ 1576 NONAME ; int HbExtraUserDictionary::rawDataAreaSize(void) const
	?animator@HbIconItem@@QAEAAVHbIconAnimator@@XZ @ 1577 NONAME ; class HbIconAnimator & HbIconItem::animator(void)
	?trUtf8@HbSoftKey@@SA?AVQString@@PBD0@Z @ 1578 NONAME ABSENT ; class QString HbSoftKey::trUtf8(char const *, char const *)
	??1HbStyleOptionCommonNote@@QAE@XZ @ 1579 NONAME ABSENT ; HbStyleOptionCommonNote::~HbStyleOptionCommonNote(void)
	??0HbGraphicsScene@@QAE@PAVQObject@@@Z @ 1580 NONAME ; HbGraphicsScene::HbGraphicsScene(class QObject *)
	?metaObject@HbGraphicsPixmapItem@@UBEPBUQMetaObject@@XZ @ 1581 NONAME ABSENT ; struct QMetaObject const * HbGraphicsPixmapItem::metaObject(void) const
	??4HbFrameBackground@@QAEAAV0@ABV0@@Z @ 1582 NONAME ; class HbFrameBackground & HbFrameBackground::operator=(class HbFrameBackground const &)
	?setDecorationIcon@HbListWidgetItem@@QAEXABVHbIcon@@@Z @ 1583 NONAME ABSENT ; void HbListWidgetItem::setDecorationIcon(class HbIcon const &)
	??1HbIconAnimationDefinition@@QAE@XZ @ 1584 NONAME ; HbIconAnimationDefinition::~HbIconAnimationDefinition(void)
	?metaObject@HbSignalIndicator@@UBEPBUQMetaObject@@XZ @ 1585 NONAME ; struct QMetaObject const * HbSignalIndicator::metaObject(void) const
	??1HbInteractionManager@@UAE@XZ @ 1586 NONAME ABSENT ; HbInteractionManager::~HbInteractionManager(void)
	?qt_metacall@HbInputCustomButtonBank@@UAEHW4Call@QMetaObject@@HPAPAX@Z @ 1587 NONAME ABSENT ; int HbInputCustomButtonBank::qt_metacall(enum QMetaObject::Call, int, void * *)
	?metaObject@HbGraphicsScene@@UBEPBUQMetaObject@@XZ @ 1588 NONAME ; struct QMetaObject const * HbGraphicsScene::metaObject(void) const
	??0HbTreeView@@IAE@AAVHbTreeViewPrivate@@PAVHbAbstractItemContainer@@PAVQGraphicsItem@@@Z @ 1589 NONAME ABSENT ; HbTreeView::HbTreeView(class HbTreeViewPrivate &, class HbAbstractItemContainer *, class QGraphicsItem *)
	?getStaticMetaObject@HbTestabilitySignal_p@@SAABUQMetaObject@@XZ @ 1590 NONAME ; struct QMetaObject const & HbTestabilitySignal_p::getStaticMetaObject(void)
	?itemChanged@HbListModel@@QAEXPAVHbListWidgetItem@@@Z @ 1591 NONAME ABSENT ; void HbListModel::itemChanged(class HbListWidgetItem *)
	?filterStringWithEditorFilter@HbInputFocusObject@@UAEXABVQString@@AAV2@@Z @ 1592 NONAME ABSENT ; void HbInputFocusObject::filterStringWithEditorFilter(class QString const &, class QString &)
	?testElementName@Parser@HbCss@@QAE_NXZ @ 1593 NONAME ; bool HbCss::Parser::testElementName(void)
	?modelItemType@HbAbstractViewItemPrivate@@UBEHXZ @ 1594 NONAME ABSENT ; int HbAbstractViewItemPrivate::modelItemType(void) const
	?setItemView@HbAbstractViewItem@@QAEXPAVHbAbstractItemView@@@Z @ 1595 NONAME ABSENT ; void HbAbstractViewItem::setItemView(class HbAbstractItemView *)
	?instance@HbInputLowerCaseFilter@@SAPAV1@XZ @ 1596 NONAME ; class HbInputLowerCaseFilter * HbInputLowerCaseFilter::instance(void)
	?paint@HbFrameItem@@UAEXPAVQPainter@@PBVQStyleOptionGraphicsItem@@PAVQWidget@@@Z @ 1597 NONAME ; void HbFrameItem::paint(class QPainter *, class QStyleOptionGraphicsItem const *, class QWidget *)
	?parseElementName@Parser@HbCss@@QAE_NPAVHbString@@@Z @ 1598 NONAME ; bool HbCss::Parser::parseElementName(class HbString *)
	?doCenterPopup@HbPopupBasePrivate@@QAEXXZ @ 1599 NONAME ABSENT ; void HbPopupBasePrivate::doCenterPopup(void)
	?removeGesture@HbGestureFilter@@QAEXPAVHbGesture@@@Z @ 1600 NONAME ABSENT ; void HbGestureFilter::removeGesture(class HbGesture *)
	?positionValue@Declaration@HbCss@@QBE?AW4PositionMode@2@XZ @ 1601 NONAME ABSENT ; enum HbCss::PositionMode HbCss::Declaration::positionValue(void) const
	?firstState@HbInputStateMachinePrcChineseFinger@@UBEXAAVHbInputState@@@Z @ 1602 NONAME ABSENT ; void HbInputStateMachinePrcChineseFinger::firstState(class HbInputState &) const
	??0HbLayoutDirectionNotifier@@AAE@XZ @ 1603 NONAME ; HbLayoutDirectionNotifier::HbLayoutDirectionNotifier(void)
	?qt_metacast@HbGesture@@UAEPAXPBD@Z @ 1604 NONAME ABSENT ; void * HbGesture::qt_metacast(char const *)
	?firstItemIndex@HbAbstractItemContainer@@QBE?AVQModelIndex@@XZ @ 1605 NONAME ABSENT ; class QModelIndex HbAbstractItemContainer::firstItemIndex(void) const
	?findMatches@HbExtraUserDictionary@@QAE?AVQStringList@@ABVQString@@_NW4CaseSensitivity@Qt@@@Z @ 1606 NONAME ; class QStringList HbExtraUserDictionary::findMatches(class QString const &, bool, enum Qt::CaseSensitivity)
	?staticMetaObject@HbInteractionListener@@2UQMetaObject@@B @ 1607 NONAME ABSENT ; struct QMetaObject const HbInteractionListener::staticMetaObject
	?tr@HbInputModeCache@@SA?AVQString@@PBD0@Z @ 1608 NONAME ; class QString HbInputModeCache::tr(char const *, char const *)
	?tr@HbStackedWidget@@SA?AVQString@@PBD0@Z @ 1609 NONAME ; class QString HbStackedWidget::tr(char const *, char const *)
	?itemChange@HbScrollArea@@MAE?AVQVariant@@W4GraphicsItemChange@QGraphicsItem@@ABV2@@Z @ 1610 NONAME ; class QVariant HbScrollArea::itemChange(enum QGraphicsItem::GraphicsItemChange, class QVariant const &)
	?interaction@HbInteractionEvent@@QBE?AW4Interaction@Ia@@XZ @ 1611 NONAME ABSENT ; enum Ia::Interaction HbInteractionEvent::interaction(void) const
	?instance@HbKeyMapFactory@@SAPAV1@XZ @ 1612 NONAME ABSENT ; class HbKeyMapFactory * HbKeyMapFactory::instance(void)
	??0HbStyleOptionIndicatorPopup@@QAE@ABV0@@Z @ 1613 NONAME ABSENT ; HbStyleOptionIndicatorPopup::HbStyleOptionIndicatorPopup(class HbStyleOptionIndicatorPopup const &)
	?d_func@HbItemHighlight@@AAEPAVHbItemHighlightPrivate@@XZ @ 1614 NONAME ABSENT ; class HbItemHighlightPrivate * HbItemHighlight::d_func(void)
	?isBackgroundFaded@HbPopupBase@@QBE_NXZ @ 1615 NONAME ABSENT ; bool HbPopupBase::isBackgroundFaded(void) const
	?itemAt@HbAnchorLayout@@UBEPAVQGraphicsLayoutItem@@H@Z @ 1616 NONAME ; class QGraphicsLayoutItem * HbAnchorLayout::itemAt(int) const
	?insertSeparator@HbMenu@@QAEPAVHbAction@@PAV2@@Z @ 1617 NONAME ; class HbAction * HbMenu::insertSeparator(class HbAction *)
	?globalInputLanguageChanged@HbInputMethod@@QAEXABVHbInputLanguage@@@Z @ 1618 NONAME ; void HbInputMethod::globalInputLanguageChanged(class HbInputLanguage const &)
	?qt_metacall@HbPopupBase@@UAEHW4Call@QMetaObject@@HPAPAX@Z @ 1619 NONAME ABSENT ; int HbPopupBase::qt_metacall(enum QMetaObject::Call, int, void * *)
	?isWritable@HbHeapMemoryManager@@UAE_NXZ @ 1620 NONAME ABSENT ; bool HbHeapMemoryManager::isWritable(void)
	?currentViewChanged@HbMainWindow@@IAEXPAVHbView@@@Z @ 1621 NONAME ; void HbMainWindow::currentViewChanged(class HbView *)
	?tr@HbView@@SA?AVQString@@PBD0H@Z @ 1622 NONAME ; class QString HbView::tr(char const *, char const *, int)
	?staticMetaObject@HbInputStateMachineFactory@@2UQMetaObject@@B @ 1623 NONAME ABSENT ; struct QMetaObject const HbInputStateMachineFactory::staticMetaObject
	??1HbWidgetParams_PushButton@@UAE@XZ @ 1624 NONAME ABSENT ; HbWidgetParams_PushButton::~HbWidgetParams_PushButton(void)
	?tr@HbTreeView@@SA?AVQString@@PBD0@Z @ 1625 NONAME ABSENT ; class QString HbTreeView::tr(char const *, char const *)
	?tr@HbAction@@SA?AVQString@@PBD0H@Z @ 1626 NONAME ; class QString HbAction::tr(char const *, char const *, int)
	?d_func@HbView@@AAEPAVHbViewPrivate@@XZ @ 1627 NONAME ; class HbViewPrivate * HbView::d_func(void)
	??1HbVkbHost@@UAE@XZ @ 1628 NONAME ; HbVkbHost::~HbVkbHost(void)
	?activeMethod@HbInputModeCache@@QBEPAVHbInputMethod@@XZ @ 1629 NONAME ABSENT ; class HbInputMethod * HbInputModeCache::activeMethod(void) const
	?notifyScreenOrientationChange@HbInputSettingProxy@@QAEXXZ @ 1630 NONAME ABSENT ; void HbInputSettingProxy::notifyScreenOrientationChange(void)
	?updatePrimitive@HbStyle@@UBEXPAVQGraphicsItem@@W4Primitive@1@PBVQStyleOption@@@Z @ 1631 NONAME ABSENT ; void HbStyle::updatePrimitive(class QGraphicsItem *, enum HbStyle::Primitive, class QStyleOption const *) const
	?d_func@HbToolBarExtension@@AAEPAVHbToolBarExtensionPrivate@@XZ @ 1632 NONAME ; class HbToolBarExtensionPrivate * HbToolBarExtension::d_func(void)
	??1HbListWidgetViewItemPrivate@@UAE@XZ @ 1633 NONAME ABSENT ; HbListWidgetViewItemPrivate::~HbListWidgetViewItemPrivate(void)
	??0HbStyleOptionToolBarExtension@@QAE@XZ @ 1634 NONAME ABSENT ; HbStyleOptionToolBarExtension::HbStyleOptionToolBarExtension(void)
	?tr@HbSignalIndicator@@SA?AVQString@@PBD0@Z @ 1635 NONAME ; class QString HbSignalIndicator::tr(char const *, char const *)
	?staticMetaObject@HbIconLoader@@2UQMetaObject@@B @ 1636 NONAME ; struct QMetaObject const HbIconLoader::staticMetaObject
	??1HbWidgetParams@@UAE@XZ @ 1637 NONAME ABSENT ; HbWidgetParams::~HbWidgetParams(void)
	??_EHbPredictionBase@@UAE@I@Z @ 1638 NONAME ; HbPredictionBase::~HbPredictionBase(unsigned int)
	?trUtf8@HbWidget@@SA?AVQString@@PBD0H@Z @ 1639 NONAME ; class QString HbWidget::trUtf8(char const *, char const *, int)
	?tr@HbMainWindow@@SA?AVQString@@PBD0H@Z @ 1640 NONAME ; class QString HbMainWindow::tr(char const *, char const *, int)
	?qt_metacast@HbListViewItem@@UAEPAXPBD@Z @ 1641 NONAME ABSENT ; void * HbListViewItem::qt_metacast(char const *)
	?metaObject@HbTreeView@@UBEPBUQMetaObject@@XZ @ 1642 NONAME ABSENT ; struct QMetaObject const * HbTreeView::metaObject(void) const
	?qt_metacast@HbLanguageDatabaseInterface@@UAEPAXPBD@Z @ 1643 NONAME ; void * HbLanguageDatabaseInterface::qt_metacast(char const *)
	?interactive@HbScrollBar@@QBE_NXZ @ 1644 NONAME ABSENT ; bool HbScrollBar::interactive(void) const
	??0HbDeviceProfile@@QAE@ABV0@@Z @ 1645 NONAME ; HbDeviceProfile::HbDeviceProfile(class HbDeviceProfile const &)
	?setAspectRatioMode@HbIconItem@@QAEXW4AspectRatioMode@Qt@@@Z @ 1646 NONAME ; void HbIconItem::setAspectRatioMode(enum Qt::AspectRatioMode)
	?trUtf8@HbGestureFilter@@SA?AVQString@@PBD0H@Z @ 1647 NONAME ABSENT ; class QString HbGestureFilter::trUtf8(char const *, char const *, int)
	?deleteChildItems@HbListWidgetViewItemPrivate@@QAEX_N@Z @ 1648 NONAME ABSENT ; void HbListWidgetViewItemPrivate::deleteChildItems(bool)
	?editorDeleted@HbInputMethod@@QAEXXZ @ 1649 NONAME ABSENT ; void HbInputMethod::editorDeleted(void)
	?modeAllowedInEditor@HbInputMethod@@IBE_NV?$QFlags@W4HbInputModeTypeFlag@@@@@Z @ 1650 NONAME ; bool HbInputMethod::modeAllowedInEditor(class QFlags<enum HbInputModeTypeFlag>) const
	??0HbMainWindow@@QAE@PAVQWidget@@V?$QFlags@W4WindowFlag@Hb@@@@@Z @ 1651 NONAME ; HbMainWindow::HbMainWindow(class QWidget *, class QFlags<enum Hb::WindowFlag>)
	??1Pseudo@HbCss@@QAE@XZ @ 1652 NONAME ; HbCss::Pseudo::~Pseudo(void)
	?type@HbScrollBar@@UBEHXZ @ 1653 NONAME ; int HbScrollBar::type(void) const
	??0HbStyleOptionProgressNote@@QAE@ABV0@@Z @ 1654 NONAME ABSENT ; HbStyleOptionProgressNote::HbStyleOptionProgressNote(class HbStyleOptionProgressNote const &)
	??0HbIconItem@@QAE@ABVQString@@PAVQGraphicsItem@@@Z @ 1655 NONAME ; HbIconItem::HbIconItem(class QString const &, class QGraphicsItem *)
	??0HbAbstractButton@@IAE@AAVHbAbstractButtonPrivate@@PAVQGraphicsItem@@@Z @ 1656 NONAME ; HbAbstractButton::HbAbstractButton(class HbAbstractButtonPrivate &, class QGraphicsItem *)
	??0HbIndicatorInterface@@IAE@ABVQString@@W4GroupPriority@0@V?$QFlags@W4InteractionType@HbIndicatorInterface@@@@@Z @ 1657 NONAME ABSENT ; HbIndicatorInterface::HbIndicatorInterface(class QString const &, enum HbIndicatorInterface::GroupPriority, class QFlags<enum HbIndicatorInterface::InteractionType>)
	?s60EventFilter@HbApplication@@UAE_NPAVTWsEvent@@@Z @ 1658 NONAME ABSENT ; bool HbApplication::s60EventFilter(class TWsEvent *)
	??0ValueExtractor@HbCss@@QAE@ABV?$QVector@UDeclaration@HbCss@@@@ABVHbDeviceProfile@@ABVQPalette@@@Z @ 1659 NONAME ABSENT ; HbCss::ValueExtractor::ValueExtractor(class QVector<struct HbCss::Declaration> const &, class HbDeviceProfile const &, class QPalette const &)
	??0HbVariant@@QAE@HW4MemoryType@HbMemoryManager@@@Z @ 1660 NONAME ; HbVariant::HbVariant(int, enum HbMemoryManager::MemoryType)
	?d_func@HbScrollBar@@AAEPAVHbScrollBarPrivate@@XZ @ 1661 NONAME ; class HbScrollBarPrivate * HbScrollBar::d_func(void)
	?qt_metacast@HbTheme@@UAEPAXPBD@Z @ 1662 NONAME ; void * HbTheme::qt_metacast(char const *)
	?rowsAboutToBeRemoved@HbAbstractItemView@@MAEXABVQModelIndex@@HH@Z @ 1663 NONAME ABSENT ; void HbAbstractItemView::rowsAboutToBeRemoved(class QModelIndex const &, int, int)
	?staticMetaObject@HbNumberGrouping@@2UQMetaObject@@B @ 1664 NONAME ABSENT ; struct QMetaObject const HbNumberGrouping::staticMetaObject
	?pressed@HbListWidget@@IAEXPAVHbListWidgetItem@@@Z @ 1665 NONAME ABSENT ; void HbListWidget::pressed(class HbListWidgetItem *)
	?itemChange@HbPopupBase@@MAE?AVQVariant@@W4GraphicsItemChange@QGraphicsItem@@ABV2@@Z @ 1666 NONAME ABSENT ; class QVariant HbPopupBase::itemChange(enum QGraphicsItem::GraphicsItemChange, class QVariant const &)
	?metaObject@HbAbstractItemView@@UBEPBUQMetaObject@@XZ @ 1667 NONAME ABSENT ; struct QMetaObject const * HbAbstractItemView::metaObject(void) const
	??0HbInputModeCache@@AAE@XZ @ 1668 NONAME ; HbInputModeCache::HbInputModeCache(void)
	?staticMetaObject@HbFontProvider@@2UQMetaObject@@B @ 1669 NONAME ABSENT ; struct QMetaObject const HbFontProvider::staticMetaObject
	?metaObject@HbPopupBase@@UBEPBUQMetaObject@@XZ @ 1670 NONAME ABSENT ; struct QMetaObject const * HbPopupBase::metaObject(void) const
	?trUtf8@HbGestureFilter@@SA?AVQString@@PBD0@Z @ 1671 NONAME ABSENT ; class QString HbGestureFilter::trUtf8(char const *, char const *)
	??0HbListWidget@@IAE@AAVHbListWidgetPrivate@@PAVHbAbstractItemContainer@@PAVQGraphicsItem@@@Z @ 1672 NONAME ABSENT ; HbListWidget::HbListWidget(class HbListWidgetPrivate &, class HbAbstractItemContainer *, class QGraphicsItem *)
	??0HbToolBarExtension@@IAE@AAVHbToolBarExtensionPrivate@@PAVQGraphicsItem@@@Z @ 1673 NONAME ; HbToolBarExtension::HbToolBarExtension(class HbToolBarExtensionPrivate &, class QGraphicsItem *)
	??0HbInteractionPlugin@@QAE@XZ @ 1674 NONAME ABSENT ; HbInteractionPlugin::HbInteractionPlugin(void)
	?findFromStack@HbXmlLoaderAbstractActions@@QBEPAVQObject@@PA_N@Z @ 1675 NONAME ABSENT ; class QObject * HbXmlLoaderAbstractActions::findFromStack(bool *) const
	?lexemUntil@Parser@HbCss@@QAE?AVQString@@W4TokenType@2@@Z @ 1676 NONAME ; class QString HbCss::Parser::lexemUntil(enum HbCss::TokenType)
	?id@HbExtraUserDictionary@@UBEHXZ @ 1677 NONAME ; int HbExtraUserDictionary::id(void) const
	?d_func@HbGraphicsPixmapItem@@ABEPBVHbGraphicsPixmapItemPrivate@@XZ @ 1678 NONAME ABSENT ; class HbGraphicsPixmapItemPrivate const * HbGraphicsPixmapItem::d_func(void) const
	?numberOfWords@HbExtraUserDictionary@@UBEHXZ @ 1679 NONAME ; int HbExtraUserDictionary::numberOfWords(void) const
	?incrementUseCount@HbExtraDictionaryCollection@@QAEXABVQString@@@Z @ 1680 NONAME ; void HbExtraDictionaryCollection::incrementUseCount(class QString const &)
	?qt_metacall@HbLabel@@UAEHW4Call@QMetaObject@@HPAPAX@Z @ 1681 NONAME ABSENT ; int HbLabel::qt_metacall(enum QMetaObject::Call, int, void * *)
	?currentView@HbMainWindow@@QBEPAVHbView@@XZ @ 1682 NONAME ; class HbView * HbMainWindow::currentView(void) const
	?setAutoRepeatInterval@HbAbstractButton@@QAEXH@Z @ 1683 NONAME ; void HbAbstractButton::setAutoRepeatInterval(int)
	??1HbStyleOptionSettingGroup@@QAE@XZ @ 1684 NONAME ABSENT ; HbStyleOptionSettingGroup::~HbStyleOptionSettingGroup(void)
	?trUtf8@HbFontProvider@@SA?AVQString@@PBD0H@Z @ 1685 NONAME ABSENT ; class QString HbFontProvider::trUtf8(char const *, char const *, int)
	?tr@HbInteractionManager@@SA?AVQString@@PBD0H@Z @ 1686 NONAME ABSENT ; class QString HbInteractionManager::tr(char const *, char const *, int)
	?globalInputLanguageChanged@HbInputSettingProxy@@IAEXABVHbInputLanguage@@@Z @ 1687 NONAME ; void HbInputSettingProxy::globalInputLanguageChanged(class HbInputLanguage const &)
	?qt_metacast@HbDeviceDialog@@UAEPAXPBD@Z @ 1688 NONAME ; void * HbDeviceDialog::qt_metacast(char const *)
	?pluginBaseId@HbWidget@@QBEHXZ @ 1689 NONAME ABSENT ; int HbWidget::pluginBaseId(void) const
	?symbol@Parser@HbCss@@QBEABUSymbol@2@XZ @ 1690 NONAME ; struct HbCss::Symbol const & HbCss::Parser::symbol(void) const
	?qt_metacall@HbListWidgetViewItem@@UAEHW4Call@QMetaObject@@HPAPAX@Z @ 1691 NONAME ABSENT ; int HbListWidgetViewItem::qt_metacall(enum QMetaObject::Call, int, void * *)
	?qt_metacall@HbGesture@@UAEHW4Call@QMetaObject@@HPAPAX@Z @ 1692 NONAME ABSENT ; int HbGesture::qt_metacall(enum QMetaObject::Call, int, void * *)
	?metaObject@HbGestureSceneFilter@@UBEPBUQMetaObject@@XZ @ 1693 NONAME ABSENT ; struct QMetaObject const * HbGestureSceneFilter::metaObject(void) const
	?setTextCase@HbEditorInterface@@QAEXH@Z @ 1694 NONAME ABSENT ; void HbEditorInterface::setTextCase(int)
	?negativeCurrencyFormat@HbExtendedLocale@@QBE?AW4NegativeCurrencyFormat@1@XZ @ 1695 NONAME ; enum HbExtendedLocale::NegativeCurrencyFormat HbExtendedLocale::negativeCurrencyFormat(void) const
	?dataChanged@HbIndicatorInterface@@IAEXXZ @ 1696 NONAME ; void HbIndicatorInterface::dataChanged(void)
	?activeHwKeyboardChanged@HbInputSettingProxy@@IAEXV?$QFlags@W4HbKeyboardTypeFlag@@@@@Z @ 1697 NONAME ABSENT ; void HbInputSettingProxy::activeHwKeyboardChanged(class QFlags<enum HbKeyboardTypeFlag>)
	?isLatinAlphabetLanguage@HbInputLanguage@@QBE_NXZ @ 1698 NONAME ; bool HbInputLanguage::isLatinAlphabetLanguage(void) const
	?error@HbDeviceDialog@@QBEHXZ @ 1699 NONAME ; int HbDeviceDialog::error(void) const
	??0HbStyleOptionGridViewItem@@QAE@XZ @ 1700 NONAME ABSENT ; HbStyleOptionGridViewItem::HbStyleOptionGridViewItem(void)
	?tr@HbPredictionFactory@@SA?AVQString@@PBD0H@Z @ 1701 NONAME ; class QString HbPredictionFactory::tr(char const *, char const *, int)
	?trUtf8@HbFocusObjectWidget@@SA?AVQString@@PBD0@Z @ 1702 NONAME ABSENT ; class QString HbFocusObjectWidget::trUtf8(char const *, char const *)
	??0HbStyleOptionScrollBar@@QAE@XZ @ 1703 NONAME ABSENT ; HbStyleOptionScrollBar::HbStyleOptionScrollBar(void)
	?d_func@HbListItemContainer@@ABEPBVHbListItemContainerPrivate@@XZ @ 1704 NONAME ABSENT ; class HbListItemContainerPrivate const * HbListItemContainer::d_func(void) const
	?sizeHint@HbScrollArea@@MBE?AVQSizeF@@W4SizeHint@Qt@@ABV2@@Z @ 1705 NONAME ; class QSizeF HbScrollArea::sizeHint(enum Qt::SizeHint, class QSizeF const &) const
	?free@HbSharedMemoryManager@@UAEXH@Z @ 1706 NONAME ; void HbSharedMemoryManager::free(int)
	?qt_metacall@HbInteractionListener@@UAEHW4Call@QMetaObject@@HPAPAX@Z @ 1707 NONAME ABSENT ; int HbInteractionListener::qt_metacall(enum QMetaObject::Call, int, void * *)
	?tr@HbInteractionListener@@SA?AVQString@@PBD0@Z @ 1708 NONAME ABSENT ; class QString HbInteractionListener::tr(char const *, char const *)
	?addWidget@HbStackedWidget@@QAEHPAVQGraphicsWidget@@@Z @ 1709 NONAME ; int HbStackedWidget::addWidget(class QGraphicsWidget *)
	?remove@HbEffect@@SA_NPAVQGraphicsItem@@@Z @ 1710 NONAME ; bool HbEffect::remove(class QGraphicsItem *)
	?dateSeparator@HbExtendedLocale@@QBE?AVQChar@@H@Z @ 1711 NONAME ; class QChar HbExtendedLocale::dateSeparator(int) const
	?metaObject@HbIconAnimator@@UBEPBUQMetaObject@@XZ @ 1712 NONAME ; struct QMetaObject const * HbIconAnimator::metaObject(void) const
	?d_ptr@HbPopupPrivate@@CAPAV1@PAVHbPopup@@@Z @ 1713 NONAME ; class HbPopupPrivate * HbPopupPrivate::d_ptr(class HbPopup *)
	?_q_thumbPositionChanged@HbScrollAreaPrivate@@QAEXMW4Orientation@Qt@@@Z @ 1714 NONAME ; void HbScrollAreaPrivate::_q_thumbPositionChanged(float, enum Qt::Orientation)
	?setAutoExclusive@HbAbstractButton@@QAEX_N@Z @ 1715 NONAME ; void HbAbstractButton::setAutoExclusive(bool)
	?frictionEnabled@HbScrollArea@@QBE_NXZ @ 1716 NONAME ; bool HbScrollArea::frictionEnabled(void) const
	?releaseFocus@HbFocusObjectGraphicsWidget@@UAEXXZ @ 1717 NONAME ABSENT ; void HbFocusObjectGraphicsWidget::releaseFocus(void)
	?popupClosed@HbInteractionListener@@MAEXPBVQObject@@@Z @ 1718 NONAME ABSENT ; void HbInteractionListener::popupClosed(class QObject const *)
	?rowsAboutToBeInserted@HbAbstractItemView@@MAEXABVQModelIndex@@HH@Z @ 1719 NONAME ABSENT ; void HbAbstractItemView::rowsAboutToBeInserted(class QModelIndex const &, int, int)
	??0HbStyleOptionAbstractViewItem@@QAE@XZ @ 1720 NONAME ABSENT ; HbStyleOptionAbstractViewItem::HbStyleOptionAbstractViewItem(void)
	??1HbPopup@@UAE@XZ @ 1721 NONAME ; HbPopup::~HbPopup(void)
	?mouseReleaseEvent@HbScrollBar@@MAEXPAVQGraphicsSceneMouseEvent@@@Z @ 1722 NONAME ; void HbScrollBar::mouseReleaseEvent(class QGraphicsSceneMouseEvent *)
	?lookup@Parser@HbCss@@QBE?AW4TokenType@2@XZ @ 1723 NONAME ; enum HbCss::TokenType HbCss::Parser::lookup(void) const
	?longPressCallback@HbGesture@@QAEXVQPointF@@@Z @ 1724 NONAME ABSENT ; void HbGesture::longPressCallback(class QPointF)
	??1HbStyleOptionIndicatorPopup@@QAE@XZ @ 1725 NONAME ABSENT ; HbStyleOptionIndicatorPopup::~HbStyleOptionIndicatorPopup(void)
	??0HbIconItem@@QAE@PAVQGraphicsItem@@@Z @ 1726 NONAME ; HbIconItem::HbIconItem(class QGraphicsItem *)
	?buttonType@HbInputCustomButton@@QBE?AW4HbCustomButtonType@1@XZ @ 1727 NONAME ABSENT ; enum HbInputCustomButton::HbCustomButtonType HbInputCustomButton::buttonType(void) const
	?index@HbListModel@@UBE?AVQModelIndex@@HHABV2@@Z @ 1728 NONAME ABSENT ; class QModelIndex HbListModel::index(int, int, class QModelIndex const &) const
	?uniformSizedItems@HbTreeLayout@@QBE_NXZ @ 1729 NONAME ABSENT ; bool HbTreeLayout::uniformSizedItems(void) const
	?removeAt@HbStackedWidget@@QAEPAVQGraphicsWidget@@H@Z @ 1730 NONAME ; class QGraphicsWidget * HbStackedWidget::removeAt(int)
	??4HbListWidgetViewItemPrivate@@QAEAAV0@ABV0@@Z @ 1731 NONAME ABSENT ; class HbListWidgetViewItemPrivate & HbListWidgetViewItemPrivate::operator=(class HbListWidgetViewItemPrivate const &)
	?addChildItem@HbLayoutUtils@@SAXPAVQGraphicsLayout@@PAVQGraphicsLayoutItem@@@Z @ 1732 NONAME ; void HbLayoutUtils::addChildItem(class QGraphicsLayout *, class QGraphicsLayoutItem *)
	?tr@HbNumberGrouping@@SA?AVQString@@PBD0@Z @ 1733 NONAME ABSENT ; class QString HbNumberGrouping::tr(char const *, char const *)
	?setHeight@HbIcon@@QAEXM@Z @ 1734 NONAME ; void HbIcon::setHeight(float)
	?qt_metacall@HbTreeViewItem@@UAEHW4Call@QMetaObject@@HPAPAX@Z @ 1735 NONAME ABSENT ; int HbTreeViewItem::qt_metacall(enum QMetaObject::Call, int, void * *)
	?insertMenu@HbMenu@@QAEPAVHbAction@@PAV2@PAV1@@Z @ 1736 NONAME ; class HbAction * HbMenu::insertMenu(class HbAction *, class HbMenu *)
	?mousePressEvent@HbToolButton@@MAEXPAVQGraphicsSceneMouseEvent@@@Z @ 1737 NONAME ABSENT ; void HbToolButton::mousePressEvent(class QGraphicsSceneMouseEvent *)
	?trUtf8@HbDeviceDialogPlugin@@SA?AVQString@@PBD0H@Z @ 1738 NONAME ; class QString HbDeviceDialogPlugin::trUtf8(char const *, char const *, int)
	?itemPrototypes@HbAbstractItemContainer@@QBE?AV?$QList@PAVHbAbstractViewItem@@@@XZ @ 1739 NONAME ABSENT ; class QList<class HbAbstractViewItem *> HbAbstractItemContainer::itemPrototypes(void) const
	?d_func@HbWidget@@ABEPBVHbWidgetPrivate@@XZ @ 1740 NONAME ; class HbWidgetPrivate const * HbWidget::d_func(void) const
	??_EHbAnchorLayout@@UAE@I@Z @ 1741 NONAME ; HbAnchorLayout::~HbAnchorLayout(unsigned int)
	?setCurrentView@HbMainWindow@@QAEXPAVHbView@@_N@Z @ 1742 NONAME ABSENT ; void HbMainWindow::setCurrentView(class HbView *, bool)
	?base@HbHeapMemoryManager@@UAEPAXXZ @ 1743 NONAME ; void * HbHeapMemoryManager::base(void)
	?setFont@HbTextItem@@QAEXABVQFont@@@Z @ 1744 NONAME ABSENT ; void HbTextItem::setFont(class QFont const &)
	?error@HbDeviceDialog@@IAEXH@Z @ 1745 NONAME ; void HbDeviceDialog::error(int)
	?metaObject@HbPopup@@UBEPBUQMetaObject@@XZ @ 1746 NONAME ; struct QMetaObject const * HbPopup::metaObject(void) const
	??1ValueExtractor@HbCss@@QAE@XZ @ 1747 NONAME ; HbCss::ValueExtractor::~ValueExtractor(void)
	?changeEvent@HbFrameItem@@MAEXPAVQEvent@@@Z @ 1748 NONAME ; void HbFrameItem::changeEvent(class QEvent *)
	?add@HbEffect@@SA_NPAVQGraphicsItem@@ABVQString@@1@Z @ 1749 NONAME ; bool HbEffect::add(class QGraphicsItem *, class QString const &, class QString const &)
	?isKnownState@HbInputStateMachineHKChinese@@UBE_NABVHbInputState@@@Z @ 1750 NONAME ABSENT ; bool HbInputStateMachineHKChinese::isKnownState(class HbInputState const &) const
	?d_func@HbMainWindow@@AAEPAVHbMainWindowPrivate@@XZ @ 1751 NONAME ; class HbMainWindowPrivate * HbMainWindow::d_func(void)
	?freeMemory@HbMemoryUtils@@SAXW4MemoryType@HbMemoryManager@@AAH@Z @ 1752 NONAME ; void HbMemoryUtils::freeMemory(enum HbMemoryManager::MemoryType, int &)
	?d_func@HbSliderTickmarksItemLabel@@ABEPBVHbSliderTickmarksItemLabelPrivate@@XZ @ 1753 NONAME ABSENT ; class HbSliderTickmarksItemLabelPrivate const * HbSliderTickmarksItemLabel::d_func(void) const
	?setItemPrototype@HbAbstractItemView@@QAEXPAVHbAbstractViewItem@@@Z @ 1754 NONAME ABSENT ; void HbAbstractItemView::setItemPrototype(class HbAbstractViewItem *)
	??1HbInputStateMachineLatinFinger@@UAE@XZ @ 1755 NONAME ABSENT ; HbInputStateMachineLatinFinger::~HbInputStateMachineLatinFinger(void)
	?sizeHint@HbTouchArea@@MBE?AVQSizeF@@W4SizeHint@Qt@@ABV2@@Z @ 1756 NONAME ; class QSizeF HbTouchArea::sizeHint(enum Qt::SizeHint, class QSizeF const &) const
	?setExpanded@HbListWidgetViewItem@@QAEX_N@Z @ 1757 NONAME ABSENT ; void HbListWidgetViewItem::setExpanded(bool)
	?itemAt@HbListItemStandardLayout@@UBEPAVQGraphicsLayoutItem@@H@Z @ 1758 NONAME ABSENT ; class QGraphicsLayoutItem * HbListItemStandardLayout::itemAt(int) const
	?tr@HbScrollBar@@SA?AVQString@@PBD0H@Z @ 1759 NONAME ; class QString HbScrollBar::tr(char const *, char const *, int)
	?deactivate@HbScrollBar@@QAEXXZ @ 1760 NONAME ABSENT ; void HbScrollBar::deactivate(void)
	??0HbInputLanguage@@QAE@W4Language@QLocale@@W4Country@2@@Z @ 1761 NONAME ; HbInputLanguage::HbInputLanguage(enum QLocale::Language, enum QLocale::Country)
	??_EHbFontProvider@@UAE@I@Z @ 1762 NONAME ABSENT ; HbFontProvider::~HbFontProvider(unsigned int)
	?autoRepeat@HbAbstractButton@@QBE_NXZ @ 1763 NONAME ; bool HbAbstractButton::autoRepeat(void) const
	?activeTouchKeyboardChanged@HbInputMethod@@QAEXV?$QFlags@W4HbKeyboardTypeFlag@@@@@Z @ 1764 NONAME ABSENT ; void HbInputMethod::activeTouchKeyboardChanged(class QFlags<enum HbKeyboardTypeFlag>)
	?sizeHint@HbTextItem@@MBE?AVQSizeF@@W4SizeHint@Qt@@ABV2@@Z @ 1765 NONAME ; class QSizeF HbTextItem::sizeHint(enum Qt::SizeHint, class QSizeF const &) const
	?maxCellSizeSupported@HbMultiSegmentAlgo@@QBEHXZ @ 1766 NONAME ABSENT ; int HbMultiSegmentAlgo::maxCellSizeSupported(void) const
	??_EHbItemHighlight@@UAE@I@Z @ 1767 NONAME ABSENT ; HbItemHighlight::~HbItemHighlight(unsigned int)
	?qicon@HbIcon@@QBEAAVQIcon@@XZ @ 1768 NONAME ; class QIcon & HbIcon::qicon(void) const
	??1HbStyleOptionTreeViewItem@@QAE@XZ @ 1769 NONAME ABSENT ; HbStyleOptionTreeViewItem::~HbStyleOptionTreeViewItem(void)
	?pseudoElement@Selector@HbCss@@QBE?AVQString@@XZ @ 1770 NONAME ; class QString HbCss::Selector::pseudoElement(void) const
	?tr@HbAction@@SA?AVQString@@PBD0@Z @ 1771 NONAME ; class QString HbAction::tr(char const *, char const *)
	?primitive@HbGridViewItem@@UBEPAVQGraphicsItem@@W4Primitive@HbStyle@@@Z @ 1772 NONAME ABSENT ; class QGraphicsItem * HbGridViewItem::primitive(enum HbStyle::Primitive) const
	?tr@HbToolBar@@SA?AVQString@@PBD0H@Z @ 1773 NONAME ; class QString HbToolBar::tr(char const *, char const *, int)
	?themeChanged@HbFrameDrawer@@QAEXXZ @ 1774 NONAME ; void HbFrameDrawer::themeChanged(void)
	?emitReleased@HbAbstractItemView@@MAEXABVQModelIndex@@@Z @ 1775 NONAME ABSENT ; void HbAbstractItemView::emitReleased(class QModelIndex const &)
	?polish@HbWidget@@MAEXAAVHbStyleParameters@@@Z @ 1776 NONAME ; void HbWidget::polish(class HbStyleParameters &)
	?metaObject@HbInteractionListener@@UBEPBUQMetaObject@@XZ @ 1777 NONAME ABSENT ; struct QMetaObject const * HbInteractionListener::metaObject(void) const
	?activateState@HbInputMethod@@QAE_NABVHbInputState@@@Z @ 1778 NONAME ; bool HbInputMethod::activateState(class HbInputState const &)
	?d_func@HbTreeViewItem@@ABEPBVHbTreeViewItemPrivate@@XZ @ 1779 NONAME ABSENT ; class HbTreeViewItemPrivate const * HbTreeViewItem::d_func(void) const
	?icon@HbView@@QBE?AVHbIcon@@XZ @ 1780 NONAME ; class HbIcon HbView::icon(void) const
	?trUtf8@HbLayoutDirectionNotifier@@SA?AVQString@@PBD0H@Z @ 1781 NONAME ; class QString HbLayoutDirectionNotifier::trUtf8(char const *, char const *, int)
	?setIconName@HbIcon@@QAEXABVQString@@W4Mode@QIcon@@W4State@4@@Z @ 1782 NONAME ; void HbIcon::setIconName(class QString const &, enum QIcon::Mode, enum QIcon::State)
	?mouseReleaseEvent@HbAbstractItemView@@MAEXPAVQGraphicsSceneMouseEvent@@@Z @ 1783 NONAME ABSENT ; void HbAbstractItemView::mouseReleaseEvent(class QGraphicsSceneMouseEvent *)
	?textFlags@HbRichTextItem@@QBEHXZ @ 1784 NONAME ABSENT ; int HbRichTextItem::textFlags(void) const
	??9HbIcon@@QBE_NABV0@@Z @ 1785 NONAME ; bool HbIcon::operator!=(class HbIcon const &) const
	?setValue@HbStyleParameters@@QAEXABVQString@@ABVQVariant@@@Z @ 1786 NONAME ; void HbStyleParameters::setValue(class QString const &, class QVariant const &)
	?setArrangeMode@HbListWidget@@UAE_N_N@Z @ 1787 NONAME ABSENT ; bool HbListWidget::setArrangeMode(bool)
	?qt_metacast@HbAbstractItemContainer@@UAEPAXPBD@Z @ 1788 NONAME ABSENT ; void * HbAbstractItemContainer::qt_metacast(char const *)
	?d_func@HbStyleParameters@@ABEPBVHbStyleParametersPrivate@@XZ @ 1789 NONAME ; class HbStyleParametersPrivate const * HbStyleParameters::d_func(void) const
	?setModal@HbPopupBase@@QAEX_N@Z @ 1790 NONAME ABSENT ; void HbPopupBase::setModal(bool)
	?borderImageValue@Declaration@HbCss@@QBEXPAVQString@@PAHPAW4TileMode@2@2@Z @ 1791 NONAME ABSENT ; void HbCss::Declaration::borderImageValue(class QString *, int *, enum HbCss::TileMode *, enum HbCss::TileMode *) const
	?qt_metacall@HbSoftKey@@UAEHW4Call@QMetaObject@@HPAPAX@Z @ 1792 NONAME ABSENT ; int HbSoftKey::qt_metacall(enum QMetaObject::Call, int, void * *)
	?parseSelector@Parser@HbCss@@QAE_NPAUSelector@2@@Z @ 1793 NONAME ; bool HbCss::Parser::parseSelector(struct HbCss::Selector *)
	??1HbXmlLoaderAbstractActions@@UAE@XZ @ 1794 NONAME ; HbXmlLoaderAbstractActions::~HbXmlLoaderAbstractActions(void)
	?setActiveHwKeyboard@HbInputSettingProxy@@QAEXV?$QFlags@W4HbKeyboardTypeFlag@@@@@Z @ 1795 NONAME ABSENT ; void HbInputSettingProxy::setActiveHwKeyboard(class QFlags<enum HbKeyboardTypeFlag>)
	?layoutDirectionChangeFinished@HbLayoutDirectionNotifier@@IAEXXZ @ 1796 NONAME ; void HbLayoutDirectionNotifier::layoutDirectionChangeFinished(void)
	?addAction@HbToolBar@@QAEPAVHbAction@@ABVHbIcon@@ABVQString@@@Z @ 1797 NONAME ; class HbAction * HbToolBar::addAction(class HbIcon const &, class QString const &)
	?setFilter@HbEditorInterface@@QAEXPAVHbInputFilter@@@Z @ 1798 NONAME ; void HbEditorInterface::setFilter(class HbInputFilter *)
	?setDefaultFrame@HbAbstractViewItem@@QAEXABVHbFrameBackground@@@Z @ 1799 NONAME ABSENT ; void HbAbstractViewItem::setDefaultFrame(class HbFrameBackground const &)
	??0HbInputContextProxy@@QAE@PAVQInputContext@@@Z @ 1800 NONAME ABSENT ; HbInputContextProxy::HbInputContextProxy(class QInputContext *)
	?resourcePath@HbInputSettingProxy@@SA?AVQString@@XZ @ 1801 NONAME ABSENT ; class QString HbInputSettingProxy::resourcePath(void)
	?d_func@HbTreeView@@ABEPBVHbTreeViewPrivate@@XZ @ 1802 NONAME ABSENT ; class HbTreeViewPrivate const * HbTreeView::d_func(void) const
	?extractPalette@ValueExtractor@HbCss@@QAE_NPAVQBrush@@000@Z @ 1803 NONAME ABSENT ; bool HbCss::ValueExtractor::extractPalette(class QBrush *, class QBrush *, class QBrush *, class QBrush *)
	?getStaticMetaObject@HbAbstractItemView@@SAABUQMetaObject@@XZ @ 1804 NONAME ABSENT ; struct QMetaObject const & HbAbstractItemView::getStaticMetaObject(void)
	?autoRepeatDelay@HbAbstractButton@@QBEHXZ @ 1805 NONAME ; int HbAbstractButton::autoRepeatDelay(void) const
	?count@HbAnchorLayout@@UBEHXZ @ 1806 NONAME ; int HbAnchorLayout::count(void) const
	??0HbGridViewItem@@QAE@PAVQGraphicsItem@@@Z @ 1807 NONAME ABSENT ; HbGridViewItem::HbGridViewItem(class QGraphicsItem *)
	?addPositionToQueue@HbScrollAreaPrivate@@QAEXABVQPointF@@M_N@Z @ 1808 NONAME ABSENT ; void HbScrollAreaPrivate::addPositionToQueue(class QPointF const &, float, bool)
	?setLanguage@HbPredictionBase@@UAE_NABVHbInputLanguage@@V?$QFlags@W4HbInputModeTypeFlag@@@@@Z @ 1809 NONAME ; bool HbPredictionBase::setLanguage(class HbInputLanguage const &, class QFlags<enum HbInputModeTypeFlag>)
	??1HbStyleOptionProgressNote@@QAE@XZ @ 1810 NONAME ABSENT ; HbStyleOptionProgressNote::~HbStyleOptionProgressNote(void)
	??0HbListItemStandardLayout@@QAE@PAVQGraphicsLayoutItem@@PAVHbListParams@@@Z @ 1811 NONAME ABSENT ; HbListItemStandardLayout::HbListItemStandardLayout(class QGraphicsLayoutItem *, class HbListParams *)
	?orientation@HbToolBar@@QBE?AW4Orientation@Qt@@XZ @ 1812 NONAME ; enum Qt::Orientation HbToolBar::orientation(void) const
	?click@HbAbstractButtonPrivate@@QAEXXZ @ 1813 NONAME ; void HbAbstractButtonPrivate::click(void)
	?text@HbListWidgetItem@@QBE?AVQString@@XZ @ 1814 NONAME ABSENT ; class QString HbListWidgetItem::text(void) const
	?updatePrimitives@HbSoftKey@@UAEXXZ @ 1815 NONAME ABSENT ; void HbSoftKey::updatePrimitives(void)
	?plugins@HbInteractionManager@@QAEAAVHbInteractionPluginGroup@@XZ @ 1816 NONAME ABSENT ; class HbInteractionPluginGroup & HbInteractionManager::plugins(void)
	??_EHbTreeView@@UAE@I@Z @ 1817 NONAME ABSENT ; HbTreeView::~HbTreeView(unsigned int)
	?trUtf8@HbInputCustomButtonBank@@SA?AVQString@@PBD0H@Z @ 1818 NONAME ABSENT ; class QString HbInputCustomButtonBank::trUtf8(char const *, char const *, int)
	??4HbVariant@@QAEAAV0@N@Z @ 1819 NONAME ; class HbVariant & HbVariant::operator=(double)
	?setWorkDays@HbExtendedLocale@@QAE_NVQString@@@Z @ 1820 NONAME ABSENT ; bool HbExtendedLocale::setWorkDays(class QString)
	??0HbGridView@@IAE@AAVHbGridViewPrivate@@PAVHbAbstractItemContainer@@PAVQGraphicsItem@@@Z @ 1821 NONAME ABSENT ; HbGridView::HbGridView(class HbGridViewPrivate &, class HbAbstractItemContainer *, class QGraphicsItem *)
	?addSoftKeyAction@HbMainWindow@@QAEXW4SoftKeyId@Hb@@PAVHbAction@@@Z @ 1822 NONAME ABSENT ; void HbMainWindow::addSoftKeyAction(enum Hb::SoftKeyId, class HbAction *)
	?staticMetaObject@HbItemHighlight@@2UQMetaObject@@B @ 1823 NONAME ABSENT ; struct QMetaObject const HbItemHighlight::staticMetaObject
	??0HbAnchor@@QAE@PAVQGraphicsLayoutItem@@W4Edge@Hb@@01M@Z @ 1824 NONAME ; HbAnchor::HbAnchor(class QGraphicsLayoutItem *, enum Hb::Edge, class QGraphicsLayoutItem *, enum Hb::Edge, float)
	?setIconVisible@HbGridView@@QAEX_N@Z @ 1825 NONAME ABSENT ; void HbGridView::setIconVisible(bool)
	?setCurrentRow@HbListWidget@@QAEXH@Z @ 1826 NONAME ABSENT ; void HbListWidget::setCurrentRow(int)
	?itemView@HbAbstractViewItem@@QBEPAVHbAbstractItemView@@XZ @ 1827 NONAME ABSENT ; class HbAbstractItemView * HbAbstractViewItem::itemView(void) const
	?setItemRecycling@HbAbstractItemContainer@@QAEX_N@Z @ 1828 NONAME ABSENT ; void HbAbstractItemContainer::setItemRecycling(bool)
	?textCase@HbEditorInterface@@QBEHXZ @ 1829 NONAME ABSENT ; int HbEditorInterface::textCase(void) const
	?variant@HbInputLanguage@@QBE?AW4Country@QLocale@@XZ @ 1830 NONAME ; enum QLocale::Country HbInputLanguage::variant(void) const
	?d_func@HbAbstractItemContainer@@AAEPAVHbAbstractItemContainerPrivate@@XZ @ 1831 NONAME ABSENT ; class HbAbstractItemContainerPrivate * HbAbstractItemContainer::d_func(void)
	?trUtf8@HbView@@SA?AVQString@@PBD0@Z @ 1832 NONAME ; class QString HbView::trUtf8(char const *, char const *)
	?shutDown@HbPredictionFactory@@QAEXXZ @ 1833 NONAME ; void HbPredictionFactory::shutDown(void)
	?createItem@HbGridViewItem@@UAEPAVHbAbstractViewItem@@XZ @ 1834 NONAME ABSENT ; class HbAbstractViewItem * HbGridViewItem::createItem(void)
	?staticMetaObject@HbInputMethod@@2UQMetaObject@@B @ 1835 NONAME ; struct QMetaObject const HbInputMethod::staticMetaObject
	?icon@HbIconItem@@QBE?AVHbIcon@@XZ @ 1836 NONAME ; class HbIcon HbIconItem::icon(void) const
	?staticMetaObject@HbGestureSceneFilter@@2UQMetaObject@@B @ 1837 NONAME ABSENT ; struct QMetaObject const HbGestureSceneFilter::staticMetaObject
	?currencySymbol@HbExtendedLocale@@QBE?AVQString@@XZ @ 1838 NONAME ; class QString HbExtendedLocale::currencySymbol(void) const
	?metaObject@HbFocusObjectWidget@@UBEPBUQMetaObject@@XZ @ 1839 NONAME ABSENT ; struct QMetaObject const * HbFocusObjectWidget::metaObject(void) const
	?findF@HbStringUtil@@SAHABVQString@@0@Z @ 1840 NONAME ; int HbStringUtil::findF(class QString const &, class QString const &)
	?physicalFont@HbFontProvider@@QBE?AVQFont@@W4LogicalFontName@Hb@@@Z @ 1841 NONAME ABSENT ; class QFont HbFontProvider::physicalFont(enum Hb::LogicalFontName) const
	?editorSurroundingText@HbFocusObjectWidget@@UAE?AVQString@@XZ @ 1842 NONAME ABSENT ; class QString HbFocusObjectWidget::editorSurroundingText(void)
	?qt_metacall@HbGridViewItem@@UAEHW4Call@QMetaObject@@HPAPAX@Z @ 1843 NONAME ABSENT ; int HbGridViewItem::qt_metacall(enum QMetaObject::Call, int, void * *)
	?parentWidget@HbLayoutUtils@@SAPAVQGraphicsWidget@@PAVQGraphicsLayout@@@Z @ 1844 NONAME ; class QGraphicsWidget * HbLayoutUtils::parentWidget(class QGraphicsLayout *)
	?trUtf8@HbIndicator@@SA?AVQString@@PBD0H@Z @ 1845 NONAME ; class QString HbIndicator::trUtf8(char const *, char const *, int)
	?trUtf8@HbLabel@@SA?AVQString@@PBD0@Z @ 1846 NONAME ABSENT ; class QString HbLabel::trUtf8(char const *, char const *)
	?setSecondaryDecorationIcon@HbListWidgetItem@@QAEXABVHbIcon@@@Z @ 1847 NONAME ABSENT ; void HbListWidgetItem::setSecondaryDecorationIcon(class HbIcon const &)
	?setLayoutDirection@HbTextItem@@QAEXW4LayoutDirection@Qt@@@Z @ 1848 NONAME ABSENT ; void HbTextItem::setLayoutDirection(enum Qt::LayoutDirection)
	?qt_metacall@HbDecorator@@UAEHW4Call@QMetaObject@@HPAPAX@Z @ 1849 NONAME ABSENT ; int HbDecorator::qt_metacall(enum QMetaObject::Call, int, void * *)
	?metaObject@HbInteractionPluginGroup@@UBEPBUQMetaObject@@XZ @ 1850 NONAME ABSENT ; struct QMetaObject const * HbInteractionPluginGroup::metaObject(void) const
	?setText@HbRichTextItem@@QAEXABVQString@@@Z @ 1851 NONAME ; void HbRichTextItem::setText(class QString const &)
	?menu@HbView@@QBEPAVHbMenu@@XZ @ 1852 NONAME ; class HbMenu * HbView::menu(void) const
	?setVerticalScrollBar@HbScrollArea@@QAEXPAVHbScrollBar@@@Z @ 1853 NONAME ; void HbScrollArea::setVerticalScrollBar(class HbScrollBar *)
	??_EHbTreeViewItem@@UAE@I@Z @ 1854 NONAME ABSENT ; HbTreeViewItem::~HbTreeViewItem(unsigned int)
	?addAction@HbEditorInterface@@QAEXPAVHbAction@@@Z @ 1855 NONAME ; void HbEditorInterface::addAction(class HbAction *)
	?qt_metacast@HbInteractionPluginGroup@@UAEPAXPBD@Z @ 1856 NONAME ABSENT ; void * HbInteractionPluginGroup::qt_metacast(char const *)
	?ensureVisible@HbScrollArea@@QAEXABVQPointF@@MM@Z @ 1857 NONAME ; void HbScrollArea::ensureVisible(class QPointF const &, float, float)
	??1HbInteractionGestureEvent@@UAE@XZ @ 1858 NONAME ABSENT ; HbInteractionGestureEvent::~HbInteractionGestureEvent(void)
	?instance@HbDirectoryNameLocalizer@@SAPAV1@XZ @ 1859 NONAME ABSENT ; class HbDirectoryNameLocalizer * HbDirectoryNameLocalizer::instance(void)
	?resolvePlugin@HbInputModeCache@@QAE_NABVHbInputMode@@AAVQString@@1@Z @ 1860 NONAME ABSENT ; bool HbInputModeCache::resolvePlugin(class HbInputMode const &, class QString &, class QString &)
	?attributeToBitIndex@HbWidgetPrivate@@QBEHW4WidgetAttribute@Qt@@@Z @ 1861 NONAME ABSENT ; int HbWidgetPrivate::attributeToBitIndex(enum Qt::WidgetAttribute) const
	??1HbInputLowerCaseFilter@@UAE@XZ @ 1862 NONAME ; HbInputLowerCaseFilter::~HbInputLowerCaseFilter(void)
	?animator@HbIcon@@QAEAAVHbIconAnimator@@XZ @ 1863 NONAME ABSENT ; class HbIconAnimator & HbIcon::animator(void)
	?gestureSceneFilterChanged@HbScrollArea@@IAEXPAVHbGestureSceneFilter@@@Z @ 1864 NONAME ABSENT ; void HbScrollArea::gestureSceneFilterChanged(class HbGestureSceneFilter *)
	?setMirroringMode@HbIcon@@QAEXW4MirroringMode@1@@Z @ 1865 NONAME ; void HbIcon::setMirroringMode(enum HbIcon::MirroringMode)
	?activate@HbScrollBar@@QAEXXZ @ 1866 NONAME ABSENT ; void HbScrollBar::activate(void)
	?tr@HbListView@@SA?AVQString@@PBD0@Z @ 1867 NONAME ABSENT ; class QString HbListView::tr(char const *, char const *)
	?d_func@HbScrollArea@@AAEPAVHbScrollAreaPrivate@@XZ @ 1868 NONAME ; class HbScrollAreaPrivate * HbScrollArea::d_func(void)
	?gestureTriggered@HbInteractionManager@@QAEXPBVQObject@@W4Gesture@Ia@@VQPointF@@@Z @ 1869 NONAME ABSENT ; void HbInteractionManager::gestureTriggered(class QObject const *, enum Ia::Gesture, class QPointF)
	?getStaticMetaObject@HbGraphicsPixmapItem@@SAABUQMetaObject@@XZ @ 1870 NONAME ABSENT ; struct QMetaObject const & HbGraphicsPixmapItem::getStaticMetaObject(void)
	??0HbIconAnimationManager@@QAE@XZ @ 1871 NONAME ; HbIconAnimationManager::HbIconAnimationManager(void)
	??_EHbStackedLayout@@UAE@I@Z @ 1872 NONAME ; HbStackedLayout::~HbStackedLayout(unsigned int)
	?tr@HbInputFilter@@SA?AVQString@@PBD0@Z @ 1873 NONAME ; class QString HbInputFilter::tr(char const *, char const *)
	??0HbSharedMemoryManager@@IAE@XZ @ 1874 NONAME ; HbSharedMemoryManager::HbSharedMemoryManager(void)
	?free@HbHeapMemoryManager@@UAEXH@Z @ 1875 NONAME ; void HbHeapMemoryManager::free(int)
	??_EHbIconItem@@UAE@I@Z @ 1876 NONAME ; HbIconItem::~HbIconItem(unsigned int)
	?isTypeOf@HbTouchArea@@UBE_NH@Z @ 1877 NONAME ABSENT ; bool HbTouchArea::isTypeOf(int) const
	?toStringList@HbVariant@@QBE?AVQStringList@@XZ @ 1878 NONAME ; class QStringList HbVariant::toStringList(void) const
	?addAction@HbSoftKey@@QAEXPAVHbAction@@@Z @ 1879 NONAME ABSENT ; void HbSoftKey::addAction(class HbAction *)
	??0HbPopup@@QAE@PAVQGraphicsItem@@@Z @ 1880 NONAME ; HbPopup::HbPopup(class QGraphicsItem *)
	??1HbGestureFilter@@UAE@XZ @ 1881 NONAME ABSENT ; HbGestureFilter::~HbGestureFilter(void)
	?longPressGesture@HbScrollArea@@MAEXABVQPointF@@@Z @ 1882 NONAME ; void HbScrollArea::longPressGesture(class QPointF const &)
	?pressed@HbAbstractButton@@IAEXXZ @ 1883 NONAME ; void HbAbstractButton::pressed(void)
	?staticMetaObject@HbGesture@@2UQMetaObject@@B @ 1884 NONAME ABSENT ; struct QMetaObject const HbGesture::staticMetaObject
	??0HbTextItem@@QAE@ABVQString@@PAVQGraphicsItem@@@Z @ 1885 NONAME ; HbTextItem::HbTextItem(class QString const &, class QGraphicsItem *)
	?disableDictionary@HbExtraDictionaryCollection@@QAEXH@Z @ 1886 NONAME ; void HbExtraDictionaryCollection::disableDictionary(int)
	?mouseHandler@HbInputMethodNull@@UAEXHPAVQMouseEvent@@@Z @ 1887 NONAME ; void HbInputMethodNull::mouseHandler(int, class QMouseEvent *)
	?tr@HbInteractionManager@@SA?AVQString@@PBD0@Z @ 1888 NONAME ABSENT ; class QString HbInteractionManager::tr(char const *, char const *)
	??0HbPopupBasePrivate@@QAE@XZ @ 1889 NONAME ABSENT ; HbPopupBasePrivate::HbPopupBasePrivate(void)
	?orientationAboutToChange@HbInputMethod@@UAEXXZ @ 1890 NONAME ; void HbInputMethod::orientationAboutToChange(void)
	?trUtf8@HbLayoutDirectionNotifier@@SA?AVQString@@PBD0@Z @ 1891 NONAME ; class QString HbLayoutDirectionNotifier::trUtf8(char const *, char const *)
	?d_func@HbListView@@ABEPBVHbListViewPrivate@@XZ @ 1892 NONAME ABSENT ; class HbListViewPrivate const * HbListView::d_func(void) const
	?stateMachineRemoved@HbInputMethod@@QAEXPAVHbInputStateMachine@@@Z @ 1893 NONAME ABSENT ; void HbInputMethod::stateMachineRemoved(class HbInputStateMachine *)
	?setResolution@HbIconLoader@@QAEXH@Z @ 1894 NONAME ; void HbIconLoader::setResolution(int)
	?processLayout@HbXmlLoaderAbstractSyntax@@UAE_NXZ @ 1895 NONAME ABSENT ; bool HbXmlLoaderAbstractSyntax::processLayout(void)
	?trUtf8@HbAbstractViewItem@@SA?AVQString@@PBD0H@Z @ 1896 NONAME ABSENT ; class QString HbAbstractViewItem::trUtf8(char const *, char const *, int)
	?addMenu@HbMenu@@QAEPAVHbAction@@PAV1@@Z @ 1897 NONAME ; class HbAction * HbMenu::addMenu(class HbMenu *)
	?getCleanAppName@HbMemoryUtils@@SAABVQString@@XZ @ 1898 NONAME ; class QString const & HbMemoryUtils::getCleanAppName(void)
	??0HbPredictionBase@@IAE@XZ @ 1899 NONAME ; HbPredictionBase::HbPredictionBase(void)
	?updateExpandItem@HbTreeViewItem@@MAEPAVQGraphicsLayoutItem@@XZ @ 1900 NONAME ABSENT ; class QGraphicsLayoutItem * HbTreeViewItem::updateExpandItem(void)
	?d_func@HbRichTextItem@@ABEPBVHbRichTextItemPrivate@@XZ @ 1901 NONAME ; class HbRichTextItemPrivate const * HbRichTextItem::d_func(void) const
	?setFontSpec@HbTextItem@@QAEXABVHbFontSpec@@@Z @ 1902 NONAME ABSENT ; void HbTextItem::setFontSpec(class HbFontSpec const &)
	??9HbInputLanguage@@QBE_NABV0@@Z @ 1903 NONAME ; bool HbInputLanguage::operator!=(class HbInputLanguage const &) const
	?qt_metacall@HbAction@@UAEHW4Call@QMetaObject@@HPAPAX@Z @ 1904 NONAME ; int HbAction::qt_metacall(enum QMetaObject::Call, int, void * *)
	?removeItemStates@HbAbstractItemContainer@@QAEXXZ @ 1905 NONAME ABSENT ; void HbAbstractItemContainer::removeItemStates(void)
	?disable@HbEffect@@SAXPAVQGraphicsItem@@@Z @ 1906 NONAME ; void HbEffect::disable(class QGraphicsItem *)
	??0HbInputCustomButtonStore@@AAE@XZ @ 1907 NONAME ABSENT ; HbInputCustomButtonStore::HbInputCustomButtonStore(void)
	??_EHbInputUpperCaseFilter@@UAE@I@Z @ 1908 NONAME ; HbInputUpperCaseFilter::~HbInputUpperCaseFilter(unsigned int)
	??0HbFontSpec@@QAE@ABV0@@Z @ 1909 NONAME ; HbFontSpec::HbFontSpec(class HbFontSpec const &)
	?staticMetaObject@HbInputCustomButtonBank@@2UQMetaObject@@B @ 1910 NONAME ABSENT ; struct QMetaObject const HbInputCustomButtonBank::staticMetaObject
	?releaseFocus@HbInputMethod@@IAEXXZ @ 1911 NONAME ABSENT ; void HbInputMethod::releaseFocus(void)
	??0HbUrlFilter@@AAE@XZ @ 1912 NONAME ; HbUrlFilter::HbUrlFilter(void)
	?setValue@HbStyleParameters@@QAEXHABVQVariant@@@Z @ 1913 NONAME ; void HbStyleParameters::setValue(int, class QVariant const &)
	?staticMetaObject@HbExtraDictionaryFactory@@2UQMetaObject@@B @ 1914 NONAME ; struct QMetaObject const HbExtraDictionaryFactory::staticMetaObject
	?d_func@HbInputCustomButton@@AAEPAVHbInputCustomButtonPrivate@@XZ @ 1915 NONAME ABSENT ; class HbInputCustomButtonPrivate * HbInputCustomButton::d_func(void)
	?itemChange@HbScrollBar@@MAE?AVQVariant@@W4GraphicsItemChange@QGraphicsItem@@ABV2@@Z @ 1916 NONAME ; class QVariant HbScrollBar::itemChange(enum QGraphicsItem::GraphicsItemChange, class QVariant const &)
	?scrollPositionChanged@HbScrollArea@@IAEXVQPointF@@@Z @ 1917 NONAME ABSENT ; void HbScrollArea::scrollPositionChanged(class QPointF)
	?paint@HbFrameDrawer@@QBEXPAVQPainter@@ABVQRectF@@@Z @ 1918 NONAME ; void HbFrameDrawer::paint(class QPainter *, class QRectF const &) const
	??0HbIcon@@QAE@ABVQString@@@Z @ 1919 NONAME ; HbIcon::HbIcon(class QString const &)
	??1HbInputStateMachineTaiwanChinese@@UAE@XZ @ 1920 NONAME ABSENT ; HbInputStateMachineTaiwanChinese::~HbInputStateMachineTaiwanChinese(void)
	?clampToBoundaries@HbScrollAreaPrivate@@QAE_NAAMMMM@Z @ 1921 NONAME ; bool HbScrollAreaPrivate::clampToBoundaries(float &, float, float, float)
	?extractValue@ValueExtractor@HbCss@@QBE_NABVQString@@AAV?$QVector@UValue@HbCss@@@@@Z @ 1922 NONAME ABSENT ; bool HbCss::ValueExtractor::extractValue(class QString const &, class QVector<struct HbCss::Value> &) const
	??_EHbHeapMemoryManager@@UAE@I@Z @ 1923 NONAME ; HbHeapMemoryManager::~HbHeapMemoryManager(unsigned int)
	??8HbString@@QBE_NABV0@@Z @ 1924 NONAME ; bool HbString::operator==(class HbString const &) const
	?next@Parser@HbCss@@QAE?AW4TokenType@2@XZ @ 1925 NONAME ; enum HbCss::TokenType HbCss::Parser::next(void)
	??_EHbInteractionListener@@UAE@I@Z @ 1926 NONAME ABSENT ; HbInteractionListener::~HbInteractionListener(unsigned int)
	?language@HbInputMethodNull@@UAE?AVQString@@XZ @ 1927 NONAME ; class QString HbInputMethodNull::language(void)
	?remove@HbEffect@@SA_NPAVQGraphicsItem@@ABVQString@@1@Z @ 1928 NONAME ; bool HbEffect::remove(class QGraphicsItem *, class QString const &, class QString const &)
	?qt_metacall@HbFocusObjectWidget@@UAEHW4Call@QMetaObject@@HPAPAX@Z @ 1929 NONAME ABSENT ; int HbFocusObjectWidget::qt_metacall(enum QMetaObject::Call, int, void * *)
	?d_func@HbToolButton@@ABEPBVHbToolButtonPrivate@@XZ @ 1930 NONAME ; class HbToolButtonPrivate const * HbToolButton::d_func(void) const
	?updateChildItems@HbListWidgetViewItem@@UAEXXZ @ 1931 NONAME ABSENT ; void HbListWidgetViewItem::updateChildItems(void)
	?tr@HbSoftKey@@SA?AVQString@@PBD0@Z @ 1932 NONAME ABSENT ; class QString HbSoftKey::tr(char const *, char const *)
	?previousIndex@HbTreeView@@UBE?AVQModelIndex@@ABV2@@Z @ 1933 NONAME ABSENT ; class QModelIndex HbTreeView::previousIndex(class QModelIndex const &) const
	?undefined@HbInputLanguage@@QBE_NXZ @ 1934 NONAME ; bool HbInputLanguage::undefined(void) const
	??0HbDeviceDialogServer@@QAE@XZ @ 1935 NONAME ; HbDeviceDialogServer::HbDeviceDialogServer(void)
	?isComposing@HbInputMethodNull@@UBE_NXZ @ 1936 NONAME ; bool HbInputMethodNull::isComposing(void) const
	?isKnownState@HbInputStateMachinePrcChinese@@UBE_NABVHbInputState@@@Z @ 1937 NONAME ABSENT ; bool HbInputStateMachinePrcChinese::isKnownState(class HbInputState const &) const
	?toggle@HbAbstractButton@@QAEXXZ @ 1938 NONAME ; void HbAbstractButton::toggle(void)
	?qt_metacall@HbAbstractButton@@UAEHW4Call@QMetaObject@@HPAPAX@Z @ 1939 NONAME ; int HbAbstractButton::qt_metacall(enum QMetaObject::Call, int, void * *)
	?type@HbRichTextItem@@UBEHXZ @ 1940 NONAME ; int HbRichTextItem::type(void) const
	?emitClicked@HbAbstractButtonPrivate@@QAEXXZ @ 1941 NONAME ; void HbAbstractButtonPrivate::emitClicked(void)
	??1Declaration@HbCss@@QAE@XZ @ 1942 NONAME ; HbCss::Declaration::~Declaration(void)
	??4HbListWidgetViewItem@@IAEAAV0@ABV0@@Z @ 1943 NONAME ABSENT ; class HbListWidgetViewItem & HbListWidgetViewItem::operator=(class HbListWidgetViewItem const &)
	?writablePath@HbInputSettingProxy@@SA?AVQString@@XZ @ 1944 NONAME ; class QString HbInputSettingProxy::writablePath(void)
	?setGeometry@HbAnchorLayout@@UAEXABVQRectF@@@Z @ 1945 NONAME ; void HbAnchorLayout::setGeometry(class QRectF const &)
	?createGraphicsProxyWidget@HbInputUtils@@SAPAVQGraphicsWidget@@PAVQWidget@@@Z @ 1946 NONAME ; class QGraphicsWidget * HbInputUtils::createGraphicsProxyWidget(class QWidget *)
	?fillStringData@HbVariant@@AAEXABVQString@@@Z @ 1947 NONAME ABSENT ; void HbVariant::fillStringData(class QString const &)
	?isNull@HbIconItem@@QBE_NXZ @ 1948 NONAME ; bool HbIconItem::isNull(void) const
	?trUtf8@HbTheme@@SA?AVQString@@PBD0@Z @ 1949 NONAME ; class QString HbTheme::trUtf8(char const *, char const *)
	?metaObject@HbIconLoader@@UBEPBUQMetaObject@@XZ @ 1950 NONAME ; struct QMetaObject const * HbIconLoader::metaObject(void) const
	?editorTextSelection@HbFocusObjectWidget@@UAE?AVQString@@XZ @ 1951 NONAME ABSENT ; class QString HbFocusObjectWidget::editorTextSelection(void)
	?dataReceived@HbDeviceDialog@@IAEXV?$QMap@VQString@@VQVariant@@@@@Z @ 1952 NONAME ; void HbDeviceDialog::dataReceived(class QMap<class QString, class QVariant>)
	?forceRefresh@HbApplication@@AAEXXZ @ 1953 NONAME ABSENT ; void HbApplication::forceRefresh(void)
	?instance@HbInputStateMachineLatinWithEditKey@@SAPAV1@XZ @ 1954 NONAME ABSENT ; class HbInputStateMachineLatinWithEditKey * HbInputStateMachineLatinWithEditKey::instance(void)
	?metaObject@HbDeviceDialogPlugin@@UBEPBUQMetaObject@@XZ @ 1955 NONAME ; struct QMetaObject const * HbDeviceDialogPlugin::metaObject(void) const
	?iconName@HbIcon@@QBE?AVQString@@XZ @ 1956 NONAME ; class QString HbIcon::iconName(void) const
	?type@HbListViewItem@@UBEHXZ @ 1957 NONAME ABSENT ; int HbListViewItem::type(void) const
	?customButtonPressed@HbInputCustomButtonBank@@IAEXH@Z @ 1958 NONAME ABSENT ; void HbInputCustomButtonBank::customButtonPressed(int)
	?invalidate@HbAnchorLayout@@UAEXXZ @ 1959 NONAME ; void HbAnchorLayout::invalidate(void)
	?qt_metacall@HbLayoutDirectionNotifier@@UAEHW4Call@QMetaObject@@HPAPAX@Z @ 1960 NONAME ; int HbLayoutDirectionNotifier::qt_metacall(enum QMetaObject::Call, int, void * *)
	?updateChildItems@HbAbstractViewItem@@UAEXXZ @ 1961 NONAME ABSENT ; void HbAbstractViewItem::updateChildItems(void)
	?insertItem@HbStackedLayout@@QAEHHPAVQGraphicsLayoutItem@@@Z @ 1962 NONAME ; int HbStackedLayout::insertItem(int, class QGraphicsLayoutItem *)
	?rowsRemoved@HbTreeView@@MAEXABVQModelIndex@@HH@Z @ 1963 NONAME ABSENT ; void HbTreeView::rowsRemoved(class QModelIndex const &, int, int)
	?trUtf8@HbPopupBase@@SA?AVQString@@PBD0H@Z @ 1964 NONAME ABSENT ; class QString HbPopupBase::trUtf8(char const *, char const *, int)
	??5@YAAAVQDataStream@@AAV0@AAVHbIcon@@@Z @ 1965 NONAME ; class QDataStream & operator>>(class QDataStream &, class HbIcon &)
	?trUtf8@HbGraphicsScene@@SA?AVQString@@PBD0@Z @ 1966 NONAME ; class QString HbGraphicsScene::trUtf8(char const *, char const *)
	?transfer@HbInputMethod@@AAEXPAV1@@Z @ 1967 NONAME ABSENT ; void HbInputMethod::transfer(class HbInputMethod *)
	??_EHbGraphicsScene@@UAE@I@Z @ 1968 NONAME ; HbGraphicsScene::~HbGraphicsScene(unsigned int)
	?setMode@HbIconItem@@QAEXW4Mode@QIcon@@@Z @ 1969 NONAME ; void HbIconItem::setMode(enum QIcon::Mode)
	?qt_metacast@HbFontProvider@@UAEPAXPBD@Z @ 1970 NONAME ABSENT ; void * HbFontProvider::qt_metacast(char const *)
	??0HbStyleOptionSettingItem@@QAE@ABV0@@Z @ 1971 NONAME ABSENT ; HbStyleOptionSettingItem::HbStyleOptionSettingItem(class HbStyleOptionSettingItem const &)
	?secondaryDecorationText@HbListWidgetItem@@QBE?AVQString@@XZ @ 1972 NONAME ABSENT ; class QString HbListWidgetItem::secondaryDecorationText(void) const
	?showText@HbToolTip@@SAXABVQString@@PAVQGraphicsItem@@V?$QFlags@W4AlignmentFlag@Qt@@@@@Z @ 1973 NONAME ; void HbToolTip::showText(class QString const &, class QGraphicsItem *, class QFlags<enum Qt::AlignmentFlag>)
	?uniformItemSizes@HbAbstractItemView@@QBE_NXZ @ 1974 NONAME ABSENT ; bool HbAbstractItemView::uniformItemSizes(void) const
	?type@HbListWidgetViewItem@@UBEHXZ @ 1975 NONAME ABSENT ; int HbListWidgetViewItem::type(void) const
	?viewAt@HbMainWindow@@QBEPAVHbView@@H@Z @ 1976 NONAME ABSENT ; class HbView * HbMainWindow::viewAt(int) const
	?count@HbStyleParameters@@QAEHXZ @ 1977 NONAME ; int HbStyleParameters::count(void)
	?extractFont@ValueExtractor@HbCss@@QAE_NPAVQFont@@PAW4LogicalFontName@Hb@@PAH@Z @ 1978 NONAME ABSENT ; bool HbCss::ValueExtractor::extractFont(class QFont *, enum Hb::LogicalFontName *, int *)
	?setHorizontalScrollBar@HbScrollArea@@QAEXPAVHbScrollBar@@@Z @ 1979 NONAME ; void HbScrollArea::setHorizontalScrollBar(class HbScrollBar *)
	??0HbStyleOptionIndicatorPopup@@QAE@XZ @ 1980 NONAME ABSENT ; HbStyleOptionIndicatorPopup::HbStyleOptionIndicatorPopup(void)
	?isNull@HbDeviceProfile@@QBE_NXZ @ 1981 NONAME ; bool HbDeviceProfile::isNull(void) const
	?d_func@HbAbstractButton@@AAEPAVHbAbstractButtonPrivate@@XZ @ 1982 NONAME ; class HbAbstractButtonPrivate * HbAbstractButton::d_func(void)
	?enable@HbEffect@@SAXPAVQGraphicsItem@@@Z @ 1983 NONAME ; void HbEffect::enable(class QGraphicsItem *)
	?trUtf8@HbAction@@SA?AVQString@@PBD0@Z @ 1984 NONAME ; class QString HbAction::trUtf8(char const *, char const *)
	??1HbColorScheme@@AAE@XZ @ 1985 NONAME ABSENT ; HbColorScheme::~HbColorScheme(void)
	?tr@HbTestabilitySignal_p@@SA?AVQString@@PBD0H@Z @ 1986 NONAME ; class QString HbTestabilitySignal_p::tr(char const *, char const *, int)
	?remove@HbEffectInternal@@SAXPAVQGraphicsItem@@@Z @ 1987 NONAME ; void HbEffectInternal::remove(class QGraphicsItem *)
	?qt_metacall@HbTreeView@@UAEHW4Call@QMetaObject@@HPAPAX@Z @ 1988 NONAME ABSENT ; int HbTreeView::qt_metacall(enum QMetaObject::Call, int, void * *)
	?tr@HbListWidget@@SA?AVQString@@PBD0@Z @ 1989 NONAME ABSENT ; class QString HbListWidget::tr(char const *, char const *)
	??0HbStyleOptionPushButton@@QAE@ABV0@@Z @ 1990 NONAME ; HbStyleOptionPushButton::HbStyleOptionPushButton(class HbStyleOptionPushButton const &)
	?getStaticMetaObject@HbStackedWidget@@SAABUQMetaObject@@XZ @ 1991 NONAME ; struct QMetaObject const & HbStackedWidget::getStaticMetaObject(void)
	?d_func@HbAction@@AAEPAVHbActionPrivate@@XZ @ 1992 NONAME ; class HbActionPrivate * HbAction::d_func(void)
	?columnsInserted@HbAbstractItemView@@MAEXABVQModelIndex@@HH@Z @ 1993 NONAME ABSENT ; void HbAbstractItemView::columnsInserted(class QModelIndex const &, int, int)
	?tr@HbWidget@@SA?AVQString@@PBD0H@Z @ 1994 NONAME ; class QString HbWidget::tr(char const *, char const *, int)
	?tr@HbNgNormalNumber@@SA?AVQString@@PBD0H@Z @ 1995 NONAME ABSENT ; class QString HbNgNormalNumber::tr(char const *, char const *, int)
	?emitPressed@HbAbstractItemView@@MAEXABVQModelIndex@@@Z @ 1996 NONAME ABSENT ; void HbAbstractItemView::emitPressed(class QModelIndex const &)
	??_EHbFocusObjectWidget@@UAE@I@Z @ 1997 NONAME ABSENT ; HbFocusObjectWidget::~HbFocusObjectWidget(unsigned int)
	?count@HbInputCustomButtonBank@@QBEHXZ @ 1998 NONAME ABSENT ; int HbInputCustomButtonBank::count(void) const
	??0Selector@HbCss@@QAE@XZ @ 1999 NONAME ; HbCss::Selector::Selector(void)
	?setContentWidget@HbPopup@@QAEXPAVQGraphicsWidget@@@Z @ 2000 NONAME ABSENT ; void HbPopup::setContentWidget(class QGraphicsWidget *)
	?rightBoundary@HbScrollAreaPrivate@@QAEMXZ @ 2001 NONAME ABSENT ; float HbScrollAreaPrivate::rightBoundary(void)
	?positionOutOfBounds@HbScrollAreaPrivate@@QAE_NXZ @ 2002 NONAME ; bool HbScrollAreaPrivate::positionOutOfBounds(void)
	?setBufferSize@HbAbstractItemContainer@@QAEXH@Z @ 2003 NONAME ABSENT ; void HbAbstractItemContainer::setBufferSize(int)
	?lookUp@HbXmlLoaderAbstractActions@@QAEPAVQObject@@ABVQString@@00@Z @ 2004 NONAME ABSENT ; class QObject * HbXmlLoaderAbstractActions::lookUp(class QString const &, class QString const &, class QString const &)
	?setItemModelIndex@HbAbstractItemContainer@@MAEXPAVHbAbstractViewItem@@ABVQModelIndex@@@Z @ 2005 NONAME ABSENT ; void HbAbstractItemContainer::setItemModelIndex(class HbAbstractViewItem *, class QModelIndex const &)
	?itemState@HbAbstractItemContainer@@QBE?AV?$QMap@HVQVariant@@@@ABVQModelIndex@@@Z @ 2006 NONAME ABSENT ; class QMap<int, class QVariant> HbAbstractItemContainer::itemState(class QModelIndex const &) const
	?setListItemExpansion@HbListWidget@@QAEX_N@Z @ 2007 NONAME ABSENT ; void HbListWidget::setListItemExpansion(bool)
	??0HbStyleOptionCommonNote@@QAE@XZ @ 2008 NONAME ABSENT ; HbStyleOptionCommonNote::HbStyleOptionCommonNote(void)
	?q_func@HbAbstractViewItemPrivate@@ABEPBVHbAbstractViewItem@@XZ @ 2009 NONAME ABSENT ; class HbAbstractViewItem const * HbAbstractViewItemPrivate::q_func(void) const
	??0HbWidgetParams@@QAE@ABV0@@Z @ 2010 NONAME ABSENT ; HbWidgetParams::HbWidgetParams(class HbWidgetParams const &)
	?staticMetaObject@HbView@@2UQMetaObject@@B @ 2011 NONAME ; struct QMetaObject const HbView::staticMetaObject
	?indexOf@HbStyleParameters@@QAEHABVQString@@@Z @ 2012 NONAME ; int HbStyleParameters::indexOf(class QString const &)
	?trUtf8@HbStyleOld@@SA?AVQString@@PBD0H@Z @ 2013 NONAME ABSENT ; class QString HbStyleOld::trUtf8(char const *, char const *, int)
	?staticMetaObject@HbAbstractViewItem@@2UQMetaObject@@B @ 2014 NONAME ABSENT ; struct QMetaObject const HbAbstractViewItem::staticMetaObject
	?newBank@HbInputCustomButtonStore@@QAEPAVHbInputCustomButtonBank@@XZ @ 2015 NONAME ABSENT ; class HbInputCustomButtonBank * HbInputCustomButtonStore::newBank(void)
	??4HbIcon@@QAEAAV0@ABV0@@Z @ 2016 NONAME ; class HbIcon & HbIcon::operator=(class HbIcon const &)
	?d_func@HbIndicator@@ABEPBVHbIndicatorPrivate@@XZ @ 2017 NONAME ; class HbIndicatorPrivate const * HbIndicator::d_func(void) const
	?text@HbToolTip@@SA?AVQString@@PBVHbGraphicsScene@@@Z @ 2018 NONAME ; class QString HbToolTip::text(class HbGraphicsScene const *)
	?testPrio@Parser@HbCss@@QAE_NXZ @ 2019 NONAME ; bool HbCss::Parser::testPrio(void)
	?scrollByItems@HbAbstractItemViewPrivate@@QAEX_NH@Z @ 2020 NONAME ABSENT ; void HbAbstractItemViewPrivate::scrollByItems(bool, int)
	?isFeatureSupported@HbInteractionPluginGroup@@QAE_NVQString@@@Z @ 2021 NONAME ABSENT ; bool HbInteractionPluginGroup::isFeatureSupported(class QString)
	?extractPosition@ValueExtractor@HbCss@@QAE_NPAM00000PAW4Origin@2@PAV?$QFlags@W4AlignmentFlag@Qt@@@@PAW4PositionMode@2@2PAV?$QFlags@W4PositionAttrFlag@HbCss@@@@@Z @ 2022 NONAME ABSENT ; bool HbCss::ValueExtractor::extractPosition(float *, float *, float *, float *, float *, float *, enum HbCss::Origin *, class QFlags<enum Qt::AlignmentFlag> *, enum HbCss::PositionMode *, class QFlags<enum Qt::AlignmentFlag> *, class QFlags<enum HbCss::PositionAttrFlag> *)
	?readLayoutStartItem@HbXmlLoaderAbstractSyntax@@UAE_NXZ @ 2023 NONAME ABSENT ; bool HbXmlLoaderAbstractSyntax::readLayoutStartItem(void)
	?toolButtonStyle@HbToolButton@@QBE?AW4ToolButtonStyle@1@XZ @ 2024 NONAME ABSENT ; enum HbToolButton::ToolButtonStyle HbToolButton::toolButtonStyle(void) const
	?init@HbAbstractButtonPrivate@@QAEXXZ @ 2025 NONAME ; void HbAbstractButtonPrivate::init(void)
	?mouseReleaseEvent@HbToolButton@@MAEXPAVQGraphicsSceneMouseEvent@@@Z @ 2026 NONAME ABSENT ; void HbToolButton::mouseReleaseEvent(class QGraphicsSceneMouseEvent *)
	?supportedFeatures@HbInteractionPluginGroup@@QBE?AVQStringList@@XZ @ 2027 NONAME ABSENT ; class QStringList HbInteractionPluginGroup::supportedFeatures(void) const
	?indicatorRemoved@HbDeviceDialogServer@@QAEXABV?$QList@UIndicatorClientInfo@@@@@Z @ 2028 NONAME ; void HbDeviceDialogServer::indicatorRemoved(class QList<struct IndicatorClientInfo> const &)
	??4StyleRule@HbCss@@QAEAAU01@ABU01@@Z @ 2029 NONAME ABSENT ; struct HbCss::StyleRule & HbCss::StyleRule::operator=(struct HbCss::StyleRule const &)
	?instance@HbInputModeCache@@QAEPAVHbInputMethod@@ABVHbInputMode@@@Z @ 2030 NONAME ABSENT ; class HbInputMethod * HbInputModeCache::instance(class HbInputMode const &)
	??4HbGridViewItem@@IAEAAV0@ABV0@@Z @ 2031 NONAME ABSENT ; class HbGridViewItem & HbGridViewItem::operator=(class HbGridViewItem const &)
	?instance@HbInputStateMachineFactory@@SAPAV1@XZ @ 2032 NONAME ABSENT ; class HbInputStateMachineFactory * HbInputStateMachineFactory::instance(void)
	?customMethodInUse@HbInputSettingProxy@@QBE_NXZ @ 2033 NONAME ABSENT ; bool HbInputSettingProxy::customMethodInUse(void) const
	?customPluginName@HbInputSettingProxy@@QAEXAAVQString@@@Z @ 2034 NONAME ABSENT ; void HbInputSettingProxy::customPluginName(class QString &)
	?filter@HbConverterNumberFilter@@UAE_NVQChar@@@Z @ 2035 NONAME ABSENT ; bool HbConverterNumberFilter::filter(class QChar)
	?gestureTriggered@HbInteractionListener@@MAEXPBVQObject@@W4Gesture@Ia@@VQPointF@@@Z @ 2036 NONAME ABSENT ; void HbInteractionListener::gestureTriggered(class QObject const *, enum Ia::Gesture, class QPointF)
	?trUtf8@HbPopup@@SA?AVQString@@PBD0@Z @ 2037 NONAME ; class QString HbPopup::trUtf8(char const *, char const *)
	??0HbFrameItem@@QAE@PAVHbFrameDrawer@@PAVQGraphicsItem@@@Z @ 2038 NONAME ; HbFrameItem::HbFrameItem(class HbFrameDrawer *, class QGraphicsItem *)
	?setDecimalPoint@HbExtendedLocale@@QAE_NVQChar@@@Z @ 2039 NONAME ; bool HbExtendedLocale::setDecimalPoint(class QChar)
	?addWord@HbExtraUserDictionary@@UAE_NABVQString@@PAVHbPredictionCallback@@@Z @ 2040 NONAME ; bool HbExtraUserDictionary::addWord(class QString const &, class HbPredictionCallback *)
	?d_func@HbExtraDictionaryCollection@@AAEPAVHbExtraDictionaryCollectionPrivate@@XZ @ 2041 NONAME ; class HbExtraDictionaryCollectionPrivate * HbExtraDictionaryCollection::d_func(void)
	?trUtf8@HbListWidgetViewItem@@SA?AVQString@@PBD0H@Z @ 2042 NONAME ABSENT ; class QString HbListWidgetViewItem::trUtf8(char const *, char const *, int)
	??6@YAAAVQDataStream@@AAV0@ABVHbIcon@@@Z @ 2043 NONAME ; class QDataStream & operator<<(class QDataStream &, class HbIcon const &)
	?staticMetaObject@HbTheme@@2UQMetaObject@@B @ 2044 NONAME ; struct QMetaObject const HbTheme::staticMetaObject
	?state@HbIconItem@@QBE?AW4State@QIcon@@XZ @ 2045 NONAME ; enum QIcon::State HbIconItem::state(void) const
	?defaultSize@HbIcon@@QBE?AVQSizeF@@XZ @ 2046 NONAME ; class QSizeF HbIcon::defaultSize(void) const
	?type@HbToolBar@@UBEHXZ @ 2047 NONAME ; int HbToolBar::type(void) const
	??0HbConverterNumberFilter@@AAE@XZ @ 2048 NONAME ABSENT ; HbConverterNumberFilter::HbConverterNumberFilter(void)
	?reset@HbAbstractItemView@@UAEXXZ @ 2049 NONAME ABSENT ; void HbAbstractItemView::reset(void)
	??_EHbGraphicsSceneMouseEvent@@UAE@I@Z @ 2050 NONAME ABSENT ; HbGraphicsSceneMouseEvent::~HbGraphicsSceneMouseEvent(unsigned int)
	?isValid@HbAnchorLayout@@QBE_NXZ @ 2051 NONAME ; bool HbAnchorLayout::isValid(void) const
	?addAction@HbToolBar@@QAEPAVHbAction@@ABVHbIcon@@ABVQString@@PBVQObject@@PBD@Z @ 2052 NONAME ; class HbAction * HbToolBar::addAction(class HbIcon const &, class QString const &, class QObject const *, char const *)
	??0HbPhoneNumberFilter@@AAE@XZ @ 2053 NONAME ; HbPhoneNumberFilter::HbPhoneNumberFilter(void)
	??0HbInputStateMachineLatinFinger@@AAE@XZ @ 2054 NONAME ABSENT ; HbInputStateMachineLatinFinger::HbInputStateMachineLatinFinger(void)
	?displayScrollBar@HbScrollAreaPrivate@@QAEXW4Orientation@Qt@@@Z @ 2055 NONAME ; void HbScrollAreaPrivate::displayScrollBar(enum Qt::Orientation)
	?clearLayerFileList@HbWidgetStyleLoader@@QAEXW4Concern@HbLayeredStyleLoader@@W4LayerPriority@3@@Z @ 2056 NONAME ; void HbWidgetStyleLoader::clearLayerFileList(enum HbLayeredStyleLoader::Concern, enum HbLayeredStyleLoader::LayerPriority)
	?fixFocusPolicy@HbAbstractButtonPrivate@@QAEXXZ @ 2057 NONAME ; void HbAbstractButtonPrivate::fixFocusPolicy(void)
	?tr@HbGraphicsPixmapItem@@SA?AVQString@@PBD0H@Z @ 2058 NONAME ABSENT ; class QString HbGraphicsPixmapItem::tr(char const *, char const *, int)
	?metaObject@HbDecorator@@UBEPBUQMetaObject@@XZ @ 2059 NONAME ABSENT ; struct QMetaObject const * HbDecorator::metaObject(void) const
	?start@HbEffect@@SA_NPAVQGraphicsItem@@ABVQString@@1PAVQObject@@PBDABVQVariant@@ABVQRectF@@@Z @ 2060 NONAME ; bool HbEffect::start(class QGraphicsItem *, class QString const &, class QString const &, class QObject *, char const *, class QVariant const &, class QRectF const &)
	?setTimeSeparator@HbExtendedLocale@@QAE_NVQChar@@H@Z @ 2061 NONAME ; bool HbExtendedLocale::setTimeSeparator(class QChar, int)
	??0HbAbstractItem@@IAE@PAVQGraphicsItem@@@Z @ 2062 NONAME ABSENT ; HbAbstractItem::HbAbstractItem(class QGraphicsItem *)
	?instance@HbInputUpperCaseFilter@@SAPAV1@XZ @ 2063 NONAME ; class HbInputUpperCaseFilter * HbInputUpperCaseFilter::instance(void)
	?metaObject@HbFontProvider@@UBEPBUQMetaObject@@XZ @ 2064 NONAME ABSENT ; struct QMetaObject const * HbFontProvider::metaObject(void) const
	?rowCount@HbGridView@@QBEHXZ @ 2065 NONAME ABSENT ; int HbGridView::rowCount(void) const
	?metaObject@HbView@@UBEPBUQMetaObject@@XZ @ 2066 NONAME ; struct QMetaObject const * HbView::metaObject(void) const
	?staticMetaObject@HbAbstractItemContainer@@2UQMetaObject@@B @ 2067 NONAME ABSENT ; struct QMetaObject const HbAbstractItemContainer::staticMetaObject
	?previousIndex@HbAbstractItemView@@UBE?AVQModelIndex@@ABV2@@Z @ 2068 NONAME ABSENT ; class QModelIndex HbAbstractItemView::previousIndex(class QModelIndex const &) const
	??0Declaration@HbCss@@QAE@ABU01@@Z @ 2069 NONAME ; HbCss::Declaration::Declaration(struct HbCss::Declaration const &)
	?interactionTypes@HbIndicatorInterface@@QBE?AV?$QFlags@W4InteractionType@HbIndicatorInterface@@@@XZ @ 2070 NONAME ; class QFlags<enum HbIndicatorInterface::InteractionType> HbIndicatorInterface::interactionTypes(void) const
	?isAlreadyInMemory@HbExtraUserDictionary@@QBE_NXZ @ 2071 NONAME ; bool HbExtraUserDictionary::isAlreadyInMemory(void) const
	??1HbMenuListViewPrivate@@UAE@XZ @ 2072 NONAME ABSENT ; HbMenuListViewPrivate::~HbMenuListViewPrivate(void)
	?tr@HbAbstractButton@@SA?AVQString@@PBD0@Z @ 2073 NONAME ; class QString HbAbstractButton::tr(char const *, char const *)
	?refresh@HbAbstractButtonPrivate@@QAEXXZ @ 2074 NONAME ; void HbAbstractButtonPrivate::refresh(void)
	?setIcon@HbView@@QAEXABVHbIcon@@@Z @ 2075 NONAME ; void HbView::setIcon(class HbIcon const &)
	?hasWord@HbExtraDictionaryCollection@@QBE_NABVQString@@@Z @ 2076 NONAME ; bool HbExtraDictionaryCollection::hasWord(class QString const &) const
	?insertExtension@HbToolBar@@QAEPAVHbAction@@PAV2@PAVHbToolBarExtension@@@Z @ 2077 NONAME ; class HbAction * HbToolBar::insertExtension(class HbAction *, class HbToolBarExtension *)
	?trUtf8@HbGridViewItem@@SA?AVQString@@PBD0H@Z @ 2078 NONAME ABSENT ; class QString HbGridViewItem::trUtf8(char const *, char const *, int)
	?setViewSwitchingEnabled@HbMainWindow@@QAEX_N@Z @ 2079 NONAME ABSENT ; void HbMainWindow::setViewSwitchingEnabled(bool)
	?setFlags@HbIconItem@@QAEXV?$QFlags@W4Flag@HbIcon@@@@@Z @ 2080 NONAME ; void HbIconItem::setFlags(class QFlags<enum HbIcon::Flag>)
	??0HbStyleOptionDataForm@@QAE@XZ @ 2081 NONAME ; HbStyleOptionDataForm::HbStyleOptionDataForm(void)
	?type@HbTouchArea@@UBEHXZ @ 2082 NONAME ; int HbTouchArea::type(void) const
	??_EHbBatteryIndicator@@UAE@I@Z @ 2083 NONAME ; HbBatteryIndicator::~HbBatteryIndicator(unsigned int)
	?getStaticMetaObject@HbInputModeCache@@SAABUQMetaObject@@XZ @ 2084 NONAME ; struct QMetaObject const & HbInputModeCache::getStaticMetaObject(void)
	?loadPlugins@HbInteractionPluginGroup@@QAEXXZ @ 2085 NONAME ABSENT ; void HbInteractionPluginGroup::loadPlugins(void)
	?trUtf8@HbNgNormalNumber@@SA?AVQString@@PBD0@Z @ 2086 NONAME ABSENT ; class QString HbNgNormalNumber::trUtf8(char const *, char const *)
	?trUtf8@HbExtraDictionaryFactory@@SA?AVQString@@PBD0@Z @ 2087 NONAME ; class QString HbExtraDictionaryFactory::trUtf8(char const *, char const *)
	?currentRow@HbListWidget@@QBEHXZ @ 2088 NONAME ABSENT ; int HbListWidget::currentRow(void) const
	?d_func@HbStackedWidget@@AAEPAVHbStackedWidgetPrivate@@XZ @ 2089 NONAME ; class HbStackedWidgetPrivate * HbStackedWidget::d_func(void)
	??0HbInteractionGestureEvent@@QAE@HPBVQObject@@W4Gesture@Ia@@VQPointF@@@Z @ 2090 NONAME ABSENT ; HbInteractionGestureEvent::HbInteractionGestureEvent(int, class QObject const *, enum Ia::Gesture, class QPointF)
	?findStateMachine@HbInputStateMachineFactory@@QBEPAVHbInputStateMachine@@ABVHbInputLanguage@@V?$QFlags@W4HbKeyboardTypeFlag@@@@W4HbInputStateModifier@@@Z @ 2091 NONAME ABSENT ; class HbInputStateMachine * HbInputStateMachineFactory::findStateMachine(class HbInputLanguage const &, class QFlags<enum HbKeyboardTypeFlag>, enum HbInputStateModifier) const
	?createItem@HbListWidgetViewItem@@UAEPAVHbAbstractViewItem@@XZ @ 2092 NONAME ABSENT ; class HbAbstractViewItem * HbListWidgetViewItem::createItem(void)
	?hitButton@HbAbstractButton@@MBE_NABVQPointF@@@Z @ 2093 NONAME ; bool HbAbstractButton::hitButton(class QPointF const &) const
	?widgetParams@HbStyleOld@@QBEPAVHbWidgetParams@@PBVHbWidget@@PBVHbStyleOption@@@Z @ 2094 NONAME ABSENT ; class HbWidgetParams * HbStyleOld::widgetParams(class HbWidget const *, class HbStyleOption const *) const
	?vkbTable@HbKeyMapData@@UBEPBUHbVirtualKey@@V?$QFlags@W4HbKeyboardTypeFlag@@@@AAH@Z @ 2095 NONAME ABSENT ; struct HbVirtualKey const * HbKeyMapData::vkbTable(class QFlags<enum HbKeyboardTypeFlag>, int &) const
	?event@HbPopup@@MAE_NPAVQEvent@@@Z @ 2096 NONAME ; bool HbPopup::event(class QEvent *)
	?extractBackground@ValueExtractor@HbCss@@QAE_NPAVQBrush@@PAVQString@@PAW4Repeat@2@PAV?$QFlags@W4AlignmentFlag@Qt@@@@PAW4Origin@2@PAW4Attachment@2@4@Z @ 2097 NONAME ABSENT ; bool HbCss::ValueExtractor::extractBackground(class QBrush *, class QString *, enum HbCss::Repeat *, class QFlags<enum Qt::AlignmentFlag> *, enum HbCss::Origin *, enum HbCss::Attachment *, enum HbCss::Origin *)
	?receivedFocus@HbListWidgetViewItem@@UAEXXZ @ 2098 NONAME ABSENT ; void HbListWidgetViewItem::receivedFocus(void)
	??0HbEvent@@QAE@H@Z @ 2099 NONAME ; HbEvent::HbEvent(int)
	?primitive@HbLabel@@UBEPAVQGraphicsItem@@W4Primitive@HbStyle@@@Z @ 2100 NONAME ABSENT ; class QGraphicsItem * HbLabel::primitive(enum HbStyle::Primitive) const
	??BHbVariant@@QBE?AVQVariant@@XZ @ 2101 NONAME ; HbVariant::operator class QVariant(void) const
	??0HbRichTextItem@@QAE@ABVQString@@PAVQGraphicsItem@@@Z @ 2102 NONAME ; HbRichTextItem::HbRichTextItem(class QString const &, class QGraphicsItem *)
	?polishEvent@HbGestureSceneFilter@@MAEXXZ @ 2103 NONAME ABSENT ; void HbGestureSceneFilter::polishEvent(void)
	?tr@HbStyle@@SA?AVQString@@PBD0H@Z @ 2104 NONAME ; class QString HbStyle::tr(char const *, char const *, int)
	?setData@HbListWidgetItem@@QAEXABVQVariant@@H@Z @ 2105 NONAME ABSENT ; void HbListWidgetItem::setData(class QVariant const &, int)
	?d_func@HbExtraUserDictionary@@AAEPAVHbExtraUserDictionaryPrivate@@XZ @ 2106 NONAME ; class HbExtraUserDictionaryPrivate * HbExtraUserDictionary::d_func(void)
	?value@HbStyleParameters@@QAE?AVQVariant@@H@Z @ 2107 NONAME ; class QVariant HbStyleParameters::value(int)
	?tr@HbIndicatorInterface@@SA?AVQString@@PBD0@Z @ 2108 NONAME ; class QString HbIndicatorInterface::tr(char const *, char const *)
	?updateChildItems@HbGridViewItem@@UAEXXZ @ 2109 NONAME ABSENT ; void HbGridViewItem::updateChildItems(void)
	??0HbToolButton@@IAE@AAVHbToolButtonPrivate@@PAVQGraphicsItem@@@Z @ 2110 NONAME ; HbToolButton::HbToolButton(class HbToolButtonPrivate &, class QGraphicsItem *)
	??1HbTreeViewItem@@UAE@XZ @ 2111 NONAME ABSENT ; HbTreeViewItem::~HbTreeViewItem(void)
	?setIcon@HbListWidgetItem@@QAEXABVHbIcon@@W4ListItemColumn@1@W4ListContentType@1@W4ContentVisibility@1@@Z @ 2112 NONAME ABSENT ; void HbListWidgetItem::setIcon(class HbIcon const &, enum HbListWidgetItem::ListItemColumn, enum HbListWidgetItem::ListContentType, enum HbListWidgetItem::ContentVisibility)
	?parseNextSimpleSelector@Parser@HbCss@@QAE_NPAUBasicSelector@2@@Z @ 2113 NONAME ; bool HbCss::Parser::parseNextSimpleSelector(struct HbCss::BasicSelector *)
	?numberOfKeys@HbKeyMapData@@UBEHV?$QFlags@W4HbKeyboardTypeFlag@@@@@Z @ 2114 NONAME ABSENT ; int HbKeyMapData::numberOfKeys(class QFlags<enum HbKeyboardTypeFlag>) const
	?widgetRemoved@HbStackedWidget@@IAEXH@Z @ 2115 NONAME ; void HbStackedWidget::widgetRemoved(int)
	?rectValue@Declaration@HbCss@@QBE?AVQRect@@XZ @ 2116 NONAME ABSENT ; class QRect HbCss::Declaration::rectValue(void) const
	??_EHbInputCustomButton@@UAE@I@Z @ 2117 NONAME ABSENT ; HbInputCustomButton::~HbInputCustomButton(unsigned int)
	?metaObject@HbListView@@UBEPBUQMetaObject@@XZ @ 2118 NONAME ABSENT ; struct QMetaObject const * HbListView::metaObject(void) const
	??1HbIcon@@QAE@XZ @ 2119 NONAME ; HbIcon::~HbIcon(void)
	??0HbInputStateMachineHKChinese@@AAE@XZ @ 2120 NONAME ABSENT ; HbInputStateMachineHKChinese::HbInputStateMachineHKChinese(void)
	??0HbStyleOptionSelectionControl@@QAE@XZ @ 2121 NONAME ABSENT ; HbStyleOptionSelectionControl::HbStyleOptionSelectionControl(void)
	??0HbWidgetParams_PushButton@@QAE@XZ @ 2122 NONAME ABSENT ; HbWidgetParams_PushButton::HbWidgetParams_PushButton(void)
	?setAlignment@HbLabel@@QAEXV?$QFlags@W4AlignmentFlag@Qt@@@@@Z @ 2123 NONAME ABSENT ; void HbLabel::setAlignment(class QFlags<enum Qt::AlignmentFlag>)
	?contiguousSelectionArea@HbListViewItem@@UBE?AVQRectF@@XZ @ 2124 NONAME ABSENT ; class QRectF HbListViewItem::contiguousSelectionArea(void) const
	?qt_metacall@HbListView@@UAEHW4Call@QMetaObject@@HPAPAX@Z @ 2125 NONAME ABSENT ; int HbListView::qt_metacall(enum QMetaObject::Call, int, void * *)
	??_EHbTextItem@@UAE@I@Z @ 2126 NONAME ; HbTextItem::~HbTextItem(unsigned int)
	?alignment@HbLabel@@QBE?AV?$QFlags@W4AlignmentFlag@Qt@@@@XZ @ 2127 NONAME ABSENT ; class QFlags<enum Qt::AlignmentFlag> HbLabel::alignment(void) const
	?predictionEnginePaths@HbInputSettingProxy@@SA?AVQStringList@@XZ @ 2128 NONAME ; class QStringList HbInputSettingProxy::predictionEnginePaths(void)
	?exec@HbMenu@@QAEPAVHbAction@@ABVQPointF@@PAV2@@Z @ 2129 NONAME ABSENT ; class HbAction * HbMenu::exec(class QPointF const &, class HbAction *)
	?d_func@HbAbstractItem@@ABEPBVHbAbstractItemPrivate@@XZ @ 2130 NONAME ABSENT ; class HbAbstractItemPrivate const * HbAbstractItem::d_func(void) const
	?setModelIndex@HbAbstractViewItem@@UAEXABVQModelIndex@@@Z @ 2131 NONAME ABSENT ; void HbAbstractViewItem::setModelIndex(class QModelIndex const &)
	??1HbMainWindow@@UAE@XZ @ 2132 NONAME ; HbMainWindow::~HbMainWindow(void)
	?setTarget@HbItemHighlight@@QAEXPAVQGraphicsWidget@@@Z @ 2133 NONAME ABSENT ; void HbItemHighlight::setTarget(class QGraphicsWidget *)
	?d_func@HbToolBar@@AAEPAVHbToolBarPrivate@@XZ @ 2134 NONAME ; class HbToolBarPrivate * HbToolBar::d_func(void)
	?iconChanged@HbView@@IAEXABVHbIcon@@@Z @ 2135 NONAME ; void HbView::iconChanged(class HbIcon const &)
	?tr@HbScrollArea@@SA?AVQString@@PBD0@Z @ 2136 NONAME ; class QString HbScrollArea::tr(char const *, char const *)
	?rowsInserted@HbListView@@MAEXABVQModelIndex@@HH@Z @ 2137 NONAME ABSENT ; void HbListView::rowsInserted(class QModelIndex const &, int, int)
	?isKnownState@HbInputStateMachineLatin@@UBE_NABVHbInputState@@@Z @ 2138 NONAME ABSENT ; bool HbInputStateMachineLatin::isKnownState(class HbInputState const &) const
	?next@Parser@HbCss@@QAE_NW4TokenType@2@@Z @ 2139 NONAME ; bool HbCss::Parser::next(enum HbCss::TokenType)
	?deviceDialogClosed@HbDeviceDialogServer@@QAEXHH@Z @ 2140 NONAME ; void HbDeviceDialogServer::deviceDialogClosed(int, int)
	?setUnitsDistanceShort@HbExtendedLocale@@QAE_NW4MeasurementSystem@QLocale@@@Z @ 2141 NONAME ; bool HbExtendedLocale::setUnitsDistanceShort(enum QLocale::MeasurementSystem)
	?tr@HbPopupBase@@SA?AVQString@@PBD0@Z @ 2142 NONAME ABSENT ; class QString HbPopupBase::tr(char const *, char const *)
	?Interaction@HbInteractionEvent@@2HB @ 2143 NONAME ABSENT ; int const HbInteractionEvent::Interaction
	??1HbFocusObjectGraphicsWidget@@UAE@XZ @ 2144 NONAME ABSENT ; HbFocusObjectGraphicsWidget::~HbFocusObjectGraphicsWidget(void)
	?inputState@HbInputMethod@@QBE?AVHbInputState@@XZ @ 2145 NONAME ; class HbInputState HbInputMethod::inputState(void) const
	?sendPreEditString@HbFocusObjectWidget@@UAEXABVQString@@@Z @ 2146 NONAME ABSENT ; void HbFocusObjectWidget::sendPreEditString(class QString const &)
	?setIconName@HbIconItem@@QAEXABVQString@@@Z @ 2147 NONAME ; void HbIconItem::setIconName(class QString const &)
	?totalNumberOfWords@HbExtraDictionaryCollection@@QBEHXZ @ 2148 NONAME ; int HbExtraDictionaryCollection::totalNumberOfWords(void) const
	?setIconName@HbIconItem@@QAEXABVQString@@W4Mode@QIcon@@W4State@4@@Z @ 2149 NONAME ; void HbIconItem::setIconName(class QString const &, enum QIcon::Mode, enum QIcon::State)
	??_EHbAction@@UAE@I@Z @ 2150 NONAME ; HbAction::~HbAction(unsigned int)
	?setNegativeCurrencySpace@HbExtendedLocale@@QAE_N_N@Z @ 2151 NONAME ; bool HbExtendedLocale::setNegativeCurrencySpace(bool)
	??0HbEmailAddressFilter@@AAE@XZ @ 2152 NONAME ; HbEmailAddressFilter::HbEmailAddressFilter(void)
	?setItemVisible@HbMainWindow@@QAEXW4SceneItem@Hb@@_N@Z @ 2153 NONAME ABSENT ; void HbMainWindow::setItemVisible(enum Hb::SceneItem, bool)
	?extractOutline@ValueExtractor@HbCss@@QAE_NPAMPAVQBrush@@PAW4BorderStyle@2@PAVQSize@@0@Z @ 2154 NONAME ABSENT ; bool HbCss::ValueExtractor::extractOutline(float *, class QBrush *, enum HbCss::BorderStyle *, class QSize *, float *)
	?metaObject@HbInputContextProxy@@UBEPBUQMetaObject@@XZ @ 2155 NONAME ; struct QMetaObject const * HbInputContextProxy::metaObject(void) const
	?setContent@HbListWidgetItem@@QAE_NABVQVariant@@HW4ListItemColumn@1@HW4ContentVisibility@1@@Z @ 2156 NONAME ABSENT ; bool HbListWidgetItem::setContent(class QVariant const &, int, enum HbListWidgetItem::ListItemColumn, int, enum HbListWidgetItem::ContentVisibility)
	?setHorizontalScrollBarPolicy@HbScrollArea@@QAEXW4ScrollBarPolicy@1@@Z @ 2157 NONAME ; void HbScrollArea::setHorizontalScrollBarPolicy(enum HbScrollArea::ScrollBarPolicy)
	??0HbInputStateMachineHKChineseFinger@@AAE@XZ @ 2158 NONAME ABSENT ; HbInputStateMachineHKChineseFinger::HbInputStateMachineHKChineseFinger(void)
	?remove@HbEffectInternal@@SAXPAVQGraphicsItem@@ABVQString@@1@Z @ 2159 NONAME ; void HbEffectInternal::remove(class QGraphicsItem *, class QString const &, class QString const &)
	?allPredictionEngines@HbPredictionFactory@@QAE?AV?$QList@H@@XZ @ 2160 NONAME ; class QList<int> HbPredictionFactory::allPredictionEngines(void)
	?instance@HbWidgetStyleLoader@@SAPAV1@XZ @ 2161 NONAME ; class HbWidgetStyleLoader * HbWidgetStyleLoader::instance(void)
	?unlockFocus@HbInputMethod@@QAEXXZ @ 2162 NONAME ; void HbInputMethod::unlockFocus(void)
	?qt_metacall@HbScrollBar@@UAEHW4Call@QMetaObject@@HPAPAX@Z @ 2163 NONAME ; int HbScrollBar::qt_metacall(enum QMetaObject::Call, int, void * *)
	?background@HbListWidgetItem@@QBE?AVQVariant@@XZ @ 2164 NONAME ABSENT ; class QVariant HbListWidgetItem::background(void) const
	?itemRemoved@HbListItemContainer@@MAEXPAVHbAbstractViewItem@@@Z @ 2165 NONAME ABSENT ; void HbListItemContainer::itemRemoved(class HbAbstractViewItem *)
	?qt_metacall@HbTheme@@UAEHW4Call@QMetaObject@@HPAPAX@Z @ 2166 NONAME ; int HbTheme::qt_metacall(enum QMetaObject::Call, int, void * *)
	?qt_metacast@HbFocusObjectGraphicsWidget@@UAEPAXPBD@Z @ 2167 NONAME ABSENT ; void * HbFocusObjectGraphicsWidget::qt_metacast(char const *)
	?take@HbListModel@@QAEPAVHbListWidgetItem@@H@Z @ 2168 NONAME ABSENT ; class HbListWidgetItem * HbListModel::take(int)
	?trUtf8@HbLanguageDatabaseInterface@@SA?AVQString@@PBD0@Z @ 2169 NONAME ; class QString HbLanguageDatabaseInterface::trUtf8(char const *, char const *)
	?tr@HbGestureSceneFilter@@SA?AVQString@@PBD0H@Z @ 2170 NONAME ABSENT ; class QString HbGestureSceneFilter::tr(char const *, char const *, int)
	?releaseInstance@HbHeapMemoryManager@@SAXXZ @ 2171 NONAME ABSENT ; void HbHeapMemoryManager::releaseInstance(void)
	?getStaticMetaObject@Hb@@SAABUQMetaObject@@XZ @ 2172 NONAME ; struct QMetaObject const & Hb::getStaticMetaObject(void)
	?type@HbSignalIndicator@@UBEHXZ @ 2173 NONAME ; int HbSignalIndicator::type(void) const
	?testMedia@Parser@HbCss@@QAE_NXZ @ 2174 NONAME ; bool HbCss::Parser::testMedia(void)
	?setFlags@HbInputCustomButton@@QAEXH@Z @ 2175 NONAME ABSENT ; void HbInputCustomButton::setFlags(int)
	?focusGained@HbInteractionListener@@MAEXPBVQObject@@@Z @ 2176 NONAME ABSENT ; void HbInteractionListener::focusGained(class QObject const *)
	?automaticTextCaseNeeded@HbInputMethod@@IBE_NXZ @ 2177 NONAME ABSENT ; bool HbInputMethod::automaticTextCaseNeeded(void) const
	?logicalFont@HbLabel@@QBE?AW4LogicalFontName@Hb@@XZ @ 2178 NONAME ABSENT ; enum Hb::LogicalFontName HbLabel::logicalFont(void) const
	?setAlignment@HbScrollArea@@QAEXV?$QFlags@W4AlignmentFlag@Qt@@@@@Z @ 2179 NONAME ; void HbScrollArea::setAlignment(class QFlags<enum Qt::AlignmentFlag>)
	?rowsRemoved@HbGridView@@MAEXABVQModelIndex@@HH@Z @ 2180 NONAME ABSENT ; void HbGridView::rowsRemoved(class QModelIndex const &, int, int)
	?setAutoRepeat@HbAbstractButton@@QAEX_N@Z @ 2181 NONAME ; void HbAbstractButton::setAutoRepeat(bool)
	?data@HbListModel@@UBE?AVQVariant@@ABVQModelIndex@@H@Z @ 2182 NONAME ABSENT ; class QVariant HbListModel::data(class QModelIndex const &, int) const
	?instance@HbSharedMemoryManager@@SAPAVHbMemoryManager@@XZ @ 2183 NONAME ABSENT ; class HbMemoryManager * HbSharedMemoryManager::instance(void)
	?widgetDestroyed@HbInputMethod@@UAEXPAVQWidget@@@Z @ 2184 NONAME ; void HbInputMethod::widgetDestroyed(class QWidget *)
	?lengthValues@ValueExtractor@HbCss@@AAEXABUDeclaration@2@PAH@Z @ 2185 NONAME ABSENT ; void HbCss::ValueExtractor::lengthValues(struct HbCss::Declaration const &, int *)
	?metaObject@HbItemHighlight@@UBEPBUQMetaObject@@XZ @ 2186 NONAME ABSENT ; struct QMetaObject const * HbItemHighlight::metaObject(void) const
	?aspectRatioMode@HbIconItem@@QBE?AW4AspectRatioMode@Qt@@XZ @ 2187 NONAME ; enum Qt::AspectRatioMode HbIconItem::aspectRatioMode(void) const
	?qt_metacast@HbItemHighlight@@UAEPAXPBD@Z @ 2188 NONAME ABSENT ; void * HbItemHighlight::qt_metacast(char const *)
	??1HbPredictionEngine@@UAE@XZ @ 2189 NONAME ; HbPredictionEngine::~HbPredictionEngine(void)
	?qt_metacall@HbStackedWidget@@UAEHW4Call@QMetaObject@@HPAPAX@Z @ 2190 NONAME ; int HbStackedWidget::qt_metacall(enum QMetaObject::Call, int, void * *)
	?insertItem@HbListWidget@@QAEXHABVQString@@@Z @ 2191 NONAME ABSENT ; void HbListWidget::insertItem(int, class QString const &)
	??_EHbStyle@@UAE@I@Z @ 2192 NONAME ; HbStyle::~HbStyle(unsigned int)
	?setItemState@HbAbstractItemContainer@@QAEXABVQModelIndex@@V?$QMap@HVQVariant@@@@@Z @ 2193 NONAME ABSENT ; void HbAbstractItemContainer::setItemState(class QModelIndex const &, class QMap<int, class QVariant>)
	?reparentChildWidgets@HbLayoutUtils@@CAXPAVQGraphicsLayout@@PAVQGraphicsWidget@@@Z @ 2194 NONAME ; void HbLayoutUtils::reparentChildWidgets(class QGraphicsLayout *, class QGraphicsWidget *)
	?tr@HbLanguageDatabaseInterface@@SA?AVQString@@PBD0H@Z @ 2195 NONAME ; class QString HbLanguageDatabaseInterface::tr(char const *, char const *, int)
	?setTextFlags@HbRichTextItem@@QAEXH@Z @ 2196 NONAME ABSENT ; void HbRichTextItem::setTextFlags(int)
	?fontSpec@HbWidget@@QBE?AVHbFontSpec@@XZ @ 2197 NONAME ABSENT ; class HbFontSpec HbWidget::fontSpec(void) const
	?q_func@HbPopupPrivate@@AAEPAVHbPopup@@XZ @ 2198 NONAME ; class HbPopup * HbPopupPrivate::q_func(void)
	?panCallback@HbGesture@@QAEXVQPointF@@@Z @ 2199 NONAME ABSENT ; void HbGesture::panCallback(class QPointF)
	?notifyCursorPositionChange@HbEditorInterface@@QAEXHH@Z @ 2200 NONAME ; void HbEditorInterface::notifyCursorPositionChange(int, int)
	?isConnected@HbEditorInterface@@SA_NPAVQObject@@@Z @ 2201 NONAME ; bool HbEditorInterface::isConnected(class QObject *)
	??4HbString@@QAEAAV0@ABVQString@@@Z @ 2202 NONAME ; class HbString & HbString::operator=(class QString const &)
	?hasFnKeyBindings@HbKeyMapData@@UBE_NV?$QFlags@W4HbKeyboardTypeFlag@@@@@Z @ 2203 NONAME ABSENT ; bool HbKeyMapData::hasFnKeyBindings(class QFlags<enum HbKeyboardTypeFlag>) const
	?removeItems@HbAbstractItemContainer@@QAEXXZ @ 2204 NONAME ABSENT ; void HbAbstractItemContainer::removeItems(void)
	?createObject@HbXmlLoaderAbstractActions@@UAEPAVQObject@@ABVQString@@00@Z @ 2205 NONAME ABSENT ; class QObject * HbXmlLoaderAbstractActions::createObject(class QString const &, class QString const &, class QString const &)
	?style@HbWidget@@QBEPAVHbStyle@@XZ @ 2206 NONAME ; class HbStyle * HbWidget::style(void) const
	??_EHbIndicatorInterface@@UAE@I@Z @ 2207 NONAME ; HbIndicatorInterface::~HbIndicatorInterface(unsigned int)
	?getStaticMetaObject@HbNumberGrouping@@SAABUQMetaObject@@XZ @ 2208 NONAME ABSENT ; struct QMetaObject const & HbNumberGrouping::getStaticMetaObject(void)
	?skipSpace@Parser@HbCss@@QAEXXZ @ 2209 NONAME ; void HbCss::Parser::skipSpace(void)
	?getStaticMetaObject@HbGestureSceneFilter@@SAABUQMetaObject@@XZ @ 2210 NONAME ABSENT ; struct QMetaObject const & HbGestureSceneFilter::getStaticMetaObject(void)
	??_EHbSliderTickmarksItemLabel@@UAE@I@Z @ 2211 NONAME ABSENT ; HbSliderTickmarksItemLabel::~HbSliderTickmarksItemLabel(unsigned int)
	??8HbString@@QBE_NABVQString@@@Z @ 2212 NONAME ; bool HbString::operator==(class QString const &) const
	?uriValue@Declaration@HbCss@@QBE?AVQString@@XZ @ 2213 NONAME ABSENT ; class QString HbCss::Declaration::uriValue(void) const
	?removeWord@HbExtraUserDictionary@@UAE_NABVQString@@@Z @ 2214 NONAME ; bool HbExtraUserDictionary::removeWord(class QString const &)
	?trUtf8@HbGraphicsPixmapItem@@SA?AVQString@@PBD0@Z @ 2215 NONAME ABSENT ; class QString HbGraphicsPixmapItem::trUtf8(char const *, char const *)
	?setAutomaticTextCasingForQwerty@HbInputSettingProxy@@QAEX_N@Z @ 2216 NONAME ; void HbInputSettingProxy::setAutomaticTextCasingForQwerty(bool)
	??0HbAnchor@@QAE@ABV0@@Z @ 2217 NONAME ABSENT ; HbAnchor::HbAnchor(class HbAnchor const &)
	?parseHexColor@Parser@HbCss@@QAE_NPAVQColor@@@Z @ 2218 NONAME ; bool HbCss::Parser::parseHexColor(class QColor *)
	?focusInEvent@HbWidget@@MAEXPAVQFocusEvent@@@Z @ 2219 NONAME ; void HbWidget::focusInEvent(class QFocusEvent *)
	?localDigitType@HbEditorInterface@@QBEHXZ @ 2220 NONAME ABSENT ; int HbEditorInterface::localDigitType(void) const
	?scrollByAmount@HbScrollArea@@MAE_NABVQPointF@@@Z @ 2221 NONAME ; bool HbScrollArea::scrollByAmount(class QPointF const &)
	?filter@HbEditorInterface@@QBEPAVHbInputFilter@@XZ @ 2222 NONAME ; class HbInputFilter * HbEditorInterface::filter(void) const
	?startTargetAnimation@HbScrollAreaPrivate@@QAEXVQPointF@@H@Z @ 2223 NONAME ABSENT ; void HbScrollAreaPrivate::startTargetAnimation(class QPointF, int)
	?d_func@HbListViewItem@@ABEPBVHbListViewItemPrivate@@XZ @ 2224 NONAME ABSENT ; class HbListViewItemPrivate const * HbListViewItem::d_func(void) const
	?d_func@HbExtraDictionaryFactory@@ABEPBVHbExtraDictionaryFactoryPrivate@@XZ @ 2225 NONAME ; class HbExtraDictionaryFactoryPrivate const * HbExtraDictionaryFactory::d_func(void) const
	?updatePrimitives@HbLabel@@UAEXXZ @ 2226 NONAME ABSENT ; void HbLabel::updatePrimitives(void)
	?scenePos@HbFocusObjectWidget@@UBE?AVQPointF@@XZ @ 2227 NONAME ABSENT ; class QPointF HbFocusObjectWidget::scenePos(void) const
	?constraints@HbEditorInterface@@QBEHXZ @ 2228 NONAME ABSENT ; int HbEditorInterface::constraints(void) const
	?resizeEvent@HbMainWindow@@MAEXPAVQResizeEvent@@@Z @ 2229 NONAME ; void HbMainWindow::resizeEvent(class QResizeEvent *)
	?primaryAction@HbPopup@@QBEPAVHbAction@@XZ @ 2230 NONAME ABSENT ; class HbAction * HbPopup::primaryAction(void) const
	?getStaticMetaObject@HbView@@SAABUQMetaObject@@XZ @ 2231 NONAME ; struct QMetaObject const & HbView::getStaticMetaObject(void)
	?qt_metacast@HbInteractionListener@@UAEPAXPBD@Z @ 2232 NONAME ABSENT ; void * HbInteractionListener::qt_metacast(char const *)
	?orientationChanged@HbInputSettingProxy@@IAEXW4Orientation@Qt@@@Z @ 2233 NONAME ABSENT ; void HbInputSettingProxy::orientationChanged(enum Qt::Orientation)
	?setBackground@HbListWidgetItem@@QAEXABVQVariant@@@Z @ 2234 NONAME ABSENT ; void HbListWidgetItem::setBackground(class QVariant const &)
	??0HbSoftKey@@IAE@AAVHbSoftKeyPrivate@@W4SoftKeyId@Hb@@PAVQGraphicsItem@@@Z @ 2235 NONAME ABSENT ; HbSoftKey::HbSoftKey(class HbSoftKeyPrivate &, enum Hb::SoftKeyId, class QGraphicsItem *)
	?removeAnchor@HbAnchorLayout@@QAEXPAVQGraphicsLayoutItem@@W4Edge@Hb@@01@Z @ 2236 NONAME ABSENT ; void HbAnchorLayout::removeAnchor(class QGraphicsLayoutItem *, enum Hb::Edge, class QGraphicsLayoutItem *, enum Hb::Edge)
	?tr@HbAbstractItemContainer@@SA?AVQString@@PBD0H@Z @ 2237 NONAME ABSENT ; class QString HbAbstractItemContainer::tr(char const *, char const *, int)
	?repolish@HbWidget@@IAEXXZ @ 2238 NONAME ; void HbWidget::repolish(void)
	??0HbBatteryIndicator@@QAE@PAVQGraphicsItem@@@Z @ 2239 NONAME ; HbBatteryIndicator::HbBatteryIndicator(class QGraphicsItem *)
	?d_func@HbScrollBar@@ABEPBVHbScrollBarPrivate@@XZ @ 2240 NONAME ; class HbScrollBarPrivate const * HbScrollBar::d_func(void) const
	?params@HbStyleParameters@@AAEAAV?$QList@VQString@@@@XZ @ 2241 NONAME ABSENT ; class QList<class QString> & HbStyleParameters::params(void)
	?polish@HbAbstractViewItem@@MAEXAAVHbStyleParameters@@@Z @ 2242 NONAME ABSENT ; void HbAbstractViewItem::polish(class HbStyleParameters &)
	?isNull@HbIconAnimationDefinition@@QBE_NXZ @ 2243 NONAME ; bool HbIconAnimationDefinition::isNull(void) const
	?metaObject@HbListWidgetViewItem@@UBEPBUQMetaObject@@XZ @ 2244 NONAME ABSENT ; struct QMetaObject const * HbListWidgetViewItem::metaObject(void) const
	??1HbInputCustomButton@@UAE@XZ @ 2245 NONAME ABSENT ; HbInputCustomButton::~HbInputCustomButton(void)
	?compareString@HbString@@ABE_NPBVQChar@@H@Z @ 2246 NONAME ; bool HbString::compareString(class QChar const *, int) const
	?indexCount@HbAbstractItemView@@UBEHXZ @ 2247 NONAME ABSENT ; int HbAbstractItemView::indexCount(void) const
	?trUtf8@HbMenu@@SA?AVQString@@PBD0H@Z @ 2248 NONAME ; class QString HbMenu::trUtf8(char const *, char const *, int)
	?show@HbDeviceDialog@@QAE_NABVQString@@ABV?$QMap@VQString@@VQVariant@@@@@Z @ 2249 NONAME ; bool HbDeviceDialog::show(class QString const &, class QMap<class QString, class QVariant> const &)
	?instance@HbInputStateMachineTaiwanChineseFinger@@SAPAV1@XZ @ 2250 NONAME ABSENT ; class HbInputStateMachineTaiwanChineseFinger * HbInputStateMachineTaiwanChineseFinger::instance(void)
	?currencySpace@HbExtendedLocale@@QBE_NXZ @ 2251 NONAME ; bool HbExtendedLocale::currencySpace(void) const
	?mouseMoveEvent@HbListView@@MAEXPAVQGraphicsSceneMouseEvent@@@Z @ 2252 NONAME ABSENT ; void HbListView::mouseMoveEvent(class QGraphicsSceneMouseEvent *)
	?isTypeOf@HbIconItem@@UBE_NH@Z @ 2253 NONAME ABSENT ; bool HbIconItem::isTypeOf(int) const
	?iconName@HbIcon@@QBE?AVQString@@W4Mode@QIcon@@W4State@4@@Z @ 2254 NONAME ; class QString HbIcon::iconName(enum QIcon::Mode, enum QIcon::State) const
	?itemByIndex@HbAbstractItemView@@QBEPAVHbAbstractViewItem@@ABVQModelIndex@@@Z @ 2255 NONAME ABSENT ; class HbAbstractViewItem * HbAbstractItemView::itemByIndex(class QModelIndex const &) const
	?filterEvent@HbInputMethodNull@@UAE_NPBVQEvent@@@Z @ 2256 NONAME ; bool HbInputMethodNull::filterEvent(class QEvent const *)
	??8HbInputLanguage@@QBE_NW4Language@QLocale@@@Z @ 2257 NONAME ; bool HbInputLanguage::operator==(enum QLocale::Language) const
	??_EHbAbstractButton@@UAE@I@Z @ 2258 NONAME ; HbAbstractButton::~HbAbstractButton(unsigned int)
	?intValue@Declaration@HbCss@@QBE_NPAHPBD@Z @ 2259 NONAME ABSENT ; bool HbCss::Declaration::intValue(int *, char const *) const
	??0HbIconLoader@@QAE@ABVQString@@PAVQObject@@@Z @ 2260 NONAME ; HbIconLoader::HbIconLoader(class QString const &, class QObject *)
	?setText@HbLabel@@QAEXABVQString@@@Z @ 2261 NONAME ABSENT ; void HbLabel::setText(class QString const &)
	?isNull@HbLabel@@QBE_NXZ @ 2262 NONAME ABSENT ; bool HbLabel::isNull(void) const
	?update@HbInputContextProxy@@UAEXXZ @ 2263 NONAME ; void HbInputContextProxy::update(void)
	?specificity@Selector@HbCss@@QBEHXZ @ 2264 NONAME ; int HbCss::Selector::specificity(void) const
	?setFocusWidget@HbInputMethod@@UAEXPAVQWidget@@@Z @ 2265 NONAME ; void HbInputMethod::setFocusWidget(class QWidget *)
	??0HbTextItem@@IAE@AAVHbTextItemPrivate@@PAVQGraphicsItem@@@Z @ 2266 NONAME ; HbTextItem::HbTextItem(class HbTextItemPrivate &, class QGraphicsItem *)
	?count@HbStackedLayout@@UBEHXZ @ 2267 NONAME ; int HbStackedLayout::count(void) const
	?initialize@HbPredictionFactory@@QAEXXZ @ 2268 NONAME ; void HbPredictionFactory::initialize(void)
	?nextState@HbInputStateMachineHKChineseFinger@@UAE_NABVHbInputState@@AAV2@W4HbInputStateModifier@@@Z @ 2269 NONAME ABSENT ; bool HbInputStateMachineHKChineseFinger::nextState(class HbInputState const &, class HbInputState &, enum HbInputStateModifier)
	?clear@HbIcon@@QAEXXZ @ 2270 NONAME ; void HbIcon::clear(void)
	?getStaticMetaObject@HbToolBar@@SAABUQMetaObject@@XZ @ 2271 NONAME ; struct QMetaObject const & HbToolBar::getStaticMetaObject(void)
	??9HbStringVector@@QBE_NABVQStringList@@@Z @ 2272 NONAME ; bool HbStringVector::operator!=(class QStringList const &) const
	?identifierName@HbInputMethodNull@@UAE?AVQString@@XZ @ 2273 NONAME ; class QString HbInputMethodNull::identifierName(void)
	?addItem@HbAbstractItemContainer@@UAEXABVQModelIndex@@@Z @ 2274 NONAME ABSENT ; void HbAbstractItemContainer::addItem(class QModelIndex const &)
	?nextIndex@HbTreeView@@UBE?AVQModelIndex@@ABV2@@Z @ 2275 NONAME ABSENT ; class QModelIndex HbTreeView::nextIndex(class QModelIndex const &) const
	??_EHbTestabilitySignal_p@@UAE@I@Z @ 2276 NONAME ; HbTestabilitySignal_p::~HbTestabilitySignal_p(unsigned int)
	??_EHbAbstractViewItem@@UAE@I@Z @ 2277 NONAME ABSENT ; HbAbstractViewItem::~HbAbstractViewItem(unsigned int)
	?visibilityChanged@HbDecorator@@IAEXXZ @ 2278 NONAME ABSENT ; void HbDecorator::visibilityChanged(void)
	??0HbMenu@@QAE@ABVQString@@PAVQGraphicsItem@@@Z @ 2279 NONAME ; HbMenu::HbMenu(class QString const &, class QGraphicsItem *)
	??0HbGraphicsPixmapItem@@QAE@ABVQPixmap@@PAVQGraphicsItem@@@Z @ 2280 NONAME ABSENT ; HbGraphicsPixmapItem::HbGraphicsPixmapItem(class QPixmap const &, class QGraphicsItem *)
	?unsetVisibleItems@HbView@@QAEXXZ @ 2281 NONAME ABSENT ; void HbView::unsetVisibleItems(void)
	?scrollDirections@HbScrollArea@@QBE?AV?$QFlags@W4Orientation@Qt@@@@XZ @ 2282 NONAME ; class QFlags<enum Qt::Orientation> HbScrollArea::scrollDirections(void) const
	??1HbApplication@@UAE@XZ @ 2283 NONAME ; HbApplication::~HbApplication(void)
	??_EHbInputCustomButtonBank@@UAE@I@Z @ 2284 NONAME ABSENT ; HbInputCustomButtonBank::~HbInputCustomButtonBank(unsigned int)
	?getStaticMetaObject@HbDeviceDialogServer@@SAABUQMetaObject@@XZ @ 2285 NONAME ; struct QMetaObject const & HbDeviceDialogServer::getStaticMetaObject(void)
	??1HbAbstractItem@@UAE@XZ @ 2286 NONAME ABSENT ; HbAbstractItem::~HbAbstractItem(void)
	?isConnected@HbFocusObjectWidget@@UBE_NXZ @ 2287 NONAME ABSENT ; bool HbFocusObjectWidget::isConnected(void) const
	?listWords@HbExtraUserDictionary@@UAE?AVQStringList@@XZ @ 2288 NONAME ; class QStringList HbExtraUserDictionary::listWords(void)
	??_EHbInputModeCache@@UAE@I@Z @ 2289 NONAME ; HbInputModeCache::~HbInputModeCache(unsigned int)
	?add@HbEffectInternal@@SA_NABVQString@@00@Z @ 2290 NONAME ; bool HbEffectInternal::add(class QString const &, class QString const &, class QString const &)
	?timeSeparator@HbExtendedLocale@@QBE?AVQChar@@H@Z @ 2291 NONAME ; class QChar HbExtendedLocale::timeSeparator(int) const
	?setChecked@HbAbstractButton@@QAEX_N@Z @ 2292 NONAME ; void HbAbstractButton::setChecked(bool)
	?handleScrollBar@HbAbstractItemViewPrivate@@QAE_NW4Orientation@Qt@@@Z @ 2293 NONAME ABSENT ; bool HbAbstractItemViewPrivate::handleScrollBar(enum Qt::Orientation)
	?setModel@HbAbstractItemView@@UAEXPAVQAbstractItemModel@@PAVHbAbstractViewItem@@@Z @ 2294 NONAME ABSENT ; void HbAbstractItemView::setModel(class QAbstractItemModel *, class HbAbstractViewItem *)
	?profile@HbDeviceProfile@@SA?AV1@PBVQGraphicsItem@@@Z @ 2295 NONAME ; class HbDeviceProfile HbDeviceProfile::profile(class QGraphicsItem const *)
	?extraDictionaryPath@HbInputSettingProxy@@SA?AVQString@@XZ @ 2296 NONAME ; class QString HbInputSettingProxy::extraDictionaryPath(void)
	?insertItem@HbAbstractItemContainer@@IAEXHABVQModelIndex@@@Z @ 2297 NONAME ABSENT ; void HbAbstractItemContainer::insertItem(int, class QModelIndex const &)
	?trUtf8@HbStyle@@SA?AVQString@@PBD0H@Z @ 2298 NONAME ; class QString HbStyle::trUtf8(char const *, char const *, int)
	?filter@HbPhoneNumberFilter@@UAE_NVQChar@@@Z @ 2299 NONAME ; bool HbPhoneNumberFilter::filter(class QChar)
	?trUtf8@HbItemHighlight@@SA?AVQString@@PBD0@Z @ 2300 NONAME ABSENT ; class QString HbItemHighlight::trUtf8(char const *, char const *)
	?text@HbInputCustomButton@@QBE?AVQString@@XZ @ 2301 NONAME ABSENT ; class QString HbInputCustomButton::text(void) const
	??1HbStyleOptionDataQuery@@QAE@XZ @ 2302 NONAME ABSENT ; HbStyleOptionDataQuery::~HbStyleOptionDataQuery(void)
	?frameSize@HbFrameDrawer@@QBE?AVQSize@@XZ @ 2303 NONAME ; class QSize HbFrameDrawer::frameSize(void) const
	?setCurrencySymbolPosition@HbExtendedLocale@@QAE_NW4SymbolPos@1@@Z @ 2304 NONAME ; bool HbExtendedLocale::setCurrencySymbolPosition(enum HbExtendedLocale::SymbolPos)
	?testAttribute@HbWidget@@QBE_NW4WidgetAttribute@Hb@@@Z @ 2305 NONAME ABSENT ; bool HbWidget::testAttribute(enum Hb::WidgetAttribute) const
	?setIcon@HbListWidget@@QAEXHABVHbIcon@@@Z @ 2306 NONAME ABSENT ; void HbListWidget::setIcon(int, class HbIcon const &)
	?reset@HbInputContextProxy@@UAEXXZ @ 2307 NONAME ; void HbInputContextProxy::reset(void)
	??0HbStyleOptionSettingGroup@@QAE@ABV0@@Z @ 2308 NONAME ABSENT ; HbStyleOptionSettingGroup::HbStyleOptionSettingGroup(class HbStyleOptionSettingGroup const &)
	?lengthValue@ValueExtractor@HbCss@@AAEHABUValue@2@@Z @ 2309 NONAME ABSENT ; int HbCss::ValueExtractor::lengthValue(struct HbCss::Value const &)
	?getStaticMetaObject@HbGesture@@SAABUQMetaObject@@XZ @ 2310 NONAME ABSENT ; struct QMetaObject const & HbGesture::getStaticMetaObject(void)
	?mouseHandler@HbInputContextProxy@@UAEXHPAVQMouseEvent@@@Z @ 2311 NONAME ; void HbInputContextProxy::mouseHandler(int, class QMouseEvent *)
	?animateScroll@HbScrollAreaPrivate@@QAEXVQPointF@@@Z @ 2312 NONAME ; void HbScrollAreaPrivate::animateScroll(class QPointF)
	?numberOfWords@HbExtraDictionaryCollection@@QBEHXZ @ 2313 NONAME ; int HbExtraDictionaryCollection::numberOfWords(void) const
	?editorDestroyed@HbFocusObjectWidget@@QAEXPAVQObject@@@Z @ 2314 NONAME ABSENT ; void HbFocusObjectWidget::editorDestroyed(class QObject *)
	??0HbListViewItemPrivate@@QAE@PAVHbListViewItem@@@Z @ 2315 NONAME ABSENT ; HbListViewItemPrivate::HbListViewItemPrivate(class HbListViewItem *)
	??0HbExtraUserDictionary@@QAE@H@Z @ 2316 NONAME ; HbExtraUserDictionary::HbExtraUserDictionary(int)
	?setWidth@HbIcon@@QAEXM@Z @ 2317 NONAME ; void HbIcon::setWidth(float)
	?setUpCustomMode@HbInputModeCache@@QAEPAVHbInputMethod@@ABVQString@@@Z @ 2318 NONAME ABSENT ; class HbInputMethod * HbInputModeCache::setUpCustomMode(class QString const &)
	?qt_metacast@HbVkbHost@@UAEPAXPBD@Z @ 2319 NONAME ; void * HbVkbHost::qt_metacast(char const *)
	?setPriority@HbPopupBasePrivate@@QAEXE@Z @ 2320 NONAME ABSENT ; void HbPopupBasePrivate::setPriority(unsigned char)
	?setBackground@HbToolButton@@QAEXABVHbIcon@@@Z @ 2321 NONAME ; void HbToolButton::setBackground(class HbIcon const &)
	??0HbMenu@@QAE@PAVQGraphicsItem@@@Z @ 2322 NONAME ; HbMenu::HbMenu(class QGraphicsItem *)
	?setPixmap@HbGraphicsPixmapItem@@QAEXABVQString@@ABVQSizeF@@W4AspectRatioMode@Qt@@@Z @ 2323 NONAME ABSENT ; void HbGraphicsPixmapItem::setPixmap(class QString const &, class QSizeF const &, enum Qt::AspectRatioMode)
	??1HbEmailAddressFilter@@UAE@XZ @ 2324 NONAME ; HbEmailAddressFilter::~HbEmailAddressFilter(void)
	??0HbToolBarExtension@@QAE@PAVQGraphicsItem@@@Z @ 2325 NONAME ; HbToolBarExtension::HbToolBarExtension(class QGraphicsItem *)
	?deleteContentItem@HbListWidgetViewItem@@MAEXPAVQGraphicsLayoutItem@@@Z @ 2326 NONAME ABSENT ; void HbListWidgetViewItem::deleteContentItem(class QGraphicsLayoutItem *)
	?lostFocus@HbListWidgetViewItem@@UAEXXZ @ 2327 NONAME ABSENT ; void HbListWidgetViewItem::lostFocus(void)
	?expandAnimationFinished@HbListWidgetViewItem@@UAEXXZ @ 2328 NONAME ABSENT ; void HbListWidgetViewItem::expandAnimationFinished(void)
	?setUpAsCompletingUrlField@HbEditorInterface@@QAEXXZ @ 2329 NONAME ; void HbEditorInterface::setUpAsCompletingUrlField(void)
	??1HbToolBar@@UAE@XZ @ 2330 NONAME ; HbToolBar::~HbToolBar(void)
	?detachHost@HbVkbHost@@SAXPAVQObject@@@Z @ 2331 NONAME ; void HbVkbHost::detachHost(class QObject *)
	?setSize@HbIcon@@QAEXABVQSizeF@@@Z @ 2332 NONAME ; void HbIcon::setSize(class QSizeF const &)
	?addToObjectMap@HbXmlLoaderAbstractActions@@QAEXV?$QList@PAVQObject@@@@@Z @ 2333 NONAME ABSENT ; void HbXmlLoaderAbstractActions::addToObjectMap(class QList<class QObject *>)
	?composition@HbInputCustomButtonComposition@@UAE?AV?$QList@PAVHbInputCustomButton@@@@XZ @ 2334 NONAME ABSENT ; class QList<class HbInputCustomButton *> HbInputCustomButtonComposition::composition(void)
	?destroy@HbIconLoader@@AAEXXZ @ 2335 NONAME ; void HbIconLoader::destroy(void)
	?trUtf8@HbDecorator@@SA?AVQString@@PBD0H@Z @ 2336 NONAME ABSENT ; class QString HbDecorator::trUtf8(char const *, char const *, int)
	?trUtf8@HbDeviceDialog@@SA?AVQString@@PBD0H@Z @ 2337 NONAME ; class QString HbDeviceDialog::trUtf8(char const *, char const *, int)
	?editorFont@HbFocusObjectWidget@@UAE?AVQFont@@XZ @ 2338 NONAME ABSENT ; class QFont HbFocusObjectWidget::editorFont(void)
	?removeFileSet@HbWidgetStyleLoader@@QAE_NABVQString@@@Z @ 2339 NONAME ABSENT ; bool HbWidgetStyleLoader::removeFileSet(class QString const &)
	??1HbAbstractItemPrivate@@UAE@XZ @ 2340 NONAME ABSENT ; HbAbstractItemPrivate::~HbAbstractItemPrivate(void)
	?getDefinition@HbIconAnimationManager@@QAE?AVHbIconAnimationDefinition@@ABVQString@@@Z @ 2341 NONAME ; class HbIconAnimationDefinition HbIconAnimationManager::getDefinition(class QString const &)
	??0HbListViewItemPrivate@@QAE@ABV0@@Z @ 2342 NONAME ABSENT ; HbListViewItemPrivate::HbListViewItemPrivate(class HbListViewItemPrivate const &)
	?getStaticMetaObject@HbVkbHost@@SAABUQMetaObject@@XZ @ 2343 NONAME ; struct QMetaObject const & HbVkbHost::getStaticMetaObject(void)
	?setNum@HbLabel@@QAEXM@Z @ 2344 NONAME ABSENT ; void HbLabel::setNum(float)
	?filterEvent@HbInputContextProxy@@UAE_NPBVQEvent@@@Z @ 2345 NONAME ; bool HbInputContextProxy::filterEvent(class QEvent const *)
	?startLongPressCounter@HbGestureSceneFilter@@AAEXXZ @ 2346 NONAME ABSENT ; void HbGestureSceneFilter::startLongPressCounter(void)
	?setUpAsCompletingEmailField@HbEditorInterface@@QAEXXZ @ 2347 NONAME ; void HbEditorInterface::setUpAsCompletingEmailField(void)
	?staticMetaObject@HbDeviceDialogServer@@2UQMetaObject@@B @ 2348 NONAME ; struct QMetaObject const HbDeviceDialogServer::staticMetaObject
	?columnCount@HbGridView@@QBEHXZ @ 2349 NONAME ABSENT ; int HbGridView::columnCount(void) const
	?hasDeadKeys@HbKeyMapData@@UBE_NV?$QFlags@W4HbKeyboardTypeFlag@@@@@Z @ 2350 NONAME ABSENT ; bool HbKeyMapData::hasDeadKeys(class QFlags<enum HbKeyboardTypeFlag>) const
	?scenePos@HbFocusObjectGraphicsWidget@@UBE?AVQPointF@@XZ @ 2351 NONAME ABSENT ; class QPointF HbFocusObjectGraphicsWidget::scenePos(void) const
	?tr@HbLayoutDirectionNotifier@@SA?AVQString@@PBD0@Z @ 2352 NONAME ; class QString HbLayoutDirectionNotifier::tr(char const *, char const *)
	?setFrictionEnabled@HbScrollArea@@QAEX_N@Z @ 2353 NONAME ; void HbScrollArea::setFrictionEnabled(bool)
	?itemAtPosition@HbAbstractItemView@@QBEPAVHbAbstractViewItem@@ABVQPointF@@@Z @ 2354 NONAME ABSENT ; class HbAbstractViewItem * HbAbstractItemView::itemAtPosition(class QPointF const &) const
	?itemName@HbStyle@@SA?AVQString@@PBVQGraphicsItem@@@Z @ 2355 NONAME ; class QString HbStyle::itemName(class QGraphicsItem const *)
	?setScrollingStyle@HbScrollArea@@QAEXW4ScrollingStyle@1@@Z @ 2356 NONAME ; void HbScrollArea::setScrollingStyle(enum HbScrollArea::ScrollingStyle)
	?setElideMode@HbTextItem@@QAEXW4TextElideMode@Qt@@@Z @ 2357 NONAME ; void HbTextItem::setElideMode(enum Qt::TextElideMode)
	?setCurrencySymbol@HbExtendedLocale@@QAE_NVQString@@@Z @ 2358 NONAME ABSENT ; bool HbExtendedLocale::setCurrencySymbol(class QString)
	?initStyleOption@HbScrollBar@@IBEXPAVHbStyleOptionScrollBar@@@Z @ 2359 NONAME ABSENT ; void HbScrollBar::initStyleOption(class HbStyleOptionScrollBar *) const
	??0MediaRule@HbCss@@QAE@W4MemoryType@HbMemoryManager@@@Z @ 2360 NONAME ; HbCss::MediaRule::MediaRule(enum HbMemoryManager::MemoryType)
	?addItemToLayout@HbListWidgetViewItem@@MAEXPAVQGraphicsLayoutItem@@HW4ListItemColumn@HbListWidgetItem@@H@Z @ 2361 NONAME ABSENT ; void HbListWidgetViewItem::addItemToLayout(class QGraphicsLayoutItem *, int, enum HbListWidgetItem::ListItemColumn, int)
	?secondaryAction@HbPopup@@QBEPAVHbAction@@XZ @ 2362 NONAME ABSENT ; class HbAction * HbPopup::secondaryAction(void) const
	?orientation@HbScrollBar@@QBE?AW4Orientation@Qt@@XZ @ 2363 NONAME ; enum Qt::Orientation HbScrollBar::orientation(void) const
	?showItems@HbMainWindow@@QAEXV?$QFlags@W4SceneItem@Hb@@@@@Z @ 2364 NONAME ABSENT ; void HbMainWindow::showItems(class QFlags<enum Hb::SceneItem>)
	?setFont@HbRichTextItem@@QAEXABVQFont@@@Z @ 2365 NONAME ABSENT ; void HbRichTextItem::setFont(class QFont const &)
	?initializeData@HbVariant@@AAEPAUHbVariantData@1@XZ @ 2366 NONAME ; struct HbVariant::HbVariantData * HbVariant::initializeData(void)
	?stopScrolling@HbScrollAreaPrivate@@UAEXXZ @ 2367 NONAME ; void HbScrollAreaPrivate::stopScrolling(void)
	?setAspectRatioMode@HbLabel@@QAEXW4AspectRatioMode@Qt@@@Z @ 2368 NONAME ABSENT ; void HbLabel::setAspectRatioMode(enum Qt::AspectRatioMode)
	?predictiveInputStatus@HbInputSettingProxy@@QBEHXZ @ 2369 NONAME ABSENT ; int HbInputSettingProxy::predictiveInputStatus(void) const
	?tr@HbListModel@@SA?AVQString@@PBD0H@Z @ 2370 NONAME ABSENT ; class QString HbListModel::tr(char const *, char const *, int)
	?q_func@HbPopupPrivate@@ABEPBVHbPopup@@XZ @ 2371 NONAME ; class HbPopup const * HbPopupPrivate::q_func(void) const
	?setIndentation@HbTreeLayout@@QAEXM@Z @ 2372 NONAME ABSENT ; void HbTreeLayout::setIndentation(float)
	?tr@HbInputContextProxy@@SA?AVQString@@PBD0@Z @ 2373 NONAME ; class QString HbInputContextProxy::tr(char const *, char const *)
	??0HbStyleOptionAbstractViewItem@@QAE@ABV0@@Z @ 2374 NONAME ABSENT ; HbStyleOptionAbstractViewItem::HbStyleOptionAbstractViewItem(class HbStyleOptionAbstractViewItem const &)
	??_EHbInputFocusObject@@UAE@I@Z @ 2375 NONAME ; HbInputFocusObject::~HbInputFocusObject(unsigned int)
	?d_func@HbDeviceDialog@@ABEPBVHbDeviceDialogPrivate@@XZ @ 2376 NONAME ; class HbDeviceDialogPrivate const * HbDeviceDialog::d_func(void) const
	?rotated90Degrees@HbInteractionListener@@MAEXPBVQObject@@@Z @ 2377 NONAME ABSENT ; void HbInteractionListener::rotated90Degrees(class QObject const *)
	?tr@HbMenu@@SA?AVQString@@PBD0@Z @ 2378 NONAME ; class QString HbMenu::tr(char const *, char const *)
	?specialCharacterUsed@HbInputSettingProxy@@QAEXVQChar@@@Z @ 2379 NONAME ABSENT ; void HbInputSettingProxy::specialCharacterUsed(class QChar)
	?defaultMode@HbIconItem@@2W4Mode@QIcon@@B @ 2380 NONAME ; enum QIcon::Mode const HbIconItem::defaultMode
	?collate@HbStringUtil@@SAII@Z @ 2381 NONAME ABSENT ; unsigned int HbStringUtil::collate(unsigned int)
	?metaObject@HbVkbHost@@UBEPBUQMetaObject@@XZ @ 2382 NONAME ; struct QMetaObject const * HbVkbHost::metaObject(void) const
	?copyC@HbStringUtil@@SA_NAAVQString@@ABV2@@Z @ 2383 NONAME ABSENT ; bool HbStringUtil::copyC(class QString &, class QString const &)
	?instance@HbInputCustomButtonStore@@SAPAV1@XZ @ 2384 NONAME ABSENT ; class HbInputCustomButtonStore * HbInputCustomButtonStore::instance(void)
	?predictiveInputStateChanged@HbInputSettingProxy@@IAEXH@Z @ 2385 NONAME ABSENT ; void HbInputSettingProxy::predictiveInputStateChanged(int)
	?clear@HbVariant@@QAEXXZ @ 2386 NONAME ; void HbVariant::clear(void)
	?downGesture@HbScrollArea@@MAEXH@Z @ 2387 NONAME ; void HbScrollArea::downGesture(int)
	?getStaticMetaObject@HbAbstractItemContainer@@SAABUQMetaObject@@XZ @ 2388 NONAME ABSENT ; struct QMetaObject const & HbAbstractItemContainer::getStaticMetaObject(void)
	?stateChangeInProgress@HbInputMethod@@IBE_NXZ @ 2389 NONAME ; bool HbInputMethod::stateChangeInProgress(void) const
	?qt_metacast@HbDecorator@@UAEPAXPBD@Z @ 2390 NONAME ABSENT ; void * HbDecorator::qt_metacast(char const *)
	?animationStarted@HbIconAnimator@@IAEXXZ @ 2391 NONAME ; void HbIconAnimator::animationStarted(void)
	??0HbStyleOptionListViewItem@@QAE@XZ @ 2392 NONAME ABSENT ; HbStyleOptionListViewItem::HbStyleOptionListViewItem(void)
	?testProperty@Parser@HbCss@@QAE_NXZ @ 2393 NONAME ; bool HbCss::Parser::testProperty(void)
	?initStyleOption@HbTreeViewItem@@IBEXPAVHbStyleOptionTreeViewItem@@@Z @ 2394 NONAME ABSENT ; void HbTreeViewItem::initStyleOption(class HbStyleOptionTreeViewItem *) const
	?trUtf8@HbTreeView@@SA?AVQString@@PBD0H@Z @ 2395 NONAME ABSENT ; class QString HbTreeView::trUtf8(char const *, char const *, int)
	?metaObject@HbStackedWidget@@UBEPBUQMetaObject@@XZ @ 2396 NONAME ; struct QMetaObject const * HbStackedWidget::metaObject(void) const
	?type@HbToolBarExtension@@UBEHXZ @ 2397 NONAME ; int HbToolBarExtension::type(void) const
	?getStaticMetaObject@HbInteractionPlugin@@SAABUQMetaObject@@XZ @ 2398 NONAME ABSENT ; struct QMetaObject const & HbInteractionPlugin::getStaticMetaObject(void)
	?trUtf8@HbScrollBar@@SA?AVQString@@PBD0@Z @ 2399 NONAME ; class QString HbScrollBar::trUtf8(char const *, char const *)
	?getStaticMetaObject@HbScrollBar@@SAABUQMetaObject@@XZ @ 2400 NONAME ; struct QMetaObject const & HbScrollBar::getStaticMetaObject(void)
	?type@HbSoftKey@@UBEHXZ @ 2401 NONAME ABSENT ; int HbSoftKey::type(void) const
	?pixmap@HbIcon@@QAE?AVQPixmap@@XZ @ 2402 NONAME ; class QPixmap HbIcon::pixmap(void)
	??1HbInstance@@AAE@XZ @ 2403 NONAME ; HbInstance::~HbInstance(void)
	?createContentItem@HbListWidgetViewItem@@MAEPAVQGraphicsLayoutItem@@ABVQVariant@@HHW4ListItemColumn@HbListWidgetItem@@@Z @ 2404 NONAME ABSENT ; class QGraphicsLayoutItem * HbListWidgetViewItem::createContentItem(class QVariant const &, int, int, enum HbListWidgetItem::ListItemColumn)
	?tr@HbListViewItem@@SA?AVQString@@PBD0H@Z @ 2405 NONAME ABSENT ; class QString HbListViewItem::tr(char const *, char const *, int)
	??_EHbListWidgetViewItem@@UAE@I@Z @ 2406 NONAME ABSENT ; HbListWidgetViewItem::~HbListWidgetViewItem(unsigned int)
	??_EHbExtraUserDictionary@@UAE@I@Z @ 2407 NONAME ; HbExtraUserDictionary::~HbExtraUserDictionary(unsigned int)
	?calculateVelocity@HbScrollAreaPrivate@@QAEMMMMMM@Z @ 2408 NONAME ; float HbScrollAreaPrivate::calculateVelocity(float, float, float, float, float)
	?tr@HbDeviceDialogPlugin@@SA?AVQString@@PBD0H@Z @ 2409 NONAME ; class QString HbDeviceDialogPlugin::tr(char const *, char const *, int)
	?toolBar@HbView@@QBEPAVHbToolBar@@XZ @ 2410 NONAME ; class HbToolBar * HbView::toolBar(void) const
	?dataChanged@HbTreeView@@MAEXABVQModelIndex@@0@Z @ 2411 NONAME ABSENT ; void HbTreeView::dataChanged(class QModelIndex const &, class QModelIndex const &)
	?metaObject@HbInputSettingProxy@@UBEPBUQMetaObject@@XZ @ 2412 NONAME ; struct QMetaObject const * HbInputSettingProxy::metaObject(void) const
	??1HbInputStateMachineHKChinese@@UAE@XZ @ 2413 NONAME ABSENT ; HbInputStateMachineHKChinese::~HbInputStateMachineHKChinese(void)
	?getStaticMetaObject@HbEditorInterface@@SAABUQMetaObject@@XZ @ 2414 NONAME ; struct QMetaObject const & HbEditorInterface::getStaticMetaObject(void)
	?layoutDirection@HbRichTextItem@@QBE?AW4LayoutDirection@Qt@@XZ @ 2415 NONAME ABSENT ; enum Qt::LayoutDirection HbRichTextItem::layoutDirection(void) const
	?addAction@HbToolBarExtension@@QAEPAVHbAction@@ABVQString@@@Z @ 2416 NONAME ; class HbAction * HbToolBarExtension::addAction(class QString const &)
	?mousePressEvent@HbDecorator@@MAEXPAVQGraphicsSceneMouseEvent@@@Z @ 2417 NONAME ABSENT ; void HbDecorator::mousePressEvent(class QGraphicsSceneMouseEvent *)
	?trUtf8@HbListModel@@SA?AVQString@@PBD0@Z @ 2418 NONAME ABSENT ; class QString HbListModel::trUtf8(char const *, char const *)
	?parseCombinator@Parser@HbCss@@QAE_NPAW4Relation@BasicSelector@2@@Z @ 2419 NONAME ; bool HbCss::Parser::parseCombinator(enum HbCss::BasicSelector::Relation *)
	??1HbScrollBar@@UAE@XZ @ 2420 NONAME ; HbScrollBar::~HbScrollBar(void)
	?getStaticMetaObject@HbListModel@@SAABUQMetaObject@@XZ @ 2421 NONAME ABSENT ; struct QMetaObject const & HbListModel::getStaticMetaObject(void)
	??0HbStyleOptionMenuItem@@QAE@XZ @ 2422 NONAME ABSENT ; HbStyleOptionMenuItem::HbStyleOptionMenuItem(void)
	?released@HbAbstractButton@@IAEXXZ @ 2423 NONAME ; void HbAbstractButton::released(void)
	?setDecorationRole@HbListViewItemPrivate@@QAEXVQVariant@@PAVHbStyleOptionListViewItem@@H@Z @ 2424 NONAME ABSENT ; void HbListViewItemPrivate::setDecorationRole(class QVariant, class HbStyleOptionListViewItem *, int)
	?metaObject@HbGridViewItem@@UBEPBUQMetaObject@@XZ @ 2425 NONAME ABSENT ; struct QMetaObject const * HbGridViewItem::metaObject(void) const
	?handleEvent@HbInputMethod@@QBE_NXZ @ 2426 NONAME ABSENT ; bool HbInputMethod::handleEvent(void) const
	?lookupElementName@Parser@HbCss@@QBE_NXZ @ 2427 NONAME ; bool HbCss::Parser::lookupElementName(void) const
	?itemExpandAnimationTimeout@HbListWidget@@UAEXM@Z @ 2428 NONAME ABSENT ; void HbListWidget::itemExpandAnimationTimeout(float)
	?setDecorationText@HbListWidgetItem@@QAEXABVQString@@@Z @ 2429 NONAME ABSENT ; void HbListWidgetItem::setDecorationText(class QString const &)
	?qt_metacall@HbNgNormalNumber@@UAEHW4Call@QMetaObject@@HPAPAX@Z @ 2430 NONAME ABSENT ; int HbNgNormalNumber::qt_metacall(enum QMetaObject::Call, int, void * *)
	?d_func@HbDeviceDialogServer@@AAEPAVHbDeviceDialogServerPrivate@@XZ @ 2431 NONAME ; class HbDeviceDialogServerPrivate * HbDeviceDialogServer::d_func(void)
	?gestureTriggered@HbInteractionManagerStatic@@SAXPBVHbWidget@@W4Gesture@Ia@@VQPointF@@@Z @ 2432 NONAME ABSENT ; void HbInteractionManagerStatic::gestureTriggered(class HbWidget const *, enum Ia::Gesture, class QPointF)
	?getStaticMetaObject@HbIconLoader@@SAABUQMetaObject@@XZ @ 2433 NONAME ; struct QMetaObject const & HbIconLoader::getStaticMetaObject(void)
	?clearCurrentModel@HbAbstractItemViewPrivate@@QAEXXZ @ 2434 NONAME ABSENT ; void HbAbstractItemViewPrivate::clearCurrentModel(void)
	??0HbInputMethod@@QAE@XZ @ 2435 NONAME ; HbInputMethod::HbInputMethod(void)
	?qt_metacast@HbInputFocusObject@@UAEPAXPBD@Z @ 2436 NONAME ; void * HbInputFocusObject::qt_metacast(char const *)
	?titleChanged@HbView@@IAEXABVQString@@@Z @ 2437 NONAME ; void HbView::titleChanged(class QString const &)
	??0VariableRule@HbCss@@QAE@W4MemoryType@HbMemoryManager@@@Z @ 2438 NONAME ; HbCss::VariableRule::VariableRule(enum HbMemoryManager::MemoryType)
	??_EHbDeviceDialogServer@@UAE@I@Z @ 2439 NONAME ; HbDeviceDialogServer::~HbDeviceDialogServer(unsigned int)
	?childItemList@HbListWidgetViewItem@@UBE?AV?$QList@PAVQGraphicsLayoutItem@@@@HW4ListItemColumn@HbListWidgetItem@@H@Z @ 2440 NONAME ABSENT ; class QList<class QGraphicsLayoutItem *> HbListWidgetViewItem::childItemList(int, enum HbListWidgetItem::ListItemColumn, int) const
	?description@HbTheme@@QBE?AVQString@@XZ @ 2441 NONAME ; class QString HbTheme::description(void) const
	?firstState@HbInputStateMachineTaiwanChinese@@UBEXAAVHbInputState@@@Z @ 2442 NONAME ABSENT ; void HbInputStateMachineTaiwanChinese::firstState(class HbInputState &) const
	?currentViewIndexChanged@HbMainWindow@@IAEXH@Z @ 2443 NONAME ABSENT ; void HbMainWindow::currentViewIndexChanged(int)
	?trUtf8@HbInputModeCache@@SA?AVQString@@PBD0H@Z @ 2444 NONAME ; class QString HbInputModeCache::trUtf8(char const *, char const *, int)
	?parseExpr@Parser@HbCss@@QAE_NPAV?$HbVector@UValue@HbCss@@@@@Z @ 2445 NONAME ; bool HbCss::Parser::parseExpr(class HbVector<struct HbCss::Value> *)
	?qt_metacall@HbExtraDictionaryFactory@@UAEHW4Call@QMetaObject@@HPAPAX@Z @ 2446 NONAME ; int HbExtraDictionaryFactory::qt_metacall(enum QMetaObject::Call, int, void * *)
	?initStyleOption@HbDecorator@@IBEXPAVHbStyleOptionDecorator@@@Z @ 2447 NONAME ABSENT ; void HbDecorator::initStyleOption(class HbStyleOptionDecorator *) const
	?qt_metacast@HbInteractionPlugin@@UAEPAXPBD@Z @ 2448 NONAME ABSENT ; void * HbInteractionPlugin::qt_metacast(char const *)
	?d_func@HbTouchArea@@AAEPAVHbTouchAreaPrivate@@XZ @ 2449 NONAME ; class HbTouchAreaPrivate * HbTouchArea::d_func(void)
	??1HbStyleOptionToolButton@@QAE@XZ @ 2450 NONAME ; HbStyleOptionToolButton::~HbStyleOptionToolButton(void)
	??_EHbGestureSceneFilter@@UAE@I@Z @ 2451 NONAME ABSENT ; HbGestureSceneFilter::~HbGestureSceneFilter(unsigned int)
	?d_func@HbListItemContainer@@AAEPAVHbListItemContainerPrivate@@XZ @ 2452 NONAME ABSENT ; class HbListItemContainerPrivate * HbListItemContainer::d_func(void)
	?removeView@HbMainWindow@@QAEXPAVQGraphicsWidget@@@Z @ 2453 NONAME ; void HbMainWindow::removeView(class QGraphicsWidget *)
	?visibleItemsChanged@HbView@@IAEXXZ @ 2454 NONAME ; void HbView::visibleItemsChanged(void)
	?toDouble@HbVariant@@QBENXZ @ 2455 NONAME ; double HbVariant::toDouble(void) const
	?setId@HbInputCustomButton@@QAEXH@Z @ 2456 NONAME ABSENT ; void HbInputCustomButton::setId(int)
	?setAmPmSymbolPosition@HbExtendedLocale@@QAE_NW4SymbolPos@1@@Z @ 2457 NONAME ; bool HbExtendedLocale::setAmPmSymbolPosition(enum HbExtendedLocale::SymbolPos)
	??0HbXmlLoaderAbstractSyntax@@QAE@PAVHbXmlLoaderAbstractActions@@@Z @ 2458 NONAME ; HbXmlLoaderAbstractSyntax::HbXmlLoaderAbstractSyntax(class HbXmlLoaderAbstractActions *)
	?metaObject@HbInputMethod@@UBEPBUQMetaObject@@XZ @ 2459 NONAME ; struct QMetaObject const * HbInputMethod::metaObject(void) const
	??_EHbInteractionPlugin@@UAE@I@Z @ 2460 NONAME ABSENT ; HbInteractionPlugin::~HbInteractionPlugin(unsigned int)
	?trUtf8@HbSoftKey@@SA?AVQString@@PBD0H@Z @ 2461 NONAME ABSENT ; class QString HbSoftKey::trUtf8(char const *, char const *, int)
	?setHighlightMode@HbItemHighlight@@QAEXW4HighlightMode@1@@Z @ 2462 NONAME ABSENT ; void HbItemHighlight::setHighlightMode(enum HbItemHighlight::HighlightMode)
	?level@HbBatteryIndicator@@QBEHXZ @ 2463 NONAME ; int HbBatteryIndicator::level(void) const
	?d_func@HbExtraUserDictionary@@ABEPBVHbExtraUserDictionaryPrivate@@XZ @ 2464 NONAME ; class HbExtraUserDictionaryPrivate const * HbExtraUserDictionary::d_func(void) const
	?qt_metacast@HbAbstractViewItem@@UAEPAXPBD@Z @ 2465 NONAME ABSENT ; void * HbAbstractViewItem::qt_metacast(char const *)
	?icon@HbGridViewItemPrivate@@QAE?AVHbIcon@@ABVQVariant@@@Z @ 2466 NONAME ABSENT ; class HbIcon HbGridViewItemPrivate::icon(class QVariant const &)
	?matchC@HbStringUtil@@SAHABVQString@@0HHHHV?$QFlags@W4Option@HbStringUtil@@@@H@Z @ 2467 NONAME ABSENT ; int HbStringUtil::matchC(class QString const &, class QString const &, int, int, int, int, class QFlags<enum HbStringUtil::Option>, int)
	?canConvert@HbVariant@@QBE_NW4Type@1@@Z @ 2468 NONAME ; bool HbVariant::canConvert(enum HbVariant::Type) const
	?tr@HbDecorator@@SA?AVQString@@PBD0@Z @ 2469 NONAME ABSENT ; class QString HbDecorator::tr(char const *, char const *)
	??0HbInputMethodNull@@AAE@XZ @ 2470 NONAME ; HbInputMethodNull::HbInputMethodNull(void)
	??1HbPredictionFactory@@EAE@XZ @ 2471 NONAME ; HbPredictionFactory::~HbPredictionFactory(void)
	?getStaticMetaObject@HbTreeView@@SAABUQMetaObject@@XZ @ 2472 NONAME ABSENT ; struct QMetaObject const & HbTreeView::getStaticMetaObject(void)
	?globalSecondaryInputLanguageChanged@HbInputSettingProxy@@IAEXABVHbInputLanguage@@@Z @ 2473 NONAME ; void HbInputSettingProxy::globalSecondaryInputLanguageChanged(class HbInputLanguage const &)
	??4HbAbstractViewItemPrivate@@QAEAAV0@ABV0@@Z @ 2474 NONAME ABSENT ; class HbAbstractViewItemPrivate & HbAbstractViewItemPrivate::operator=(class HbAbstractViewItemPrivate const &)
	??0HbSoftKey@@QAE@W4SoftKeyId@Hb@@PAVQGraphicsItem@@@Z @ 2475 NONAME ABSENT ; HbSoftKey::HbSoftKey(enum Hb::SoftKeyId, class QGraphicsItem *)
	?extractFont@ValueExtractor@HbCss@@QAE_NPAVQFont@@PAVHbFontSpec@@PAH@Z @ 2476 NONAME ABSENT ; bool HbCss::ValueExtractor::extractFont(class QFont *, class HbFontSpec *, int *)
	?setScrollBarPolicy@HbScrollAreaPrivate@@QAEXW4Orientation@Qt@@W4ScrollBarPolicy@HbScrollArea@@@Z @ 2477 NONAME ; void HbScrollAreaPrivate::setScrollBarPolicy(enum Qt::Orientation, enum HbScrollArea::ScrollBarPolicy)
	??1HbListView@@UAE@XZ @ 2478 NONAME ABSENT ; HbListView::~HbListView(void)
	??0HbToolButton@@QAE@PAVHbAction@@PAVQGraphicsItem@@@Z @ 2479 NONAME ; HbToolButton::HbToolButton(class HbAction *, class QGraphicsItem *)
	?setItemName@HbStyle@@SAXPAVQGraphicsItem@@ABVQString@@@Z @ 2480 NONAME ; void HbStyle::setItemName(class QGraphicsItem *, class QString const &)
	?setScrollBarMetrics@HbAbstractItemViewPrivate@@UAEXW4Orientation@Qt@@@Z @ 2481 NONAME ABSENT ; void HbAbstractItemViewPrivate::setScrollBarMetrics(enum Qt::Orientation)
	??1HbDeviceDialogServer@@UAE@XZ @ 2482 NONAME ; HbDeviceDialogServer::~HbDeviceDialogServer(void)
	??0HbMenuListViewPrivate@@QAE@XZ @ 2483 NONAME ABSENT ; HbMenuListViewPrivate::HbMenuListViewPrivate(void)
	?initStyleOption@HbGridViewItem@@IBEXPAVHbStyleOptionGridViewItem@@@Z @ 2484 NONAME ABSENT ; void HbGridViewItem::initStyleOption(class HbStyleOptionGridViewItem *) const
	??1HbIconLoader@@UAE@XZ @ 2485 NONAME ; HbIconLoader::~HbIconLoader(void)
	?type@HbAbstractViewItem@@UBEHXZ @ 2486 NONAME ABSENT ; int HbAbstractViewItem::type(void) const
	??0HbGridViewItem@@IAE@ABV0@@Z @ 2487 NONAME ABSENT ; HbGridViewItem::HbGridViewItem(class HbGridViewItem const &)
	??_EHbSignalIndicator@@UAE@I@Z @ 2488 NONAME ; HbSignalIndicator::~HbSignalIndicator(unsigned int)
	?parseClass@Parser@HbCss@@QAE_NPAVHbString@@@Z @ 2489 NONAME ; bool HbCss::Parser::parseClass(class HbString *)
	?decoratorType@HbDecorator@@QBE?AW4DecoratorType@1@XZ @ 2490 NONAME ABSENT ; enum HbDecorator::DecoratorType HbDecorator::decoratorType(void) const
	?testAndParseUri@Parser@HbCss@@QAE_NPAVHbString@@@Z @ 2491 NONAME ; bool HbCss::Parser::testAndParseUri(class HbString *)
	?qt_metacast@HbStackedWidget@@UAEPAXPBD@Z @ 2492 NONAME ; void * HbStackedWidget::qt_metacast(char const *)
	?parseNextOperator@Parser@HbCss@@QAE_NPAUValue@2@@Z @ 2493 NONAME ; bool HbCss::Parser::parseNextOperator(struct HbCss::Value *)
	?currentItem@HbAbstractItemViewPrivate@@QBEPAVHbAbstractViewItem@@XZ @ 2494 NONAME ABSENT ; class HbAbstractViewItem * HbAbstractItemViewPrivate::currentItem(void) const
	?updateGeometry@HbIconItem@@UAEXXZ @ 2495 NONAME ABSENT ; void HbIconItem::updateGeometry(void)
	?isChineseInputMode@HbInputUtils@@SA_NV?$QFlags@W4HbInputModeTypeFlag@@@@@Z @ 2496 NONAME ; bool HbInputUtils::isChineseInputMode(class QFlags<enum HbInputModeTypeFlag>)
	?sizeHint@HbAbstractViewItem@@MBE?AVQSizeF@@W4SizeHint@Qt@@ABV2@@Z @ 2497 NONAME ABSENT ; class QSizeF HbAbstractViewItem::sizeHint(enum Qt::SizeHint, class QSizeF const &) const
	??0HbStyleOptionCheckBox@@QAE@XZ @ 2498 NONAME ; HbStyleOptionCheckBox::HbStyleOptionCheckBox(void)
	?menuAction@HbMenu@@QBEPAVHbAction@@XZ @ 2499 NONAME ; class HbAction * HbMenu::menuAction(void) const
	?setCheckable@HbAbstractButton@@QAEX_N@Z @ 2500 NONAME ; void HbAbstractButton::setCheckable(bool)
	??1HbTreeView@@UAE@XZ @ 2501 NONAME ABSENT ; HbTreeView::~HbTreeView(void)
	?getStaticMetaObject@HbAbstractButton@@SAABUQMetaObject@@XZ @ 2502 NONAME ; struct QMetaObject const & HbAbstractButton::getStaticMetaObject(void)
	??1HbTestabilitySignal_p@@UAE@XZ @ 2503 NONAME ; HbTestabilitySignal_p::~HbTestabilitySignal_p(void)
	?format@HbExtendedLocale@@QAE?AVQString@@VQTime@@V2@@Z @ 2504 NONAME ABSENT ; class QString HbExtendedLocale::format(class QTime, class QString)
	?workDays@HbExtendedLocale@@QAE?AVQString@@XZ @ 2505 NONAME ABSENT ; class QString HbExtendedLocale::workDays(void)
	??0Value@HbCss@@QAE@W4MemoryType@HbMemoryManager@@@Z @ 2506 NONAME ; HbCss::Value::Value(enum HbMemoryManager::MemoryType)
	??1HbExtraUserDictionary@@UAE@XZ @ 2507 NONAME ; HbExtraUserDictionary::~HbExtraUserDictionary(void)
	?init@HbListViewPrivate@@QAEXXZ @ 2508 NONAME ABSENT ; void HbListViewPrivate::init(void)
	?leftGesture@HbScrollArea@@MAEXH@Z @ 2509 NONAME ; void HbScrollArea::leftGesture(int)
	?reset@HbXmlLoaderAbstractActions@@QAEXXZ @ 2510 NONAME ABSENT ; void HbXmlLoaderAbstractActions::reset(void)
	?event@HbItemHighlight@@UAE_NPAVQEvent@@@Z @ 2511 NONAME ABSENT ; bool HbItemHighlight::event(class QEvent *)
	?parseNextMedium@Parser@HbCss@@QAE_NPAVHbStringVector@@@Z @ 2512 NONAME ; bool HbCss::Parser::parseNextMedium(class HbStringVector *)
	??0HbStyleOptionToolTip@@QAE@XZ @ 2513 NONAME ; HbStyleOptionToolTip::HbStyleOptionToolTip(void)
	?rowsInserted@HbTreeView@@MAEXABVQModelIndex@@HH@Z @ 2514 NONAME ABSENT ; void HbTreeView::rowsInserted(class QModelIndex const &, int, int)
	?keyPressEvent@HbPopupBase@@MAEXPAVQKeyEvent@@@Z @ 2515 NONAME ABSENT ; void HbPopupBase::keyPressEvent(class QKeyEvent *)
	?tr@HbScrollArea@@SA?AVQString@@PBD0H@Z @ 2516 NONAME ; class QString HbScrollArea::tr(char const *, char const *, int)
	?itemAt@HbGridView@@QBEPAVHbAbstractViewItem@@HH@Z @ 2517 NONAME ABSENT ; class HbAbstractViewItem * HbGridView::itemAt(int, int) const
	?closeDeviceDialog@HbDeviceDialogServer@@QAEHH@Z @ 2518 NONAME ; int HbDeviceDialogServer::closeDeviceDialog(int)
	?sendCommitString@HbFocusObjectWidget@@UAEXABVQString@@@Z @ 2519 NONAME ABSENT ; void HbFocusObjectWidget::sendCommitString(class QString const &)
	?animateVisible@HbItemHighlight@@UAEXPAVQGraphicsWidget@@@Z @ 2520 NONAME ABSENT ; void HbItemHighlight::animateVisible(class QGraphicsWidget *)
	?trUtf8@HbGestureSceneFilter@@SA?AVQString@@PBD0@Z @ 2521 NONAME ABSENT ; class QString HbGestureSceneFilter::trUtf8(char const *, char const *)
	?sizeHint@HbView@@MBE?AVQSizeF@@W4SizeHint@Qt@@ABV2@@Z @ 2522 NONAME ABSENT ; class QSizeF HbView::sizeHint(enum Qt::SizeHint, class QSizeF const &) const
	?itemView@HbAbstractItemContainer@@QBEPAVHbAbstractItemView@@XZ @ 2523 NONAME ABSENT ; class HbAbstractItemView * HbAbstractItemContainer::itemView(void) const
	?setManager@HbInteractionListener@@UAEXPAVHbInteractionManager@@@Z @ 2524 NONAME ABSENT ; void HbInteractionListener::setManager(class HbInteractionManager *)
	?save@HbExtraUserDictionary@@QAE_NABVQString@@@Z @ 2525 NONAME ; bool HbExtraUserDictionary::save(class QString const &)
	?test@Parser@HbCss@@QAE_NW4TokenType@2@@Z @ 2526 NONAME ; bool HbCss::Parser::test(enum HbCss::TokenType)
	?trUtf8@HbEditorInterface@@SA?AVQString@@PBD0H@Z @ 2527 NONAME ; class QString HbEditorInterface::trUtf8(char const *, char const *, int)
	?updatePrimitives@HbGridViewItem@@UAEXXZ @ 2528 NONAME ABSENT ; void HbGridViewItem::updatePrimitives(void)
	?type@HbFrameItem@@UBEHXZ @ 2529 NONAME ; int HbFrameItem::type(void) const
	?trUtf8@HbStyleOld@@SA?AVQString@@PBD0@Z @ 2530 NONAME ABSENT ; class QString HbStyleOld::trUtf8(char const *, char const *)
	?testHexColor@Parser@HbCss@@QAE_NXZ @ 2531 NONAME ; bool HbCss::Parser::testHexColor(void)
	??1HbInputMethodNull@@EAE@XZ @ 2532 NONAME ; HbInputMethodNull::~HbInputMethodNull(void)
	?staticMetaObject@HbFontSpec@@2UQMetaObject@@B @ 2533 NONAME ; struct QMetaObject const HbFontSpec::staticMetaObject
	?canSetModelIndex@HbListWidgetViewItem@@UBE_NABVQModelIndex@@@Z @ 2534 NONAME ABSENT ; bool HbListWidgetViewItem::canSetModelIndex(class QModelIndex const &) const
	?setExtraDictionaryId@HbEditorInterface@@QAEXH@Z @ 2535 NONAME ; void HbEditorInterface::setExtraDictionaryId(int)
	?childItem@HbListWidgetViewItem@@UBEPAVQGraphicsLayoutItem@@HW4ListItemColumn@HbListWidgetItem@@HHH@Z @ 2536 NONAME ABSENT ; class QGraphicsLayoutItem * HbListWidgetViewItem::childItem(int, enum HbListWidgetItem::ListItemColumn, int, int, int) const
	?type@HbAbstractItemView@@UBEHXZ @ 2537 NONAME ABSENT ; int HbAbstractItemView::type(void) const
	?event@HbView@@MAE_NPAVQEvent@@@Z @ 2538 NONAME ; bool HbView::event(class QEvent *)
	?sizeHintChanged@HbAbstractItem@@IAEXXZ @ 2539 NONAME ABSENT ; void HbAbstractItem::sizeHintChanged(void)
	?nextWordCandidateList@HbPredictionEngine@@UAEPAVQStringList@@PAVHbPredictionCallback@@@Z @ 2540 NONAME ABSENT ; class QStringList * HbPredictionEngine::nextWordCandidateList(class HbPredictionCallback *)
	?setIcons@HbListWidgetItem@@QAEXABV?$QList@VHbIcon@@@@W4ListItemColumn@1@W4ListContentType@1@W4ContentVisibility@1@@Z @ 2541 NONAME ABSENT ; void HbListWidgetItem::setIcons(class QList<class HbIcon> const &, enum HbListWidgetItem::ListItemColumn, enum HbListWidgetItem::ListContentType, enum HbListWidgetItem::ContentVisibility)
	?released@HbAbstractItemView@@IAEXABVQModelIndex@@@Z @ 2542 NONAME ABSENT ; void HbAbstractItemView::released(class QModelIndex const &)
	?setItemView@HbAbstractItemContainer@@QAEXPAVHbAbstractItemView@@@Z @ 2543 NONAME ABSENT ; void HbAbstractItemContainer::setItemView(class HbAbstractItemView *)
	?qt_metacast@HbLayoutDirectionNotifier@@UAEPAXPBD@Z @ 2544 NONAME ; void * HbLayoutDirectionNotifier::qt_metacast(char const *)
	??_EHbListWidgetViewItemPrivate@@UAE@I@Z @ 2545 NONAME ABSENT ; HbListWidgetViewItemPrivate::~HbListWidgetViewItemPrivate(unsigned int)
	?addItem@HbListWidget@@QAEXPAVHbListWidgetItem@@@Z @ 2546 NONAME ABSENT ; void HbListWidget::addItem(class HbListWidgetItem *)
	?setExpanded@HbTreeView@@QAEXABVQModelIndex@@_N@Z @ 2547 NONAME ABSENT ; void HbTreeView::setExpanded(class QModelIndex const &, bool)
	?trUtf8@HbTreeViewItem@@SA?AVQString@@PBD0H@Z @ 2548 NONAME ABSENT ; class QString HbTreeViewItem::trUtf8(char const *, char const *, int)
	?setLocalLanguage@HbEditorInterface@@QAEXABVHbInputLanguage@@@Z @ 2549 NONAME ABSENT ; void HbEditorInterface::setLocalLanguage(class HbInputLanguage const &)
	?paint@HbTouchArea@@UAEXPAVQPainter@@PBVQStyleOptionGraphicsItem@@PAVQWidget@@@Z @ 2550 NONAME ; void HbTouchArea::paint(class QPainter *, class QStyleOptionGraphicsItem const *, class QWidget *)
	?logicalSize@HbDeviceProfile@@QBE?AVQSize@@XZ @ 2551 NONAME ; class QSize HbDeviceProfile::logicalSize(void) const
	?isKnownState@HbInputStateMachinePrcChineseFinger@@UBE_NABVHbInputState@@@Z @ 2552 NONAME ABSENT ; bool HbInputStateMachinePrcChineseFinger::isKnownState(class HbInputState const &) const
	?effectiveFont@HbTextItem@@QBE?AVQFont@@XZ @ 2553 NONAME ABSENT ; class QFont HbTextItem::effectiveFont(void) const
	??_EHbDecorator@@UAE@I@Z @ 2554 NONAME ABSENT ; HbDecorator::~HbDecorator(unsigned int)
	?inputStateActivated@HbInputMethod@@MAEXABVHbInputState@@@Z @ 2555 NONAME ; void HbInputMethod::inputStateActivated(class HbInputState const &)
	?scene@HbInstance@@QBEPAVQGraphicsScene@@XZ @ 2556 NONAME ABSENT ; class QGraphicsScene * HbInstance::scene(void) const
	?qt_metacast@HbMainWindow@@UAEPAXPBD@Z @ 2557 NONAME ; void * HbMainWindow::qt_metacast(char const *)
	?actions@HbInputContextProxy@@UAE?AV?$QList@PAVQAction@@@@XZ @ 2558 NONAME ; class QList<class QAction *> HbInputContextProxy::actions(void)
	?loadWidgetML@HbWidgetStyleLoader@@QAE_NPAVHbWidget@@ABVQString@@11@Z @ 2559 NONAME ABSENT ; bool HbWidgetStyleLoader::loadWidgetML(class HbWidget *, class QString const &, class QString const &, class QString const &)
	?trUtf8@HbGesture@@SA?AVQString@@PBD0H@Z @ 2560 NONAME ABSENT ; class QString HbGesture::trUtf8(char const *, char const *, int)
	?isVisible@HbAbstractItemView@@QBE_NABVQModelIndex@@@Z @ 2561 NONAME ABSENT ; bool HbAbstractItemView::isVisible(class QModelIndex const &) const
	?type@HbAbstractItemContainer@@UBEHXZ @ 2562 NONAME ABSENT ; int HbAbstractItemContainer::type(void) const
	?setContentFullScreen@HbView@@QAEX_N@Z @ 2563 NONAME ; void HbView::setContentFullScreen(bool)
	??_EHbInputStateMachinePrcChinese@@UAE@I@Z @ 2564 NONAME ABSENT ; HbInputStateMachinePrcChinese::~HbInputStateMachinePrcChinese(unsigned int)
	?isItemVisible@HbView@@QBE_NW4SceneItem@Hb@@@Z @ 2565 NONAME ; bool HbView::isItemVisible(enum Hb::SceneItem) const
	?longPressGesture@HbAbstractItemView@@MAEXABVQPointF@@@Z @ 2566 NONAME ABSENT ; void HbAbstractItemView::longPressGesture(class QPointF const &)
	?trUtf8@HbListWidget@@SA?AVQString@@PBD0H@Z @ 2567 NONAME ABSENT ; class QString HbListWidget::trUtf8(char const *, char const *, int)
	?insertAction@HbEditorInterface@@QAEXPAVHbAction@@0@Z @ 2568 NONAME ; void HbEditorInterface::insertAction(class HbAction *, class HbAction *)
	?tr@HbInteractionPluginGroup@@SA?AVQString@@PBD0@Z @ 2569 NONAME ABSENT ; class QString HbInteractionPluginGroup::tr(char const *, char const *)
	?scrollTo@HbListView@@UAEXABVQModelIndex@@@Z @ 2570 NONAME ABSENT ; void HbListView::scrollTo(class QModelIndex const &)
	?metaObject@HbGestureFilter@@UBEPBUQMetaObject@@XZ @ 2571 NONAME ABSENT ; struct QMetaObject const * HbGestureFilter::metaObject(void) const
	?toLower@HbString@@QBE?AV1@XZ @ 2572 NONAME ; class HbString HbString::toLower(void) const
	?event@HbWidget@@UAE_NPAVQEvent@@@Z @ 2573 NONAME ; bool HbWidget::event(class QEvent *)
	??0HbGesture@@QAE@W4Direction@0@HPAVQObject@@@Z @ 2574 NONAME ABSENT ; HbGesture::HbGesture(enum HbGesture::Direction, int, class QObject *)
	?setMenu@HbAction@@QAEXPAVHbMenu@@@Z @ 2575 NONAME ; void HbAction::setMenu(class HbMenu *)
	?backendModified@HbEditorInterface@@QAEXXZ @ 2576 NONAME ; void HbEditorInterface::backendModified(void)
	?init@HbPopupBasePrivate@@QAEXXZ @ 2577 NONAME ABSENT ; void HbPopupBasePrivate::init(void)
	?GestureStop@HbInteractionGestureEvent@@2HB @ 2578 NONAME ABSENT ; int const HbInteractionGestureEvent::GestureStop
	?chop@HbString@@QAEXH@Z @ 2579 NONAME ; void HbString::chop(int)
	??0HbItemHighlight@@QAE@W4HighlightMode@0@PAVQGraphicsItem@@@Z @ 2580 NONAME ABSENT ; HbItemHighlight::HbItemHighlight(enum HbItemHighlight::HighlightMode, class QGraphicsItem *)
	?init@HbAbstractItemViewPrivate@@QAEXPAVHbAbstractItemContainer@@@Z @ 2581 NONAME ABSENT ; void HbAbstractItemViewPrivate::init(class HbAbstractItemContainer *)
	?setLastFocusedState@HbEditorInterface@@QAEXABVHbInputState@@@Z @ 2582 NONAME ; void HbEditorInterface::setLastFocusedState(class HbInputState const &)
	?setTextVisible@HbGridView@@QAEX_N@Z @ 2583 NONAME ABSENT ; void HbGridView::setTextVisible(bool)
	?parseNextFunction@Parser@HbCss@@QAE_NPAVHbString@@0@Z @ 2584 NONAME ; bool HbCss::Parser::parseNextFunction(class HbString *, class HbString *)
	?childItem@HbListWidgetViewItemPrivate@@QBEPAVQGraphicsLayoutItem@@HW4ListItemColumn@HbListWidgetItem@@_NH1HH@Z @ 2585 NONAME ABSENT ; class QGraphicsLayoutItem * HbListWidgetViewItemPrivate::childItem(int, enum HbListWidgetItem::ListItemColumn, bool, int, bool, int, int) const
	?setUniformItemSizes@HbAbstractItemView@@QAEX_N@Z @ 2586 NONAME ABSENT ; void HbAbstractItemView::setUniformItemSizes(bool)
	??_EHbKeyMapData@@UAE@I@Z @ 2587 NONAME ABSENT ; HbKeyMapData::~HbKeyMapData(unsigned int)
	?primaryWindow@HbInstance@@QBEPAVHbMainWindow@@XZ @ 2588 NONAME ABSENT ; class HbMainWindow * HbInstance::primaryWindow(void) const
	?event@HbPopupBase@@MAE_NPAVQEvent@@@Z @ 2589 NONAME ABSENT ; bool HbPopupBase::event(class QEvent *)
	?setLocalDigitType@HbEditorInterface@@QAEXH@Z @ 2590 NONAME ABSENT ; void HbEditorInterface::setLocalDigitType(int)
	?global@HbIconLoader@@SAPAV1@XZ @ 2591 NONAME ; class HbIconLoader * HbIconLoader::global(void)
	?qt_metacall@HbFontProvider@@UAEHW4Call@QMetaObject@@HPAPAX@Z @ 2592 NONAME ABSENT ; int HbFontProvider::qt_metacall(enum QMetaObject::Call, int, void * *)
	?testVariable@Parser@HbCss@@QAE_NXZ @ 2593 NONAME ; bool HbCss::Parser::testVariable(void)
	?setPixelSize@HbFontSpec@@QAEXH@Z @ 2594 NONAME ABSENT ; void HbFontSpec::setPixelSize(int)
	?trUtf8@HbDeviceDialogServer@@SA?AVQString@@PBD0@Z @ 2595 NONAME ; class QString HbDeviceDialogServer::trUtf8(char const *, char const *)
	?load@HbStyleLoader@@SAHABVQString@@@Z @ 2596 NONAME ABSENT ; int HbStyleLoader::load(class QString const &)
	?mostUsedSpecialCharacters@HbInputSettingProxy@@QAEXHAAVQString@@PAVHbInputFilter@@@Z @ 2597 NONAME ABSENT ; void HbInputSettingProxy::mostUsedSpecialCharacters(int, class QString &, class HbInputFilter *)
	?fileName@HbExtraUserDictionary@@QAE?AVQString@@XZ @ 2598 NONAME ; class QString HbExtraUserDictionary::fileName(void)
	?trUtf8@HbInteractionListener@@SA?AVQString@@PBD0H@Z @ 2599 NONAME ABSENT ; class QString HbInteractionListener::trUtf8(char const *, char const *, int)
	?setToolButtonStyle@HbToolButton@@QAEXW4ToolButtonStyle@1@@Z @ 2600 NONAME ABSENT ; void HbToolButton::setToolButtonStyle(enum HbToolButton::ToolButtonStyle)
	??0HbStyleOptionDataGroup@@QAE@ABV0@@Z @ 2601 NONAME ; HbStyleOptionDataGroup::HbStyleOptionDataGroup(class HbStyleOptionDataGroup const &)
	?isRightToLeftLanguage@HbInputUtils@@SA_NABVHbInputLanguage@@@Z @ 2602 NONAME ABSENT ; bool HbInputUtils::isRightToLeftLanguage(class HbInputLanguage const &)
	?tr@HbInputFocusObject@@SA?AVQString@@PBD0H@Z @ 2603 NONAME ; class QString HbInputFocusObject::tr(char const *, char const *, int)
	?reset@HbAbstractItemContainer@@UAEXXZ @ 2604 NONAME ABSENT ; void HbAbstractItemContainer::reset(void)
	?qt_metacall@HbInputMethod@@UAEHW4Call@QMetaObject@@HPAPAX@Z @ 2605 NONAME ; int HbInputMethod::qt_metacall(enum QMetaObject::Call, int, void * *)
	??0HbString@@QAE@ABVQString@@W4MemoryType@HbMemoryManager@@@Z @ 2606 NONAME ; HbString::HbString(class QString const &, enum HbMemoryManager::MemoryType)
	?flags@HbListModel@@UBE?AV?$QFlags@W4ItemFlag@Qt@@@@ABVQModelIndex@@@Z @ 2607 NONAME ABSENT ; class QFlags<enum Qt::ItemFlag> HbListModel::flags(class QModelIndex const &) const
	?itemRecycling@HbAbstractItemContainer@@QBE_NXZ @ 2608 NONAME ABSENT ; bool HbAbstractItemContainer::itemRecycling(void) const
	?tr@HbPopup@@SA?AVQString@@PBD0H@Z @ 2609 NONAME ; class QString HbPopup::tr(char const *, char const *, int)
	?getStaticMetaObject@HbAbstractViewItem@@SAABUQMetaObject@@XZ @ 2610 NONAME ABSENT ; struct QMetaObject const & HbAbstractViewItem::getStaticMetaObject(void)
	?flags@HbIconItem@@QBE?AV?$QFlags@W4Flag@HbIcon@@@@XZ @ 2611 NONAME ; class QFlags<enum HbIcon::Flag> HbIconItem::flags(void) const
	?setUpModeSet@HbInputModeCache@@QAEPAVHbInputMethod@@AAV?$QVector@VHbInputMode@@@@@Z @ 2612 NONAME ABSENT ; class HbInputMethod * HbInputModeCache::setUpModeSet(class QVector<class HbInputMode> &)
	?mousePressEvent@HbPopupBase@@MAEXPAVQGraphicsSceneMouseEvent@@@Z @ 2613 NONAME ABSENT ; void HbPopupBase::mousePressEvent(class QGraphicsSceneMouseEvent *)
	?setPalette@HbTextItem@@QAEXABVQPalette@@@Z @ 2614 NONAME ABSENT ; void HbTextItem::setPalette(class QPalette const &)
	?isNull@HbIcon@@QBE_NXZ @ 2615 NONAME ; bool HbIcon::isNull(void) const
	?setPageSize@HbScrollBar@@QAEXM@Z @ 2616 NONAME ; void HbScrollBar::setPageSize(float)
	?visible@HbAbstractItemViewPrivate@@UBE_NPAVHbAbstractViewItem@@_N@Z @ 2617 NONAME ABSENT ; bool HbAbstractItemViewPrivate::visible(class HbAbstractViewItem *, bool) const
	?tr@HbEditorInterface@@SA?AVQString@@PBD0H@Z @ 2618 NONAME ; class QString HbEditorInterface::tr(char const *, char const *, int)
	?scrollingStarted@HbScrollArea@@IAEXXZ @ 2619 NONAME ; void HbScrollArea::scrollingStarted(void)
	?count@HbGestureSceneFilter@@QAEHXZ @ 2620 NONAME ABSENT ; int HbGestureSceneFilter::count(void)
	?tr@HbToolBarExtension@@SA?AVQString@@PBD0H@Z @ 2621 NONAME ; class QString HbToolBarExtension::tr(char const *, char const *, int)
	?enableSignal@HbTestabilitySignal_p@@QAEX_N@Z @ 2622 NONAME ; void HbTestabilitySignal_p::enableSignal(bool)
	?hasKeyData@HbKeyMapData@@UBE_NV?$QFlags@W4HbKeyboardTypeFlag@@@@@Z @ 2623 NONAME ABSENT ; bool HbKeyMapData::hasKeyData(class QFlags<enum HbKeyboardTypeFlag>) const
	?orientationChanged@HbMainWindow@@IAEXW4Orientation@Qt@@@Z @ 2624 NONAME ; void HbMainWindow::orientationChanged(enum Qt::Orientation)
	??1HbInputStateMachineFactory@@EAE@XZ @ 2625 NONAME ABSENT ; HbInputStateMachineFactory::~HbInputStateMachineFactory(void)
	?setTitle@HbMenu@@QAEXABVQString@@@Z @ 2626 NONAME ; void HbMenu::setTitle(class QString const &)
	?filterAndCommitCharacter@HbInputFocusObject@@UAE_NVQChar@@@Z @ 2627 NONAME ABSENT ; bool HbInputFocusObject::filterAndCommitCharacter(class QChar)
	?trUtf8@HbAbstractButton@@SA?AVQString@@PBD0H@Z @ 2628 NONAME ; class QString HbAbstractButton::trUtf8(char const *, char const *, int)
	?trUtf8@HbInputCustomButtonBank@@SA?AVQString@@PBD0@Z @ 2629 NONAME ABSENT ; class QString HbInputCustomButtonBank::trUtf8(char const *, char const *)
	?getStaticMetaObject@HbIndicator@@SAABUQMetaObject@@XZ @ 2630 NONAME ; struct QMetaObject const & HbIndicator::getStaticMetaObject(void)
	?trUtf8@HbIndicator@@SA?AVQString@@PBD0@Z @ 2631 NONAME ; class QString HbIndicator::trUtf8(char const *, char const *)
	?length@HbString@@QBEHXZ @ 2632 NONAME ; int HbString::length(void) const
	?dictionaries@HbExtraDictionaryCollection@@QBE?AV?$QList@H@@XZ @ 2633 NONAME ; class QList<int> HbExtraDictionaryCollection::dictionaries(void) const
	?move@HbListWidget@@MAEXABVQModelIndex@@0@Z @ 2634 NONAME ABSENT ; void HbListWidget::move(class QModelIndex const &, class QModelIndex const &)
	?isKnownState@HbInputStateMachineTaiwanChinese@@UBE_NABVHbInputState@@@Z @ 2635 NONAME ABSENT ; bool HbInputStateMachineTaiwanChinese::isKnownState(class HbInputState const &) const
	?qt_metacall@HbListModel@@UAEHW4Call@QMetaObject@@HPAPAX@Z @ 2636 NONAME ABSENT ; int HbListModel::qt_metacall(enum QMetaObject::Call, int, void * *)
	?setIconName@HbIcon@@QAEXABVQString@@@Z @ 2637 NONAME ; void HbIcon::setIconName(class QString const &)
	?layoutDirectionChanged@HbLayoutDirectionNotifier@@IAEXW4LayoutDirection@Qt@@@Z @ 2638 NONAME ABSENT ; void HbLayoutDirectionNotifier::layoutDirectionChanged(enum Qt::LayoutDirection)
	?setFlags@HbIcon@@QAEXV?$QFlags@W4Flag@HbIcon@@@@@Z @ 2639 NONAME ; void HbIcon::setFlags(class QFlags<enum HbIcon::Flag>)
	?propertyChanges@HbTestabilitySignal_p@@IAEXW4GraphicsItemChange@QGraphicsItem@@ABVQVariant@@@Z @ 2640 NONAME ; void HbTestabilitySignal_p::propertyChanges(enum QGraphicsItem::GraphicsItemChange, class QVariant const &)
	?compareC@HbStringUtil@@SAHABVQString@@0HV?$QFlags@W4Option@HbStringUtil@@@@H@Z @ 2641 NONAME ABSENT ; int HbStringUtil::compareC(class QString const &, class QString const &, int, class QFlags<enum HbStringUtil::Option>, int)
	??_EHbInputCustomButtonComposition@@UAE@I@Z @ 2642 NONAME ABSENT ; HbInputCustomButtonComposition::~HbInputCustomButtonComposition(unsigned int)
	?lastFocusedState@HbEditorInterface@@QBEXAAVHbInputState@@@Z @ 2643 NONAME ; void HbEditorInterface::lastFocusedState(class HbInputState &) const
	?resizeEvent@HbToolButton@@MAEXPAVQGraphicsSceneResizeEvent@@@Z @ 2644 NONAME ; void HbToolButton::resizeEvent(class QGraphicsSceneResizeEvent *)
	??0HbColorScheme@@AAE@XZ @ 2645 NONAME ABSENT ; HbColorScheme::HbColorScheme(void)
	?getStaticMetaObject@HbExtraDictionaryFactory@@SAABUQMetaObject@@XZ @ 2646 NONAME ; struct QMetaObject const & HbExtraDictionaryFactory::getStaticMetaObject(void)
	?listSupportedInputLanguages@HbInputModeCache@@QAEXAAV?$QList@VHbInputLanguage@@@@@Z @ 2647 NONAME ABSENT ; void HbInputModeCache::listSupportedInputLanguages(class QList<class HbInputLanguage> &)
	?compare@HbString@@QBEHABVQLatin1String@@@Z @ 2648 NONAME ; int HbString::compare(class QLatin1String const &) const
	?d_func@HbDeviceDialogServer@@ABEPBVHbDeviceDialogServerPrivate@@XZ @ 2649 NONAME ; class HbDeviceDialogServerPrivate const * HbDeviceDialogServer::d_func(void) const
	??0HbTestabilitySignal_p@@QAE@PAVQObject@@@Z @ 2650 NONAME ; HbTestabilitySignal_p::HbTestabilitySignal_p(class QObject *)
	??4HbDeviceProfile@@QAEAAV0@ABV0@@Z @ 2651 NONAME ; class HbDeviceProfile & HbDeviceProfile::operator=(class HbDeviceProfile const &)
	?customButtonBank@HbEditorInterface@@QBEHXZ @ 2652 NONAME ABSENT ; int HbEditorInterface::customButtonBank(void) const
	?setFocusWidget@HbInputContextProxy@@UAEXPAVQWidget@@@Z @ 2653 NONAME ; void HbInputContextProxy::setFocusWidget(class QWidget *)
	?getStaticMetaObject@HbLayoutDirectionNotifier@@SAABUQMetaObject@@XZ @ 2654 NONAME ; struct QMetaObject const & HbLayoutDirectionNotifier::getStaticMetaObject(void)
	?addExtension@HbToolBar@@QAEPAVHbAction@@PAVHbToolBarExtension@@@Z @ 2655 NONAME ; class HbAction * HbToolBar::addExtension(class HbToolBarExtension *)
	?isItemVisible@HbMainWindow@@QBE_NW4SceneItem@Hb@@@Z @ 2656 NONAME ABSENT ; bool HbMainWindow::isItemVisible(enum Hb::SceneItem) const
	?testMedium@Parser@HbCss@@QAE_NXZ @ 2657 NONAME ; bool HbCss::Parser::testMedium(void)
	??1HbAbstractViewItemPrivate@@UAE@XZ @ 2658 NONAME ABSENT ; HbAbstractViewItemPrivate::~HbAbstractViewItemPrivate(void)
	??0HbInputStateMachineTaiwanChinese@@AAE@XZ @ 2659 NONAME ABSENT ; HbInputStateMachineTaiwanChinese::HbInputStateMachineTaiwanChinese(void)
	?actions@HbEditorInterface@@QBE?AV?$QList@PAVHbAction@@@@XZ @ 2660 NONAME ; class QList<class HbAction *> HbEditorInterface::actions(void) const
	?itemAdded@HbListItemContainer@@MAEXHPAVHbAbstractViewItem@@@Z @ 2661 NONAME ABSENT ; void HbListItemContainer::itemAdded(int, class HbAbstractViewItem *)
	?tr@HbIndicator@@SA?AVQString@@PBD0H@Z @ 2662 NONAME ; class QString HbIndicator::tr(char const *, char const *, int)
	??1HbMemoryManager@@UAE@XZ @ 2663 NONAME ; HbMemoryManager::~HbMemoryManager(void)
	?longPressed@HbAbstractItemView@@IAEXPAVHbAbstractViewItem@@ABVQPointF@@@Z @ 2664 NONAME ABSENT ; void HbAbstractItemView::longPressed(class HbAbstractViewItem *, class QPointF const &)
	?metaObject@HbNgNormalNumber@@UBEPBUQMetaObject@@XZ @ 2665 NONAME ABSENT ; struct QMetaObject const * HbNgNormalNumber::metaObject(void) const
	??0HbListWidgetViewItemPrivate@@QAE@ABV0@@Z @ 2666 NONAME ABSENT ; HbListWidgetViewItemPrivate::HbListWidgetViewItemPrivate(class HbListWidgetViewItemPrivate const &)
	?primitive@HbTreeViewItem@@UBEPAVQGraphicsItem@@W4Primitive@HbStyle@@@Z @ 2667 NONAME ABSENT ; class QGraphicsItem * HbTreeViewItem::primitive(enum HbStyle::Primitive) const
	?button@HbInputCustomButtonStore@@QAEPAVHbInputCustomButton@@HH@Z @ 2668 NONAME ABSENT ; class HbInputCustomButton * HbInputCustomButtonStore::button(int, int)
	?safeToCast@HbAbstractItem@@SA_NPBVQGraphicsItem@@@Z @ 2669 NONAME ABSENT ; bool HbAbstractItem::safeToCast(class QGraphicsItem const *)
	?editorInterface@HbFocusObjectWidget@@UBEAAVHbEditorInterface@@XZ @ 2670 NONAME ABSENT ; class HbEditorInterface & HbFocusObjectWidget::editorInterface(void) const
	?focusInEvent@HbAbstractItemView@@MAEXPAVQFocusEvent@@@Z @ 2671 NONAME ABSENT ; void HbAbstractItemView::focusInEvent(class QFocusEvent *)
	?bottomBoundary@HbScrollAreaPrivate@@QAEMXZ @ 2672 NONAME ABSENT ; float HbScrollAreaPrivate::bottomBoundary(void)
	?segmentIndex@HbMultiSegmentAlgo@@ABEHH@Z @ 2673 NONAME ABSENT ; int HbMultiSegmentAlgo::segmentIndex(int) const
	?revealItem@HbAbstractItemViewPrivate@@QAEXPBVHbAbstractViewItem@@@Z @ 2674 NONAME ABSENT ; void HbAbstractItemViewPrivate::revealItem(class HbAbstractViewItem const *)
	?parsePseudoPage@Parser@HbCss@@QAE_NPAVHbString@@@Z @ 2675 NONAME ; bool HbCss::Parser::parsePseudoPage(class HbString *)
	?qt_metacall@HbGestureFilter@@UAEHW4Call@QMetaObject@@HPAPAX@Z @ 2676 NONAME ABSENT ; int HbGestureFilter::qt_metacall(enum QMetaObject::Call, int, void * *)
	?negativeCurrencySpace@HbExtendedLocale@@QBE_NXZ @ 2677 NONAME ; bool HbExtendedLocale::negativeCurrencySpace(void) const
	?highlightMode@HbAbstractItemView@@QBE?AW4HighlightMode@HbItemHighlight@@XZ @ 2678 NONAME ABSENT ; enum HbItemHighlight::HighlightMode HbAbstractItemView::highlightMode(void) const
	?qt_metacast@HbSignalIndicator@@UAEPAXPBD@Z @ 2679 NONAME ; void * HbSignalIndicator::qt_metacast(char const *)
	?getStaticMetaObject@HbFocusObjectGraphicsWidget@@SAABUQMetaObject@@XZ @ 2680 NONAME ABSENT ; struct QMetaObject const & HbFocusObjectGraphicsWidget::getStaticMetaObject(void)
	?instance@HbPredictionFactory@@SAPAV1@XZ @ 2681 NONAME ; class HbPredictionFactory * HbPredictionFactory::instance(void)
	?resetContiguousSettings@HbAbstractItemViewPrivate@@QAEXXZ @ 2682 NONAME ABSENT ; void HbAbstractItemViewPrivate::resetContiguousSettings(void)
	??1HbScrollArea@@UAE@XZ @ 2683 NONAME ; HbScrollArea::~HbScrollArea(void)
	?hideEvent@HbPopupBase@@MAEXPAVQHideEvent@@@Z @ 2684 NONAME ABSENT ; void HbPopupBase::hideEvent(class QHideEvent *)
	?updateItems@HbAbstractItemViewPrivate@@QAEXXZ @ 2685 NONAME ABSENT ; void HbAbstractItemViewPrivate::updateItems(void)
	?physicalFont@HbFontProvider@@QBE?AVQFont@@W4Role@HbFontSpec@@@Z @ 2686 NONAME ABSENT ; class QFont HbFontProvider::physicalFont(enum HbFontSpec::Role) const
	?staticMetaObject@HbToolBarExtension@@2UQMetaObject@@B @ 2687 NONAME ; struct QMetaObject const HbToolBarExtension::staticMetaObject
	?tr@HbListWidgetViewItem@@SA?AVQString@@PBD0H@Z @ 2688 NONAME ABSENT ; class QString HbListWidgetViewItem::tr(char const *, char const *, int)
	?d_func@HbToolBar@@ABEPBVHbToolBarPrivate@@XZ @ 2689 NONAME ; class HbToolBarPrivate const * HbToolBar::d_func(void) const
	??BHbFontSpec@@QBE?AVQVariant@@XZ @ 2690 NONAME ; HbFontSpec::operator class QVariant(void) const
	?setBackgroundType@HbWidgetPrivate@@QAEXW4Primitive@HbStyle@@@Z @ 2691 NONAME ABSENT ; void HbWidgetPrivate::setBackgroundType(enum HbStyle::Primitive)
	?getStaticMetaObject@HbInputStateMachineFactory@@SAABUQMetaObject@@XZ @ 2692 NONAME ABSENT ; struct QMetaObject const & HbInputStateMachineFactory::getStaticMetaObject(void)
	??1HbSoftKey@@UAE@XZ @ 2693 NONAME ABSENT ; HbSoftKey::~HbSoftKey(void)
	?doLayout@HbPopupPrivate@@QAEXXZ @ 2694 NONAME ABSENT ; void HbPopupPrivate::doLayout(void)
	?errorCorrectionLevel@HbPredictionEngine@@UBE?AW4HbErrorCorrectionLevel@1@XZ @ 2695 NONAME ; enum HbPredictionEngine::HbErrorCorrectionLevel HbPredictionEngine::errorCorrectionLevel(void) const
	?setCharacterPreviewForQwerty@HbInputSettingProxy@@QAEX_N@Z @ 2696 NONAME ; void HbInputSettingProxy::setCharacterPreviewForQwerty(bool)
	?getStaticMetaObject@HbListView@@SAABUQMetaObject@@XZ @ 2697 NONAME ABSENT ; struct QMetaObject const & HbListView::getStaticMetaObject(void)
	?scrolling@HbListView@@IAEXVQPointF@@@Z @ 2698 NONAME ABSENT ; void HbListView::scrolling(class QPointF)
	?drawItems@HbGraphicsScene@@MAEXPAVQPainter@@HQAPAVQGraphicsItem@@QBVQStyleOptionGraphicsItem@@PAVQWidget@@@Z @ 2699 NONAME ; void HbGraphicsScene::drawItems(class QPainter *, int, class QGraphicsItem * * const, class QStyleOptionGraphicsItem const * const, class QWidget *)
	?refreshContainerGeometry@HbAbstractItemViewPrivate@@QAEXXZ @ 2700 NONAME ABSENT ; void HbAbstractItemViewPrivate::refreshContainerGeometry(void)
	??0HbInputLowerCaseFilter@@AAE@XZ @ 2701 NONAME ; HbInputLowerCaseFilter::HbInputLowerCaseFilter(void)
	?metaObject@HbTheme@@UBEPBUQMetaObject@@XZ @ 2702 NONAME ; struct QMetaObject const * HbTheme::metaObject(void) const
	?vowelSequenceTable@HbKeyMapData@@UBEPBUHbVowelSequence@@V?$QFlags@W4HbKeyboardTypeFlag@@@@AAH@Z @ 2703 NONAME ABSENT ; struct HbVowelSequence const * HbKeyMapData::vowelSequenceTable(class QFlags<enum HbKeyboardTypeFlag>, int &) const
	??1HbStyleOptionPushButton@@QAE@XZ @ 2704 NONAME ; HbStyleOptionPushButton::~HbStyleOptionPushButton(void)
	?listParams@HbListWidgetViewItem@@QBEPAVHbListParams@@XZ @ 2705 NONAME ABSENT ; class HbListParams * HbListWidgetViewItem::listParams(void) const
	?metaObject@HbDeviceDialog@@UBEPBUQMetaObject@@XZ @ 2706 NONAME ; struct QMetaObject const * HbDeviceDialog::metaObject(void) const
	?d_func@HbInputCustomButtonComposition@@AAEPAVHbInputCustomButtonCompositionPrivate@@XZ @ 2707 NONAME ABSENT ; class HbInputCustomButtonCompositionPrivate * HbInputCustomButtonComposition::d_func(void)
	?d_func@HbMenu@@ABEPBVHbMenuPrivate@@XZ @ 2708 NONAME ; class HbMenuPrivate const * HbMenu::d_func(void) const
	?setAspectRatioMode@HbBatteryIndicator@@QAEXW4AspectRatioMode@Qt@@@Z @ 2709 NONAME ABSENT ; void HbBatteryIndicator::setAspectRatioMode(enum Qt::AspectRatioMode)
	?d_ptr@HbViewPrivate@@CAPAV1@PAVHbView@@@Z @ 2710 NONAME ; class HbViewPrivate * HbViewPrivate::d_ptr(class HbView *)
	?displaySpecialCharacterTable@HbInputMethod@@MAEHPAVQObject@@@Z @ 2711 NONAME ABSENT ; int HbInputMethod::displaySpecialCharacterTable(class QObject *)
	?recordError@Parser@HbCss@@QAE_NXZ @ 2712 NONAME ; bool HbCss::Parser::recordError(void)
	?garbageCollect@HbInputModeCache@@QAEXXZ @ 2713 NONAME ABSENT ; void HbInputModeCache::garbageCollect(void)
	?currentWord@HbPredictionEngine@@UBE?AVQString@@XZ @ 2714 NONAME ; class QString HbPredictionEngine::currentWord(void) const
	?rowsInserted@HbGridView@@MAEXABVQModelIndex@@HH@Z @ 2715 NONAME ABSENT ; void HbGridView::rowsInserted(class QModelIndex const &, int, int)
	?setLogicalFont@HbTextItem@@QAEXW4LogicalFontName@Hb@@@Z @ 2716 NONAME ABSENT ; void HbTextItem::setLogicalFont(enum Hb::LogicalFontName)
	?parseImport@Parser@HbCss@@QAE_NPAUImportRule@2@@Z @ 2717 NONAME ; bool HbCss::Parser::parseImport(struct HbCss::ImportRule *)
	??0HbWidgetPrivate@@QAE@XZ @ 2718 NONAME ; HbWidgetPrivate::HbWidgetPrivate(void)
	?focusInEvent@HbPopup@@MAEXPAVQFocusEvent@@@Z @ 2719 NONAME ABSENT ; void HbPopup::focusInEvent(class QFocusEvent *)
	??_EHbInputCustomButtonStore@@UAE@I@Z @ 2720 NONAME ABSENT ; HbInputCustomButtonStore::~HbInputCustomButtonStore(unsigned int)
	??1HbAbstractButton@@UAE@XZ @ 2721 NONAME ; HbAbstractButton::~HbAbstractButton(void)
	?getStaticMetaObject@HbFontSpec@@SAABUQMetaObject@@XZ @ 2722 NONAME ; struct QMetaObject const & HbFontSpec::getStaticMetaObject(void)
	?focusOutEvent@HbGraphicsScene@@MAEXPAVQFocusEvent@@@Z @ 2723 NONAME ; void HbGraphicsScene::focusOutEvent(class QFocusEvent *)
	?selectAll@HbAbstractItemView@@UAEXXZ @ 2724 NONAME ABSENT ; void HbAbstractItemView::selectAll(void)
	??_EHbInputStateMachineTaiwanChinese@@UAE@I@Z @ 2725 NONAME ABSENT ; HbInputStateMachineTaiwanChinese::~HbInputStateMachineTaiwanChinese(unsigned int)
	?qt_metacall@HbView@@UAEHW4Call@QMetaObject@@HPAPAX@Z @ 2726 NONAME ; int HbView::qt_metacall(enum QMetaObject::Call, int, void * *)
	?getStaticMetaObject@HbToolButton@@SAABUQMetaObject@@XZ @ 2727 NONAME ; struct QMetaObject const & HbToolButton::getStaticMetaObject(void)
	?closeEvent@HbPopupBase@@MAEXPAVQCloseEvent@@@Z @ 2728 NONAME ABSENT ; void HbPopupBase::closeEvent(class QCloseEvent *)
	?initialize@HbSharedMemoryManager@@AAE_NXZ @ 2729 NONAME ABSENT ; bool HbSharedMemoryManager::initialize(void)
	?qt_metacall@HbGraphicsPixmapItem@@UAEHW4Call@QMetaObject@@HPAPAX@Z @ 2730 NONAME ABSENT ; int HbGraphicsPixmapItem::qt_metacall(enum QMetaObject::Call, int, void * *)
	?testTokenAndEndsWith@Parser@HbCss@@QAE_NW4TokenType@2@ABVQLatin1String@@@Z @ 2731 NONAME ; bool HbCss::Parser::testTokenAndEndsWith(enum HbCss::TokenType, class QLatin1String const &)
	?setColumnCount@HbGridView@@QAEXH@Z @ 2732 NONAME ABSENT ; void HbGridView::setColumnCount(int)
	??_EHbTreeLayout@@UAE@I@Z @ 2733 NONAME ABSENT ; HbTreeLayout::~HbTreeLayout(unsigned int)
	?memManager@HbSharedMemoryManager@@0PAV1@A @ 2734 NONAME ABSENT ; class HbSharedMemoryManager * HbSharedMemoryManager::memManager
	?trUtf8@HbTestabilitySignal_p@@SA?AVQString@@PBD0@Z @ 2735 NONAME ; class QString HbTestabilitySignal_p::trUtf8(char const *, char const *)
	?getStaticMetaObject@HbFontProvider@@SAABUQMetaObject@@XZ @ 2736 NONAME ABSENT ; struct QMetaObject const & HbFontProvider::getStaticMetaObject(void)
	?isKnownState@HbInputStateMachineHKChineseFinger@@UBE_NABVHbInputState@@@Z @ 2737 NONAME ABSENT ; bool HbInputStateMachineHKChineseFinger::isKnownState(class HbInputState const &) const
	?localisedName@HbInputLanguage@@QAE?AVQString@@XZ @ 2738 NONAME ; class QString HbInputLanguage::localisedName(void)
	?panned@HbGesture@@IAEXVQPointF@@@Z @ 2739 NONAME ABSENT ; void HbGesture::panned(class QPointF)
	?staticMetaObject@HbInteractionPlugin@@2UQMetaObject@@B @ 2740 NONAME ABSENT ; struct QMetaObject const HbInteractionPlugin::staticMetaObject
	?init@HbListWidgetViewItemPrivate@@QAEXXZ @ 2741 NONAME ABSENT ; void HbListWidgetViewItemPrivate::init(void)
	?tr@HbFocusObjectGraphicsWidget@@SA?AVQString@@PBD0H@Z @ 2742 NONAME ABSENT ; class QString HbFocusObjectGraphicsWidget::tr(char const *, char const *, int)
	?remove@HbEffectInternal@@SAXABVQString@@00@Z @ 2743 NONAME ; void HbEffectInternal::remove(class QString const &, class QString const &, class QString const &)
	?isEnabled@HbListWidgetItem@@QBE_NXZ @ 2744 NONAME ABSENT ; bool HbListWidgetItem::isEnabled(void) const
	?trUtf8@HbAbstractItemContainer@@SA?AVQString@@PBD0H@Z @ 2745 NONAME ABSENT ; class QString HbAbstractItemContainer::trUtf8(char const *, char const *, int)
	?clearEngineData@HbPredictionFactory@@QAEXXZ @ 2746 NONAME ; void HbPredictionFactory::clearEngineData(void)
	??0HbInputStateMachineTaiwanChineseFinger@@AAE@XZ @ 2747 NONAME ABSENT ; HbInputStateMachineTaiwanChineseFinger::HbInputStateMachineTaiwanChineseFinger(void)
	?staticMetaObject@HbBatteryIndicator@@2UQMetaObject@@B @ 2748 NONAME ; struct QMetaObject const HbBatteryIndicator::staticMetaObject
	??1HbXmlLoaderAbstractSyntax@@UAE@XZ @ 2749 NONAME ; HbXmlLoaderAbstractSyntax::~HbXmlLoaderAbstractSyntax(void)
	?base@HbSharedMemoryManager@@UAEPAXXZ @ 2750 NONAME ; void * HbSharedMemoryManager::base(void)
	?type@HbSliderTickmarksItemLabel@@UBEHXZ @ 2751 NONAME ABSENT ; int HbSliderTickmarksItemLabel::type(void) const
	??0HbAbstractItemPrivate@@QAE@XZ @ 2752 NONAME ABSENT ; HbAbstractItemPrivate::HbAbstractItemPrivate(void)
	?mouseReleaseEvent@HbAbstractButton@@MAEXPAVQGraphicsSceneMouseEvent@@@Z @ 2753 NONAME ABSENT ; void HbAbstractButton::mouseReleaseEvent(class QGraphicsSceneMouseEvent *)
	?textFlags@HbLabel@@QBEHXZ @ 2754 NONAME ABSENT ; int HbLabel::textFlags(void) const
	?qt_metacall@HbLanguageDatabaseInterface@@UAEHW4Call@QMetaObject@@HPAPAX@Z @ 2755 NONAME ; int HbLanguageDatabaseInterface::qt_metacall(enum QMetaObject::Call, int, void * *)
	?defaultState@HbIconItem@@2W4State@QIcon@@B @ 2756 NONAME ; enum QIcon::State const HbIconItem::defaultState
	?qt_metacall@HbInteractionManager@@UAEHW4Call@QMetaObject@@HPAPAX@Z @ 2757 NONAME ABSENT ; int HbInteractionManager::qt_metacall(enum QMetaObject::Call, int, void * *)
	?type@HbListWidgetItem@@QBEHXZ @ 2758 NONAME ABSENT ; int HbListWidgetItem::type(void) const
	?firstState@HbInputStateMachineHKChinese@@UBEXAAVHbInputState@@@Z @ 2759 NONAME ABSENT ; void HbInputStateMachineHKChinese::firstState(class HbInputState &) const
	?changeEvent@HbLabel@@MAEXPAVQEvent@@@Z @ 2760 NONAME ABSENT ; void HbLabel::changeEvent(class QEvent *)
	?tr@HbEditorInterface@@SA?AVQString@@PBD0@Z @ 2761 NONAME ; class QString HbEditorInterface::tr(char const *, char const *)
	?setLayoutDirection@HbRichTextItem@@QAEXW4LayoutDirection@Qt@@@Z @ 2762 NONAME ABSENT ; void HbRichTextItem::setLayoutDirection(enum Qt::LayoutDirection)
	?updatePrimitives@HbToolButton@@UAEXXZ @ 2763 NONAME ; void HbToolButton::updatePrimitives(void)
	??_EHbLanguageDatabase@@UAE@I@Z @ 2764 NONAME ; HbLanguageDatabase::~HbLanguageDatabase(unsigned int)
	?initStyleOption@HbAbstractViewItem@@IBEXPAVHbStyleOptionAbstractViewItem@@@Z @ 2765 NONAME ABSENT ; void HbAbstractViewItem::initStyleOption(class HbStyleOptionAbstractViewItem *) const
	?keyPressEvent@HbAbstractButton@@MAEXPAVQKeyEvent@@@Z @ 2766 NONAME ; void HbAbstractButton::keyPressEvent(class QKeyEvent *)
	?mirroringMode@HbFrameDrawer@@QBE?AW4MirroringMode@HbIcon@@XZ @ 2767 NONAME ; enum HbIcon::MirroringMode HbFrameDrawer::mirroringMode(void) const
	?receivedData@HbDeviceDialog@@QBE?AV?$QMap@VQString@@VQVariant@@@@XZ @ 2768 NONAME ; class QMap<class QString, class QVariant> HbDeviceDialog::receivedData(void) const
	?initialize@FreeBlocksList@@QAEXPAVQSharedMemory@@HHH@Z @ 2769 NONAME ABSENT ; void FreeBlocksList::initialize(class QSharedMemory *, int, int, int)
	??1HbGesture@@UAE@XZ @ 2770 NONAME ABSENT ; HbGesture::~HbGesture(void)
	?tr@HbPopupBase@@SA?AVQString@@PBD0H@Z @ 2771 NONAME ABSENT ; class QString HbPopupBase::tr(char const *, char const *, int)
	?releaseInstance@HbSharedMemoryManager@@SAXXZ @ 2772 NONAME ABSENT ; void HbSharedMemoryManager::releaseInstance(void)
	?updateChildItems@HbListViewItem@@UAEXXZ @ 2773 NONAME ABSENT ; void HbListViewItem::updateChildItems(void)
	?trUtf8@HbInputContextProxy@@SA?AVQString@@PBD0@Z @ 2774 NONAME ; class QString HbInputContextProxy::trUtf8(char const *, char const *)
	?trUtf8@HbFocusObjectWidget@@SA?AVQString@@PBD0H@Z @ 2775 NONAME ABSENT ; class QString HbFocusObjectWidget::trUtf8(char const *, char const *, int)
	??0StyleRule@HbCss@@QAE@ABU01@@Z @ 2776 NONAME ; HbCss::StyleRule::StyleRule(struct HbCss::StyleRule const &)
	?type@HbDecorator@@UBEHXZ @ 2777 NONAME ABSENT ; int HbDecorator::type(void) const
	?logicalFont@HbTextItem@@QBE?AW4LogicalFontName@Hb@@XZ @ 2778 NONAME ABSENT ; enum Hb::LogicalFontName HbTextItem::logicalFont(void) const
	?qt_metacast@HbInputModeCache@@UAEPAXPBD@Z @ 2779 NONAME ; void * HbInputModeCache::qt_metacast(char const *)
	?tr@HbInputMethod@@SA?AVQString@@PBD0@Z @ 2780 NONAME ; class QString HbInputMethod::tr(char const *, char const *)
	?isKnownState@HbInputStateMachineLatinWithEditKey@@UBE_NABVHbInputState@@@Z @ 2781 NONAME ABSENT ; bool HbInputStateMachineLatinWithEditKey::isKnownState(class HbInputState const &) const
	?addItem@HbStackedLayout@@QAEHPAVQGraphicsLayoutItem@@@Z @ 2782 NONAME ; int HbStackedLayout::addItem(class QGraphicsLayoutItem *)
	?addGesture@HbGestureSceneFilter@@QAEXPAVHbGesture@@@Z @ 2783 NONAME ABSENT ; void HbGestureSceneFilter::addGesture(class HbGesture *)
	??_EHbToolButton@@UAE@I@Z @ 2784 NONAME ; HbToolButton::~HbToolButton(unsigned int)
	?rowsRemoved@HbAbstractItemView@@MAEXABVQModelIndex@@HH@Z @ 2785 NONAME ABSENT ; void HbAbstractItemView::rowsRemoved(class QModelIndex const &, int, int)
	?extractWidgetParams@ValueExtractor@HbCss@@QAE_NPAVHbWidgetParams@@@Z @ 2786 NONAME ABSENT ; bool HbCss::ValueExtractor::extractWidgetParams(class HbWidgetParams *)
	?setWidget@HbPopupPrivate@@QAEXHAAPAVQGraphicsWidget@@PAV2@@Z @ 2787 NONAME ABSENT ; void HbPopupPrivate::setWidget(int, class QGraphicsWidget * &, class QGraphicsWidget *)
	??_EHbGridViewItem@@UAE@I@Z @ 2788 NONAME ABSENT ; HbGridViewItem::~HbGridViewItem(unsigned int)
	?isContentFullScreen@HbView@@QBE_NXZ @ 2789 NONAME ; bool HbView::isContentFullScreen(void) const
	?layoutDirectionChangeStarted@HbLayoutDirectionNotifier@@IAEXXZ @ 2790 NONAME ; void HbLayoutDirectionNotifier::layoutDirectionChangeStarted(void)
	?metaObject@HbLabel@@UBEPBUQMetaObject@@XZ @ 2791 NONAME ABSENT ; struct QMetaObject const * HbLabel::metaObject(void) const
	??0HbAnchorLayout@@QAE@PAVQGraphicsLayoutItem@@@Z @ 2792 NONAME ; HbAnchorLayout::HbAnchorLayout(class QGraphicsLayoutItem *)
	?recycleItems@HbListItemContainer@@MAE?AVQPointF@@ABV2@@Z @ 2793 NONAME ABSENT ; class QPointF HbListItemContainer::recycleItems(class QPointF const &)
	?frameGraphicsName@HbFrameBackground@@QBE?AVQString@@XZ @ 2794 NONAME ; class QString HbFrameBackground::frameGraphicsName(void) const
	?add@HbInteractionManager@@QAEXPAVHbInteractionListener@@@Z @ 2795 NONAME ABSENT ; void HbInteractionManager::add(class HbInteractionListener *)
	?listSupportedInputLanguages@HbInputUtils@@SAXAAV?$QList@VHbInputLanguage@@@@@Z @ 2796 NONAME ; void HbInputUtils::listSupportedInputLanguages(class QList<class HbInputLanguage> &)
	?staticMetaObject@HbIndicatorInterface@@2UQMetaObject@@B @ 2797 NONAME ; struct QMetaObject const HbIndicatorInterface::staticMetaObject
	?scrollContentsTo@HbScrollArea@@QAEXABVQPointF@@H@Z @ 2798 NONAME ; void HbScrollArea::scrollContentsTo(class QPointF const &, int)
	?qt_metacast@HbInputContextProxy@@UAEPAXPBD@Z @ 2799 NONAME ; void * HbInputContextProxy::qt_metacast(char const *)
	?qt_metacall@HbWidget@@UAEHW4Call@QMetaObject@@HPAPAX@Z @ 2800 NONAME ; int HbWidget::qt_metacall(enum QMetaObject::Call, int, void * *)
	?scrollingEnded@HbScrollArea@@IAEXXZ @ 2801 NONAME ; void HbScrollArea::scrollingEnded(void)
	?trUtf8@HbInputStateMachineFactory@@SA?AVQString@@PBD0@Z @ 2802 NONAME ABSENT ; class QString HbInputStateMachineFactory::trUtf8(char const *, char const *)
	??_EHbInputStateMachineFactory@@UAE@I@Z @ 2803 NONAME ABSENT ; HbInputStateMachineFactory::~HbInputStateMachineFactory(unsigned int)
	??0HbStyleOptionColorGridViewItem@@QAE@XZ @ 2804 NONAME ABSENT ; HbStyleOptionColorGridViewItem::HbStyleOptionColorGridViewItem(void)
	?start@HbEffect@@SA_NPAVQGraphicsItem@@ABVQString@@PAVQObject@@PBDABVQVariant@@ABVQRectF@@@Z @ 2805 NONAME ; bool HbEffect::start(class QGraphicsItem *, class QString const &, class QObject *, char const *, class QVariant const &, class QRectF const &)
	?prepareScrollBars@HbScrollAreaPrivate@@QAEXXZ @ 2806 NONAME ; void HbScrollAreaPrivate::prepareScrollBars(void)
	?alloc@HbHeapMemoryManager@@UAEHH@Z @ 2807 NONAME ; int HbHeapMemoryManager::alloc(int)
	?qt_metacast@HbMenu@@UAEPAXPBD@Z @ 2808 NONAME ; void * HbMenu::qt_metacast(char const *)
	?isViewSwitchingEnabled@HbMainWindow@@QBE_NXZ @ 2809 NONAME ABSENT ; bool HbMainWindow::isViewSwitchingEnabled(void) const
	??_EHbPhoneNumberFilter@@UAE@I@Z @ 2810 NONAME ; HbPhoneNumberFilter::~HbPhoneNumberFilter(unsigned int)
	?metaObject@HbBatteryIndicator@@UBEPBUQMetaObject@@XZ @ 2811 NONAME ; struct QMetaObject const * HbBatteryIndicator::metaObject(void) const
	?trUtf8@HbMainWindow@@SA?AVQString@@PBD0H@Z @ 2812 NONAME ; class QString HbMainWindow::trUtf8(char const *, char const *, int)
	??0HbInputCustomButton@@QAE@H@Z @ 2813 NONAME ABSENT ; HbInputCustomButton::HbInputCustomButton(int)
	?icon@HbLabel@@QBE?AVHbIcon@@XZ @ 2814 NONAME ABSENT ; class HbIcon HbLabel::icon(void) const
	?trUtf8@HbPopup@@SA?AVQString@@PBD0H@Z @ 2815 NONAME ; class QString HbPopup::trUtf8(char const *, char const *, int)
	?sendEvent@HbFocusObjectGraphicsWidget@@UAEXAAVQEvent@@@Z @ 2816 NONAME ABSENT ; void HbFocusObjectGraphicsWidget::sendEvent(class QEvent &)
	??0HbStyleOptionSelectionControl@@QAE@ABV0@@Z @ 2817 NONAME ABSENT ; HbStyleOptionSelectionControl::HbStyleOptionSelectionControl(class HbStyleOptionSelectionControl const &)
	?findFirstNumberCharacterBoundToKey@HbInputUtils@@SA?AVQChar@@V?$QFlags@W4HbKeyboardTypeFlag@@@@HPAVHbKeyMapData@@W4HbInputDigitType@@@Z @ 2818 NONAME ABSENT ; class QChar HbInputUtils::findFirstNumberCharacterBoundToKey(class QFlags<enum HbKeyboardTypeFlag>, int, class HbKeyMapData *, enum HbInputDigitType)
	??1HbTouchArea@@UAE@XZ @ 2819 NONAME ; HbTouchArea::~HbTouchArea(void)
	?hasNext@Parser@HbCss@@QBE_NXZ @ 2820 NONAME ; bool HbCss::Parser::hasNext(void) const
	?viewItem@HbAbstractItemViewPrivate@@QBEPAVHbAbstractViewItem@@PAVQGraphicsItem@@@Z @ 2821 NONAME ABSENT ; class HbAbstractViewItem * HbAbstractItemViewPrivate::viewItem(class QGraphicsItem *) const
	??0PageRule@HbCss@@QAE@W4MemoryType@HbMemoryManager@@@Z @ 2822 NONAME ; HbCss::PageRule::PageRule(enum HbMemoryManager::MemoryType)
	?staticMetaObject@HbMainWindow@@2UQMetaObject@@B @ 2823 NONAME ; struct QMetaObject const HbMainWindow::staticMetaObject
	?removeAction@HbEditorInterface@@QAEXPAVHbAction@@@Z @ 2824 NONAME ; void HbEditorInterface::removeAction(class HbAction *)
	??0HbStyleOptionSettingForm@@QAE@XZ @ 2825 NONAME ABSENT ; HbStyleOptionSettingForm::HbStyleOptionSettingForm(void)
	??0HbStyleOptionDecorator@@QAE@XZ @ 2826 NONAME ABSENT ; HbStyleOptionDecorator::HbStyleOptionDecorator(void)
	?setOrientation@HbToolBar@@QAEXW4Orientation@Qt@@@Z @ 2827 NONAME ; void HbToolBar::setOrientation(enum Qt::Orientation)
	??1HbStyleOptionSlider@@QAE@XZ @ 2828 NONAME ; HbStyleOptionSlider::~HbStyleOptionSlider(void)
	??1HbExtraDictionaryFactory@@EAE@XZ @ 2829 NONAME ; HbExtraDictionaryFactory::~HbExtraDictionaryFactory(void)
	??0HbIconItem@@IAE@AAVHbIconItemPrivate@@PAVQGraphicsItem@@@Z @ 2830 NONAME ; HbIconItem::HbIconItem(class HbIconItemPrivate &, class QGraphicsItem *)
	?reserved_2@HbKeyMapData@@UAEXXZ @ 2831 NONAME ABSENT ; void HbKeyMapData::reserved_2(void)
	?staticMetaObject@HbPopupBase@@2UQMetaObject@@B @ 2832 NONAME ABSENT ; struct QMetaObject const HbPopupBase::staticMetaObject
	?forceHide@HbPopupBasePrivate@@QAEXXZ @ 2833 NONAME ABSENT ; void HbPopupBasePrivate::forceHide(void)
	?symbianDateTimeToQt@HbExtendedLocale@@QAE?AVQString@@ABV2@@Z @ 2834 NONAME ; class QString HbExtendedLocale::symbianDateTimeToQt(class QString const &)
	?bufferSize@HbAbstractItemView@@QBEHXZ @ 2835 NONAME ABSENT ; int HbAbstractItemView::bufferSize(void) const
	??_EHbToolBar@@UAE@I@Z @ 2836 NONAME ; HbToolBar::~HbToolBar(unsigned int)
	??_EHbViewPrivate@@UAE@I@Z @ 2837 NONAME ; HbViewPrivate::~HbViewPrivate(unsigned int)
	??1HbStackedWidget@@UAE@XZ @ 2838 NONAME ; HbStackedWidget::~HbStackedWidget(void)
	??0HbScrollBar@@QAE@W4Orientation@Qt@@PAVQGraphicsItem@@@Z @ 2839 NONAME ; HbScrollBar::HbScrollBar(enum Qt::Orientation, class QGraphicsItem *)
	?defaultAlignment@HbIconItem@@2V?$QFlags@W4AlignmentFlag@Qt@@@@B @ 2840 NONAME ; class QFlags<enum Qt::AlignmentFlag> const HbIconItem::defaultAlignment
	?brushValue@Declaration@HbCss@@QBE?AVQBrush@@ABVQPalette@@@Z @ 2841 NONAME ABSENT ; class QBrush HbCss::Declaration::brushValue(class QPalette const &) const
	?trUtf8@HbListView@@SA?AVQString@@PBD0H@Z @ 2842 NONAME ABSENT ; class QString HbListView::trUtf8(char const *, char const *, int)
	?d_func@HbAnchorLayout@@ABEPBVHbAnchorLayoutPrivate@@XZ @ 2843 NONAME ; class HbAnchorLayoutPrivate const * HbAnchorLayout::d_func(void) const
	?d_func@HbMainWindow@@ABEPBVHbMainWindowPrivate@@XZ @ 2844 NONAME ; class HbMainWindowPrivate const * HbMainWindow::d_func(void) const
	?removeChildren@HbXmlLoaderAbstractActions@@QAEXV?$QPointer@VQObject@@@@@Z @ 2845 NONAME ABSENT ; void HbXmlLoaderAbstractActions::removeChildren(class QPointer<class QObject>)
	?tr@HbGraphicsPixmapItem@@SA?AVQString@@PBD0@Z @ 2846 NONAME ABSENT ; class QString HbGraphicsPixmapItem::tr(char const *, char const *)
	?tr@HbToolButton@@SA?AVQString@@PBD0H@Z @ 2847 NONAME ; class QString HbToolButton::tr(char const *, char const *, int)
	??0HbStyleOptionToolButton@@QAE@XZ @ 2848 NONAME ; HbStyleOptionToolButton::HbStyleOptionToolButton(void)
	?d_func@HbExtraDictionaryFactory@@AAEPAVHbExtraDictionaryFactoryPrivate@@XZ @ 2849 NONAME ; class HbExtraDictionaryFactoryPrivate * HbExtraDictionaryFactory::d_func(void)
	?d_func@HbIconItem@@AAEPAVHbIconItemPrivate@@XZ @ 2850 NONAME ; class HbIconItemPrivate * HbIconItem::d_func(void)
	?clicked@HbInteractionListener@@MAEXPBVQObject@@@Z @ 2851 NONAME ABSENT ; void HbInteractionListener::clicked(class QObject const *)
	??0HbStyleOptionDataForm@@QAE@ABV0@@Z @ 2852 NONAME ; HbStyleOptionDataForm::HbStyleOptionDataForm(class HbStyleOptionDataForm const &)
	??_EHbInteractionPluginGroup@@UAE@I@Z @ 2853 NONAME ABSENT ; HbInteractionPluginGroup::~HbInteractionPluginGroup(unsigned int)
	??_EHbAbstractItemContainer@@UAE@I@Z @ 2854 NONAME ABSENT ; HbAbstractItemContainer::~HbAbstractItemContainer(unsigned int)
	??0HbStyleOptionTreeViewItem@@QAE@ABV0@@Z @ 2855 NONAME ABSENT ; HbStyleOptionTreeViewItem::HbStyleOptionTreeViewItem(class HbStyleOptionTreeViewItem const &)
	??0HbStyleOptionColorGridViewItem@@QAE@ABV0@@Z @ 2856 NONAME ABSENT ; HbStyleOptionColorGridViewItem::HbStyleOptionColorGridViewItem(class HbStyleOptionColorGridViewItem const &)
	??0HbIndicator@@QAE@PAVQObject@@@Z @ 2857 NONAME ; HbIndicator::HbIndicator(class QObject *)
	?d_func@HbItemHighlight@@ABEPBVHbItemHighlightPrivate@@XZ @ 2858 NONAME ABSENT ; class HbItemHighlightPrivate const * HbItemHighlight::d_func(void) const
	?trUtf8@HbInputModeCache@@SA?AVQString@@PBD0@Z @ 2859 NONAME ; class QString HbInputModeCache::trUtf8(char const *, char const *)
	??0HbTouchArea@@QAE@PAVQGraphicsItem@@@Z @ 2860 NONAME ; HbTouchArea::HbTouchArea(class QGraphicsItem *)
	?trUtf8@HbNumberGrouping@@SA?AVQString@@PBD0H@Z @ 2861 NONAME ABSENT ; class QString HbNumberGrouping::trUtf8(char const *, char const *, int)
	?updateGestures@HbScrollAreaPrivate@@QAEXXZ @ 2862 NONAME ABSENT ; void HbScrollAreaPrivate::updateGestures(void)
	?items@HbAbstractItemContainer@@QBE?AV?$QList@PAVHbAbstractViewItem@@@@XZ @ 2863 NONAME ABSENT ; class QList<class HbAbstractViewItem *> HbAbstractItemContainer::items(void) const
	?tr@HbAbstractItemView@@SA?AVQString@@PBD0H@Z @ 2864 NONAME ABSENT ; class QString HbAbstractItemView::tr(char const *, char const *, int)
	?count@HbListWidget@@QBEHXZ @ 2865 NONAME ABSENT ; int HbListWidget::count(void) const
	?registerCustomInteraction@HbInteractionManager@@SAHXZ @ 2866 NONAME ABSENT ; int HbInteractionManager::registerCustomInteraction(void)
	?saveIndexMadeVisibleAfterMetricsChange@HbAbstractItemViewPrivate@@QAEXXZ @ 2867 NONAME ABSENT ; void HbAbstractItemViewPrivate::saveIndexMadeVisibleAfterMetricsChange(void)
	?queryButtonList@HbAbstractButtonPrivate@@QBE?AV?$QList@PAVHbAbstractButton@@@@XZ @ 2868 NONAME ; class QList<class HbAbstractButton *> HbAbstractButtonPrivate::queryButtonList(void) const
	?qt_metacast@HbIconLoader@@UAEPAXPBD@Z @ 2869 NONAME ; void * HbIconLoader::qt_metacast(char const *)
	?qt_metacast@HbListView@@UAEPAXPBD@Z @ 2870 NONAME ABSENT ; void * HbListView::qt_metacast(char const *)
	??1HbStringVector@@QAE@XZ @ 2871 NONAME ; HbStringVector::~HbStringVector(void)
	??0Parser@HbCss@@QAE@XZ @ 2872 NONAME ; HbCss::Parser::Parser(void)
	?qt_metacall@HbEditorInterface@@UAEHW4Call@QMetaObject@@HPAPAX@Z @ 2873 NONAME ; int HbEditorInterface::qt_metacall(enum QMetaObject::Call, int, void * *)
	?activated@HbAbstractItemView@@IAEXABVQModelIndex@@@Z @ 2874 NONAME ABSENT ; void HbAbstractItemView::activated(class QModelIndex const &)
	?insertItem@HbListWidget@@QAEXHPAVHbListWidgetItem@@@Z @ 2875 NONAME ABSENT ; void HbListWidget::insertItem(int, class HbListWidgetItem *)
	?visibleItems@HbAbstractItemView@@QBE?AV?$QList@PAVHbAbstractViewItem@@@@XZ @ 2876 NONAME ABSENT ; class QList<class HbAbstractViewItem *> HbAbstractItemView::visibleItems(void) const
	?setObjectTree@HbXmlLoaderAbstractActions@@QAE_NV?$QList@PAVQObject@@@@@Z @ 2877 NONAME ABSENT ; bool HbXmlLoaderAbstractActions::setObjectTree(class QList<class QObject *>)
	?filterString@HbInputFilter@@UAEXABVQString@@AAV2@@Z @ 2878 NONAME ; void HbInputFilter::filterString(class QString const &, class QString &)
	?init@Parser@HbCss@@QAEXABVQString@@_N@Z @ 2879 NONAME ABSENT ; void HbCss::Parser::init(class QString const &, bool)
	?sizeHint@HbSignalIndicator@@MBE?AVQSizeF@@W4SizeHint@Qt@@ABV2@@Z @ 2880 NONAME ABSENT ; class QSizeF HbSignalIndicator::sizeHint(enum Qt::SizeHint, class QSizeF const &) const
	??0HbInputCustomButtonComposition@@QAE@XZ @ 2881 NONAME ABSENT ; HbInputCustomButtonComposition::HbInputCustomButtonComposition(void)
	?compareF@HbStringUtil@@SAHABVQString@@0@Z @ 2882 NONAME ; int HbStringUtil::compareF(class QString const &, class QString const &)
	??0HbDeviceProfile@@QAE@XZ @ 2883 NONAME ; HbDeviceProfile::HbDeviceProfile(void)
	?verticalScrollBar@HbScrollArea@@QBEPAVHbScrollBar@@XZ @ 2884 NONAME ; class HbScrollBar * HbScrollArea::verticalScrollBar(void) const
	?animateClick@HbAbstractButton@@QAEXH@Z @ 2885 NONAME ; void HbAbstractButton::animateClick(int)
	?setTextFlags@HbLabel@@QAEXH@Z @ 2886 NONAME ABSENT ; void HbLabel::setTextFlags(int)
	?testSimpleSelector@Parser@HbCss@@QAE_NXZ @ 2887 NONAME ; bool HbCss::Parser::testSimpleSelector(void)
	?staticMetaObject@HbGridViewItem@@2UQMetaObject@@B @ 2888 NONAME ABSENT ; struct QMetaObject const HbGridViewItem::staticMetaObject
	?q_func@HbScrollAreaPrivate@@AAEPAVHbScrollArea@@XZ @ 2889 NONAME ; class HbScrollArea * HbScrollAreaPrivate::q_func(void)
	?indicatorClientInfoList@HbDeviceDialogServer@@QBE?AV?$QList@UIndicatorClientInfo@@@@XZ @ 2890 NONAME ; class QList<struct IndicatorClientInfo> HbDeviceDialogServer::indicatorClientInfoList(void) const
	?metaObject@HbTreeViewItem@@UBEPBUQMetaObject@@XZ @ 2891 NONAME ABSENT ; struct QMetaObject const * HbTreeViewItem::metaObject(void) const
	?isExpanded@HbTreeViewItem@@QBE_NXZ @ 2892 NONAME ABSENT ; bool HbTreeViewItem::isExpanded(void) const
	?iconValue@Declaration@HbCss@@QBE?AVQIcon@@XZ @ 2893 NONAME ABSENT ; class QIcon HbCss::Declaration::iconValue(void) const
	?setArrangeMode@HbListView@@UAE_N_N@Z @ 2894 NONAME ABSENT ; bool HbListView::setArrangeMode(bool)
	?triggered@HbMenu@@IAEXPAVHbAction@@@Z @ 2895 NONAME ; void HbMenu::triggered(class HbAction *)
	??_EHbPopupBase@@UAE@I@Z @ 2896 NONAME ABSENT ; HbPopupBase::~HbPopupBase(unsigned int)
	??0HbTouchArea@@IAE@AAVHbTouchAreaPrivate@@PAVQGraphicsItem@@@Z @ 2897 NONAME ; HbTouchArea::HbTouchArea(class HbTouchAreaPrivate &, class QGraphicsItem *)
	?boundingRect@HbGestureSceneFilter@@UBE?AVQRectF@@XZ @ 2898 NONAME ABSENT ; class QRectF HbGestureSceneFilter::boundingRect(void) const
	?addAction@HbView@@QAEXPAVHbAction@@W4ActionContainer@1@@Z @ 2899 NONAME ; void HbView::addAction(class HbAction *, enum HbView::ActionContainer)
	??0HbExtraUserDictionary@@QAE@XZ @ 2900 NONAME ; HbExtraUserDictionary::HbExtraUserDictionary(void)
	?decorationIcon@HbListWidgetItem@@QBE?AVHbIcon@@XZ @ 2901 NONAME ABSENT ; class HbIcon HbListWidgetItem::decorationIcon(void) const
	?multitouchActivated@HbInteractionListener@@MAEXPBVQObject@@@Z @ 2902 NONAME ABSENT ; void HbInteractionListener::multitouchActivated(class QObject const *)
	?staticMetaObject@HbLabel@@2UQMetaObject@@B @ 2903 NONAME ABSENT ; struct QMetaObject const HbLabel::staticMetaObject
	??1HbIconItem@@UAE@XZ @ 2904 NONAME ; HbIconItem::~HbIconItem(void)
	??1HbGraphicsPixmapItem@@UAE@XZ @ 2905 NONAME ABSENT ; HbGraphicsPixmapItem::~HbGraphicsPixmapItem(void)
	?d_func@HbTheme@@AAEPAVHbThemePrivate@@XZ @ 2906 NONAME ; class HbThemePrivate * HbTheme::d_func(void)
	?name@HbTheme@@QBE?AVQString@@XZ @ 2907 NONAME ; class QString HbTheme::name(void) const
	??_EHbConverterNumberFilter@@UAE@I@Z @ 2908 NONAME ABSENT ; HbConverterNumberFilter::~HbConverterNumberFilter(unsigned int)
	?trUtf8@HbToolBar@@SA?AVQString@@PBD0@Z @ 2909 NONAME ; class QString HbToolBar::trUtf8(char const *, char const *)
	?styleValue@Declaration@HbCss@@QBE?AW4BorderStyle@2@XZ @ 2910 NONAME ABSENT ; enum HbCss::BorderStyle HbCss::Declaration::styleValue(void) const
	?extractFont@ValueExtractor@HbCss@@AAEXXZ @ 2911 NONAME ABSENT ; void HbCss::ValueExtractor::extractFont(void)
	?staticMetaObject@HbInteractionManager@@2UQMetaObject@@B @ 2912 NONAME ABSENT ; struct QMetaObject const HbInteractionManager::staticMetaObject
	?predictionEngineForLanguage@HbPredictionFactory@@QAEPAVHbPredictionEngine@@ABVHbInputLanguage@@@Z @ 2913 NONAME ; class HbPredictionEngine * HbPredictionFactory::predictionEngineForLanguage(class HbInputLanguage const &)
	??1HbConverterNumberFilter@@UAE@XZ @ 2914 NONAME ABSENT ; HbConverterNumberFilter::~HbConverterNumberFilter(void)
	?maxItemCount@HbListItemContainer@@MBEHXZ @ 2915 NONAME ABSENT ; int HbListItemContainer::maxItemCount(void) const
	?q_func@HbListViewPrivate@@ABEPBVHbListView@@XZ @ 2916 NONAME ABSENT ; class HbListView const * HbListViewPrivate::q_func(void) const
	?changeEvent@HbTextItem@@MAEXPAVQEvent@@@Z @ 2917 NONAME ; void HbTextItem::changeEvent(class QEvent *)
	??0HbPopupBase@@QAE@PAVQGraphicsItem@@@Z @ 2918 NONAME ABSENT ; HbPopupBase::HbPopupBase(class QGraphicsItem *)
	?trUtf8@HbGridView@@SA?AVQString@@PBD0@Z @ 2919 NONAME ABSENT ; class QString HbGridView::trUtf8(char const *, char const *)
	??1HbGraphicsSceneMouseEvent@@UAE@XZ @ 2920 NONAME ABSENT ; HbGraphicsSceneMouseEvent::~HbGraphicsSceneMouseEvent(void)
	?isWritable@HbSharedMemoryManager@@UAE_NXZ @ 2921 NONAME ABSENT ; bool HbSharedMemoryManager::isWritable(void)
	?getAnchors@HbAnchorLayoutDebug@@SA?AV?$QList@PAVHbAnchor@@@@PAVHbAnchorLayout@@@Z @ 2922 NONAME ABSENT ; class QList<class HbAnchor *> HbAnchorLayoutDebug::getAnchors(class HbAnchorLayout *)
	?getStaticMetaObject@HbInputFilter@@SAABUQMetaObject@@XZ @ 2923 NONAME ; struct QMetaObject const & HbInputFilter::getStaticMetaObject(void)
	??_EHbXmlLoaderAbstractSyntax@@UAE@I@Z @ 2924 NONAME ; HbXmlLoaderAbstractSyntax::~HbXmlLoaderAbstractSyntax(unsigned int)
	?itemAt@HbTreeLayout@@UBEPAVQGraphicsLayoutItem@@H@Z @ 2925 NONAME ABSENT ; class QGraphicsLayoutItem * HbTreeLayout::itemAt(int) const
	?trUtf8@HbStackedWidget@@SA?AVQString@@PBD0@Z @ 2926 NONAME ; class QString HbStackedWidget::trUtf8(char const *, char const *)
	?sizeHint@HbAnchorLayout@@MBE?AVQSizeF@@W4SizeHint@Qt@@ABV2@@Z @ 2927 NONAME ; class QSizeF HbAnchorLayout::sizeHint(enum Qt::SizeHint, class QSizeF const &) const
	?registerPlugin@HbStyle@@QAEHVQString@@@Z @ 2928 NONAME ABSENT ; int HbStyle::registerPlugin(class QString)
	?reFocus@HbFocusObjectGraphicsWidget@@UAEXXZ @ 2929 NONAME ABSENT ; void HbFocusObjectGraphicsWidget::reFocus(void)
	?event@HbToolButton@@MAE_NPAVQEvent@@@Z @ 2930 NONAME ; bool HbToolButton::event(class QEvent *)
	?setItemPrototypes@HbAbstractItemContainer@@QAE_NABV?$QList@PAVHbAbstractViewItem@@@@@Z @ 2931 NONAME ABSENT ; bool HbAbstractItemContainer::setItemPrototypes(class QList<class HbAbstractViewItem *> const &)
	?orientation@HbInstance@@QBE?AW4Orientation@Qt@@XZ @ 2932 NONAME ABSENT ; enum Qt::Orientation HbInstance::orientation(void) const
	?columnsRemoved@HbAbstractItemView@@MAEXABVQModelIndex@@HH@Z @ 2933 NONAME ABSENT ; void HbAbstractItemView::columnsRemoved(class QModelIndex const &, int, int)
	?type@HbView@@UBEHXZ @ 2934 NONAME ; int HbView::type(void) const
	?tr@HbGraphicsScene@@SA?AVQString@@PBD0H@Z @ 2935 NONAME ; class QString HbGraphicsScene::tr(char const *, char const *, int)
	??0HbListWidgetViewItem@@IAE@ABV0@@Z @ 2936 NONAME ABSENT ; HbListWidgetViewItem::HbListWidgetViewItem(class HbListWidgetViewItem const &)
	?staticMetaObject@HbAbstractItemView@@2UQMetaObject@@B @ 2937 NONAME ABSENT ; struct QMetaObject const HbAbstractItemView::staticMetaObject
	?d_func@HbScrollArea@@ABEPBVHbScrollAreaPrivate@@XZ @ 2938 NONAME ; class HbScrollAreaPrivate const * HbScrollArea::d_func(void) const
	?formatCurrency@HbExtendedLocale@@QAE?AVQString@@_J@Z @ 2939 NONAME ; class QString HbExtendedLocale::formatCurrency(long long)
	?scrollDirectionsChanged@HbScrollArea@@IAEXV?$QFlags@W4Orientation@Qt@@@@@Z @ 2940 NONAME ; void HbScrollArea::scrollDirectionsChanged(class QFlags<enum Qt::Orientation>)
	?applyResolutionCorrection@HbIconLoader@@QAEXAAVQSizeF@@@Z @ 2941 NONAME ; void HbIconLoader::applyResolutionCorrection(class QSizeF &)
	??0HbStyleParameters@@QAE@XZ @ 2942 NONAME ; HbStyleParameters::HbStyleParameters(void)
	?trUtf8@HbInteractionPluginGroup@@SA?AVQString@@PBD0H@Z @ 2943 NONAME ABSENT ; class QString HbInteractionPluginGroup::trUtf8(char const *, char const *, int)
	?playMode@HbIconAnimationDefinition@@QBE?AW4PlayMode@1@XZ @ 2944 NONAME ; enum HbIconAnimationDefinition::PlayMode HbIconAnimationDefinition::playMode(void) const
	?qt_metacast@HbAbstractItemView@@UAEPAXPBD@Z @ 2945 NONAME ABSENT ; void * HbAbstractItemView::qt_metacast(char const *)
	?clear@HbListWidget@@QAEXXZ @ 2946 NONAME ABSENT ; void HbListWidget::clear(void)
	??_EHbDeviceDialogPlugin@@UAE@I@Z @ 2947 NONAME ; HbDeviceDialogPlugin::~HbDeviceDialogPlugin(unsigned int)
	??0HbIconAnimator@@AAE@PAVHbIconEngine@@@Z @ 2948 NONAME ABSENT ; HbIconAnimator::HbIconAnimator(class HbIconEngine *)
	??0HbStyle@@QAE@XZ @ 2949 NONAME ; HbStyle::HbStyle(void)
	?metaObject@HbInputCustomButtonBank@@UBEPBUQMetaObject@@XZ @ 2950 NONAME ABSENT ; struct QMetaObject const * HbInputCustomButtonBank::metaObject(void) const
	?copyString@HbString@@AAEXPBVQChar@@H@Z @ 2951 NONAME ABSENT ; void HbString::copyString(class QChar const *, int)
	??0HbStyleOptionSlider@@QAE@XZ @ 2952 NONAME ; HbStyleOptionSlider::HbStyleOptionSlider(void)
	?sizeValues@ValueExtractor@HbCss@@AAEXABUDeclaration@2@PAVQSize@@@Z @ 2953 NONAME ABSENT ; void HbCss::ValueExtractor::sizeValues(struct HbCss::Declaration const &, class QSize *)
	??0HbAction@@QAE@W4SoftKeyAction@Hb@@PAVQObject@@@Z @ 2954 NONAME ABSENT ; HbAction::HbAction(enum Hb::SoftKeyAction, class QObject *)
	??0HbStackedLayout@@QAE@PAVQGraphicsLayoutItem@@@Z @ 2955 NONAME ; HbStackedLayout::HbStackedLayout(class QGraphicsLayoutItem *)
	?metaObject@HbInteractionPlugin@@UBEPBUQMetaObject@@XZ @ 2956 NONAME ABSENT ; struct QMetaObject const * HbInteractionPlugin::metaObject(void) const
	?trUtf8@HbGesture@@SA?AVQString@@PBD0@Z @ 2957 NONAME ABSENT ; class QString HbGesture::trUtf8(char const *, char const *)
	?cellSize@FreeBlocksList@@QBEHXZ @ 2958 NONAME ABSENT ; int FreeBlocksList::cellSize(void) const
	?polish@HbToolBarExtension@@MAEXAAVHbStyleParameters@@@Z @ 2959 NONAME ; void HbToolBarExtension::polish(class HbStyleParameters &)
	?setRowCount@HbGridView@@QAEXH@Z @ 2960 NONAME ABSENT ; void HbGridView::setRowCount(int)
	??1HbSignalIndicator@@UAE@XZ @ 2961 NONAME ; HbSignalIndicator::~HbSignalIndicator(void)
	??0HbDeviceDialogPlugin@@IAE@XZ @ 2962 NONAME ; HbDeviceDialogPlugin::HbDeviceDialogPlugin(void)
	?updateLayoutDirection@HbIconLoader@@AAEXXZ @ 2963 NONAME ; void HbIconLoader::updateLayoutDirection(void)
	?setCurrencyDecimalPlaces@HbExtendedLocale@@QAE_NH@Z @ 2964 NONAME ; bool HbExtendedLocale::setCurrencyDecimalPlaces(int)
	?panGesture@HbAbstractItemView@@MAEXABVQPointF@@@Z @ 2965 NONAME ABSENT ; void HbAbstractItemView::panGesture(class QPointF const &)
	?init@HbGraphicsPixmapItem@@AAEXXZ @ 2966 NONAME ABSENT ; void HbGraphicsPixmapItem::init(void)
	?trUtf8@HbNumberGrouping@@SA?AVQString@@PBD0@Z @ 2967 NONAME ABSENT ; class QString HbNumberGrouping::trUtf8(char const *, char const *)
	??1HbInputCustomButtonComposition@@UAE@XZ @ 2968 NONAME ABSENT ; HbInputCustomButtonComposition::~HbInputCustomButtonComposition(void)
	?cursorRight@HbInputFocusObject@@UAEXH@Z @ 2969 NONAME ABSENT ; void HbInputFocusObject::cursorRight(int)
	?widgetAt@HbStackedWidget@@QBEPAVQGraphicsWidget@@H@Z @ 2970 NONAME ; class QGraphicsWidget * HbStackedWidget::widgetAt(int) const
	?qt_metacall@HbGridView@@UAEHW4Call@QMetaObject@@HPAPAX@Z @ 2971 NONAME ABSENT ; int HbGridView::qt_metacall(enum QMetaObject::Call, int, void * *)
	?automaticTextCasingForQwerty@HbInputSettingProxy@@QAE_NXZ @ 2972 NONAME ; bool HbInputSettingProxy::automaticTextCasingForQwerty(void)
	?metaObject@HbToolBar@@UBEPBUQMetaObject@@XZ @ 2973 NONAME ; struct QMetaObject const * HbToolBar::metaObject(void) const
	?qt_metacall@HbDeviceDialogServer@@UAEHW4Call@QMetaObject@@HPAPAX@Z @ 2974 NONAME ; int HbDeviceDialogServer::qt_metacall(enum QMetaObject::Call, int, void * *)
	??1VariableRule@HbCss@@QAE@XZ @ 2975 NONAME ; HbCss::VariableRule::~VariableRule(void)
	?longPressEnabled@HbScrollArea@@QBE_NXZ @ 2976 NONAME ; bool HbScrollArea::longPressEnabled(void) const
	?tr@HbGridView@@SA?AVQString@@PBD0H@Z @ 2977 NONAME ABSENT ; class QString HbGridView::tr(char const *, char const *, int)
	?d_func@HbPopupBase@@AAEPAVHbPopupBasePrivate@@XZ @ 2978 NONAME ABSENT ; class HbPopupBasePrivate * HbPopupBase::d_func(void)
	?setDisplayRole@HbListViewItemPrivate@@QAEXVQString@@PAVHbStyleOptionListViewItem@@H@Z @ 2979 NONAME ABSENT ; void HbListViewItemPrivate::setDisplayRole(class QString, class HbStyleOptionListViewItem *, int)
	?widgetAdded@HbStackedWidget@@IAEXH@Z @ 2980 NONAME ; void HbStackedWidget::widgetAdded(int)
	?setAttribute@HbWidget@@QAEXW4WidgetAttribute@Hb@@_N@Z @ 2981 NONAME ABSENT ; void HbWidget::setAttribute(enum Hb::WidgetAttribute, bool)
	?setCurrentViewIndex@HbMainWindow@@QAEXH@Z @ 2982 NONAME ABSENT ; void HbMainWindow::setCurrentViewIndex(int)
	?isConnected@HbFocusObjectGraphicsWidget@@UBE_NXZ @ 2983 NONAME ABSENT ; bool HbFocusObjectGraphicsWidget::isConnected(void) const
	?setActiveAction@HbMenu@@QAEXPAVHbAction@@@Z @ 2984 NONAME ; void HbMenu::setActiveAction(class HbAction *)
	?qt_metacall@HbDeviceDialog@@UAEHW4Call@QMetaObject@@HPAPAX@Z @ 2985 NONAME ; int HbDeviceDialog::qt_metacall(enum QMetaObject::Call, int, void * *)
	??1HbTheme@@UAE@XZ @ 2986 NONAME ABSENT ; HbTheme::~HbTheme(void)
	?d_func@HbTouchArea@@ABEPBVHbTouchAreaPrivate@@XZ @ 2987 NONAME ; class HbTouchAreaPrivate const * HbTouchArea::d_func(void) const
	?mirroringMode@HbIconItem@@QBE?AW4MirroringMode@HbIcon@@XZ @ 2988 NONAME ; enum HbIcon::MirroringMode HbIconItem::mirroringMode(void) const
	?pop@HbXmlLoaderAbstractActions@@QAE_NW4ElementType@@@Z @ 2989 NONAME ABSENT ; bool HbXmlLoaderAbstractActions::pop(enum ElementType)
	?getStaticMetaObject@HbBatteryIndicator@@SAABUQMetaObject@@XZ @ 2990 NONAME ; struct QMetaObject const & HbBatteryIndicator::getStaticMetaObject(void)
	?setAction@HbToolButton@@QAEXPAVHbAction@@@Z @ 2991 NONAME ; void HbToolButton::setAction(class HbAction *)
	?setItemPrototype@HbListWidget@@UAEXPAVHbAbstractViewItem@@@Z @ 2992 NONAME ABSENT ; void HbListWidget::setItemPrototype(class HbAbstractViewItem *)
	??9HbEditorInterface@@QBE_NABV0@@Z @ 2993 NONAME ; bool HbEditorInterface::operator!=(class HbEditorInterface const &) const
	?qt_metacall@HbStyleOld@@UAEHW4Call@QMetaObject@@HPAPAX@Z @ 2994 NONAME ABSENT ; int HbStyleOld::qt_metacall(enum QMetaObject::Call, int, void * *)
	?nextCheckState@HbAbstractButton@@MAEXXZ @ 2995 NONAME ; void HbAbstractButton::nextCheckState(void)
	?qt_metacall@HbListViewItem@@UAEHW4Call@QMetaObject@@HPAPAX@Z @ 2996 NONAME ABSENT ; int HbListViewItem::qt_metacall(enum QMetaObject::Call, int, void * *)
	??_EHbToolBarExtension@@UAE@I@Z @ 2997 NONAME ; HbToolBarExtension::~HbToolBarExtension(unsigned int)
	?trUtf8@HbVkbHost@@SA?AVQString@@PBD0@Z @ 2998 NONAME ; class QString HbVkbHost::trUtf8(char const *, char const *)
	?trUtf8@HbInputFocusObject@@SA?AVQString@@PBD0H@Z @ 2999 NONAME ; class QString HbInputFocusObject::trUtf8(char const *, char const *, int)
	?setGeometry@HbStackedLayout@@UAEXABVQRectF@@@Z @ 3000 NONAME ; void HbStackedLayout::setGeometry(class QRectF const &)
	?setBrush@HbIconItem@@QAEXABVQBrush@@@Z @ 3001 NONAME ; void HbIconItem::setBrush(class QBrush const &)
	??1HbVirtualKeyboard@@UAE@XZ @ 3002 NONAME ; HbVirtualKeyboard::~HbVirtualKeyboard(void)
	?mouseMoveEvent@HbAbstractViewItem@@MAEXPAVQGraphicsSceneMouseEvent@@@Z @ 3003 NONAME ABSENT ; void HbAbstractViewItem::mouseMoveEvent(class QGraphicsSceneMouseEvent *)
	?q_func@HbPopupBasePrivate@@AAEPAVHbPopupBase@@XZ @ 3004 NONAME ABSENT ; class HbPopupBase * HbPopupBasePrivate::q_func(void)
	?extractParameters@ValueExtractor@HbCss@@QAE_NABV?$QList@VQString@@@@AAV?$QList@VQVariant@@@@@Z @ 3005 NONAME ABSENT ; bool HbCss::ValueExtractor::extractParameters(class QList<class QString> const &, class QList<class QVariant> &)
	?parseVariableset@Parser@HbCss@@QAE_NPAUVariableRule@2@@Z @ 3006 NONAME ; bool HbCss::Parser::parseVariableset(struct HbCss::VariableRule *)
	?d_func@HbGridView@@AAEPAVHbGridViewPrivate@@XZ @ 3007 NONAME ABSENT ; class HbGridViewPrivate * HbGridView::d_func(void)
	??1HbStyleParameters@@UAE@XZ @ 3008 NONAME ; HbStyleParameters::~HbStyleParameters(void)
	?trUtf8@HbToolBarExtension@@SA?AVQString@@PBD0H@Z @ 3009 NONAME ; class QString HbToolBarExtension::trUtf8(char const *, char const *, int)
	?trUtf8@HbInputFilter@@SA?AVQString@@PBD0@Z @ 3010 NONAME ; class QString HbInputFilter::trUtf8(char const *, char const *)
	?setLevel@HbBatteryIndicator@@QAEXH@Z @ 3011 NONAME ; void HbBatteryIndicator::setLevel(int)
	??0HbGestureSceneFilter@@QAE@W4MouseButton@Qt@@PAVQGraphicsItem@@@Z @ 3012 NONAME ABSENT ; HbGestureSceneFilter::HbGestureSceneFilter(enum Qt::MouseButton, class QGraphicsItem *)
	?title@HbMenu@@QBE?AVQString@@XZ @ 3013 NONAME ; class QString HbMenu::title(void) const
	?tr@HbLayoutDirectionNotifier@@SA?AVQString@@PBD0H@Z @ 3014 NONAME ; class QString HbLayoutDirectionNotifier::tr(char const *, char const *, int)
	?addIcon@HbListWidgetItem@@QAEXABVHbIcon@@W4ListItemColumn@1@W4ListContentType@1@W4ContentVisibility@1@@Z @ 3015 NONAME ABSENT ; void HbListWidgetItem::addIcon(class HbIcon const &, enum HbListWidgetItem::ListItemColumn, enum HbListWidgetItem::ListContentType, enum HbListWidgetItem::ContentVisibility)
	?elideMode@HbTextItem@@QBE?AW4TextElideMode@Qt@@XZ @ 3016 NONAME ; enum Qt::TextElideMode HbTextItem::elideMode(void) const
	?hostEngine@HbExtraUserDictionary@@UBEPAVHbPredictionBase@@XZ @ 3017 NONAME ; class HbPredictionBase * HbExtraUserDictionary::hostEngine(void) const
	?extractAspectRatioMode@ValueExtractor@HbCss@@QAE_NPAW4AspectRatioMode@Qt@@@Z @ 3018 NONAME ABSENT ; bool HbCss::ValueExtractor::extractAspectRatioMode(enum Qt::AspectRatioMode *)
	?font@HbRichTextItem@@QBE?AVQFont@@XZ @ 3019 NONAME ABSENT ; class QFont HbRichTextItem::font(void) const
	??1HbInputStateMachinePrcChineseFinger@@UAE@XZ @ 3020 NONAME ABSENT ; HbInputStateMachinePrcChineseFinger::~HbInputStateMachinePrcChineseFinger(void)
	?disconnectObservingObject@HbInputSettingProxy@@QAEXPAVQObject@@@Z @ 3021 NONAME ; void HbInputSettingProxy::disconnectObservingObject(class QObject *)
	?d_func@HbView@@ABEPBVHbViewPrivate@@XZ @ 3022 NONAME ; class HbViewPrivate const * HbView::d_func(void) const
	?item@HbListWidget@@QBEPAVHbListWidgetItem@@H@Z @ 3023 NONAME ABSENT ; class HbListWidgetItem * HbListWidget::item(int) const
	?getStaticMetaObject@HbDeviceDialogPlugin@@SAABUQMetaObject@@XZ @ 3024 NONAME ; struct QMetaObject const & HbDeviceDialogPlugin::getStaticMetaObject(void)
	?sendEvent@HbInputContextProxy@@QAEXABVQInputMethodEvent@@@Z @ 3025 NONAME ; void HbInputContextProxy::sendEvent(class QInputMethodEvent const &)
	??1FreeBlocksList@@QAE@XZ @ 3026 NONAME ABSENT ; FreeBlocksList::~FreeBlocksList(void)
	?findStateHandler@HbInputModeCache@@QAEPAVHbInputMethod@@ABVHbInputState@@@Z @ 3027 NONAME ; class HbInputMethod * HbInputModeCache::findStateHandler(class HbInputState const &)
	?setCheckState@HbAbstractViewItem@@QAEXW4CheckState@Qt@@@Z @ 3028 NONAME ABSENT ; void HbAbstractViewItem::setCheckState(enum Qt::CheckState)
	?newProxy@HbInputMethod@@IAEPAVQInputContext@@XZ @ 3029 NONAME ABSENT ; class QInputContext * HbInputMethod::newProxy(void)
	?setGeometry@HbTouchArea@@UAEXABVQRectF@@@Z @ 3030 NONAME ; void HbTouchArea::setGeometry(class QRectF const &)
	?addAction@HbMenu@@QAEPAVHbAction@@ABVQString@@PBVQObject@@PBD@Z @ 3031 NONAME ; class HbAction * HbMenu::addAction(class QString const &, class QObject const *, char const *)
	?composition@HbInputCustomButton@@UAE?AV?$QList@PAVHbInputCustomButton@@@@XZ @ 3032 NONAME ABSENT ; class QList<class HbInputCustomButton *> HbInputCustomButton::composition(void)
	?update@HbDeviceDialog@@QAE_NABV?$QMap@VQString@@VQVariant@@@@@Z @ 3033 NONAME ; bool HbDeviceDialog::update(class QMap<class QString, class QVariant> const &)
	?width@HbIcon@@QBEMXZ @ 3034 NONAME ; float HbIcon::width(void) const
	?tr@HbInteractionListener@@SA?AVQString@@PBD0H@Z @ 3035 NONAME ABSENT ; class QString HbInteractionListener::tr(char const *, char const *, int)
	?staticMetaObject@HbGraphicsPixmapItem@@2UQMetaObject@@B @ 3036 NONAME ABSENT ; struct QMetaObject const HbGraphicsPixmapItem::staticMetaObject
	?trUtf8@HbInputMethod@@SA?AVQString@@PBD0H@Z @ 3037 NONAME ; class QString HbInputMethod::trUtf8(char const *, char const *, int)
	??0HbStyleOptionCheckBox@@QAE@ABV0@@Z @ 3038 NONAME ; HbStyleOptionCheckBox::HbStyleOptionCheckBox(class HbStyleOptionCheckBox const &)
	?updateSelectionItem@HbAbstractViewItem@@MAEPAVHbAbstractItem@@ABVHbStyleOptionAbstractViewItem@@@Z @ 3039 NONAME ABSENT ; class HbAbstractItem * HbAbstractViewItem::updateSelectionItem(class HbStyleOptionAbstractViewItem const &)
	?recycleItems@HbAbstractItemContainer@@MAE?AVQPointF@@ABV2@@Z @ 3040 NONAME ABSENT ; class QPointF HbAbstractItemContainer::recycleItems(class QPointF const &)
	??4HbVariant@@QAEAAV0@H@Z @ 3041 NONAME ; class HbVariant & HbVariant::operator=(int)
	?d_func@HbAction@@ABEPBVHbActionPrivate@@XZ @ 3042 NONAME ; class HbActionPrivate const * HbAction::d_func(void) const
	?isNull@HbFontSpec@@QBE_NXZ @ 3043 NONAME ; bool HbFontSpec::isNull(void) const
	?clear@HbListModel@@QAEXXZ @ 3044 NONAME ABSENT ; void HbListModel::clear(void)
	??0HbListWidget@@QAE@PAVQGraphicsItem@@@Z @ 3045 NONAME ABSENT ; HbListWidget::HbListWidget(class QGraphicsItem *)
	?setMajorTickLabels@HbSliderTickmarksItemLabel@@QAEXABVQStringList@@@Z @ 3046 NONAME ABSENT ; void HbSliderTickmarksItemLabel::setMajorTickLabels(class QStringList const &)
	?clearConcernFileList@HbWidgetStyleLoader@@QAEXW4Concern@HbLayeredStyleLoader@@@Z @ 3047 NONAME ; void HbWidgetStyleLoader::clearConcernFileList(enum HbLayeredStyleLoader::Concern)
	?eventFilter@HbScrollArea@@MAE_NPAVQObject@@PAVQEvent@@@Z @ 3048 NONAME ; bool HbScrollArea::eventFilter(class QObject *, class QEvent *)
	??1HbStyleOptionScrollBar@@QAE@XZ @ 3049 NONAME ABSENT ; HbStyleOptionScrollBar::~HbStyleOptionScrollBar(void)
	??1HbStyleOptionGridViewItem@@QAE@XZ @ 3050 NONAME ABSENT ; HbStyleOptionGridViewItem::~HbStyleOptionGridViewItem(void)
	?trUtf8@HbInputContextProxy@@SA?AVQString@@PBD0H@Z @ 3051 NONAME ; class QString HbInputContextProxy::trUtf8(char const *, char const *, int)
	??0HbAction@@QAE@PAVQObject@@@Z @ 3052 NONAME ; HbAction::HbAction(class QObject *)
	?parseNextExpr@Parser@HbCss@@QAE_NPAV?$HbVector@UValue@HbCss@@@@@Z @ 3053 NONAME ; bool HbCss::Parser::parseNextExpr(class HbVector<struct HbCss::Value> *)
	?childItem@HbListWidgetViewItem@@UBEPAVQGraphicsLayoutItem@@HW4ListItemColumn@HbListWidgetItem@@HH@Z @ 3054 NONAME ABSENT ; class QGraphicsLayoutItem * HbListWidgetViewItem::childItem(int, enum HbListWidgetItem::ListItemColumn, int, int) const
	?testSelector@Parser@HbCss@@QAE_NXZ @ 3055 NONAME ; bool HbCss::Parser::testSelector(void)
	??0HbFrameItem@@QAE@PAVQGraphicsItem@@@Z @ 3056 NONAME ; HbFrameItem::HbFrameItem(class QGraphicsItem *)
	?inputMode@HbEditorInterface@@QBEHXZ @ 3057 NONAME ABSENT ; int HbEditorInterface::inputMode(void) const
	?tr@HbFocusObjectGraphicsWidget@@SA?AVQString@@PBD0@Z @ 3058 NONAME ABSENT ; class QString HbFocusObjectGraphicsWidget::tr(char const *, char const *)
	?rect@HbFrameDrawer@@IBE?AVQRectF@@XZ @ 3059 NONAME ; class QRectF HbFrameDrawer::rect(void) const
	?staticMetaObject@HbAbstractButton@@2UQMetaObject@@B @ 3060 NONAME ; struct QMetaObject const HbAbstractButton::staticMetaObject
	?itemChange@HbAbstractItemContainer@@MAE?AVQVariant@@W4GraphicsItemChange@QGraphicsItem@@ABV2@@Z @ 3061 NONAME ABSENT ; class QVariant HbAbstractItemContainer::itemChange(enum QGraphicsItem::GraphicsItemChange, class QVariant const &)
	?alignment@HbIconItem@@QBE?AV?$QFlags@W4AlignmentFlag@Qt@@@@XZ @ 3062 NONAME ; class QFlags<enum Qt::AlignmentFlag> HbIconItem::alignment(void) const
	?d_func@HbSoftKey@@AAEPAVHbSoftKeyPrivate@@XZ @ 3063 NONAME ABSENT ; class HbSoftKeyPrivate * HbSoftKey::d_func(void)
	?attribute@HbXmlLoaderAbstractSyntax@@UBE?AVQString@@W4DocumentLexems@1@@Z @ 3064 NONAME ABSENT ; class QString HbXmlLoaderAbstractSyntax::attribute(enum HbXmlLoaderAbstractSyntax::DocumentLexems) const
	?setBorderWidth@HbFrameDrawer@@QAEXM@Z @ 3065 NONAME ; void HbFrameDrawer::setBorderWidth(float)
	?trUtf8@HbInteractionPluginGroup@@SA?AVQString@@PBD0@Z @ 3066 NONAME ABSENT ; class QString HbInteractionPluginGroup::trUtf8(char const *, char const *)
	?hideItems@HbMainWindow@@QAEXV?$QFlags@W4SceneItem@Hb@@@@@Z @ 3067 NONAME ABSENT ; void HbMainWindow::hideItems(class QFlags<enum Hb::SceneItem>)
	?removeGesture@HbGestureSceneFilter@@QAEXPAVHbGesture@@@Z @ 3068 NONAME ABSENT ; void HbGestureSceneFilter::removeGesture(class HbGesture *)
	??4HbVariant@@QAEAAV0@ABVHbString@@@Z @ 3069 NONAME ; class HbVariant & HbVariant::operator=(class HbString const &)
	??1HbInputStateMachineLatin@@UAE@XZ @ 3070 NONAME ABSENT ; HbInputStateMachineLatin::~HbInputStateMachineLatin(void)
	?addDefinition@HbIconAnimationManager@@QAEXABVQString@@ABVHbIconAnimationDefinition@@@Z @ 3071 NONAME ; void HbIconAnimationManager::addDefinition(class QString const &, class HbIconAnimationDefinition const &)
	?keyForCharacter@HbKeyMapData@@UBEHV?$QFlags@W4HbKeyboardTypeFlag@@@@VQChar@@@Z @ 3072 NONAME ABSENT ; int HbKeyMapData::keyForCharacter(class QFlags<enum HbKeyboardTypeFlag>, class QChar) const
	?testFunction@Parser@HbCss@@QAE_NXZ @ 3073 NONAME ; bool HbCss::Parser::testFunction(void)
	??1MediaRule@HbCss@@QAE@XZ @ 3074 NONAME ; HbCss::MediaRule::~MediaRule(void)
	?removeAt@HbTreeLayout@@UAEXH@Z @ 3075 NONAME ABSENT ; void HbTreeLayout::removeAt(int)
	?qt_metacall@HbTestabilitySignal_p@@UAEHW4Call@QMetaObject@@HPAPAX@Z @ 3076 NONAME ; int HbTestabilitySignal_p::qt_metacall(enum QMetaObject::Call, int, void * *)
	??0HbStyleOptionPushButton@@QAE@XZ @ 3077 NONAME ; HbStyleOptionPushButton::HbStyleOptionPushButton(void)
	?fillWholeRect@HbFrameDrawer@@QBE_NXZ @ 3078 NONAME ; bool HbFrameDrawer::fillWholeRect(void) const
	?type@HbBatteryIndicator@@UBEHXZ @ 3079 NONAME ; int HbBatteryIndicator::type(void) const
	?setTextFormat@HbLabel@@QAEXW4TextFormat@Qt@@@Z @ 3080 NONAME ABSENT ; void HbLabel::setTextFormat(enum Qt::TextFormat)
	??_EHbInputContextProxy@@UAE@I@Z @ 3081 NONAME ; HbInputContextProxy::~HbInputContextProxy(unsigned int)
	?setHandleEvent@HbInputMethod@@QAEX_N@Z @ 3082 NONAME ABSENT ; void HbInputMethod::setHandleEvent(bool)
	?isTypeOf@HbTextItem@@UBE_NH@Z @ 3083 NONAME ABSENT ; bool HbTextItem::isTypeOf(int) const
	??9HbInputLanguage@@QBE_NW4Language@QLocale@@@Z @ 3084 NONAME ; bool HbInputLanguage::operator!=(enum QLocale::Language) const
	?setAmPmSpace@HbExtendedLocale@@QAE_N_N@Z @ 3085 NONAME ; bool HbExtendedLocale::setAmPmSpace(bool)
	??0HbDeviceProfile@@QAE@ABVQString@@@Z @ 3086 NONAME ; HbDeviceProfile::HbDeviceProfile(class QString const &)
	?sizeValue@Declaration@HbCss@@QBE?AVQSize@@XZ @ 3087 NONAME ABSENT ; class QSize HbCss::Declaration::sizeValue(void) const
	?metaObject@HbExtraDictionaryFactory@@UBEPBUQMetaObject@@XZ @ 3088 NONAME ; struct QMetaObject const * HbExtraDictionaryFactory::metaObject(void) const
	?modelIndex@HbAbstractViewItem@@QBE?AVQModelIndex@@XZ @ 3089 NONAME ABSENT ; class QModelIndex HbAbstractViewItem::modelIndex(void) const
	??1HbListItemContainer@@UAE@XZ @ 3090 NONAME ABSENT ; HbListItemContainer::~HbListItemContainer(void)
	?takeAll@HbXmlLoaderAbstractActions@@QAE?AV?$QList@PAVQObject@@@@XZ @ 3091 NONAME ABSENT ; class QList<class QObject *> HbXmlLoaderAbstractActions::takeAll(void)
	?q_func@HbWidgetPrivate@@ABEPBVHbWidget@@XZ @ 3092 NONAME ; class HbWidget const * HbWidgetPrivate::q_func(void) const
	?setClampingStyle@HbScrollArea@@QAEXW4ClampingStyle@1@@Z @ 3093 NONAME ; void HbScrollArea::setClampingStyle(enum HbScrollArea::ClampingStyle)
	?q_func@HbViewPrivate@@AAEPAVHbView@@XZ @ 3094 NONAME ; class HbView * HbViewPrivate::q_func(void)
	?ensureVisible@HbScrollAreaPrivate@@QAEXVQPointF@@MM@Z @ 3095 NONAME ABSENT ; void HbScrollAreaPrivate::ensureVisible(class QPointF, float, float)
	?alloc@HbSharedMemoryManager@@UAEHH@Z @ 3096 NONAME ; int HbSharedMemoryManager::alloc(int)
	??1HbMultiSegmentAlgo@@QAE@XZ @ 3097 NONAME ABSENT ; HbMultiSegmentAlgo::~HbMultiSegmentAlgo(void)
	?setRole@HbFontSpec@@QAEXW4Role@1@@Z @ 3098 NONAME ; void HbFontSpec::setRole(enum HbFontSpec::Role)
	??0HbScrollArea@@QAE@PAVQGraphicsItem@@@Z @ 3099 NONAME ; HbScrollArea::HbScrollArea(class QGraphicsItem *)
	?showDeviceDialog@HbDeviceDialogServer@@QAEHABVQString@@ABV?$QMap@VQString@@VQVariant@@@@AAH@Z @ 3100 NONAME ABSENT ; int HbDeviceDialogServer::showDeviceDialog(class QString const &, class QMap<class QString, class QVariant> const &, int &)
	??0HbMultiSegmentAlgo@@QAE@XZ @ 3101 NONAME ABSENT ; HbMultiSegmentAlgo::HbMultiSegmentAlgo(void)
	?editorDestroyed@HbFocusObjectGraphicsWidget@@QAEXPAVQObject@@@Z @ 3102 NONAME ABSENT ; void HbFocusObjectGraphicsWidget::editorDestroyed(class QObject *)
	?getString@HbVariant@@ABE?AVQString@@XZ @ 3103 NONAME ; class QString HbVariant::getString(void) const
	??0HbAbstractViewItem@@IAE@AAVHbAbstractViewItemPrivate@@PAVQGraphicsItem@@@Z @ 3104 NONAME ABSENT ; HbAbstractViewItem::HbAbstractViewItem(class HbAbstractViewItemPrivate &, class QGraphicsItem *)
	?frameType@HbFrameDrawer@@QBE?AW4FrameType@1@XZ @ 3105 NONAME ; enum HbFrameDrawer::FrameType HbFrameDrawer::frameType(void) const
	?deviceDialogUpdate@HbDeviceDialogServer@@QBEXHABV?$QMap@VQString@@VQVariant@@@@@Z @ 3106 NONAME ; void HbDeviceDialogServer::deviceDialogUpdate(int, class QMap<class QString, class QVariant> const &) const
	?remove@HbString@@QAEAAV1@HH@Z @ 3107 NONAME ; class HbString & HbString::remove(int, int)
	?tr@HbSoftKey@@SA?AVQString@@PBD0H@Z @ 3108 NONAME ABSENT ; class QString HbSoftKey::tr(char const *, char const *, int)
	??BHbIcon@@QBE?AVQVariant@@XZ @ 3109 NONAME ; HbIcon::operator class QVariant(void) const
	??1HbInputFilter@@UAE@XZ @ 3110 NONAME ; HbInputFilter::~HbInputFilter(void)
	?event@HbAbstractViewItem@@MAE_NPAVQEvent@@@Z @ 3111 NONAME ABSENT ; bool HbAbstractViewItem::event(class QEvent *)
	??0HbFocusObjectWidget@@QAE@PAVQWidget@@PAVHbInputMethod@@PAVQGraphicsProxyWidget@@@Z @ 3112 NONAME ABSENT ; HbFocusObjectWidget::HbFocusObjectWidget(class QWidget *, class HbInputMethod *, class QGraphicsProxyWidget *)
	?qt_metacast@HbNumberGrouping@@UAEPAXPBD@Z @ 3113 NONAME ABSENT ; void * HbNumberGrouping::qt_metacast(char const *)
	?removeDictionary@HbExtraDictionaryCollection@@QAEXPAVHbExtraUserDictionary@@@Z @ 3114 NONAME ; void HbExtraDictionaryCollection::removeDictionary(class HbExtraUserDictionary *)
	?qt_metacast@HbGridViewItem@@UAEPAXPBD@Z @ 3115 NONAME ABSENT ; void * HbGridViewItem::qt_metacast(char const *)
	?mouseReleaseEvent@HbToolBar@@MAEXPAVQGraphicsSceneMouseEvent@@@Z @ 3116 NONAME ABSENT ; void HbToolBar::mouseReleaseEvent(class QGraphicsSceneMouseEvent *)
	?init@HbScrollAreaPrivate@@QAEXXZ @ 3117 NONAME ; void HbScrollAreaPrivate::init(void)
	?tr@HbDecorator@@SA?AVQString@@PBD0H@Z @ 3118 NONAME ABSENT ; class QString HbDecorator::tr(char const *, char const *, int)
	?extractImage@ValueExtractor@HbCss@@QAE_NPAVQIcon@@PAV?$QFlags@W4AlignmentFlag@Qt@@@@PAVQSize@@@Z @ 3119 NONAME ABSENT ; bool HbCss::ValueExtractor::extractImage(class QIcon *, class QFlags<enum Qt::AlignmentFlag> *, class QSize *)
	?tr@HbInputStateMachineFactory@@SA?AVQString@@PBD0H@Z @ 3120 NONAME ABSENT ; class QString HbInputStateMachineFactory::tr(char const *, char const *, int)
	?focusLost@HbInteractionListener@@MAEXPBVQObject@@@Z @ 3121 NONAME ABSENT ; void HbInteractionListener::focusLost(class QObject const *)
	?focusOutEvent@HbWidget@@MAEXPAVQFocusEvent@@@Z @ 3122 NONAME ; void HbWidget::focusOutEvent(class QFocusEvent *)
	??1HbFrameBackground@@QAE@XZ @ 3123 NONAME ; HbFrameBackground::~HbFrameBackground(void)
	?mousePressEvent@HbAbstractViewItem@@MAEXPAVQGraphicsSceneMouseEvent@@@Z @ 3124 NONAME ABSENT ; void HbAbstractViewItem::mousePressEvent(class QGraphicsSceneMouseEvent *)
	?editorSurroundingText@HbFocusObjectGraphicsWidget@@UAE?AVQString@@XZ @ 3125 NONAME ABSENT ; class QString HbFocusObjectGraphicsWidget::editorSurroundingText(void)
	?ppmValue@HbDeviceProfile@@QBEMXZ @ 3126 NONAME ; float HbDeviceProfile::ppmValue(void) const
	?clearActions@HbWidget@@QAEXXZ @ 3127 NONAME ; void HbWidget::clearActions(void)
	?trUtf8@HbFontProvider@@SA?AVQString@@PBD0@Z @ 3128 NONAME ABSENT ; class QString HbFontProvider::trUtf8(char const *, char const *)
	??0HbItemHighlight@@QAE@PAVQGraphicsItem@@@Z @ 3129 NONAME ABSENT ; HbItemHighlight::HbItemHighlight(class QGraphicsItem *)
	?wordAt@HbExtraDictionaryCollection@@QBE?AVQString@@H@Z @ 3130 NONAME ; class QString HbExtraDictionaryCollection::wordAt(int) const
	??_EHbInputMethod@@UAE@I@Z @ 3131 NONAME ; HbInputMethod::~HbInputMethod(unsigned int)
	?getStaticMetaObject@HbWidget@@SAABUQMetaObject@@XZ @ 3132 NONAME ; struct QMetaObject const & HbWidget::getStaticMetaObject(void)
	?updatePrimitives@HbWidget@@UAEXXZ @ 3133 NONAME ; void HbWidget::updatePrimitives(void)
	??1HbListItemStandardLayout@@UAE@XZ @ 3134 NONAME ABSENT ; HbListItemStandardLayout::~HbListItemStandardLayout(void)
	?parseProperty@Parser@HbCss@@QAE_NPAUDeclaration@2@@Z @ 3135 NONAME ; bool HbCss::Parser::parseProperty(struct HbCss::Declaration *)
	?changeEvent@HbWidget@@MAEXPAVQEvent@@@Z @ 3136 NONAME ; void HbWidget::changeEvent(class QEvent *)
	?widgetDestroyed@HbInputContextProxy@@UAEXPAVQWidget@@@Z @ 3137 NONAME ; void HbInputContextProxy::widgetDestroyed(class QWidget *)
	?textColor@HbTextItem@@QBE?AVQColor@@XZ @ 3138 NONAME ; class QColor HbTextItem::textColor(void) const
	?clicked@HbAbstractButton@@IAEX_N@Z @ 3139 NONAME ; void HbAbstractButton::clicked(bool)
	?start@HbEffect@@SA_NABV?$QList@PAVQGraphicsItem@@@@ABVQString@@1PAVQObject@@PBDABVQVariant@@@Z @ 3140 NONAME ; bool HbEffect::start(class QList<class QGraphicsItem *> const &, class QString const &, class QString const &, class QObject *, char const *, class QVariant const &)
	?tr@HbGestureSceneFilter@@SA?AVQString@@PBD0@Z @ 3141 NONAME ABSENT ; class QString HbGestureSceneFilter::tr(char const *, char const *)
	?symbianLangToISO@HbExtendedLocale@@SA?AVQString@@H@Z @ 3142 NONAME ; class QString HbExtendedLocale::symbianLangToISO(int)
	?forceUnfocus@HbInputMethod@@SAXXZ @ 3143 NONAME ; void HbInputMethod::forceUnfocus(void)
	?add@FreeBlocksList@@QAEXH@Z @ 3144 NONAME ABSENT ; void FreeBlocksList::add(int)
	?emitActivated@HbAbstractItemView@@MAEXABVQModelIndex@@@Z @ 3145 NONAME ABSENT ; void HbAbstractItemView::emitActivated(class QModelIndex const &)
	??_EHbListWidget@@UAE@I@Z @ 3146 NONAME ABSENT ; HbListWidget::~HbListWidget(unsigned int)
	??_EHbInputStateMachineHKChinese@@UAE@I@Z @ 3147 NONAME ABSENT ; HbInputStateMachineHKChinese::~HbInputStateMachineHKChinese(unsigned int)
	?checkState@HbAbstractViewItem@@QBE?AW4CheckState@Qt@@XZ @ 3148 NONAME ABSENT ; enum Qt::CheckState HbAbstractViewItem::checkState(void) const
	??0HbScrollAreaPrivate@@QAE@XZ @ 3149 NONAME ABSENT ; HbScrollAreaPrivate::HbScrollAreaPrivate(void)
	??_EHbWidgetPrivate@@UAE@I@Z @ 3150 NONAME ; HbWidgetPrivate::~HbWidgetPrivate(unsigned int)
	?indicatorActivated@HbDeviceDialogServer@@QAEXABV?$QList@UIndicatorClientInfo@@@@@Z @ 3151 NONAME ; void HbDeviceDialogServer::indicatorActivated(class QList<struct IndicatorClientInfo> const &)
	?lockFocus@HbInputMethod@@QAEXXZ @ 3152 NONAME ; void HbInputMethod::lockFocus(void)
	?memManager@HbHeapMemoryManager@@0PAVHbMemoryManager@@A @ 3153 NONAME ABSENT ; class HbMemoryManager * HbHeapMemoryManager::memManager
	?visualRect@HbLayoutUtils@@SAXW4LayoutDirection@Qt@@AAVQRectF@@ABV4@@Z @ 3154 NONAME ; void HbLayoutUtils::visualRect(enum Qt::LayoutDirection, class QRectF &, class QRectF const &)
	?instance@HbEmailAddressFilter@@SAPAV1@XZ @ 3155 NONAME ; class HbEmailAddressFilter * HbEmailAddressFilter::instance(void)
	??1HbInputUpperCaseFilter@@UAE@XZ @ 3156 NONAME ; HbInputUpperCaseFilter::~HbInputUpperCaseFilter(void)
	?repeatValue@Declaration@HbCss@@QBE?AW4Repeat@2@XZ @ 3157 NONAME ABSENT ; enum HbCss::Repeat HbCss::Declaration::repeatValue(void) const
	??1HbInteractionPlugin@@UAE@XZ @ 3158 NONAME ABSENT ; HbInteractionPlugin::~HbInteractionPlugin(void)
	?isComposing@HbInputContextProxy@@UBE_NXZ @ 3159 NONAME ; bool HbInputContextProxy::isComposing(void) const
	?lexem@Symbol@HbCss@@QBE?AVQString@@XZ @ 3160 NONAME ; class QString HbCss::Symbol::lexem(void) const
	?trUtf8@HbToolBarExtension@@SA?AVQString@@PBD0@Z @ 3161 NONAME ; class QString HbToolBarExtension::trUtf8(char const *, char const *)
	?scrollTo@HbGridView@@UAEXABVQModelIndex@@@Z @ 3162 NONAME ABSENT ; void HbGridView::scrollTo(class QModelIndex const &)
	?parseFunction@Parser@HbCss@@QAE_NPAVHbString@@0@Z @ 3163 NONAME ; bool HbCss::Parser::parseFunction(class HbString *, class HbString *)
	?metaObject@HbListWidget@@UBEPBUQMetaObject@@XZ @ 3164 NONAME ABSENT ; struct QMetaObject const * HbListWidget::metaObject(void) const
	?count@HbStackedWidget@@QBEHXZ @ 3165 NONAME ; int HbStackedWidget::count(void) const
	??0HbDecorator@@QAE@W4DecoratorType@0@PAVQGraphicsItem@@@Z @ 3166 NONAME ABSENT ; HbDecorator::HbDecorator(enum HbDecorator::DecoratorType, class QGraphicsItem *)
	?metaObject@HbInputStateMachineFactory@@UBEPBUQMetaObject@@XZ @ 3167 NONAME ABSENT ; struct QMetaObject const * HbInputStateMachineFactory::metaObject(void) const
	?convertDigitsTo@HbStringUtil@@SA?AVQString@@V2@W4DigitType@@@Z @ 3168 NONAME ; class QString HbStringUtil::convertDigitsTo(class QString, enum DigitType)
	?staticMetaObject@HbDecorator@@2UQMetaObject@@B @ 3169 NONAME ABSENT ; struct QMetaObject const HbDecorator::staticMetaObject
	?textFlags@HbTextItem@@QBEHXZ @ 3170 NONAME ABSENT ; int HbTextItem::textFlags(void) const
	?removeDefinition@HbIconAnimationManager@@QAEXABVQString@@@Z @ 3171 NONAME ; void HbIconAnimationManager::removeDefinition(class QString const &)
	??1HbPhoneNumberFilter@@UAE@XZ @ 3172 NONAME ; HbPhoneNumberFilter::~HbPhoneNumberFilter(void)
	?shutdown@HbExtraDictionaryFactory@@QAEXXZ @ 3173 NONAME ; void HbExtraDictionaryFactory::shutdown(void)
	?qt_metacast@HbToolBar@@UAEPAXPBD@Z @ 3174 NONAME ; void * HbToolBar::qt_metacast(char const *)
	?lastItemIndex@HbAbstractItemContainer@@QBE?AVQModelIndex@@XZ @ 3175 NONAME ABSENT ; class QModelIndex HbAbstractItemContainer::lastItemIndex(void) const
	?qt_metacast@HbDeviceDialogServer@@UAEPAXPBD@Z @ 3176 NONAME ; void * HbDeviceDialogServer::qt_metacast(char const *)
	?qt_metacast@HbEditorInterface@@UAEPAXPBD@Z @ 3177 NONAME ; void * HbEditorInterface::qt_metacast(char const *)
	?ChildFocusOut@HbEvent@@2HB @ 3178 NONAME ; int const HbEvent::ChildFocusOut
	?iconFile@HbInputCustomButton@@QBE?AVQString@@XZ @ 3179 NONAME ABSENT ; class QString HbInputCustomButton::iconFile(void) const
	?editor@HbEditorInterface@@QBEPAVQObject@@XZ @ 3180 NONAME ; class QObject * HbEditorInterface::editor(void) const
	??_EHbUrlFilter@@UAE@I@Z @ 3181 NONAME ; HbUrlFilter::~HbUrlFilter(unsigned int)
	?focusObjectDestroyed@HbInputMethod@@QAEXPBVHbInputFocusObject@@@Z @ 3182 NONAME ABSENT ; void HbInputMethod::focusObjectDestroyed(class HbInputFocusObject const *)
	?setId@HbExtraUserDictionary@@QAEXH@Z @ 3183 NONAME ; void HbExtraUserDictionary::setId(int)
	?activeHwKeyboard@HbInputSettingProxy@@QBE?AV?$QFlags@W4HbKeyboardTypeFlag@@@@XZ @ 3184 NONAME ABSENT ; class QFlags<enum HbKeyboardTypeFlag> HbInputSettingProxy::activeHwKeyboard(void) const
	??0HbListModel@@QAE@PAVQObject@@@Z @ 3185 NONAME ABSENT ; HbListModel::HbListModel(class QObject *)
	?dismissPolicy@HbPopupBase@@QBE?AW4DismissPolicy@1@XZ @ 3186 NONAME ABSENT ; enum HbPopupBase::DismissPolicy HbPopupBase::dismissPolicy(void) const
	?currentIndex@HbAbstractItemView@@QBE?AVQModelIndex@@XZ @ 3187 NONAME ABSENT ; class QModelIndex HbAbstractItemView::currentIndex(void) const
	??0HbStyleOptionDataGroup@@QAE@XZ @ 3188 NONAME ; HbStyleOptionDataGroup::HbStyleOptionDataGroup(void)
	?qt_metacall@HbMainWindow@@UAEHW4Call@QMetaObject@@HPAPAX@Z @ 3189 NONAME ; int HbMainWindow::qt_metacall(enum QMetaObject::Call, int, void * *)
	?tr@HbStyleOld@@SA?AVQString@@PBD0@Z @ 3190 NONAME ABSENT ; class QString HbStyleOld::tr(char const *, char const *)
	?updateScrollBarForUniformSizedItems@HbAbstractItemViewPrivate@@QAEXXZ @ 3191 NONAME ABSENT ; void HbAbstractItemViewPrivate::updateScrollBarForUniformSizedItems(void)
	?staticMetaObject@HbMenu@@2UQMetaObject@@B @ 3192 NONAME ; struct QMetaObject const HbMenu::staticMetaObject
	?append@HbString@@QAEAAV1@ABVQString@@@Z @ 3193 NONAME ; class HbString & HbString::append(class QString const &)
	?setLevel@HbSignalIndicator@@QAEXH@Z @ 3194 NONAME ; void HbSignalIndicator::setLevel(int)
	?currentRow@HbListView@@QBEHXZ @ 3195 NONAME ABSENT ; int HbListView::currentRow(void) const
	?itemAt@HbStackedLayout@@UBEPAVQGraphicsLayoutItem@@H@Z @ 3196 NONAME ; class QGraphicsLayoutItem * HbStackedLayout::itemAt(int) const
	?prototypePrivate@HbListWidgetViewItemPrivate@@QBEPAV1@XZ @ 3197 NONAME ABSENT ; class HbListWidgetViewItemPrivate * HbListWidgetViewItemPrivate::prototypePrivate(void) const
	?qt_metacast@HbFocusObjectWidget@@UAEPAXPBD@Z @ 3198 NONAME ABSENT ; void * HbFocusObjectWidget::qt_metacast(char const *)
	??1HbView@@UAE@XZ @ 3199 NONAME ; HbView::~HbView(void)
	?setPlayMode@HbIconAnimationDefinition@@QAEXW4PlayMode@1@@Z @ 3200 NONAME ; void HbIconAnimationDefinition::setPlayMode(enum HbIconAnimationDefinition::PlayMode)
	??1HbStyleOptionMessageBox@@QAE@XZ @ 3201 NONAME ; HbStyleOptionMessageBox::~HbStyleOptionMessageBox(void)
	?tr@HbInputMethod@@SA?AVQString@@PBD0H@Z @ 3202 NONAME ; class QString HbInputMethod::tr(char const *, char const *, int)
	?setSize@HbIconItem@@QAEXABVQSizeF@@@Z @ 3203 NONAME ; void HbIconItem::setSize(class QSizeF const &)
	?qt_metacall@HbInputStateMachineFactory@@UAEHW4Call@QMetaObject@@HPAPAX@Z @ 3204 NONAME ABSENT ; int HbInputStateMachineFactory::qt_metacall(enum QMetaObject::Call, int, void * *)
	??1HbIconAnimationManager@@QAE@XZ @ 3205 NONAME ; HbIconAnimationManager::~HbIconAnimationManager(void)
	?getStaticMetaObject@HbLabel@@SAABUQMetaObject@@XZ @ 3206 NONAME ABSENT ; struct QMetaObject const & HbLabel::getStaticMetaObject(void)
	??1HbWidget@@UAE@XZ @ 3207 NONAME ; HbWidget::~HbWidget(void)
	?remove@HbInteractionManager@@QAEXPAVHbInteractionListener@@@Z @ 3208 NONAME ABSENT ; void HbInteractionManager::remove(class HbInteractionListener *)
	?delta@HbInteractionGestureEvent@@QBE?AVQPointF@@XZ @ 3209 NONAME ABSENT ; class QPointF HbInteractionGestureEvent::delta(void) const
	?sizeHint@HbTreeLayout@@UBE?AVQSizeF@@W4SizeHint@Qt@@ABV2@@Z @ 3210 NONAME ABSENT ; class QSizeF HbTreeLayout::sizeHint(enum Qt::SizeHint, class QSizeF const &) const
	?sizeHint@HbBatteryIndicator@@MBE?AVQSizeF@@W4SizeHint@Qt@@ABV2@@Z @ 3211 NONAME ABSENT ; class QSizeF HbBatteryIndicator::sizeHint(enum Qt::SizeHint, class QSizeF const &) const
	?connectObservingObject@HbInputSettingProxy@@QAEXPAVQObject@@@Z @ 3212 NONAME ; void HbInputSettingProxy::connectObservingObject(class QObject *)
	??4HbString@@QAEAAV0@ABVQLatin1String@@@Z @ 3213 NONAME ; class HbString & HbString::operator=(class QLatin1String const &)
	??1HbStyleOptionLabel@@QAE@XZ @ 3214 NONAME ; HbStyleOptionLabel::~HbStyleOptionLabel(void)
	?normalNumberGrouping@HbNgNormalNumber@@SA?AVQString@@AAV2@AAW4Country@QLocale@@@Z @ 3215 NONAME ABSENT ; class QString HbNgNormalNumber::normalNumberGrouping(class QString &, enum QLocale::Country &)
	??0HbStackedWidget@@QAE@PAVQGraphicsItem@@@Z @ 3216 NONAME ; HbStackedWidget::HbStackedWidget(class QGraphicsItem *)
	?changed@HbTheme@@IAEXXZ @ 3217 NONAME ; void HbTheme::changed(void)
	??0ImportRule@HbCss@@QAE@W4MemoryType@HbMemoryManager@@@Z @ 3218 NONAME ; HbCss::ImportRule::ImportRule(enum HbMemoryManager::MemoryType)
	?inputLanguageChanged@HbInputMethod@@MAEXABVHbInputLanguage@@@Z @ 3219 NONAME ; void HbInputMethod::inputLanguageChanged(class HbInputLanguage const &)
	??0HbStyleOptionLabel@@QAE@XZ @ 3220 NONAME ; HbStyleOptionLabel::HbStyleOptionLabel(void)
	?name@HbDeviceProfile@@QBE?AVQString@@XZ @ 3221 NONAME ; class QString HbDeviceProfile::name(void) const
	??0HbStyleOptionIndicatorGroup@@QAE@ABV0@@Z @ 3222 NONAME ; HbStyleOptionIndicatorGroup::HbStyleOptionIndicatorGroup(class HbStyleOptionIndicatorGroup const &)
	??1HbAbstractItemContainer@@UAE@XZ @ 3223 NONAME ABSENT ; HbAbstractItemContainer::~HbAbstractItemContainer(void)
	?orientationChanged@HbAbstractItemView@@MAEXW4Orientation@Qt@@@Z @ 3224 NONAME ABSENT ; void HbAbstractItemView::orientationChanged(enum Qt::Orientation)
	?isFeatureEnabled@HbPredictionEngine@@UAE_NW4HbInputPredictionFeature@HbPredictionBase@@@Z @ 3225 NONAME ABSENT ; bool HbPredictionEngine::isFeatureEnabled(enum HbPredictionBase::HbInputPredictionFeature)
	?setData@HbListModel@@UAE_NABVQModelIndex@@ABVQVariant@@H@Z @ 3226 NONAME ABSENT ; bool HbListModel::setData(class QModelIndex const &, class QVariant const &, int)
	?timeout@HbPopupBase@@QBEHXZ @ 3227 NONAME ABSENT ; int HbPopupBase::timeout(void) const
	?staticMetaObject@HbListView@@2UQMetaObject@@B @ 3228 NONAME ABSENT ; struct QMetaObject const HbListView::staticMetaObject
	?trUtf8@HbIconLoader@@SA?AVQString@@PBD0@Z @ 3229 NONAME ; class QString HbIconLoader::trUtf8(char const *, char const *)
	?setGraphicsItem@HbFrameDrawer@@QAEXPAVQGraphicsItem@@@Z @ 3230 NONAME ; void HbFrameDrawer::setGraphicsItem(class QGraphicsItem *)
	??0HbInputSettingProxy@@AAE@XZ @ 3231 NONAME ; HbInputSettingProxy::HbInputSettingProxy(void)
	?keyReleaseEvent@HbAbstractButton@@MAEXPAVQKeyEvent@@@Z @ 3232 NONAME ; void HbAbstractButton::keyReleaseEvent(class QKeyEvent *)
	??1HbTreeLayout@@UAE@XZ @ 3233 NONAME ABSENT ; HbTreeLayout::~HbTreeLayout(void)
	?tr@HbGesture@@SA?AVQString@@PBD0H@Z @ 3234 NONAME ABSENT ; class QString HbGesture::tr(char const *, char const *, int)
	?tr@HbDeviceDialogServer@@SA?AVQString@@PBD0@Z @ 3235 NONAME ; class QString HbDeviceDialogServer::tr(char const *, char const *)
	?metaObject@HbLayoutDirectionNotifier@@UBEPBUQMetaObject@@XZ @ 3236 NONAME ; struct QMetaObject const * HbLayoutDirectionNotifier::metaObject(void) const
	?removeItem@HbAbstractItemContainer@@UAEXABVQModelIndex@@@Z @ 3237 NONAME ABSENT ; void HbAbstractItemContainer::removeItem(class QModelIndex const &)
	?visualRect@HbStyleOld@@SA?AVQRectF@@W4LayoutDirection@Qt@@ABV2@1@Z @ 3238 NONAME ABSENT ; class QRectF HbStyleOld::visualRect(enum Qt::LayoutDirection, class QRectF const &, class QRectF const &)
	?qt_metacast@HbSoftKey@@UAEPAXPBD@Z @ 3239 NONAME ABSENT ; void * HbSoftKey::qt_metacast(char const *)
	?filter@HbInputUpperCaseFilter@@UAE_NVQChar@@@Z @ 3240 NONAME ; bool HbInputUpperCaseFilter::filter(class QChar)
	?widgetRemoved@HbStackedWidget@@IAEXPAVQGraphicsWidget@@@Z @ 3241 NONAME ; void HbStackedWidget::widgetRemoved(class QGraphicsWidget *)
	?type@HbVariant@@QAE?AW4Type@1@XZ @ 3242 NONAME ; enum HbVariant::Type HbVariant::type(void)
	?canSetModelIndex@HbAbstractViewItem@@UBE_NABVQModelIndex@@@Z @ 3243 NONAME ABSENT ; bool HbAbstractViewItem::canSetModelIndex(class QModelIndex const &) const
	?tr@HbToolBar@@SA?AVQString@@PBD0@Z @ 3244 NONAME ; class QString HbToolBar::tr(char const *, char const *)
	?qt_metacall@HbAbstractViewItem@@UAEHW4Call@QMetaObject@@HPAPAX@Z @ 3245 NONAME ABSENT ; int HbAbstractViewItem::qt_metacall(enum QMetaObject::Call, int, void * *)
	?isDisabled@HbExtraDictionaryCollection@@QBE_NH@Z @ 3246 NONAME ; bool HbExtraDictionaryCollection::isDisabled(int) const
	?paint@HbGestureSceneFilter@@UAEXPAVQPainter@@PBVQStyleOptionGraphicsItem@@PAVQWidget@@@Z @ 3247 NONAME ABSENT ; void HbGestureSceneFilter::paint(class QPainter *, class QStyleOptionGraphicsItem const *, class QWidget *)
	?firstAndLastVisibleModelIndex@HbAbstractItemContainer@@QBEXAAVQModelIndex@@0_N@Z @ 3248 NONAME ABSENT ; void HbAbstractItemContainer::firstAndLastVisibleModelIndex(class QModelIndex &, class QModelIndex &, bool) const
	?setCustomButtonBank@HbEditorInterface@@QAEXH@Z @ 3249 NONAME ABSENT ; void HbEditorInterface::setCustomButtonBank(int)
	?text@HbTextItem@@QBE?AVQString@@XZ @ 3250 NONAME ; class QString HbTextItem::text(void) const
	?activeInputMethod@HbInputMethod@@SAPAV1@XZ @ 3251 NONAME ; class HbInputMethod * HbInputMethod::activeInputMethod(void)
	?trUtf8@HbAbstractItemView@@SA?AVQString@@PBD0H@Z @ 3252 NONAME ABSENT ; class QString HbAbstractItemView::trUtf8(char const *, char const *, int)
	?resetColumn@HbListWidgetItem@@QAEXW4ListItemColumn@1@@Z @ 3253 NONAME ABSENT ; void HbListWidgetItem::resetColumn(enum HbListWidgetItem::ListItemColumn)
	?removeStateMachine@HbInputStateMachineFactory@@QAEXPAVHbInputStateMachine@@@Z @ 3254 NONAME ABSENT ; void HbInputStateMachineFactory::removeStateMachine(class HbInputStateMachine *)
	??0HbStyleOptionNote@@QAE@ABV0@@Z @ 3255 NONAME ABSENT ; HbStyleOptionNote::HbStyleOptionNote(class HbStyleOptionNote const &)
	?setState@HbListWidgetViewItem@@UAEXABV?$QMap@HVQVariant@@@@@Z @ 3256 NONAME ABSENT ; void HbListWidgetViewItem::setState(class QMap<int, class QVariant> const &)
	?setNegativeCurrencyFormat@HbExtendedLocale@@QAE_NW4NegativeCurrencyFormat@1@@Z @ 3257 NONAME ; bool HbExtendedLocale::setNegativeCurrencyFormat(enum HbExtendedLocale::NegativeCurrencyFormat)
	?removeSoftKeyAction@HbMainWindow@@QAEXW4SoftKeyId@Hb@@PAVHbAction@@@Z @ 3258 NONAME ABSENT ; void HbMainWindow::removeSoftKeyAction(enum Hb::SoftKeyId, class HbAction *)
	??1HbFrameItem@@UAE@XZ @ 3259 NONAME ; HbFrameItem::~HbFrameItem(void)
	?trUtf8@HbStyle@@SA?AVQString@@PBD0@Z @ 3260 NONAME ; class QString HbStyle::trUtf8(char const *, char const *)
	?columnsRemoved@HbTreeView@@MAEXABVQModelIndex@@HH@Z @ 3261 NONAME ABSENT ; void HbTreeView::columnsRemoved(class QModelIndex const &, int, int)
	?value@HbStyleParameters@@QAE?AVQVariant@@ABVQString@@@Z @ 3262 NONAME ; class QVariant HbStyleParameters::value(class QString const &)
	?childItemList@HbListWidgetViewItem@@UBE?AV?$QList@PAVQGraphicsLayoutItem@@@@HW4ListItemColumn@HbListWidgetItem@@@Z @ 3263 NONAME ABSENT ; class QList<class QGraphicsLayoutItem *> HbListWidgetViewItem::childItemList(int, enum HbListWidgetItem::ListItemColumn) const
	??0HbInputCustomButtonComposition@@IAE@PAVHbInputCustomButtonCompositionPrivate@@@Z @ 3264 NONAME ABSENT ; HbInputCustomButtonComposition::HbInputCustomButtonComposition(class HbInputCustomButtonCompositionPrivate *)
	?released@HbInteractionListener@@MAEXPBVQObject@@@Z @ 3265 NONAME ABSENT ; void HbInteractionListener::released(class QObject const *)
	?deactivate@HbIndicator@@QAE_NABVQString@@ABVQVariant@@@Z @ 3266 NONAME ; bool HbIndicator::deactivate(class QString const &, class QVariant const &)
	?insertView@HbMainWindow@@QAEPAVHbView@@HPAVQGraphicsWidget@@@Z @ 3267 NONAME ; class HbView * HbMainWindow::insertView(int, class QGraphicsWidget *)
	?allocateMemory@HbMemoryUtils@@SAHW4MemoryType@HbMemoryManager@@H@Z @ 3268 NONAME ; int HbMemoryUtils::allocateMemory(enum HbMemoryManager::MemoryType, int)
	??1HbStyleOptionSettingForm@@QAE@XZ @ 3269 NONAME ABSENT ; HbStyleOptionSettingForm::~HbStyleOptionSettingForm(void)
	?trUtf8@HbAbstractButton@@SA?AVQString@@PBD0@Z @ 3270 NONAME ; class QString HbAbstractButton::trUtf8(char const *, char const *)
	?tr@HbToolBarExtension@@SA?AVQString@@PBD0@Z @ 3271 NONAME ; class QString HbToolBarExtension::tr(char const *, char const *)
	?createPrimitive@HbStyle@@UBEPAVQGraphicsItem@@W4Primitive@1@PAV2@@Z @ 3272 NONAME ABSENT ; class QGraphicsItem * HbStyle::createPrimitive(enum HbStyle::Primitive, class QGraphicsItem *) const
	?setText@HbListWidgetItem@@QAEXABVQString@@HW4ListContentType@1@W4ContentVisibility@1@@Z @ 3273 NONAME ABSENT ; void HbListWidgetItem::setText(class QString const &, int, enum HbListWidgetItem::ListContentType, enum HbListWidgetItem::ContentVisibility)
	?d_func@HbStackedWidget@@ABEPBVHbStackedWidgetPrivate@@XZ @ 3274 NONAME ; class HbStackedWidgetPrivate const * HbStackedWidget::d_func(void) const
	?type@HbAbstractButton@@UBEHXZ @ 3275 NONAME ; int HbAbstractButton::type(void) const
	?primitive@HbAbstractViewItem@@UBEPAVQGraphicsItem@@W4Primitive@HbStyle@@@Z @ 3276 NONAME ABSENT ; class QGraphicsItem * HbAbstractViewItem::primitive(enum HbStyle::Primitive) const
	?animationStopped@HbIconAnimator@@IAEXXZ @ 3277 NONAME ; void HbIconAnimator::animationStopped(void)
	?extractListParams@ValueExtractor@HbCss@@QAE_NPAVHbListParams@@@Z @ 3278 NONAME ABSENT ; bool HbCss::ValueExtractor::extractListParams(class HbListParams *)
	?listLanguages@HbKeyMapFactory@@QAEXAAV?$QVector@H@@@Z @ 3279 NONAME ABSENT ; void HbKeyMapFactory::listLanguages(class QVector<int> &)
	?listInputModes@HbInputMethodNull@@UAEXAAV?$QVector@VHbInputMode@@@@@Z @ 3280 NONAME ABSENT ; void HbInputMethodNull::listInputModes(class QVector<class HbInputMode> &)
	?trUtf8@HbInputFocusObject@@SA?AVQString@@PBD0@Z @ 3281 NONAME ; class QString HbInputFocusObject::trUtf8(char const *, char const *)
	?setHostEngine@HbExtraUserDictionary@@QAEXPAVHbPredictionBase@@@Z @ 3282 NONAME ; void HbExtraUserDictionary::setHostEngine(class HbPredictionBase *)
	?iconName@HbIconItem@@QBE?AVQString@@W4Mode@QIcon@@W4State@4@@Z @ 3283 NONAME ; class QString HbIconItem::iconName(enum QIcon::Mode, enum QIcon::State) const
	?widgetEvent@HbListItemStandardLayout@@UAEXPAVQEvent@@@Z @ 3284 NONAME ABSENT ; void HbListItemStandardLayout::widgetEvent(class QEvent *)
	?instance@HbPhoneNumberFilter@@SAPAV1@XZ @ 3285 NONAME ; class HbPhoneNumberFilter * HbPhoneNumberFilter::instance(void)
	??0HbDirectoryNameLocalizer@@AAE@XZ @ 3286 NONAME ABSENT ; HbDirectoryNameLocalizer::HbDirectoryNameLocalizer(void)
	?setFrameDrawer@HbFrameItem@@QAEXPAVHbFrameDrawer@@@Z @ 3287 NONAME ; void HbFrameItem::setFrameDrawer(class HbFrameDrawer *)
	?visibleItems@HbView@@QBE?AV?$QFlags@W4SceneItem@Hb@@@@XZ @ 3288 NONAME ; class QFlags<enum Hb::SceneItem> HbView::visibleItems(void) const
	?sendPreEditString@HbFocusObjectGraphicsWidget@@UAEXABVQString@@@Z @ 3289 NONAME ABSENT ; void HbFocusObjectGraphicsWidget::sendPreEditString(class QString const &)
	?tr@HbGesture@@SA?AVQString@@PBD0@Z @ 3290 NONAME ABSENT ; class QString HbGesture::tr(char const *, char const *)
	?secondaryLanguage@HbPredictionEngine@@UBE?AVHbInputLanguage@@XZ @ 3291 NONAME ; class HbInputLanguage HbPredictionEngine::secondaryLanguage(void) const
	?parseMedium@Parser@HbCss@@QAE_NPAVHbStringVector@@@Z @ 3292 NONAME ; bool HbCss::Parser::parseMedium(class HbStringVector *)
	?isChecked@HbAbstractButton@@QBE_NXZ @ 3293 NONAME ; bool HbAbstractButton::isChecked(void) const
	?contentFullScreenChanged@HbView@@IAEXXZ @ 3294 NONAME ; void HbView::contentFullScreenChanged(void)
	?format@HbExtendedLocale@@QAE?AVQString@@VQDate@@V2@@Z @ 3295 NONAME ABSENT ; class QString HbExtendedLocale::format(class QDate, class QString)
	?qt_metacast@HbInputFilter@@UAEPAXPBD@Z @ 3296 NONAME ; void * HbInputFilter::qt_metacast(char const *)
	?qt_metacast@HbPopup@@UAEPAXPBD@Z @ 3297 NONAME ; void * HbPopup::qt_metacast(char const *)
	?animationFinished@HbIconAnimator@@IAEXXZ @ 3298 NONAME ; void HbIconAnimator::animationFinished(void)
	?getStaticMetaObject@HbMainWindow@@SAABUQMetaObject@@XZ @ 3299 NONAME ; struct QMetaObject const & HbMainWindow::getStaticMetaObject(void)
	??_EHbScrollAreaPrivate@@UAE@I@Z @ 3300 NONAME ; HbScrollAreaPrivate::~HbScrollAreaPrivate(unsigned int)
	?activated@HbListWidget@@IAEXPAVHbListWidgetItem@@@Z @ 3301 NONAME ABSENT ; void HbListWidget::activated(class HbListWidgetItem *)
	?getStaticMetaObject@HbListViewItem@@SAABUQMetaObject@@XZ @ 3302 NONAME ABSENT ; struct QMetaObject const & HbListViewItem::getStaticMetaObject(void)
	?keymapDataForLanguage@HbKeyMapFactory@@QAEPAVHbKeyMapData@@H@Z @ 3303 NONAME ABSENT ; class HbKeyMapData * HbKeyMapFactory::keymapDataForLanguage(int)
	?focusOutEvent@HbAbstractItemView@@MAEXPAVQFocusEvent@@@Z @ 3304 NONAME ABSENT ; void HbAbstractItemView::focusOutEvent(class QFocusEvent *)
	?setState@HbTreeViewItem@@UAEXABV?$QMap@HVQVariant@@@@@Z @ 3305 NONAME ABSENT ; void HbTreeViewItem::setState(class QMap<int, class QVariant> const &)
	?rightGesture@HbScrollArea@@MAEXH@Z @ 3306 NONAME ; void HbScrollArea::rightGesture(int)
	?borderValue@ValueExtractor@HbCss@@AAEXABUDeclaration@2@PAMPAW4BorderStyle@2@PAVQBrush@@@Z @ 3307 NONAME ABSENT ; void HbCss::ValueExtractor::borderValue(struct HbCss::Declaration const &, float *, enum HbCss::BorderStyle *, class QBrush *)
	?_q_timeoutFinished@HbPopupBasePrivate@@QAEXXZ @ 3308 NONAME ABSENT ; void HbPopupBasePrivate::_q_timeoutFinished(void)
	?focusInEvent@HbAbstractButton@@MAEXPAVQFocusEvent@@@Z @ 3309 NONAME ; void HbAbstractButton::focusInEvent(class QFocusEvent *)
	??_EHbAbstractViewItemPrivate@@UAE@I@Z @ 3310 NONAME ABSENT ; HbAbstractViewItemPrivate::~HbAbstractViewItemPrivate(unsigned int)
	?getStaticMetaObject@HbInputSettingProxy@@SAABUQMetaObject@@XZ @ 3311 NONAME ; struct QMetaObject const & HbInputSettingProxy::getStaticMetaObject(void)
	??_EHbListItemStandardLayout@@UAE@I@Z @ 3312 NONAME ABSENT ; HbListItemStandardLayout::~HbListItemStandardLayout(unsigned int)
	??1HbStyleOptionSoftKey@@QAE@XZ @ 3313 NONAME ABSENT ; HbStyleOptionSoftKey::~HbStyleOptionSoftKey(void)
	?tr@HbFontProvider@@SA?AVQString@@PBD0@Z @ 3314 NONAME ABSENT ; class QString HbFontProvider::tr(char const *, char const *)
	??1HbEditorInterface@@UAE@XZ @ 3315 NONAME ; HbEditorInterface::~HbEditorInterface(void)
	?removeDictionary@HbExtraDictionaryCollection@@QAEXH@Z @ 3316 NONAME ; void HbExtraDictionaryCollection::removeDictionary(int)
	??1HbDeviceDialogPlugin@@UAE@XZ @ 3317 NONAME ; HbDeviceDialogPlugin::~HbDeviceDialogPlugin(void)
	?metaObject@HbEditorInterface@@UBEPBUQMetaObject@@XZ @ 3318 NONAME ; struct QMetaObject const * HbEditorInterface::metaObject(void) const
	?setBackgroundFaded@HbPopupBase@@QAEX_N@Z @ 3319 NONAME ABSENT ; void HbPopupBase::setBackgroundFaded(bool)
	?frameType@HbFrameBackground@@QBE?AW4FrameType@HbFrameDrawer@@XZ @ 3320 NONAME ; enum HbFrameDrawer::FrameType HbFrameBackground::frameType(void) const
	?isCharacterPreviewForQwertyEnabled@HbInputSettingProxy@@QAE_NXZ @ 3321 NONAME ; bool HbInputSettingProxy::isCharacterPreviewForQwertyEnabled(void)
	?getStaticMetaObject@HbTheme@@SAABUQMetaObject@@XZ @ 3322 NONAME ; struct QMetaObject const & HbTheme::getStaticMetaObject(void)
	?unitsDistanceShort@HbExtendedLocale@@QBE?AW4MeasurementSystem@QLocale@@XZ @ 3323 NONAME ; enum QLocale::MeasurementSystem HbExtendedLocale::unitsDistanceShort(void) const
	??4HbTreeViewItem@@IAEAAV0@ABV0@@Z @ 3324 NONAME ABSENT ; class HbTreeViewItem & HbTreeViewItem::operator=(class HbTreeViewItem const &)
	?focusedWidget@HbFocusObjectGraphicsWidget@@QBEPAVQGraphicsWidget@@XZ @ 3325 NONAME ABSENT ; class QGraphicsWidget * HbFocusObjectGraphicsWidget::focusedWidget(void) const
	?groupPriority@HbIndicatorInterface@@QBE?AW4GroupPriority@1@XZ @ 3326 NONAME ABSENT ; enum HbIndicatorInterface::GroupPriority HbIndicatorInterface::groupPriority(void) const
	?updateState@HbInputMethod@@QAEXXZ @ 3327 NONAME ; void HbInputMethod::updateState(void)
	?trUtf8@HbInputSettingProxy@@SA?AVQString@@PBD0H@Z @ 3328 NONAME ; class QString HbInputSettingProxy::trUtf8(char const *, char const *, int)
	??0HbRichTextItem@@QAE@PAVQGraphicsItem@@@Z @ 3329 NONAME ; HbRichTextItem::HbRichTextItem(class QGraphicsItem *)
	??0HbStyleOptionDataItem@@QAE@XZ @ 3330 NONAME ABSENT ; HbStyleOptionDataItem::HbStyleOptionDataItem(void)
	?defaultModeSet@HbInputModeCache@@SAXAAV?$QVector@VHbInputMode@@@@@Z @ 3331 NONAME ABSENT ; void HbInputModeCache::defaultModeSet(class QVector<class HbInputMode> &)
	?instance@HbHeapMemoryManager@@SAPAVHbMemoryManager@@XZ @ 3332 NONAME ABSENT ; class HbMemoryManager * HbHeapMemoryManager::instance(void)
	??1HbString@@QAE@XZ @ 3333 NONAME ; HbString::~HbString(void)
	??0AttributeSelector@HbCss@@QAE@W4MemoryType@HbMemoryManager@@@Z @ 3334 NONAME ; HbCss::AttributeSelector::AttributeSelector(enum HbMemoryManager::MemoryType)
	?originValue@Declaration@HbCss@@QBE?AW4Origin@2@XZ @ 3335 NONAME ABSENT ; enum HbCss::Origin HbCss::Declaration::originValue(void) const
	?longPressed@HbListWidget@@IAEXPAVHbListWidgetItem@@ABVQPointF@@@Z @ 3336 NONAME ABSENT ; void HbListWidget::longPressed(class HbListWidgetItem *, class QPointF const &)
	?count@HbTreeLayout@@UBEHXZ @ 3337 NONAME ABSENT ; int HbTreeLayout::count(void) const
	?parseRuleset@Parser@HbCss@@QAE_NPAUStyleRule@2@@Z @ 3338 NONAME ; bool HbCss::Parser::parseRuleset(struct HbCss::StyleRule *)
	??1Value@HbCss@@QAE@XZ @ 3339 NONAME ; HbCss::Value::~Value(void)
	?tr@HbVkbHost@@SA?AVQString@@PBD0@Z @ 3340 NONAME ; class QString HbVkbHost::tr(char const *, char const *)
	??0BasicSelector@HbCss@@QAE@W4MemoryType@HbMemoryManager@@@Z @ 3341 NONAME ; HbCss::BasicSelector::BasicSelector(enum HbMemoryManager::MemoryType)
	??0HbStyleOptionListViewItem@@QAE@ABV0@@Z @ 3342 NONAME ABSENT ; HbStyleOptionListViewItem::HbStyleOptionListViewItem(class HbStyleOptionListViewItem const &)
	?d_func@HbGraphicsScene@@AAEPAVHbGraphicsScenePrivate@@XZ @ 3343 NONAME ; class HbGraphicsScenePrivate * HbGraphicsScene::d_func(void)
	?editorGeometry@HbFocusObjectGraphicsWidget@@UBE?AVQRectF@@XZ @ 3344 NONAME ABSENT ; class QRectF HbFocusObjectGraphicsWidget::editorGeometry(void) const
	??0HbInputLanguage@@QAE@XZ @ 3345 NONAME ; HbInputLanguage::HbInputLanguage(void)
	?testRuleset@Parser@HbCss@@QAE_NXZ @ 3346 NONAME ; bool HbCss::Parser::testRuleset(void)
	?getStaticMetaObject@HbPredictionFactory@@SAABUQMetaObject@@XZ @ 3347 NONAME ; struct QMetaObject const & HbPredictionFactory::getStaticMetaObject(void)
	?keyPressEvent@HbMenu@@MAEXPAVQKeyEvent@@@Z @ 3348 NONAME ABSENT ; void HbMenu::keyPressEvent(class QKeyEvent *)
	?setCustomMethodInUse@HbInputSettingProxy@@QAEX_N@Z @ 3349 NONAME ABSENT ; void HbInputSettingProxy::setCustomMethodInUse(bool)
	?content@HbListWidgetItem@@QBE?AVQVariant@@W4ListItemColumn@1@HW4ContentVisibility@1@@Z @ 3350 NONAME ABSENT ; class QVariant HbListWidgetItem::content(enum HbListWidgetItem::ListItemColumn, int, enum HbListWidgetItem::ContentVisibility) const
	?isLatinAlphabetLanguage@HbInputUtils@@SA_NABVHbInputLanguage@@@Z @ 3351 NONAME ABSENT ; bool HbInputUtils::isLatinAlphabetLanguage(class HbInputLanguage const &)
	??0HbIconItem@@QAE@ABVHbIcon@@PAVQGraphicsItem@@@Z @ 3352 NONAME ; HbIconItem::HbIconItem(class HbIcon const &, class QGraphicsItem *)
	?staticMetaObject@HbInputFilter@@2UQMetaObject@@B @ 3353 NONAME ; struct QMetaObject const HbInputFilter::staticMetaObject
	??0HbInteractionPluginGroup@@QAE@AAVHbInteractionManager@@@Z @ 3354 NONAME ABSENT ; HbInteractionPluginGroup::HbInteractionPluginGroup(class HbInteractionManager &)
	??_EHbGraphicsPixmapItem@@UAE@I@Z @ 3355 NONAME ABSENT ; HbGraphicsPixmapItem::~HbGraphicsPixmapItem(unsigned int)
	?orientationAboutToBeChanged@HbAbstractItemView@@MAEXXZ @ 3356 NONAME ABSENT ; void HbAbstractItemView::orientationAboutToBeChanged(void)
	?trUtf8@HbDeviceDialogPlugin@@SA?AVQString@@PBD0@Z @ 3357 NONAME ; class QString HbDeviceDialogPlugin::trUtf8(char const *, char const *)
	?event@HbGraphicsScene@@MAE_NPAVQEvent@@@Z @ 3358 NONAME ; bool HbGraphicsScene::event(class QEvent *)
	?asPolicy@ValueExtractor@HbCss@@AAE?AW4Policy@QSizePolicy@@ABUValue@2@@Z @ 3359 NONAME ABSENT ; enum QSizePolicy::Policy HbCss::ValueExtractor::asPolicy(struct HbCss::Value const &)
	??0HbStyleOptionSoftKey@@QAE@ABV0@@Z @ 3360 NONAME ABSENT ; HbStyleOptionSoftKey::HbStyleOptionSoftKey(class HbStyleOptionSoftKey const &)
	?d_func@HbPopup@@AAEPAVHbPopupPrivate@@XZ @ 3361 NONAME ; class HbPopupPrivate * HbPopup::d_func(void)
	?updatePrimitives@HbScrollBar@@UAEXXZ @ 3362 NONAME ; void HbScrollBar::updatePrimitives(void)
	??0HbWidget@@IAE@AAVHbWidgetPrivate@@PAVQGraphicsItem@@V?$QFlags@W4WindowType@Qt@@@@@Z @ 3363 NONAME ; HbWidget::HbWidget(class HbWidgetPrivate &, class QGraphicsItem *, class QFlags<enum Qt::WindowType>)
	??1HbStyleOptionNote@@QAE@XZ @ 3364 NONAME ABSENT ; HbStyleOptionNote::~HbStyleOptionNote(void)
	?tr@HbTestabilitySignal_p@@SA?AVQString@@PBD0@Z @ 3365 NONAME ; class QString HbTestabilitySignal_p::tr(char const *, char const *)
	?firstState@HbInputStateMachinePrcChinese@@UBEXAAVHbInputState@@@Z @ 3366 NONAME ABSENT ; void HbInputStateMachinePrcChinese::firstState(class HbInputState &) const
	?tr@HbWidget@@SA?AVQString@@PBD0@Z @ 3367 NONAME ; class QString HbWidget::tr(char const *, char const *)
	?setHeadingWidget@HbPopup@@QAEXPAVQGraphicsWidget@@@Z @ 3368 NONAME ABSENT ; void HbPopup::setHeadingWidget(class QGraphicsWidget *)
	??1HbLanguageDatabase@@UAE@XZ @ 3369 NONAME ; HbLanguageDatabase::~HbLanguageDatabase(void)
	??0HbString@@QAE@ABV0@@Z @ 3370 NONAME ; HbString::HbString(class HbString const &)
	??4HbFontSpec@@QAEAAV0@ABV0@@Z @ 3371 NONAME ; class HbFontSpec & HbFontSpec::operator=(class HbFontSpec const &)
	?isKeyEventModificationAllowed@HbInputMethod@@QBE_NXZ @ 3372 NONAME ABSENT ; bool HbInputMethod::isKeyEventModificationAllowed(void) const
	??0HbDeviceDialog@@IAE@AAVHbDeviceDialogPrivate@@V?$QFlags@W4DeviceDialogFlag@HbDeviceDialog@@@@PAVQObject@@@Z @ 3373 NONAME ; HbDeviceDialog::HbDeviceDialog(class HbDeviceDialogPrivate &, class QFlags<enum HbDeviceDialog::DeviceDialogFlag>, class QObject *)
	?qt_metacall@HbScrollArea@@UAEHW4Call@QMetaObject@@HPAPAX@Z @ 3374 NONAME ; int HbScrollArea::qt_metacall(enum QMetaObject::Call, int, void * *)
	?frameList@HbIconAnimationDefinition@@QBE?AV?$QList@UAnimationFrame@HbIconAnimationDefinition@@@@XZ @ 3375 NONAME ; class QList<struct HbIconAnimationDefinition::AnimationFrame> HbIconAnimationDefinition::frameList(void) const
	??1Parser@HbCss@@QAE@XZ @ 3376 NONAME ; HbCss::Parser::~Parser(void)
	?q_func@HbAbstractItemPrivate@@AAEPAVHbAbstractItem@@XZ @ 3377 NONAME ABSENT ; class HbAbstractItem * HbAbstractItemPrivate::q_func(void)
	??_EHbAbstractItemViewPrivate@@UAE@I@Z @ 3378 NONAME ABSENT ; HbAbstractItemViewPrivate::~HbAbstractItemViewPrivate(unsigned int)
	??1HbGridViewItem@@UAE@XZ @ 3379 NONAME ABSENT ; HbGridViewItem::~HbGridViewItem(void)
	?tr@HbInputFocusObject@@SA?AVQString@@PBD0@Z @ 3380 NONAME ; class QString HbInputFocusObject::tr(char const *, char const *)
	??0HbStyleOptionTitlePane@@QAE@XZ @ 3381 NONAME ; HbStyleOptionTitlePane::HbStyleOptionTitlePane(void)
	?isEmpty@Declaration@HbCss@@QBE_NXZ @ 3382 NONAME ; bool HbCss::Declaration::isEmpty(void) const
	?iconsExist@HbIconLoader@@SA_NABVQString@@ABVQStringList@@@Z @ 3383 NONAME ; bool HbIconLoader::iconsExist(class QString const &, class QStringList const &)
	?hasWord@HbExtraUserDictionary@@QBE_NABVQString@@@Z @ 3384 NONAME ABSENT ; bool HbExtraUserDictionary::hasWord(class QString const &) const
	?setStyle@HbWidget@@QAEXPAVHbStyle@@@Z @ 3385 NONAME ; void HbWidget::setStyle(class HbStyle *)
	??0HbScrollBar@@QAE@PAVQGraphicsItem@@@Z @ 3386 NONAME ; HbScrollBar::HbScrollBar(class QGraphicsItem *)
	??1HbStyleOptionToolBarExtension@@QAE@XZ @ 3387 NONAME ABSENT ; HbStyleOptionToolBarExtension::~HbStyleOptionToolBarExtension(void)
	?changeEvent@HbDecorator@@MAEXPAVQEvent@@@Z @ 3388 NONAME ABSENT ; void HbDecorator::changeEvent(class QEvent *)
	?updateTextItem@HbGridViewItemPrivate@@QAE_NABVHbGridViewPrivate@@@Z @ 3389 NONAME ABSENT ; bool HbGridViewItemPrivate::updateTextItem(class HbGridViewPrivate const &)
	?staticMetaObject@HbPredictionFactory@@2UQMetaObject@@B @ 3390 NONAME ; struct QMetaObject const HbPredictionFactory::staticMetaObject
	?translate@HbDirectoryNameLocalizer@@QBE?AVQString@@PBD@Z @ 3391 NONAME ABSENT ; class QString HbDirectoryNameLocalizer::translate(char const *) const
	?featureName@HbInteractionPlugin@@UBEAAVQString@@XZ @ 3392 NONAME ABSENT ; class QString & HbInteractionPlugin::featureName(void) const
	?type@HbTextItem@@UBEHXZ @ 3393 NONAME ; int HbTextItem::type(void) const
	?d_func@HbStyleParameters@@AAEPAVHbStyleParametersPrivate@@XZ @ 3394 NONAME ; class HbStyleParametersPrivate * HbStyleParameters::d_func(void)
	?parse@Parser@HbCss@@QAE_NPAUStyleSheet@2@@Z @ 3395 NONAME ; bool HbCss::Parser::parse(struct HbCss::StyleSheet *)
	?sizeHint@HbStackedLayout@@UBE?AVQSizeF@@W4SizeHint@Qt@@ABV2@@Z @ 3396 NONAME ; class QSizeF HbStackedLayout::sizeHint(enum Qt::SizeHint, class QSizeF const &) const
	?qt_metacall@HbInteractionPlugin@@UAEHW4Call@QMetaObject@@HPAPAX@Z @ 3397 NONAME ABSENT ; int HbInteractionPlugin::qt_metacall(enum QMetaObject::Call, int, void * *)
	?click@HbAbstractButton@@QAEXXZ @ 3398 NONAME ; void HbAbstractButton::click(void)
	?notifyLayoutDirectionChange@HbLayoutDirectionNotifier@@QAEXXZ @ 3399 NONAME ; void HbLayoutDirectionNotifier::notifyLayoutDirectionChange(void)
	?nextState@HbInputStateMachineTaiwanChineseFinger@@UAE_NABVHbInputState@@AAV2@W4HbInputStateModifier@@@Z @ 3400 NONAME ABSENT ; bool HbInputStateMachineTaiwanChineseFinger::nextState(class HbInputState const &, class HbInputState &, enum HbInputStateModifier)
	??_EHbIndicatorPluginInterface@@UAE@I@Z @ 3401 NONAME ; HbIndicatorPluginInterface::~HbIndicatorPluginInterface(unsigned int)
	?keyReleaseEvent@HbMenu@@MAEXPAVQKeyEvent@@@Z @ 3402 NONAME ABSENT ; void HbMenu::keyReleaseEvent(class QKeyEvent *)
	?setLongpressAnimation@HbGestureSceneFilter@@QAEX_N@Z @ 3403 NONAME ABSENT ; void HbGestureSceneFilter::setLongpressAnimation(bool)
	?getStaticMetaObject@HbPopup@@SAABUQMetaObject@@XZ @ 3404 NONAME ; struct QMetaObject const & HbPopup::getStaticMetaObject(void)
	?staticMetaObject@HbDeviceDialog@@2UQMetaObject@@B @ 3405 NONAME ; struct QMetaObject const HbDeviceDialog::staticMetaObject
	?mouseMoveEvent@HbAbstractButton@@MAEXPAVQGraphicsSceneMouseEvent@@@Z @ 3406 NONAME ABSENT ; void HbAbstractButton::mouseMoveEvent(class QGraphicsSceneMouseEvent *)
	?tr@HbInteractionPluginGroup@@SA?AVQString@@PBD0H@Z @ 3407 NONAME ABSENT ; class QString HbInteractionPluginGroup::tr(char const *, char const *, int)
	?qt_metacall@HbMenu@@UAEHW4Call@QMetaObject@@HPAPAX@Z @ 3408 NONAME ; int HbMenu::qt_metacall(enum QMetaObject::Call, int, void * *)
	??1HbDirectoryNameLocalizer@@QAE@XZ @ 3409 NONAME ; HbDirectoryNameLocalizer::~HbDirectoryNameLocalizer(void)
	?staticMetaObject@HbListModel@@2UQMetaObject@@B @ 3410 NONAME ABSENT ; struct QMetaObject const HbListModel::staticMetaObject
	??8HbEditorInterface@@QBE_NABV0@@Z @ 3411 NONAME ; bool HbEditorInterface::operator==(class HbEditorInterface const &) const
	?mousePressEvent@HbScrollBar@@MAEXPAVQGraphicsSceneMouseEvent@@@Z @ 3412 NONAME ; void HbScrollBar::mousePressEvent(class QGraphicsSceneMouseEvent *)
	?trUtf8@HbLanguageDatabaseInterface@@SA?AVQString@@PBD0H@Z @ 3413 NONAME ; class QString HbLanguageDatabaseInterface::trUtf8(char const *, char const *, int)
	?testCombinator@Parser@HbCss@@QAE_NXZ @ 3414 NONAME ; bool HbCss::Parser::testCombinator(void)
	?bank@HbInputCustomButtonStore@@QAEPAVHbInputCustomButtonBank@@H@Z @ 3415 NONAME ABSENT ; class HbInputCustomButtonBank * HbInputCustomButtonStore::bank(int)
	?processDocument@HbXmlLoaderAbstractSyntax@@UAE_NXZ @ 3416 NONAME ABSENT ; bool HbXmlLoaderAbstractSyntax::processDocument(void)
	??1HbInputMethod@@UAE@XZ @ 3417 NONAME ; HbInputMethod::~HbInputMethod(void)
	?insert@HbListModel@@QAEXHPAVHbListWidgetItem@@@Z @ 3418 NONAME ABSENT ; void HbListModel::insert(int, class HbListWidgetItem *)
	?gesture@HbInteractionGestureEvent@@QBE?AW4Gesture@Ia@@XZ @ 3419 NONAME ABSENT ; enum Ia::Gesture HbInteractionGestureEvent::gesture(void) const
	?tr@HbFocusObjectWidget@@SA?AVQString@@PBD0H@Z @ 3420 NONAME ABSENT ; class QString HbFocusObjectWidget::tr(char const *, char const *, int)
	?mousePressEvent@HbScrollAreaPrivate@@QAEXPAVQGraphicsSceneMouseEvent@@@Z @ 3421 NONAME ABSENT ; void HbScrollAreaPrivate::mousePressEvent(class QGraphicsSceneMouseEvent *)
	?name@HbExtraUserDictionary@@QAE?AVQString@@XZ @ 3422 NONAME ; class QString HbExtraUserDictionary::name(void)
	?source@HbInteractionEvent@@QBEPBVQObject@@XZ @ 3423 NONAME ABSENT ; class QObject const * HbInteractionEvent::source(void) const
	?testPage@Parser@HbCss@@QAE_NXZ @ 3424 NONAME ; bool HbCss::Parser::testPage(void)
	??0HbStyleOptionMenuItem@@QAE@ABV0@@Z @ 3425 NONAME ABSENT ; HbStyleOptionMenuItem::HbStyleOptionMenuItem(class HbStyleOptionMenuItem const &)
	?qt_metacast@HbListModel@@UAEPAXPBD@Z @ 3426 NONAME ABSENT ; void * HbListModel::qt_metacast(char const *)
	??_EHbUserDictionary@@UAE@I@Z @ 3427 NONAME ; HbUserDictionary::~HbUserDictionary(unsigned int)
	?loadPlugins@HbInteractionPluginGroup@@QAEXVQString@@@Z @ 3428 NONAME ABSENT ; void HbInteractionPluginGroup::loadPlugins(class QString)
	?getAnchorEdge@HbXmlLoaderAbstractActions@@QAEHABVQString@@@Z @ 3429 NONAME ABSENT ; int HbXmlLoaderAbstractActions::getAnchorEdge(class QString const &)
	?getStaticMetaObject@HbInteractionListener@@SAABUQMetaObject@@XZ @ 3430 NONAME ABSENT ; struct QMetaObject const & HbInteractionListener::getStaticMetaObject(void)
	?reset@HbInputMethodNull@@UAEXXZ @ 3431 NONAME ; void HbInputMethodNull::reset(void)
	??0HbListWidgetViewItem@@IAE@AAVHbListWidgetViewItemPrivate@@PAVQGraphicsItem@@@Z @ 3432 NONAME ABSENT ; HbListWidgetViewItem::HbListWidgetViewItem(class HbListWidgetViewItemPrivate &, class QGraphicsItem *)
	?itemChange@HbWidget@@MAE?AVQVariant@@W4GraphicsItemChange@QGraphicsItem@@ABV2@@Z @ 3433 NONAME ; class QVariant HbWidget::itemChange(enum QGraphicsItem::GraphicsItemChange, class QVariant const &)
	?metaObject@HbMainWindow@@UBEPBUQMetaObject@@XZ @ 3434 NONAME ; struct QMetaObject const * HbMainWindow::metaObject(void) const
	??1HbInputStateMachine@@UAE@XZ @ 3435 NONAME ABSENT ; HbInputStateMachine::~HbInputStateMachine(void)
	?qt_metacast@HbInteractionManager@@UAEPAXPBD@Z @ 3436 NONAME ABSENT ; void * HbInteractionManager::qt_metacast(char const *)
	?setItemVisible@HbView@@QAEXW4SceneItem@Hb@@_N@Z @ 3437 NONAME ; void HbView::setItemVisible(enum Hb::SceneItem, bool)
	?q_func@HbViewPrivate@@ABEPBVHbView@@XZ @ 3438 NONAME ; class HbView const * HbViewPrivate::q_func(void) const
	??0HbInteractionPlugin@@QAE@ABVQString@@@Z @ 3439 NONAME ABSENT ; HbInteractionPlugin::HbInteractionPlugin(class QString const &)
	??0HbRichTextItem@@IAE@AAVHbRichTextItemPrivate@@PAVQGraphicsItem@@@Z @ 3440 NONAME ; HbRichTextItem::HbRichTextItem(class HbRichTextItemPrivate &, class QGraphicsItem *)
	??0HbGraphicsPixmapItem@@QAE@PAVQGraphicsItem@@@Z @ 3441 NONAME ABSENT ; HbGraphicsPixmapItem::HbGraphicsPixmapItem(class QGraphicsItem *)
	?trUtf8@HbView@@SA?AVQString@@PBD0H@Z @ 3442 NONAME ; class QString HbView::trUtf8(char const *, char const *, int)
	??_EHbWidget@@UAE@I@Z @ 3443 NONAME ; HbWidget::~HbWidget(unsigned int)
	??1HbStyleOptionPopup@@QAE@XZ @ 3444 NONAME ; HbStyleOptionPopup::~HbStyleOptionPopup(void)
	?tr@HbInteractionPlugin@@SA?AVQString@@PBD0@Z @ 3445 NONAME ABSENT ; class QString HbInteractionPlugin::tr(char const *, char const *)
	??0HbStyleOptionPopup@@QAE@XZ @ 3446 NONAME ; HbStyleOptionPopup::HbStyleOptionPopup(void)
	?parseSimpleSelector@Parser@HbCss@@QAE_NPAUBasicSelector@2@@Z @ 3447 NONAME ; bool HbCss::Parser::parseSimpleSelector(struct HbCss::BasicSelector *)
	?reFocus@HbFocusObjectWidget@@UAEXXZ @ 3448 NONAME ABSENT ; void HbFocusObjectWidget::reFocus(void)
	??4HbVariant@@QAEAAV0@ABV0@@Z @ 3449 NONAME ; class HbVariant & HbVariant::operator=(class HbVariant const &)
	?findMatches@HbExtraDictionaryCollection@@QAE?AVQStringList@@ABVQString@@W4CaseSensitivity@Qt@@@Z @ 3450 NONAME ; class QStringList HbExtraDictionaryCollection::findMatches(class QString const &, enum Qt::CaseSensitivity)
	??_EHbListItemContainer@@UAE@I@Z @ 3451 NONAME ABSENT ; HbListItemContainer::~HbListItemContainer(unsigned int)
	?setModel@HbListWidget@@UAEXPAVQAbstractItemModel@@PAVHbAbstractViewItem@@@Z @ 3452 NONAME ABSENT ; void HbListWidget::setModel(class QAbstractItemModel *, class HbAbstractViewItem *)
	?type@HbTreeViewItem@@UBEHXZ @ 3453 NONAME ABSENT ; int HbTreeViewItem::type(void) const
	?setNegativeCurrencySymbolOpposite@HbExtendedLocale@@QAE_N_N@Z @ 3454 NONAME ; bool HbExtendedLocale::setNegativeCurrencySymbolOpposite(bool)
	??1HbDeviceProfile@@QAE@XZ @ 3455 NONAME ; HbDeviceProfile::~HbDeviceProfile(void)
	?elementType@HbXmlLoaderAbstractSyntax@@UBE?AW4ElementType@@VQStringRef@@@Z @ 3456 NONAME ABSENT ; enum ElementType HbXmlLoaderAbstractSyntax::elementType(class QStringRef) const
	?effectRunning@HbEffect@@SA_NPAVQGraphicsItem@@ABVQString@@@Z @ 3457 NONAME ; bool HbEffect::effectRunning(class QGraphicsItem *, class QString const &)
	?tr@HbView@@SA?AVQString@@PBD0@Z @ 3458 NONAME ; class QString HbView::tr(char const *, char const *)
	?d_ptr@HbPopupBasePrivate@@CAPAV1@PAVHbPopupBase@@@Z @ 3459 NONAME ABSENT ; class HbPopupBasePrivate * HbPopupBasePrivate::d_ptr(class HbPopupBase *)
	?emitPressed@HbAbstractButtonPrivate@@QAEXXZ @ 3460 NONAME ; void HbAbstractButtonPrivate::emitPressed(void)
	?isCaseSensitiveLanguage@HbInputLanguage@@QBE_NXZ @ 3461 NONAME ; bool HbInputLanguage::isCaseSensitiveLanguage(void) const
	?qt_metacast@HbIndicator@@UAEPAXPBD@Z @ 3462 NONAME ; void * HbIndicator::qt_metacast(char const *)
	?animateTransient@HbItemHighlight@@UAEXPAVQGraphicsWidget@@@Z @ 3463 NONAME ABSENT ; void HbItemHighlight::animateTransient(class QGraphicsWidget *)
	?isCustomButtonCode@HbInputCustomButtonBank@@SA_NH@Z @ 3464 NONAME ABSENT ; bool HbInputCustomButtonBank::isCustomButtonCode(int)
	?staticMetaObject@HbStyle@@2UQMetaObject@@B @ 3465 NONAME ; struct QMetaObject const HbStyle::staticMetaObject
	?shape@HbGridViewItem@@MBE?AVQPainterPath@@XZ @ 3466 NONAME ABSENT ; class QPainterPath HbGridViewItem::shape(void) const
	?qt_metacast@HbLabel@@UAEPAXPBD@Z @ 3467 NONAME ABSENT ; void * HbLabel::qt_metacast(char const *)
	?qt_metacast@HbAbstractButton@@UAEPAXPBD@Z @ 3468 NONAME ; void * HbAbstractButton::qt_metacast(char const *)
	?polishEvent@HbWidget@@MAEXXZ @ 3469 NONAME ; void HbWidget::polishEvent(void)
	?toColor@HbVariant@@QBE?AVQColor@@XZ @ 3470 NONAME ; class QColor HbVariant::toColor(void) const
	??_EHbDeviceDialogInterface@@UAE@I@Z @ 3471 NONAME ; HbDeviceDialogInterface::~HbDeviceDialogInterface(unsigned int)
	??1HbStyleOptionDataForm@@QAE@XZ @ 3472 NONAME ; HbStyleOptionDataForm::~HbStyleOptionDataForm(void)
	?currentChanged@HbStackedWidget@@IAEXH@Z @ 3473 NONAME ; void HbStackedWidget::currentChanged(int)
	??1HbStyleOptionAbstractViewItem@@QAE@XZ @ 3474 NONAME ABSENT ; HbStyleOptionAbstractViewItem::~HbStyleOptionAbstractViewItem(void)
	??0HbWidget@@QAE@PAVQGraphicsItem@@V?$QFlags@W4WindowType@Qt@@@@@Z @ 3475 NONAME ; HbWidget::HbWidget(class QGraphicsItem *, class QFlags<enum Qt::WindowType>)
	?focusInEvent@HbGraphicsScene@@MAEXPAVQFocusEvent@@@Z @ 3476 NONAME ; void HbGraphicsScene::focusInEvent(class QFocusEvent *)
	?rawDataArea@HbExtraUserDictionary@@QBEPAVQChar@@XZ @ 3477 NONAME ; class QChar * HbExtraUserDictionary::rawDataArea(void) const
	?d_func@HbExtraDictionaryCollection@@ABEPBVHbExtraDictionaryCollectionPrivate@@XZ @ 3478 NONAME ; class HbExtraDictionaryCollectionPrivate const * HbExtraDictionaryCollection::d_func(void) const
	?errorSymbol@Parser@HbCss@@QAE?AUSymbol@2@XZ @ 3479 NONAME ; struct HbCss::Symbol HbCss::Parser::errorSymbol(void)
	?reserved_1@HbKeyMapData@@UAEXXZ @ 3480 NONAME ABSENT ; void HbKeyMapData::reserved_1(void)
	??1HbListModel@@UAE@XZ @ 3481 NONAME ABSENT ; HbListModel::~HbListModel(void)
	?attach@HbExtraUserDictionary@@QAE_NXZ @ 3482 NONAME ; bool HbExtraUserDictionary::attach(void)
	?matchF@HbStringUtil@@SAHABVQString@@0@Z @ 3483 NONAME ; int HbStringUtil::matchF(class QString const &, class QString const &)
	?setMirroringMode@HbIconItem@@QAEXW4MirroringMode@HbIcon@@@Z @ 3484 NONAME ; void HbIconItem::setMirroringMode(enum HbIcon::MirroringMode)
	?qt_metacall@HbListWidget@@UAEHW4Call@QMetaObject@@HPAPAX@Z @ 3485 NONAME ABSENT ; int HbListWidget::qt_metacall(enum QMetaObject::Call, int, void * *)
	??4HbAbstractViewItem@@IAEAAV0@ABV0@@Z @ 3486 NONAME ABSENT ; class HbAbstractViewItem & HbAbstractViewItem::operator=(class HbAbstractViewItem const &)
	?primitive@HbWidget@@UBEPAVQGraphicsItem@@W4Primitive@HbStyle@@@Z @ 3487 NONAME ; class QGraphicsItem * HbWidget::primitive(enum HbStyle::Primitive) const
	?staticMetaObject@HbGestureFilter@@2UQMetaObject@@B @ 3488 NONAME ABSENT ; struct QMetaObject const HbGestureFilter::staticMetaObject
	?predictiveInputStatusChanged@HbInputMethod@@MAEXH@Z @ 3489 NONAME ABSENT ; void HbInputMethod::predictiveInputStatusChanged(int)
	?d_func@HbAbstractItemContainer@@ABEPBVHbAbstractItemContainerPrivate@@XZ @ 3490 NONAME ABSENT ; class HbAbstractItemContainerPrivate const * HbAbstractItemContainer::d_func(void) const
	?tr@HbItemHighlight@@SA?AVQString@@PBD0H@Z @ 3491 NONAME ABSENT ; class QString HbItemHighlight::tr(char const *, char const *, int)
	?lexem@Parser@HbCss@@QBE?AVQString@@XZ @ 3492 NONAME ; class QString HbCss::Parser::lexem(void) const
	?addText@HbListWidgetItem@@QAEXABVQString@@W4ListContentType@1@W4ContentVisibility@1@@Z @ 3493 NONAME ABSENT ; void HbListWidgetItem::addText(class QString const &, enum HbListWidgetItem::ListContentType, enum HbListWidgetItem::ContentVisibility)
	??0HbFocusObjectGraphicsWidget@@QAE@PAVQGraphicsWidget@@@Z @ 3494 NONAME ABSENT ; HbFocusObjectGraphicsWidget::HbFocusObjectGraphicsWidget(class QGraphicsWidget *)
	?globalSecondaryInputLanguageChanged@HbInputMethod@@QAEXABVHbInputLanguage@@@Z @ 3495 NONAME ; void HbInputMethod::globalSecondaryInputLanguageChanged(class HbInputLanguage const &)
	?setAutoRepeatDelay@HbAbstractButton@@QAEXH@Z @ 3496 NONAME ; void HbAbstractButton::setAutoRepeatDelay(int)
	?isEnabled@HbInteractionListener@@UAE_NXZ @ 3497 NONAME ABSENT ; bool HbInteractionListener::isEnabled(void)
	??1HbItemHighlight@@UAE@XZ @ 3498 NONAME ABSENT ; HbItemHighlight::~HbItemHighlight(void)
	?currencyDecimalPlaces@HbExtendedLocale@@QBEHXZ @ 3499 NONAME ; int HbExtendedLocale::currencyDecimalPlaces(void) const
	?testExpr@Parser@HbCss@@QAE_NXZ @ 3500 NONAME ; bool HbCss::Parser::testExpr(void)
	??0HbGridViewItem@@IAE@AAVHbGridViewItemPrivate@@PAVQGraphicsItem@@@Z @ 3501 NONAME ABSENT ; HbGridViewItem::HbGridViewItem(class HbGridViewItemPrivate &, class QGraphicsItem *)
	??1HbFontSpec@@QAE@XZ @ 3502 NONAME ; HbFontSpec::~HbFontSpec(void)
	?lengthValue@ValueExtractor@HbCss@@QAEHABUDeclaration@2@@Z @ 3503 NONAME ABSENT ; int HbCss::ValueExtractor::lengthValue(struct HbCss::Declaration const &)
	?extractStyleFeatures@ValueExtractor@HbCss@@QAEHXZ @ 3504 NONAME ABSENT ; int HbCss::ValueExtractor::extractStyleFeatures(void)
	?firstState@HbInputStateMachineLatin@@UBEXAAVHbInputState@@@Z @ 3505 NONAME ABSENT ; void HbInputStateMachineLatin::firstState(class HbInputState &) const
	?rowCount@HbListWidgetItem@@QBEHW4ListItemColumn@1@@Z @ 3506 NONAME ABSENT ; int HbListWidgetItem::rowCount(enum HbListWidgetItem::ListItemColumn) const
	??0HbToolBar@@IAE@AAVHbToolBarPrivate@@PAVQGraphicsItem@@@Z @ 3507 NONAME ; HbToolBar::HbToolBar(class HbToolBarPrivate &, class QGraphicsItem *)
	??0HbInteractionManager@@QAE@PAVQObject@@@Z @ 3508 NONAME ABSENT ; HbInteractionManager::HbInteractionManager(class QObject *)
	?size@HbIcon@@QBE?AVQSizeF@@XZ @ 3509 NONAME ; class QSizeF HbIcon::size(void) const
	?pixelMetric@HbStyleOld@@QBEMW4PixelMetric@QStyle@@PBVQStyleOptionGraphicsItem@@PBVQWidget@@@Z @ 3510 NONAME ABSENT ; float HbStyleOld::pixelMetric(enum QStyle::PixelMetric, class QStyleOptionGraphicsItem const *, class QWidget const *) const
	??_EHbInputStateMachinePrcChineseFinger@@UAE@I@Z @ 3511 NONAME ABSENT ; HbInputStateMachinePrcChineseFinger::~HbInputStateMachinePrcChineseFinger(unsigned int)
	??1HbDecorator@@UAE@XZ @ 3512 NONAME ABSENT ; HbDecorator::~HbDecorator(void)
	?mouseMoveEvent@HbAbstractItemView@@MAEXPAVQGraphicsSceneMouseEvent@@@Z @ 3513 NONAME ABSENT ; void HbAbstractItemView::mouseMoveEvent(class QGraphicsSceneMouseEvent *)
	?focusObjectType@HbFocusObjectWidget@@UBEHXZ @ 3514 NONAME ABSENT ; int HbFocusObjectWidget::focusObjectType(void) const
	??0HbStyleOptionToolButton@@QAE@ABV0@@Z @ 3515 NONAME ; HbStyleOptionToolButton::HbStyleOptionToolButton(class HbStyleOptionToolButton const &)
	?isRightToLeftLanguage@HbInputLanguage@@QBE_NXZ @ 3516 NONAME ; bool HbInputLanguage::isRightToLeftLanguage(void) const
	?loadWidgetML@HbWidgetStyleLoader@@QAE_NPAVHbWidget@@ABVQString@@1@Z @ 3517 NONAME ; bool HbWidgetStyleLoader::loadWidgetML(class HbWidget *, class QString const &, class QString const &)
	?trUtf8@HbDockWidget@@SA?AVQString@@PBD0@Z @ 3518 NONAME ; class QString HbDockWidget::trUtf8(char const *, char const *)
	?setDecorationRole@HbListViewItemPrivate@@QAEXVQVariant@@H@Z @ 3519 NONAME ABSENT ; void HbListViewItemPrivate::setDecorationRole(class QVariant, int)
	?setKeyForFocusMode@HbFocusGroup@@QAEXABVQKeySequence@@@Z @ 3520 NONAME ; void HbFocusGroup::setKeyForFocusMode(class QKeySequence const &)
	?memoryType@HbEffectFxmlData@@QBE?AW4MemoryType@HbMemoryManager@@XZ @ 3521 NONAME ; enum HbMemoryManager::MemoryType HbEffectFxmlData::memoryType(void) const
	?type@HbDockWidget@@UBEHXZ @ 3522 NONAME ; int HbDockWidget::type(void) const
	?gestureStopped@HbInteractionManager@@SAXPBVHbWidget@@W4Gesture@Ia@@@Z @ 3523 NONAME ABSENT ; void HbInteractionManager::gestureStopped(class HbWidget const *, enum Ia::Gesture)
	?titlePane@HbTitleBar@@QBEPAVHbTitlePane@@XZ @ 3524 NONAME ; class HbTitlePane * HbTitleBar::titlePane(void) const
	?tr@HbWidgetBase@@SA?AVQString@@PBD0H@Z @ 3525 NONAME ; class QString HbWidgetBase::tr(char const *, char const *, int)
	?d_func@HbWidgetBase@@AAEPAVHbWidgetBasePrivate@@XZ @ 3526 NONAME ; class HbWidgetBasePrivate * HbWidgetBase::d_func(void)
	?addAction@HbViewActionManager@@QAEXPAVHbAction@@W4ActionContainer@HbView@@@Z @ 3527 NONAME ABSENT ; void HbViewActionManager::addAction(class HbAction *, enum HbView::ActionContainer)
	?unsetSharing@HbEffectController@@QAEXXZ @ 3528 NONAME ; void HbEffectController::unsetSharing(void)
	?updateIconItem@HbGridViewItemPrivate@@QAEXABVHbGridViewPrivate@@@Z @ 3529 NONAME ABSENT ; void HbGridViewItemPrivate::updateIconItem(class HbGridViewPrivate const &)
	?focusChangeEvent@HbWidgetPrivate@@QAEXW4FocusHighlight@HbWidget@@@Z @ 3530 NONAME ; void HbWidgetPrivate::focusChangeEvent(enum HbWidget::FocusHighlight)
	?cancel@HbEffect@@SA_NPAVQGraphicsItem@@ABVQString@@_N22@Z @ 3531 NONAME ; bool HbEffect::cancel(class QGraphicsItem *, class QString const &, bool, bool, bool)
	?updateIndicators@HbScrollAreaPrivate@@QAEXVQPointF@@@Z @ 3532 NONAME ABSENT ; void HbScrollAreaPrivate::updateIndicators(class QPointF)
	?setContentWidget@HbDialog@@QAEXPAVQGraphicsWidget@@@Z @ 3533 NONAME ; void HbDialog::setContentWidget(class QGraphicsWidget *)
	?getValue@HbEffectFxmlParamData@@QBE?AVQString@@XZ @ 3534 NONAME ; class QString HbEffectFxmlParamData::getValue(void) const
	?headingWidget@HbDialog@@QBEPAVQGraphicsWidget@@XZ @ 3535 NONAME ; class QGraphicsWidget * HbDialog::headingWidget(void) const
	?closeEvent@HbDialog@@MAEXPAVQCloseEvent@@@Z @ 3536 NONAME ; void HbDialog::closeEvent(class QCloseEvent *)
	??1HbDialog@@UAE@XZ @ 3537 NONAME ; HbDialog::~HbDialog(void)
	?secondaryAction@HbDialog@@QBEPAVHbAction@@XZ @ 3538 NONAME ; class HbAction * HbDialog::secondaryAction(void) const
	?createPrimitives@HbScrollAreaPrivate@@QAEXXZ @ 3539 NONAME ; void HbScrollAreaPrivate::createPrimitives(void)
	?trUtf8@HbDockWidget@@SA?AVQString@@PBD0H@Z @ 3540 NONAME ; class QString HbDockWidget::trUtf8(char const *, char const *, int)
	?qt_metacast@HbViewActionManager@@UAEPAXPBD@Z @ 3541 NONAME ; void * HbViewActionManager::qt_metacast(char const *)
	?dockWidget@HbView@@QBEPAVHbDockWidget@@XZ @ 3542 NONAME ; class HbDockWidget * HbView::dockWidget(void) const
	?isChildrenRegistered@HbFocusGroup@@QBE_NXZ @ 3543 NONAME ; bool HbFocusGroup::isChildrenRegistered(void) const
	?appendFilterData@HbEffectFxmlData@@QAEXABVHbEffectFxmlFilterData@@@Z @ 3544 NONAME ; void HbEffectFxmlData::appendFilterData(class HbEffectFxmlFilterData const &)
	?type@HbEffectFxmlFilterData@@QBE?AVQString@@XZ @ 3545 NONAME ; class QString HbEffectFxmlFilterData::type(void) const
	??1HbEffectXmlParser@@QAE@XZ @ 3546 NONAME ; HbEffectXmlParser::~HbEffectXmlParser(void)
	?removePath@HbPluginNameCache@@AAEXABVQString@@@Z @ 3547 NONAME ; void HbPluginNameCache::removePath(class QString const &)
	?reloadFxmlFiles@HbEffectInternal@@SAXXZ @ 3548 NONAME ; void HbEffectInternal::reloadFxmlFiles(void)
	??_EHbPluginNameCache@@UAE@I@Z @ 3549 NONAME ; HbPluginNameCache::~HbPluginNameCache(unsigned int)
	?setBlending@HbEffectFxmlFilterData@@QAEXABVQString@@@Z @ 3550 NONAME ; void HbEffectFxmlFilterData::setBlending(class QString const &)
	?setFocusHighlight@HbWidget@@QAEXW4Primitive@HbStyle@@W4FocusHighlight@1@@Z @ 3551 NONAME ABSENT ; void HbWidget::setFocusHighlight(enum HbStyle::Primitive, enum HbWidget::FocusHighlight)
	?print@HbPluginNameCache@@QAEXXZ @ 3552 NONAME ; void HbPluginNameCache::print(void)
	?flicked@HbInteractionListener@@MAEXPBVHbWidget@@@Z @ 3553 NONAME ABSENT ; void HbInteractionListener::flicked(class HbWidget const *)
	?blending@HbEffectFxmlFilterData@@QBE?AVQString@@XZ @ 3554 NONAME ; class QString HbEffectFxmlFilterData::blending(void) const
	??1HbWidgetBase@@UAE@XZ @ 3555 NONAME ; HbWidgetBase::~HbWidgetBase(void)
	?format@HbExtendedLocale@@QAE?AVQString@@ABVQTime@@ABV2@@Z @ 3556 NONAME ; class QString HbExtendedLocale::format(class QTime const &, class QString const &)
	??1HbEffectFxmlData@@QAE@XZ @ 3557 NONAME ; HbEffectFxmlData::~HbEffectFxmlData(void)
	?contiguousSelectionArea@HbGridViewItem@@UBE?AVQRectF@@XZ @ 3558 NONAME ABSENT ; class QRectF HbGridViewItem::contiguousSelectionArea(void) const
	??1HbEffectFxmlFilterData@@QAE@XZ @ 3559 NONAME ; HbEffectFxmlFilterData::~HbEffectFxmlFilterData(void)
	?allowOverride@HbInputMethod@@UBE_NABVHbInputMode@@@Z @ 3560 NONAME ABSENT ; bool HbInputMethod::allowOverride(class HbInputMode const &) const
	?d_func@HbDialog@@ABEPBVHbDialogPrivate@@XZ @ 3561 NONAME ; class HbDialogPrivate const * HbDialog::d_func(void) const
	?scanDirectory@HbPluginNameCache@@QAEXABVQString@@@Z @ 3562 NONAME ABSENT ; void HbPluginNameCache::scanDirectory(class QString const &)
	?setWorkDays@HbExtendedLocale@@QAE_NABVQString@@@Z @ 3563 NONAME ; bool HbExtendedLocale::setWorkDays(class QString const &)
	??_EHbWidgetBasePrivate@@UAE@I@Z @ 3564 NONAME ; HbWidgetBasePrivate::~HbWidgetBasePrivate(unsigned int)
	?q_func@HbWidgetBasePrivate@@ABEPBVHbWidgetBase@@XZ @ 3565 NONAME ; class HbWidgetBase const * HbWidgetBasePrivate::q_func(void) const
	?keyForFocusPreviousChild@HbWidget@@QBE?AVQKeySequence@@XZ @ 3566 NONAME ; class QKeySequence HbWidget::keyForFocusPreviousChild(void) const
	?setHeadingWidget@HbDialog@@QAEXPAVQGraphicsWidget@@@Z @ 3567 NONAME ; void HbDialog::setHeadingWidget(class QGraphicsWidget *)
	?color@HbIcon@@QBE?AVQColor@@XZ @ 3568 NONAME ; class QColor HbIcon::color(void) const
	??_EHbDialogPrivate@@UAE@I@Z @ 3569 NONAME ; HbDialogPrivate::~HbDialogPrivate(unsigned int)
	?removeAction@HbViewActionManager@@AAEXPAVHbAction@@_N@Z @ 3570 NONAME ABSENT ; void HbViewActionManager::removeAction(class HbAction *, bool)
	?registerChildren@HbFocusGroup@@QAEXPAVQGraphicsItem@@@Z @ 3571 NONAME ; void HbFocusGroup::registerChildren(class QGraphicsItem *)
	?setDefaultContainer@HbViewActionManager@@QAEXABVQString@@@Z @ 3572 NONAME ; void HbViewActionManager::setDefaultContainer(class QString const &)
	?readVisualData@HbEffectXmlParser@@AAEXXZ @ 3573 NONAME ; void HbEffectXmlParser::readVisualData(void)
	?qt_metacall@HbDockWidget@@UAEHW4Call@QMetaObject@@HPAPAX@Z @ 3574 NONAME ; int HbDockWidget::qt_metacall(enum QMetaObject::Call, int, void * *)
	??1HbEffectController@@QAE@XZ @ 3575 NONAME ; HbEffectController::~HbEffectController(void)
	??0HbEffectController@@QAE@XZ @ 3576 NONAME ; HbEffectController::HbEffectController(void)
	?_q_releaseAnimationFinished@HbAbstractViewItemPrivate@@QAEXABUEffectStatus@HbEffect@@@Z @ 3577 NONAME ABSENT ; void HbAbstractViewItemPrivate::_q_releaseAnimationFinished(struct HbEffect::EffectStatus const &)
	?staticMetaObject@HbTitleBar@@2UQMetaObject@@B @ 3578 NONAME ; struct QMetaObject const HbTitleBar::staticMetaObject
	?event@HbDialog@@MAE_NPAVQEvent@@@Z @ 3579 NONAME ; bool HbDialog::event(class QEvent *)
	?appendParamData@HbEffectFxmlData@@QAEXABVHbEffectFxmlParamData@@@Z @ 3580 NONAME ; void HbEffectFxmlData::appendParamData(class HbEffectFxmlParamData const &)
	?changeFocusMode@HbFocusGroup@@QAEXXZ @ 3581 NONAME ; void HbFocusGroup::changeFocusMode(void)
	??1HbViewActionManager@@UAE@XZ @ 3582 NONAME ; HbViewActionManager::~HbViewActionManager(void)
	?containerActions@HbViewActionManager@@AAE?AV?$QList@PAVQAction@@@@W4ActionContainer@HbView@@@Z @ 3583 NONAME ; class QList<class QAction *> HbViewActionManager::containerActions(enum HbView::ActionContainer)
	?setInputMethodHints@HbFocusObjectGraphicsWidget@@UAEXV?$QFlags@W4InputMethodHint@Qt@@@@@Z @ 3584 NONAME ABSENT ; void HbFocusObjectGraphicsWidget::setInputMethodHints(class QFlags<enum Qt::InputMethodHint>)
	??_EHbFormattedNumbersFilter@@UAE@I@Z @ 3585 NONAME ; HbFormattedNumbersFilter::~HbFormattedNumbersFilter(unsigned int)
	?pressStateChanged@HbAbstractViewItem@@MAEX_N@Z @ 3586 NONAME ABSENT ; void HbAbstractViewItem::pressStateChanged(bool)
	?removeAction@HbViewActionManager@@QAEXPAVHbAction@@@Z @ 3587 NONAME ABSENT ; void HbViewActionManager::removeAction(class HbAction *)
	??0HbStyleOptionGroupBox@@QAE@ABV0@@Z @ 3588 NONAME ; HbStyleOptionGroupBox::HbStyleOptionGroupBox(class HbStyleOptionGroupBox const &)
	?addWatchPath@HbPluginNameCache@@QAEXABVQString@@@Z @ 3589 NONAME ABSENT ; void HbPluginNameCache::addWatchPath(class QString const &)
	??0HbEffectFxmlParamData@@QAE@ABV0@@Z @ 3590 NONAME ; HbEffectFxmlParamData::HbEffectFxmlParamData(class HbEffectFxmlParamData const &)
	?unLoadIcon@HbIconLoader@@QAEXABVQString@@ABVQSizeF@@W4AspectRatioMode@Qt@@W4Mode@QIcon@@_NV?$QFlags@W4IconLoaderOption@HbIconLoader@@@@ABVQColor@@@Z @ 3591 NONAME ABSENT ; void HbIconLoader::unLoadIcon(class QString const &, class QSizeF const &, enum Qt::AspectRatioMode, enum QIcon::Mode, bool, class QFlags<enum HbIconLoader::IconLoaderOption>, class QColor const &)
	?setPrimaryAction@HbDialog@@QAEXPAVHbAction@@@Z @ 3592 NONAME ; void HbDialog::setPrimaryAction(class HbAction *)
	?unregisterChildren@HbFocusGroup@@QAEXPAVQGraphicsItem@@@Z @ 3593 NONAME ; void HbFocusGroup::unregisterChildren(class QGraphicsItem *)
	?readParamData@HbEffectXmlParser@@AAE?AVHbEffectFxmlParamData@@XZ @ 3594 NONAME ; class HbEffectFxmlParamData HbEffectXmlParser::readParamData(void)
	?getStaticMetaObject@HbPluginNameCache@@SAABUQMetaObject@@XZ @ 3595 NONAME ; struct QMetaObject const & HbPluginNameCache::getStaticMetaObject(void)
	?trUtf8@HbWidgetBase@@SA?AVQString@@PBD0@Z @ 3596 NONAME ; class QString HbWidgetBase::trUtf8(char const *, char const *)
	?updateCurrentFocusChild@HbWidgetPrivate@@QAEXXZ @ 3597 NONAME ; void HbWidgetPrivate::updateCurrentFocusChild(void)
	?filterData@HbEffectFxmlData@@QBE?AV?$QList@VHbEffectFxmlFilterData@@@@XZ @ 3598 NONAME ; class QList<class HbEffectFxmlFilterData> HbEffectFxmlData::filterData(void) const
	?paramData@HbEffectFxmlData@@QBE?AV?$QList@VHbEffectFxmlParamData@@@@XZ @ 3599 NONAME ; class QList<class HbEffectFxmlParamData> HbEffectFxmlData::paramData(void) const
	?changeEvent@HbDialog@@MAEXPAVQEvent@@@Z @ 3600 NONAME ; void HbDialog::changeEvent(class QEvent *)
	?setFocusLooping@HbFocusGroup@@QAEX_N@Z @ 3601 NONAME ; void HbFocusGroup::setFocusLooping(bool)
	?getStaticMetaObject@HbTitleBar@@SAABUQMetaObject@@XZ @ 3602 NONAME ; struct QMetaObject const & HbTitleBar::getStaticMetaObject(void)
	??1HbFormattedNumbersFilter@@UAE@XZ @ 3603 NONAME ; HbFormattedNumbersFilter::~HbFormattedNumbersFilter(void)
	?metaObject@HbTitleBar@@UBEPBUQMetaObject@@XZ @ 3604 NONAME ; struct QMetaObject const * HbTitleBar::metaObject(void) const
	?setFocusDelegation@HbWidget@@QAEXW4FocusDelegation@1@@Z @ 3605 NONAME ; void HbWidget::setFocusDelegation(enum HbWidget::FocusDelegation)
	??0HbWidgetBase@@QAE@PAVQGraphicsItem@@V?$QFlags@W4WindowType@Qt@@@@@Z @ 3606 NONAME ; HbWidgetBase::HbWidgetBase(class QGraphicsItem *, class QFlags<enum Qt::WindowType>)
	?formatGeneric@HbNumberGrouping@@SA?AVQString@@AAV2@W4Country@QLocale@@@Z @ 3607 NONAME ABSENT ; class QString HbNumberGrouping::formatGeneric(class QString &, enum QLocale::Country)
	?tr@HbDockWidget@@SA?AVQString@@PBD0@Z @ 3608 NONAME ; class QString HbDockWidget::tr(char const *, char const *)
	??0HbEffectFxmlData@@QAE@ABV0@@Z @ 3609 NONAME ; HbEffectFxmlData::HbEffectFxmlData(class HbEffectFxmlData const &)
	?metaObject@HbDockWidget@@UBEPBUQMetaObject@@XZ @ 3610 NONAME ; struct QMetaObject const * HbDockWidget::metaObject(void) const
	?append@HbEffectFxmlParamData@@QAEXABUHbKeyFrame@@@Z @ 3611 NONAME ; void HbEffectFxmlParamData::append(struct HbKeyFrame const &)
	?setFocusOrder@HbFocusGroup@@QAEXPAVQGraphicsItem@@0@Z @ 3612 NONAME ; void HbFocusGroup::setFocusOrder(class QGraphicsItem *, class QGraphicsItem *)
	??1HbEffectFxmlParamData@@QAE@XZ @ 3613 NONAME ; HbEffectFxmlParamData::~HbEffectFxmlParamData(void)
	?readFilterData@HbEffectXmlParser@@AAEXXZ @ 3614 NONAME ; void HbEffectXmlParser::readFilterData(void)
	?addFXML@HbEffectController@@QAE_NABVQString@@00_N@Z @ 3615 NONAME ; bool HbEffectController::addFXML(class QString const &, class QString const &, class QString const &, bool)
	?mouseReleaseEvent@HbTreeViewItem@@MAEXPAVQGraphicsSceneMouseEvent@@@Z @ 3616 NONAME ABSENT ; void HbTreeViewItem::mouseReleaseEvent(class QGraphicsSceneMouseEvent *)
	?setStartRef@HbEffectFxmlParamData@@QAEXABVQString@@@Z @ 3617 NONAME ; void HbEffectFxmlParamData::setStartRef(class QString const &)
	?unregisterPlugin@HbStyle@@QAEXABVQString@@@Z @ 3618 NONAME ABSENT ; void HbStyle::unregisterPlugin(class QString const &)
	??0HbEffectFxmlFilterData@@QAE@ABV0@@Z @ 3619 NONAME ; HbEffectFxmlFilterData::HbEffectFxmlFilterData(class HbEffectFxmlFilterData const &)
	?triggered@HbInteractionListener@@MAEXPBVHbWidget@@W4Interaction@Ia@@V?$QFlags@W4Modifier@Ia@@@@@Z @ 3620 NONAME ABSENT ; void HbInteractionListener::triggered(class HbWidget const *, enum Ia::Interaction, class QFlags<enum Ia::Modifier>)
	?registerItem@HbFocusGroup@@QAEXPAVQGraphicsItem@@@Z @ 3621 NONAME ; void HbFocusGroup::registerItem(class QGraphicsItem *)
	??1HbDialogPrivate@@UAE@XZ @ 3622 NONAME ; HbDialogPrivate::~HbDialogPrivate(void)
	?tr@HbPluginNameCache@@SA?AVQString@@PBD0@Z @ 3623 NONAME ; class QString HbPluginNameCache::tr(char const *, char const *)
	?triggered@HbInteractionManager@@SAXPBVHbWidget@@W4Interaction@Ia@@V?$QFlags@W4Modifier@Ia@@@@@Z @ 3624 NONAME ABSENT ; void HbInteractionManager::triggered(class HbWidget const *, enum Ia::Interaction, class QFlags<enum Ia::Modifier>)
	?readUnknownElement@HbEffectXmlParser@@AAEXXZ @ 3625 NONAME ; void HbEffectXmlParser::readUnknownElement(void)
	?addGuideItem@HbViewActionManager@@QAEXABVGuideItem@1@@Z @ 3626 NONAME ; void HbViewActionManager::addGuideItem(class HbViewActionManager::GuideItem const &)
	?removePlugins@HbInteractionPluginGroup@@QAEXXZ @ 3627 NONAME ABSENT ; void HbInteractionPluginGroup::removePlugins(void)
	?hasFocusLooping@HbFocusGroup@@QBE_NXZ @ 3628 NONAME ; bool HbFocusGroup::hasFocusLooping(void) const
	?hasFocusLooping@HbWidget@@QBE_NXZ @ 3629 NONAME ; bool HbWidget::hasFocusLooping(void) const
	?readVisuals@HbEffectXmlParser@@AAEXXZ @ 3630 NONAME ; void HbEffectXmlParser::readVisuals(void)
	??0ValueExtractor@HbCss@@QAE@ABV?$QVector@UDeclaration@HbCss@@@@0ABVHbDeviceProfile@@ABVQPalette@@@Z @ 3631 NONAME ABSENT ; HbCss::ValueExtractor::ValueExtractor(class QVector<struct HbCss::Declaration> const &, class QVector<struct HbCss::Declaration> const &, class HbDeviceProfile const &, class QPalette const &)
	?memoryType@HbEffectFxmlFilterData@@QBE?AW4MemoryType@HbMemoryManager@@XZ @ 3632 NONAME ; enum HbMemoryManager::MemoryType HbEffectFxmlFilterData::memoryType(void) const
	?qt_metacast@HbPluginNameCache@@UAEPAXPBD@Z @ 3633 NONAME ; void * HbPluginNameCache::qt_metacast(char const *)
	?loadIcon@HbIconLoader@@QAEPAVHbIconImpl@@ABVQString@@W4IconDataType@1@W4Purpose@1@ABVQSizeF@@W4AspectRatioMode@Qt@@W4Mode@QIcon@@V?$QFlags@W4IconLoaderOption@HbIconLoader@@@@PAPAVHbIconAnimation@@ABVQColor@@@Z @ 3634 NONAME ABSENT ; class HbIconImpl * HbIconLoader::loadIcon(class QString const &, enum HbIconLoader::IconDataType, enum HbIconLoader::Purpose, class QSizeF const &, enum Qt::AspectRatioMode, enum QIcon::Mode, class QFlags<enum HbIconLoader::IconLoaderOption>, class HbIconAnimation * *, class QColor const &)
	?isFeatureEnabled@HbPredictionEngine@@UAE_NV?$QFlags@W4HbInputPredictionFeatureFlag@@@@@Z @ 3635 NONAME ; bool HbPredictionEngine::isFeatureEnabled(class QFlags<enum HbInputPredictionFeatureFlag>)
	?directoryPath@HbPluginNameCache@@SA?AVQString@@ABV2@@Z @ 3636 NONAME ; class QString HbPluginNameCache::directoryPath(class QString const &)
	?setName@HbEffectFxmlParamData@@QAEXABVQString@@@Z @ 3637 NONAME ; void HbEffectFxmlParamData::setName(class QString const &)
	?filter@HbFormattedNumbersFilter@@UAE_NVQChar@@@Z @ 3638 NONAME ; bool HbFormattedNumbersFilter::filter(class QChar)
	?displayPrimitive@HbListViewItemPrivate@@QBE?AW4Primitive@HbStyle@@XZ @ 3639 NONAME ABSENT ; enum HbStyle::Primitive HbListViewItemPrivate::displayPrimitive(void) const
	??0HbWidgetBasePrivate@@QAE@XZ @ 3640 NONAME ; HbWidgetBasePrivate::HbWidgetBasePrivate(void)
	?enableFeature@HbPredictionEngine@@UAE_NV?$QFlags@W4HbInputPredictionFeatureFlag@@@@@Z @ 3641 NONAME ; bool HbPredictionEngine::enableFeature(class QFlags<enum HbInputPredictionFeatureFlag>)
	?setWidget@HbDockWidget@@QAEXPAVQGraphicsWidget@@@Z @ 3642 NONAME ; void HbDockWidget::setWidget(class QGraphicsWidget *)
	?orientationChanged@HbViewActionManager@@QAEXW4Orientation@Qt@@@Z @ 3643 NONAME ; void HbViewActionManager::orientationChanged(enum Qt::Orientation)
	?d_func@HbWidgetBase@@ABEPBVHbWidgetBasePrivate@@XZ @ 3644 NONAME ; class HbWidgetBasePrivate const * HbWidgetBase::d_func(void) const
	?isInteractive@HbScrollBar@@QBE_NXZ @ 3645 NONAME ; bool HbScrollBar::isInteractive(void) const
	?clicked@HbInteractionListener@@MAEXPBVHbWidget@@@Z @ 3646 NONAME ABSENT ; void HbInteractionListener::clicked(class HbWidget const *)
	?updatePrimitives@HbTreeViewItem@@UAEXXZ @ 3647 NONAME ABSENT ; void HbTreeViewItem::updatePrimitives(void)
	?lastFocusedChild@HbWidget@@QBEPAVQGraphicsItem@@XZ @ 3648 NONAME ; class QGraphicsItem * HbWidget::lastFocusedChild(void) const
	?fromTheme@HbEffectInfo@@QBE_NXZ @ 3649 NONAME ; bool HbEffectInfo::fromTheme(void) const
	??_EHbWidgetBase@@UAE@I@Z @ 3650 NONAME ; HbWidgetBase::~HbWidgetBase(unsigned int)
	?trUtf8@HbWidgetBase@@SA?AVQString@@PBD0H@Z @ 3651 NONAME ; class QString HbWidgetBase::trUtf8(char const *, char const *, int)
	?q_func@HbDialogPrivate@@ABEPBVHbDialog@@XZ @ 3652 NONAME ; class HbDialog const * HbDialogPrivate::q_func(void) const
	?extractValue@ValueExtractor@HbCss@@QAE_NABVQString@@AAM@Z @ 3653 NONAME ABSENT ; bool HbCss::ValueExtractor::extractValue(class QString const &, float &)
	?setKeyForFocusNextChild@HbFocusGroup@@QAEXABVQKeySequence@@@Z @ 3654 NONAME ; void HbFocusGroup::setKeyForFocusNextChild(class QKeySequence const &)
	??1HbTitleBar@@UAE@XZ @ 3655 NONAME ; HbTitleBar::~HbTitleBar(void)
	?memoryType@HbString@@QBE?AW4MemoryType@HbMemoryManager@@XZ @ 3656 NONAME ; enum HbMemoryManager::MemoryType HbString::memoryType(void) const
	?setPressed@HbAbstractViewItem@@QAEX_N0@Z @ 3657 NONAME ABSENT ; void HbAbstractViewItem::setPressed(bool, bool)
	?setCurrencySymbol@HbExtendedLocale@@QAE_NABVQString@@@Z @ 3658 NONAME ; bool HbExtendedLocale::setCurrencySymbol(class QString const &)
	??1HbStyleOptionGroupBox@@QAE@XZ @ 3659 NONAME ; HbStyleOptionGroupBox::~HbStyleOptionGroupBox(void)
	?findNextPrevItem@HbFocusGroup@@ABE?AUChildInfo@1@PAVQGraphicsItem@@_N@Z @ 3660 NONAME ; struct HbFocusGroup::ChildInfo HbFocusGroup::findNextPrevItem(class QGraphicsItem *, bool) const
	?metaObject@HbViewActionManager@@UBEPBUQMetaObject@@XZ @ 3661 NONAME ; struct QMetaObject const * HbViewActionManager::metaObject(void) const
	?qt_metacast@HbTitleBar@@UAEPAXPBD@Z @ 3662 NONAME ; void * HbTitleBar::qt_metacast(char const *)
	?directoryChanged@HbPluginNameCache@@AAEXABVQString@@@Z @ 3663 NONAME ; void HbPluginNameCache::directoryChanged(class QString const &)
	?loadIcon@HbIconLoader@@QAE?AVQPixmap@@ABVQString@@W4Purpose@1@ABVQSizeF@@W4AspectRatioMode@Qt@@W4Mode@QIcon@@V?$QFlags@W4IconLoaderOption@HbIconLoader@@@@PAPAVHbIconAnimation@@ABVQColor@@@Z @ 3664 NONAME ABSENT ; class QPixmap HbIconLoader::loadIcon(class QString const &, enum HbIconLoader::Purpose, class QSizeF const &, enum Qt::AspectRatioMode, enum QIcon::Mode, class QFlags<enum HbIconLoader::IconLoaderOption>, class HbIconAnimation * *, class QColor const &)
	?addEffectDefinitionFile@HbEffectController@@AAE_NABVQString@@PAVQGraphicsItem@@00_N@Z @ 3665 NONAME ; bool HbEffectController::addEffectDefinitionFile(class QString const &, class QGraphicsItem *, class QString const &, class QString const &, bool)
	?qt_metacall@HbDialog@@UAEHW4Call@QMetaObject@@HPAPAX@Z @ 3666 NONAME ; int HbDialog::qt_metacall(enum QMetaObject::Call, int, void * *)
	??1HbFocusGroup@@UAE@XZ @ 3667 NONAME ; HbFocusGroup::~HbFocusGroup(void)
	?isNull@HbEffectFxmlData@@QBE_NXZ @ 3668 NONAME ; bool HbEffectFxmlData::isNull(void) const
	?setContinuationIndicators@HbScrollArea@@QAEX_N@Z @ 3669 NONAME ; void HbScrollArea::setContinuationIndicators(bool)
	?setDuration@HbEffectFxmlParamData@@QAEXABVQString@@@Z @ 3670 NONAME ; void HbEffectFxmlParamData::setDuration(class QString const &)
	?released@HbInteractionListener@@MAEXPBVHbWidget@@@Z @ 3671 NONAME ABSENT ; void HbInteractionListener::released(class HbWidget const *)
	?qt_metacast@HbDockWidget@@UAEPAXPBD@Z @ 3672 NONAME ; void * HbDockWidget::qt_metacast(char const *)
	??0HbDockWidget@@QAE@PAVQGraphicsItem@@@Z @ 3673 NONAME ; HbDockWidget::HbDockWidget(class QGraphicsItem *)
	?disableFeature@HbPredictionEngine@@UAE_NV?$QFlags@W4HbInputPredictionFeatureFlag@@@@@Z @ 3674 NONAME ; bool HbPredictionEngine::disableFeature(class QFlags<enum HbInputPredictionFeatureFlag>)
	?startOfWeek@HbExtendedLocale@@QBE?AW4WeekDay@1@XZ @ 3675 NONAME ; enum HbExtendedLocale::WeekDay HbExtendedLocale::startOfWeek(void) const
	??0HbEffectFxmlFilterData@@QAE@W4MemoryType@HbMemoryManager@@@Z @ 3676 NONAME ; HbEffectFxmlFilterData::HbEffectFxmlFilterData(enum HbMemoryManager::MemoryType)
	?isItemRegistered@HbFocusGroup@@QBE_NPAVQGraphicsItem@@@Z @ 3677 NONAME ; bool HbFocusGroup::isItemRegistered(class QGraphicsItem *) const
	?effectEntries@HbEffectController@@QBE?AV?$QList@VHbEffectInfo@@@@XZ @ 3678 NONAME ; class QList<class HbEffectInfo> HbEffectController::effectEntries(void) const
	?gestureStopped@HbInteractionListener@@MAEXPBVHbWidget@@W4Gesture@Ia@@@Z @ 3679 NONAME ABSENT ; void HbInteractionListener::gestureStopped(class HbWidget const *, enum Ia::Gesture)
	?tr@HbWidgetBase@@SA?AVQString@@PBD0@Z @ 3680 NONAME ; class QString HbWidgetBase::tr(char const *, char const *)
	?trUtf8@HbTitleBar@@SA?AVQString@@PBD0H@Z @ 3681 NONAME ; class QString HbTitleBar::trUtf8(char const *, char const *, int)
	?focusMode@HbFocusGroup@@QBE?AW4FocusMode@HbWidget@@XZ @ 3682 NONAME ; enum HbWidget::FocusMode HbFocusGroup::focusMode(void) const
	??0HbPluginNameCache@@QAE@P6A?AVQStringList@@PAVQObject@@@Z0@Z @ 3683 NONAME ABSENT ; HbPluginNameCache::HbPluginNameCache(class QStringList (*)(class QObject *), class QObject *)
	?valueChangeRequested@HbScrollBar@@IAEXMW4Orientation@Qt@@@Z @ 3684 NONAME ; void HbScrollBar::valueChangeRequested(float, enum Qt::Orientation)
	?formatPhoneNumber@HbNumberGrouping@@SA?AVQString@@AAV2@W4Country@QLocale@@@Z @ 3685 NONAME ABSENT ; class QString HbNumberGrouping::formatPhoneNumber(class QString &, enum QLocale::Country)
	??_EHbFocusGroup@@UAE@I@Z @ 3686 NONAME ; HbFocusGroup::~HbFocusGroup(unsigned int)
	?remove@HbPluginNameCache@@AAEXABVQString@@@Z @ 3687 NONAME ABSENT ; void HbPluginNameCache::remove(class QString const &)
	?setDockWidget@HbView@@QAEXPAVHbDockWidget@@@Z @ 3688 NONAME ; void HbView::setDockWidget(class HbDockWidget *)
	?gestureTriggered@HbInteractionListener@@MAEXPBVHbWidget@@W4Gesture@Ia@@VQPointF@@@Z @ 3689 NONAME ABSENT ; void HbInteractionListener::gestureTriggered(class HbWidget const *, enum Ia::Gesture, class QPointF)
	?color@HbIconItem@@QBE?AVQColor@@XZ @ 3690 NONAME ; class QColor HbIconItem::color(void) const
	??0HbEffectFxmlParamData@@QAE@W4MemoryType@HbMemoryManager@@@Z @ 3691 NONAME ; HbEffectFxmlParamData::HbEffectFxmlParamData(enum HbMemoryManager::MemoryType)
	?expandFileName@HbEffectController@@AAE?AVQString@@ABV2@PA_N1@Z @ 3692 NONAME ; class QString HbEffectController::expandFileName(class QString const &, bool *, bool *)
	?setColor@HbIconItem@@QAEXABVQColor@@@Z @ 3693 NONAME ; void HbIconItem::setColor(class QColor const &)
	??0HbEffectFxmlData@@QAE@W4MemoryType@HbMemoryManager@@@Z @ 3694 NONAME ; HbEffectFxmlData::HbEffectFxmlData(enum HbMemoryManager::MemoryType)
	?parameters@HbStyle@@QBEXAAVHbStyleParameters@@ABVHbDeviceProfile@@@Z @ 3695 NONAME ; void HbStyle::parameters(class HbStyleParameters &, class HbDeviceProfile const &) const
	??_EHbEffectFxmlParamData@@QAE@I@Z @ 3696 NONAME ; HbEffectFxmlParamData::~HbEffectFxmlParamData(unsigned int)
	?getStaticMetaObject@HbViewActionManager@@SAABUQMetaObject@@XZ @ 3697 NONAME ; struct QMetaObject const & HbViewActionManager::getStaticMetaObject(void)
	?memoryType@HbEffectFxmlParamData@@QBE?AW4MemoryType@HbMemoryManager@@XZ @ 3698 NONAME ; enum HbMemoryManager::MemoryType HbEffectFxmlParamData::memoryType(void) const
	?effectData@HbEffectInfo@@QBE?AVHbEffectFxmlData@@XZ @ 3699 NONAME ; class HbEffectFxmlData HbEffectInfo::effectData(void) const
	?staticMetaObject@HbDockWidget@@2UQMetaObject@@B @ 3700 NONAME ; struct QMetaObject const HbDockWidget::staticMetaObject
	?duration@HbEffectFxmlParamData@@QBE?AVQString@@XZ @ 3701 NONAME ; class QString HbEffectFxmlParamData::duration(void) const
	?staticMetaObject@HbViewActionManager@@2UQMetaObject@@B @ 3702 NONAME ; struct QMetaObject const HbViewActionManager::staticMetaObject
	?type@HbDialog@@UBEHXZ @ 3703 NONAME ; int HbDialog::type(void) const
	?setFocusMode@HbWidget@@QAEXW4FocusMode@1@@Z @ 3704 NONAME ; void HbWidget::setFocusMode(enum HbWidget::FocusMode)
	?d_ptr@HbDialogPrivate@@CAPAV1@PAVHbDialog@@@Z @ 3705 NONAME ; class HbDialogPrivate * HbDialogPrivate::d_ptr(class HbDialog *)
	?keyRepeated@HbInteractionListener@@MAEXPBVHbWidget@@@Z @ 3706 NONAME ABSENT ; void HbInteractionListener::keyRepeated(class HbWidget const *)
	?shared@HbEffectInfo@@QBE_NXZ @ 3707 NONAME ; bool HbEffectInfo::shared(void) const
	?leftGesture@HbAbstractItemView@@MAEXH@Z @ 3708 NONAME ABSENT ; void HbAbstractItemView::leftGesture(int)
