EXPORTS
	?primaryActionText@HbFileDialog@@QBE?AVQString@@XZ @ 1 NONAME ABSENT ; class QString HbFileDialog::primaryActionText(void) const
	?d_func@HbNote@@AAEPAVHbNotePrivate@@XZ @ 2 NONAME ABSENT ; class HbNotePrivate * HbNote::d_func(void)
	??1HbRadioButtonList@@UAE@XZ @ 3 NONAME ; HbRadioButtonList::~HbRadioButtonList(void)
	?staticMetaObject@HbSettingFormItem@@2UQMetaObject@@B @ 4 NONAME ABSENT ; struct QMetaObject const HbSettingFormItem::staticMetaObject
	?primaryInputMode@HbDualDataQuery@@QBE?AW4InputMode@HbDataQuery@@XZ @ 5 NONAME ABSENT ; enum HbDataQuery::InputMode HbDualDataQuery::primaryInputMode(void) const
	?load@HbSettingFormItem@@UAEXXZ @ 6 NONAME ABSENT ; void HbSettingFormItem::load(void)
	?trUtf8@HbNote@@SA?AVQString@@PBD0@Z @ 7 NONAME ABSENT ; class QString HbNote::trUtf8(char const *, char const *)
	?setSliderValue@HbProgressSlider@@QAEXH@Z @ 8 NONAME ; void HbProgressSlider::setSliderValue(int)
	?itemChange@HbZoomSlider@@MAE?AVQVariant@@W4GraphicsItemChange@QGraphicsItem@@ABV2@@Z @ 9 NONAME ; class QVariant HbZoomSlider::itemChange(enum QGraphicsItem::GraphicsItemChange, class QVariant const &)
	?removeItem@HbDataFormModel@@QAE_NPAVHbDataFormModelItem@@@Z @ 10 NONAME ; bool HbDataFormModel::removeItem(class HbDataFormModelItem *)
	?sliderValue@HbProgressSlider@@QBEHXZ @ 11 NONAME ; int HbProgressSlider::sliderValue(void) const
	??0HbCommonNote@@QAE@W4NoteType@0@PAVQGraphicsWidget@@@Z @ 12 NONAME ABSENT ; HbCommonNote::HbCommonNote(enum HbCommonNote::NoteType, class QGraphicsWidget *)
	?selectedItems@HbListDialog@@QBE?AV?$QList@H@@XZ @ 13 NONAME ABSENT ; class QList<int> HbListDialog::selectedItems(void) const
	?d_func@HbValidator@@ABEPBVHbValidatorPrivate@@XZ @ 14 NONAME ; class HbValidatorPrivate const * HbValidator::d_func(void) const
	?qt_metacall@HbProgressSlider@@UAEHW4Call@QMetaObject@@HPAPAX@Z @ 15 NONAME ; int HbProgressSlider::qt_metacall(enum QMetaObject::Call, int, void * *)
	?metaObject@HbLineEdit@@UBEPBUQMetaObject@@XZ @ 16 NONAME ; struct QMetaObject const * HbLineEdit::metaObject(void) const
	?setAdditionalText@HbPushButton@@QAEXABVQString@@@Z @ 17 NONAME ; void HbPushButton::setAdditionalText(class QString const &)
	??0HbMessageQuery@@QAE@PAVQGraphicsItem@@@Z @ 18 NONAME ABSENT ; HbMessageQuery::HbMessageQuery(class QGraphicsItem *)
	?updatePrimitives@HbMessageBox@@UAEXXZ @ 19 NONAME ; void HbMessageBox::updatePrimitives(void)
	?type@HbPushButton@@UBEHXZ @ 20 NONAME ; int HbPushButton::type(void) const
	?tr@HbProgressNote@@SA?AVQString@@PBD0H@Z @ 21 NONAME ABSENT ; class QString HbProgressNote::tr(char const *, char const *, int)
	?type@HbVolumeSlider@@UBEHXZ @ 22 NONAME ; int HbVolumeSlider::type(void) const
	?iconAlignment@HbNote@@QBE?AV?$QFlags@W4AlignmentFlag@Qt@@@@XZ @ 23 NONAME ABSENT ; class QFlags<enum Qt::AlignmentFlag> HbNote::iconAlignment(void) const
	?textWrapping@HbProgressNote@@QBE_NXZ @ 24 NONAME ABSENT ; bool HbProgressNote::textWrapping(void) const
	??0HbDataFormViewItem@@IAE@AAVHbDataFormViewItemPrivate@@PAVQGraphicsItem@@@Z @ 25 NONAME ; HbDataFormViewItem::HbDataFormViewItem(class HbDataFormViewItemPrivate &, class QGraphicsItem *)
	?isSliderDown@HbProgressSlider@@QBE_NXZ @ 26 NONAME ; bool HbProgressSlider::isSliderDown(void) const
	?d_func@HbSliderPopup@@ABEPBVHbSliderPopupPrivate@@XZ @ 27 NONAME ; class HbSliderPopupPrivate const * HbSliderPopup::d_func(void) const
	?type@HbProgressBar@@UBEHXZ @ 28 NONAME ; int HbProgressBar::type(void) const
	?qt_metacast@HbDualDataQuery@@UAEPAXPBD@Z @ 29 NONAME ABSENT ; void * HbDualDataQuery::qt_metacast(char const *)
	?staticMetaObject@HbConfirmationQuery@@2UQMetaObject@@B @ 30 NONAME ABSENT ; struct QMetaObject const HbConfirmationQuery::staticMetaObject
	?layoutName@HbFormView@@QBE?AVQString@@XZ @ 31 NONAME ABSENT ; class QString HbFormView::layoutName(void) const
	?d_func@HbDataForm@@AAEPAVHbDataFormPrivate@@XZ @ 32 NONAME ; class HbDataFormPrivate * HbDataForm::d_func(void)
	?staticMetaObject@HbFormViewItem@@2UQMetaObject@@B @ 33 NONAME ABSENT ; struct QMetaObject const HbFormViewItem::staticMetaObject
	?setBackground@HbPushButton@@QAEXABVHbIcon@@@Z @ 34 NONAME ; void HbPushButton::setBackground(class HbIcon const &)
	?selectDirs@HbFileDialog@@QAEX_N@Z @ 35 NONAME ABSENT ; void HbFileDialog::selectDirs(bool)
	?contentWidgetData@HbSettingFormDataItem@@QBE?AVQVariant@@ABVQString@@@Z @ 36 NONAME ABSENT ; class QVariant HbSettingFormDataItem::contentWidgetData(class QString const &) const
	?tr@HbPushButton@@SA?AVQString@@PBD0H@Z @ 37 NONAME ; class QString HbPushButton::tr(char const *, char const *, int)
	?staticMetaObject@HbComboBox@@2UQMetaObject@@B @ 38 NONAME ; struct QMetaObject const HbComboBox::staticMetaObject
	?metaObject@HbFileDialog@@UBEPBUQMetaObject@@XZ @ 39 NONAME ABSENT ; struct QMetaObject const * HbFileDialog::metaObject(void) const
	?primitive@HbPushButton@@UBEPAVQGraphicsItem@@W4Primitive@HbStyle@@@Z @ 40 NONAME ; class QGraphicsItem * HbPushButton::primitive(enum HbStyle::Primitive) const
	?currentIndexChanged@HbComboBox@@IAEXH@Z @ 41 NONAME ; void HbComboBox::currentIndexChanged(int)
	?setMinorTickInterval@HbSlider@@QAEXH@Z @ 42 NONAME ; void HbSlider::setMinorTickInterval(int)
	?getStaticMetaObject@HbGlobalConfirmationQuery@@SAABUQMetaObject@@XZ @ 43 NONAME ABSENT ; struct QMetaObject const & HbGlobalConfirmationQuery::getStaticMetaObject(void)
	?staticMetaObject@HbVolumeSliderPopup@@2UQMetaObject@@B @ 44 NONAME ; struct QMetaObject const HbVolumeSliderPopup::staticMetaObject
	?setOffset@HbTrajectory@@QAEXM@Z @ 45 NONAME ABSENT ; void HbTrajectory::setOffset(float)
	?setItems@HbRadioButtonList@@QAEXABVQStringList@@@Z @ 46 NONAME ; void HbRadioButtonList::setItems(class QStringList const &)
	?mouseReleaseEvent@HbRadioButtonList@@MAEXPAVQGraphicsSceneMouseEvent@@@Z @ 47 NONAME ABSENT ; void HbRadioButtonList::mouseReleaseEvent(class QGraphicsSceneMouseEvent *)
	??_EHbGlobalConfirmationQuery@@UAE@I@Z @ 48 NONAME ABSENT ; HbGlobalConfirmationQuery::~HbGlobalConfirmationQuery(unsigned int)
	?itemChange@HbProgressSlider@@MAE?AVQVariant@@W4GraphicsItemChange@QGraphicsItem@@ABV2@@Z @ 49 NONAME ; class QVariant HbProgressSlider::itemChange(enum QGraphicsItem::GraphicsItemChange, class QVariant const &)
	?text@HbDeviceNotificationDialog@@QBE?AVQString@@XZ @ 50 NONAME ; class QString HbDeviceNotificationDialog::text(void) const
	?setTitle@HbDeviceNotificationDialog@@QAEXABVQString@@@Z @ 51 NONAME ; void HbDeviceNotificationDialog::setTitle(class QString const &)
	?setMaximum@HbAbstractSliderControl@@QAEXH@Z @ 52 NONAME ; void HbAbstractSliderControl::setMaximum(int)
	?isIconCheckable@HbSlider@@QBE_NXZ @ 53 NONAME ; bool HbSlider::isIconCheckable(void) const
	??1HbCommonNote@@UAE@XZ @ 54 NONAME ABSENT ; HbCommonNote::~HbCommonNote(void)
	??0HbSettingFormItem@@IAE@AAVHbSettingFormItemPrivate@@PAVQGraphicsItem@@@Z @ 55 NONAME ABSENT ; HbSettingFormItem::HbSettingFormItem(class HbSettingFormItemPrivate &, class QGraphicsItem *)
	?setElements@HbSlider@@QAEXABV?$QList@W4SliderElement@HbSlider@@@@@Z @ 56 NONAME ABSENT ; void HbSlider::setElements(class QList<enum HbSlider::SliderElement> const &)
	?setIconEnabled@HbSlider@@QAEX_N@Z @ 57 NONAME ; void HbSlider::setIconEnabled(bool)
	?selectionMode@HbListQuery@@QBE?AW4SelectionMode@HbAbstractItemView@@XZ @ 58 NONAME ABSENT ; enum HbAbstractItemView::SelectionMode HbListQuery::selectionMode(void) const
	?tr@HbSettingForm@@SA?AVQString@@PBD0H@Z @ 59 NONAME ABSENT ; class QString HbSettingForm::tr(char const *, char const *, int)
	?maximum@HbGlobalProgressNote@@QBEHXZ @ 60 NONAME ABSENT ; int HbGlobalProgressNote::maximum(void) const
	??0HbProgressNote@@QAE@W4ProgressNoteType@0@PAVQGraphicsItem@@@Z @ 61 NONAME ABSENT ; HbProgressNote::HbProgressNote(enum HbProgressNote::ProgressNoteType, class QGraphicsItem *)
	?text@HbMessageBox@@QBE?AVQString@@XZ @ 62 NONAME ; class QString HbMessageBox::text(void) const
	?d_func@HbDiscreetPopup@@AAEPAVHbDiscreetPopupPrivate@@XZ @ 63 NONAME ABSENT ; class HbDiscreetPopupPrivate * HbDiscreetPopup::d_func(void)
	?toPlainText@HbAbstractEdit@@IBE?AVQString@@XZ @ 64 NONAME ; class QString HbAbstractEdit::toPlainText(void) const
	?trUtf8@HbFormView@@SA?AVQString@@PBD0@Z @ 65 NONAME ABSENT ; class QString HbFormView::trUtf8(char const *, char const *)
	?getReal@HbInputDialog@@SANABVQString@@NPA_NPAVQGraphicsScene@@PAVQGraphicsWidget@@@Z @ 66 NONAME ABSENT ; double HbInputDialog::getReal(class QString const &, double, bool *, class QGraphicsScene *, class QGraphicsWidget *)
	?update@HbGlobalDiscreetPopup@@QAEXXZ @ 67 NONAME ABSENT ; void HbGlobalDiscreetPopup::update(void)
	?setAlignment@HbAbstractEdit@@QAEXV?$QFlags@W4AlignmentFlag@Qt@@@@@Z @ 68 NONAME ; void HbAbstractEdit::setAlignment(class QFlags<enum Qt::AlignmentFlag>)
	?resizeEvent@HbFormView@@MAEXPAVQGraphicsSceneResizeEvent@@@Z @ 69 NONAME ABSENT ; void HbFormView::resizeEvent(class QGraphicsSceneResizeEvent *)
	?indexOf@HbSettingFormDataItem@@QBEHPBV1@@Z @ 70 NONAME ABSENT ; int HbSettingFormDataItem::indexOf(class HbSettingFormDataItem const *) const
	?setPromptText@HbDataQuery@@QAEXABVQString@@@Z @ 71 NONAME ABSENT ; void HbDataQuery::setPromptText(class QString const &)
	?stateChanged@HbFormView@@IAEXW4State@1@@Z @ 72 NONAME ABSENT ; void HbFormView::stateChanged(enum HbFormView::State)
	?tr@HbAbstractSliderControl@@SA?AVQString@@PBD0@Z @ 73 NONAME ; class QString HbAbstractSliderControl::tr(char const *, char const *)
	??0HbGlobalDiscreetPopup@@QAE@PAVQObject@@@Z @ 74 NONAME ABSENT ; HbGlobalDiscreetPopup::HbGlobalDiscreetPopup(class QObject *)
	?appendDataFormGroupPage@HbDataFormModel@@QAEPAVHbDataFormModelItem@@ABVQString@@PBV2@@Z @ 75 NONAME ABSENT ; class HbDataFormModelItem * HbDataFormModel::appendDataFormGroupPage(class QString const &, class HbDataFormModelItem const *)
	??1HbHighlight@@UAE@XZ @ 76 NONAME ABSENT ; HbHighlight::~HbHighlight(void)
	?type@HbDataFormModelItem@@QBE?AW4DataItemType@1@XZ @ 77 NONAME ; enum HbDataFormModelItem::DataItemType HbDataFormModelItem::type(void) const
	?setTickPosition@HbSliderPopup@@QAEXV?$QFlags@W4SliderTickPosition@Hb@@@@@Z @ 78 NONAME ; void HbSliderPopup::setTickPosition(class QFlags<enum Hb::SliderTickPosition>)
	?primaryValue@HbDualDataQuery@@QBE?AVQVariant@@XZ @ 79 NONAME ABSENT ; class QVariant HbDualDataQuery::primaryValue(void) const
	?metaObject@HbCarouselView@@UBEPBUQMetaObject@@XZ @ 80 NONAME ABSENT ; struct QMetaObject const * HbCarouselView::metaObject(void) const
	?metaObject@HbComboBox@@UBEPBUQMetaObject@@XZ @ 81 NONAME ; struct QMetaObject const * HbComboBox::metaObject(void) const
	?getStaticMetaObject@HbTextEdit@@SAABUQMetaObject@@XZ @ 82 NONAME ; struct QMetaObject const & HbTextEdit::getStaticMetaObject(void)
	?resizeEvent@HbComboBox@@MAEXPAVQGraphicsSceneResizeEvent@@@Z @ 83 NONAME ; void HbComboBox::resizeEvent(class QGraphicsSceneResizeEvent *)
	?mouseReleaseEvent@HbSlider@@MAEXPAVQGraphicsSceneMouseEvent@@@Z @ 84 NONAME ; void HbSlider::mouseReleaseEvent(class QGraphicsSceneMouseEvent *)
	?defaultZoomLevel@HbZoomSliderPopup@@QBEHXZ @ 85 NONAME ; int HbZoomSliderPopup::defaultZoomLevel(void) const
	?type@HbFormView@@UBEHXZ @ 86 NONAME ABSENT ; int HbFormView::type(void) const
	?metaObject@HbPushButton@@UBEPBUQMetaObject@@XZ @ 87 NONAME ; struct QMetaObject const * HbPushButton::metaObject(void) const
	?items@HbRadioButtonList@@QBE?AVQStringList@@XZ @ 88 NONAME ; class QStringList HbRadioButtonList::items(void) const
	?trUtf8@HbZoomSlider@@SA?AVQString@@PBD0@Z @ 89 NONAME ; class QString HbZoomSlider::trUtf8(char const *, char const *)
	?getModelIndexes@HbListDialog@@SA?AV?$QList@VQModelIndex@@@@ABVQString@@PAVQAbstractItemModel@@PA_NW4SelectionMode@HbAbstractItemView@@PAVQGraphicsScene@@PAVQGraphicsItem@@@Z @ 90 NONAME ABSENT ; class QList<class QModelIndex> HbListDialog::getModelIndexes(class QString const &, class QAbstractItemModel *, bool *, enum HbAbstractItemView::SelectionMode, class QGraphicsScene *, class QGraphicsItem *)
	?tr@HbDataQuery@@SA?AVQString@@PBD0H@Z @ 91 NONAME ABSENT ; class QString HbDataQuery::tr(char const *, char const *, int)
	??1HbListQuery@@UAE@XZ @ 92 NONAME ABSENT ; HbListQuery::~HbListQuery(void)
	?nextIndex@HbSettingForm@@UBE?AVQModelIndex@@ABV2@@Z @ 93 NONAME ABSENT ; class QModelIndex HbSettingForm::nextIndex(class QModelIndex const &) const
	?setInvertedAppearance@HbAbstractSliderControl@@QAEX_N@Z @ 94 NONAME ; void HbAbstractSliderControl::setInvertedAppearance(bool)
	?selectedModelIndexes@HbListDialog@@QBE?AV?$QList@VQModelIndex@@@@XZ @ 95 NONAME ABSENT ; class QList<class QModelIndex> HbListDialog::selectedModelIndexes(void) const
	?keyReleaseEvent@HbVolumeSliderPopup@@MAEXPAVQKeyEvent@@@Z @ 96 NONAME ; void HbVolumeSliderPopup::keyReleaseEvent(class QKeyEvent *)
	?trUtf8@HbProgressSlider@@SA?AVQString@@PBD0@Z @ 97 NONAME ; class QString HbProgressSlider::trUtf8(char const *, char const *)
	?indexOf@HbDataFormModelItem@@QBEHPBV1@@Z @ 98 NONAME ; int HbDataFormModelItem::indexOf(class HbDataFormModelItem const *) const
	?setText@HbDiscreetPopup@@QAEXABVQString@@@Z @ 99 NONAME ABSENT ; void HbDiscreetPopup::setText(class QString const &)
	?tr@HbHighlight@@SA?AVQString@@PBD0@Z @ 100 NONAME ABSENT ; class QString HbHighlight::tr(char const *, char const *)
	?removeItem@HbFormView@@QAEXPAVHbFormItem@@@Z @ 101 NONAME ABSENT ; void HbFormView::removeItem(class HbFormItem *)
	??_EHbProgressBar@@UAE@I@Z @ 102 NONAME ; HbProgressBar::~HbProgressBar(unsigned int)
	?lastPoint@HbTrajectory@@QBE?AVQPointF@@XZ @ 103 NONAME ABSENT ; class QPointF HbTrajectory::lastPoint(void) const
	?d_func@HbCombinedQuery@@ABEPBVHbCombinedQueryPrivate@@XZ @ 104 NONAME ABSENT ; class HbCombinedQueryPrivate const * HbCombinedQuery::d_func(void) const
	?closeEvent@HbProgressNote@@MAEXPAVQCloseEvent@@@Z @ 105 NONAME ABSENT ; void HbProgressNote::closeEvent(class QCloseEvent *)
	?type@HbColorDialog@@UBEHXZ @ 106 NONAME ; int HbColorDialog::type(void) const
	?sliderChange@HbAbstractSliderControl@@MAEXW4SliderChange@1@@Z @ 107 NONAME ; void HbAbstractSliderControl::sliderChange(enum HbAbstractSliderControl::SliderChange)
	?lostFocus@HbFormViewItem@@UAEXXZ @ 108 NONAME ABSENT ; void HbFormViewItem::lostFocus(void)
	?launchConfirmationDialog@HbGlobalConfirmationQuery@@SA_NABVQString@@00_NPAVQObject@@@Z @ 109 NONAME ABSENT ; bool HbGlobalConfirmationQuery::launchConfirmationDialog(class QString const &, class QString const &, class QString const &, bool, class QObject *)
	??0HbGlobalConfirmationQuery@@QAE@ABVQString@@PAVQObject@@@Z @ 110 NONAME ABSENT ; HbGlobalConfirmationQuery::HbGlobalConfirmationQuery(class QString const &, class QObject *)
	?linkHovered@HbCombinedQuery@@IAEXABVQString@@@Z @ 111 NONAME ABSENT ; void HbCombinedQuery::linkHovered(class QString const &)
	?tr@HbVolumeSliderPopup@@SA?AVQString@@PBD0@Z @ 112 NONAME ; class QString HbVolumeSliderPopup::tr(char const *, char const *)
	?setIcon@HbNotificationDialog@@QAEXABVHbIcon@@@Z @ 113 NONAME ; void HbNotificationDialog::setIcon(class HbIcon const &)
	?paint@HbFormView@@MAEXPAVQPainter@@PBVQStyleOptionGraphicsItem@@PAVQWidget@@@Z @ 114 NONAME ABSENT ; void HbFormView::paint(class QPainter *, class QStyleOptionGraphicsItem const *, class QWidget *)
	??_EHbTransparentWindow@@UAE@I@Z @ 115 NONAME ; HbTransparentWindow::~HbTransparentWindow(unsigned int)
	??1HbComboBox@@UAE@XZ @ 116 NONAME ; HbComboBox::~HbComboBox(void)
	??0HbPushButton@@QAE@ABVHbIcon@@ABVQString@@PAVQGraphicsItem@@@Z @ 117 NONAME ; HbPushButton::HbPushButton(class HbIcon const &, class QString const &, class QGraphicsItem *)
	?show@HbGlobalCommonNote@@QAEXXZ @ 118 NONAME ABSENT ; void HbGlobalCommonNote::show(void)
	?metaObject@HbGlobalConfirmationQuery@@UBEPBUQMetaObject@@XZ @ 119 NONAME ABSENT ; struct QMetaObject const * HbGlobalConfirmationQuery::metaObject(void) const
	?textWrapping@HbGlobalConfirmationQuery@@QBE_NXZ @ 120 NONAME ABSENT ; bool HbGlobalConfirmationQuery::textWrapping(void) const
	?itemIcon@HbComboBox@@QBE?AVHbIcon@@H@Z @ 121 NONAME ; class HbIcon HbComboBox::itemIcon(int) const
	?launchPopup@HbDiscreetPopup@@SAXABVHbIcon@@ABVQString@@1PAVQGraphicsScene@@@Z @ 122 NONAME ABSENT ; void HbDiscreetPopup::launchPopup(class HbIcon const &, class QString const &, class QString const &, class QGraphicsScene *)
	?d_func@HbTextEdit@@ABEPBVHbTextEditPrivate@@XZ @ 123 NONAME ; class HbTextEditPrivate const * HbTextEdit::d_func(void) const
	?currentIndex@HbComboBox@@QBEHXZ @ 124 NONAME ; int HbComboBox::currentIndex(void) const
	?tr@HbNotificationDialog@@SA?AVQString@@PBD0H@Z @ 125 NONAME ; class QString HbNotificationDialog::tr(char const *, char const *, int)
	?tr@HbSliderPopup@@SA?AVQString@@PBD0H@Z @ 126 NONAME ; class QString HbSliderPopup::tr(char const *, char const *, int)
	?tr@HbListDialog@@SA?AVQString@@PBD0@Z @ 127 NONAME ABSENT ; class QString HbListDialog::tr(char const *, char const *)
	?qt_metacall@HbGlobalDiscreetPopup@@UAEHW4Call@QMetaObject@@HPAPAX@Z @ 128 NONAME ABSENT ; int HbGlobalDiscreetPopup::qt_metacall(enum QMetaObject::Call, int, void * *)
	?toolTipText@HbRatingSlider@@QBE?AVQString@@XZ @ 129 NONAME ABSENT ; class QString HbRatingSlider::toolTipText(void) const
	?getStaticMetaObject@HbHighlight@@SAABUQMetaObject@@XZ @ 130 NONAME ABSENT ; struct QMetaObject const & HbHighlight::getStaticMetaObject(void)
	?trUtf8@HbHighlight@@SA?AVQString@@PBD0@Z @ 131 NONAME ABSENT ; class QString HbHighlight::trUtf8(char const *, char const *)
	?tickPosition@HbSliderPopup@@QBE?AV?$QFlags@W4SliderTickPosition@Hb@@@@XZ @ 132 NONAME ; class QFlags<enum Hb::SliderTickPosition> HbSliderPopup::tickPosition(void) const
	?blockBoundingRect@HbAbstractEdit@@IBE?AVQRectF@@ABVQTextBlock@@@Z @ 133 NONAME ; class QRectF HbAbstractEdit::blockBoundingRect(class QTextBlock const &) const
	??0HbSlider@@IAE@AAVHbSliderPrivate@@PAVQGraphicsItem@@@Z @ 134 NONAME ; HbSlider::HbSlider(class HbSliderPrivate &, class QGraphicsItem *)
	?qt_metacast@HbVolumeSliderPopup@@UAEPAXPBD@Z @ 135 NONAME ; void * HbVolumeSliderPopup::qt_metacast(char const *)
	?keyPressEvent@HbLineEdit@@MAEXPAVQKeyEvent@@@Z @ 136 NONAME ; void HbLineEdit::keyPressEvent(class QKeyEvent *)
	?item@HbDataFormModel@@QBEPAVHbDataFormModelItem@@HABVQModelIndex@@@Z @ 137 NONAME ; class HbDataFormModelItem * HbDataFormModel::item(int, class QModelIndex const &) const
	?d_func@HbDualDataQuery@@AAEPAVHbDualDataQueryPrivate@@XZ @ 138 NONAME ABSENT ; class HbDualDataQueryPrivate * HbDualDataQuery::d_func(void)
	?d_func@HbListQuery@@ABEPBVHbListQueryPrivate@@XZ @ 139 NONAME ABSENT ; class HbListQueryPrivate const * HbListQuery::d_func(void) const
	?updatePrimitives@HbCommonNote@@UAEXXZ @ 140 NONAME ABSENT ; void HbCommonNote::updatePrimitives(void)
	?metaObject@HbAbstractSliderControl@@UBEPBUQMetaObject@@XZ @ 141 NONAME ; struct QMetaObject const * HbAbstractSliderControl::metaObject(void) const
	?mousePressEvent@HbFormViewItem@@MAEXPAVQGraphicsSceneMouseEvent@@@Z @ 142 NONAME ABSENT ; void HbFormViewItem::mousePressEvent(class QGraphicsSceneMouseEvent *)
	?trUtf8@HbVolumeSlider@@SA?AVQString@@PBD0H@Z @ 143 NONAME ; class QString HbVolumeSlider::trUtf8(char const *, char const *, int)
	?indexCount@HbSettingForm@@UBEHXZ @ 144 NONAME ABSENT ; int HbSettingForm::indexCount(void) const
	??0HbDataFormModelItem@@QAE@W4DataItemType@0@ABVQString@@PBV0@@Z @ 145 NONAME ; HbDataFormModelItem::HbDataFormModelItem(enum HbDataFormModelItem::DataItemType, class QString const &, class HbDataFormModelItem const *)
	?launchConfirmationDialog@HbGlobalConfirmationQuery@@SA_NABVQString@@_NPAVQObject@@@Z @ 146 NONAME ABSENT ; bool HbGlobalConfirmationQuery::launchConfirmationDialog(class QString const &, bool, class QObject *)
	?cancel@HbDeviceProgressDialog@@QAEXXZ @ 147 NONAME ABSENT ; void HbDeviceProgressDialog::cancel(void)
	?tr@HbDiscreetPopup@@SA?AVQString@@PBD0@Z @ 148 NONAME ABSENT ; class QString HbDiscreetPopup::tr(char const *, char const *)
	?staticMetaObject@HbZoomSliderPopup@@2UQMetaObject@@B @ 149 NONAME ; struct QMetaObject const HbZoomSliderPopup::staticMetaObject
	?canSetModelIndex@HbFormViewItem@@UBE_NABVQModelIndex@@@Z @ 150 NONAME ABSENT ; bool HbFormViewItem::canSetModelIndex(class QModelIndex const &) const
	?cancel@HbProgressNote@@QAEXXZ @ 151 NONAME ABSENT ; void HbProgressNote::cancel(void)
	??0HbNote@@QAE@ABVQString@@ABVHbIcon@@PAVQGraphicsItem@@@Z @ 152 NONAME ABSENT ; HbNote::HbNote(class QString const &, class HbIcon const &, class QGraphicsItem *)
	?validateContent@HbValidator@@UAE?AW4State@QValidator@@AAVQTextCursor@@HHH@Z @ 153 NONAME ; enum QValidator::State HbValidator::validateContent(class QTextCursor &, int, int, int)
	?rowsInserted@HbSettingForm@@UAEXABVQModelIndex@@HH@Z @ 154 NONAME ABSENT ; void HbSettingForm::rowsInserted(class QModelIndex const &, int, int)
	?qt_metacast@HbColorDialog@@UAEPAXPBD@Z @ 155 NONAME ; void * HbColorDialog::qt_metacast(char const *)
	?insertSettingFormGroupPage@HbSettingFormModel@@QAEPAVHbSettingFormDataItem@@HABVQString@@PBV2@@Z @ 156 NONAME ABSENT ; class HbSettingFormDataItem * HbSettingFormModel::insertSettingFormGroupPage(int, class QString const &, class HbSettingFormDataItem const *)
	?qt_metacall@HbInputDialog@@UAEHW4Call@QMetaObject@@HPAPAX@Z @ 157 NONAME ; int HbInputDialog::qt_metacall(enum QMetaObject::Call, int, void * *)
	?textClicked@HbSliderPopup@@IAEXXZ @ 158 NONAME ; void HbSliderPopup::textClicked(void)
	?queryText@HbCombinedQuery@@QAE?AVQString@@XZ @ 159 NONAME ABSENT ; class QString HbCombinedQuery::queryText(void)
	?tr@HbCarouselView@@SA?AVQString@@PBD0H@Z @ 160 NONAME ABSENT ; class QString HbCarouselView::tr(char const *, char const *, int)
	?isToolTipVisible@HbSliderPopup@@QAE_NXZ @ 161 NONAME ; bool HbSliderPopup::isToolTipVisible(void)
	?cut@HbAbstractEdit@@QAEXXZ @ 162 NONAME ; void HbAbstractEdit::cut(void)
	?setReadOnly@HbFormItem@@QAEX_N@Z @ 163 NONAME ABSENT ; void HbFormItem::setReadOnly(bool)
	?released@HbCarouselView@@IAEXABVQModelIndex@@@Z @ 164 NONAME ABSENT ; void HbCarouselView::released(class QModelIndex const &)
	??0HbTextEdit@@IAE@AAVHbTextEditPrivate@@PAVQGraphicsItem@@@Z @ 165 NONAME ; HbTextEdit::HbTextEdit(class HbTextEditPrivate &, class QGraphicsItem *)
	?currentRow@HbListQuery@@QAEHXZ @ 166 NONAME ABSENT ; int HbListQuery::currentRow(void)
	?d_func@HbDataFormViewItem@@ABEPBVHbDataFormViewItemPrivate@@XZ @ 167 NONAME ; class HbDataFormViewItemPrivate const * HbDataFormViewItem::d_func(void) const
	?editorWidget@HbFormViewItem@@QBEPAVQGraphicsWidget@@W4FieldType@HbFormItem@@@Z @ 168 NONAME ABSENT ; class QGraphicsWidget * HbFormViewItem::editorWidget(enum HbFormItem::FieldType) const
	?updatePrimitives@HbConfirmationQuery@@UAEXXZ @ 169 NONAME ABSENT ; void HbConfirmationQuery::updatePrimitives(void)
	?setReadOnly@HbAbstractEdit@@QAEX_N@Z @ 170 NONAME ; void HbAbstractEdit::setReadOnly(bool)
	?itemInserted@HbFormView@@IAEXPAVHbFormItem@@@Z @ 171 NONAME ABSENT ; void HbFormView::itemInserted(class HbFormItem *)
	?isTitleReadOnly@HbFormItem@@QBE_NXZ @ 172 NONAME ABSENT ; bool HbFormItem::isTitleReadOnly(void) const
	?isTextVisible@HbProgressBar@@QBE_NXZ @ 173 NONAME ABSENT ; bool HbProgressBar::isTextVisible(void) const
	??0HbRadioButtonList@@QAE@PAVQGraphicsItem@@@Z @ 174 NONAME ; HbRadioButtonList::HbRadioButtonList(class QGraphicsItem *)
	?qt_metacall@HbRatingSlider@@UAEHW4Call@QMetaObject@@HPAPAX@Z @ 175 NONAME ; int HbRatingSlider::qt_metacall(enum QMetaObject::Call, int, void * *)
	?trUtf8@HbDualDataQuery@@SA?AVQString@@PBD0@Z @ 176 NONAME ABSENT ; class QString HbDualDataQuery::trUtf8(char const *, char const *)
	?indexFromItem@HbDataFormModel@@QBE?AVQModelIndex@@PBVHbDataFormModelItem@@@Z @ 177 NONAME ; class QModelIndex HbDataFormModel::indexFromItem(class HbDataFormModelItem const *) const
	?trUtf8@HbSettingFormItem@@SA?AVQString@@PBD0@Z @ 178 NONAME ABSENT ; class QString HbSettingFormItem::trUtf8(char const *, char const *)
	?launchPopup@HbGlobalDiscreetPopup@@SAXABVHbIcon@@ABVQString@@1@Z @ 179 NONAME ABSENT ; void HbGlobalDiscreetPopup::launchPopup(class HbIcon const &, class QString const &, class QString const &)
	?isSecondaryVisible@HbDualDataQuery@@QAE_NXZ @ 180 NONAME ABSENT ; bool HbDualDataQuery::isSecondaryVisible(void)
	??0HbDiscreetPopup@@QAE@XZ @ 181 NONAME ABSENT ; HbDiscreetPopup::HbDiscreetPopup(void)
	?setProgressValue@HbGlobalProgressNote@@QAEXH@Z @ 182 NONAME ABSENT ; void HbGlobalProgressNote::setProgressValue(int)
	?aboutToClose@HbDeviceNotificationDialog@@IAEXXZ @ 183 NONAME ; void HbDeviceNotificationDialog::aboutToClose(void)
	?d_func@HbVolumeSlider@@ABEPBVHbVolumeSliderPrivate@@XZ @ 184 NONAME ; class HbVolumeSliderPrivate const * HbVolumeSlider::d_func(void) const
	?tr@HbCommonNote@@SA?AVQString@@PBD0@Z @ 185 NONAME ABSENT ; class QString HbCommonNote::tr(char const *, char const *)
	?qt_metacall@HbListQuery@@UAEHW4Call@QMetaObject@@HPAPAX@Z @ 186 NONAME ABSENT ; int HbListQuery::qt_metacall(enum QMetaObject::Call, int, void * *)
	?model@HbListQuery@@QBEPAVQAbstractItemModel@@XZ @ 187 NONAME ABSENT ; class QAbstractItemModel * HbListQuery::model(void) const
	?hasChildren@HbSettingFormModel@@UBE_NABVQModelIndex@@@Z @ 188 NONAME ABSENT ; bool HbSettingFormModel::hasChildren(class QModelIndex const &) const
	??1HbAbstractEdit@@UAE@XZ @ 189 NONAME ; HbAbstractEdit::~HbAbstractEdit(void)
	?setItemText@HbComboBox@@QAEXHABVQString@@@Z @ 190 NONAME ; void HbComboBox::setItemText(int, class QString const &)
	?charRectForPosition@HbAbstractEdit@@IBE?AVQRectF@@H@Z @ 191 NONAME ABSENT ; class QRectF HbAbstractEdit::charRectForPosition(int) const
	?d_func@HbFormItem@@AAEPAVHbFormItemPrivate@@XZ @ 192 NONAME ABSENT ; class HbFormItemPrivate * HbFormItem::d_func(void)
	?tr@HbComboBox@@SA?AVQString@@PBD0@Z @ 193 NONAME ; class QString HbComboBox::tr(char const *, char const *)
	?d_func@HbDataFormModel@@AAEPAVHbDataFormModelPrivate@@XZ @ 194 NONAME ; class HbDataFormModelPrivate * HbDataFormModel::d_func(void)
	??_EHbDualDataQuery@@UAE@I@Z @ 195 NONAME ABSENT ; HbDualDataQuery::~HbDualDataQuery(unsigned int)
	?metaObject@HbHighlight@@UBEPBUQMetaObject@@XZ @ 196 NONAME ABSENT ; struct QMetaObject const * HbHighlight::metaObject(void) const
	?tr@HbZoomSliderPopup@@SA?AVQString@@PBD0@Z @ 197 NONAME ; class QString HbZoomSliderPopup::tr(char const *, char const *)
	?keyPressEvent@HbAbstractSliderControl@@MAEXPAVQKeyEvent@@@Z @ 198 NONAME ; void HbAbstractSliderControl::keyPressEvent(class QKeyEvent *)
	??0HbConfirmationQuery@@QAE@PAVQGraphicsItem@@@Z @ 199 NONAME ABSENT ; HbConfirmationQuery::HbConfirmationQuery(class QGraphicsItem *)
	?trUtf8@HbDualDataQuery@@SA?AVQString@@PBD0H@Z @ 200 NONAME ABSENT ; class QString HbDualDataQuery::trUtf8(char const *, char const *, int)
	?repeatAction@HbAbstractSliderControl@@QBE?AW4SliderAction@1@XZ @ 201 NONAME ; enum HbAbstractSliderControl::SliderAction HbAbstractSliderControl::repeatAction(void) const
	??_EHbConfirmationQuery@@UAE@I@Z @ 202 NONAME ABSENT ; HbConfirmationQuery::~HbConfirmationQuery(unsigned int)
	??1HbGlobalConfirmationQuery@@UAE@XZ @ 203 NONAME ABSENT ; HbGlobalConfirmationQuery::~HbGlobalConfirmationQuery(void)
	??_EHbTextEdit@@UAE@I@Z @ 204 NONAME ; HbTextEdit::~HbTextEdit(unsigned int)
	?orientation@HbPushButton@@QBE?AW4Orientation@Qt@@XZ @ 205 NONAME ABSENT ; enum Qt::Orientation HbPushButton::orientation(void) const
	?launchPopup@HbDiscreetPopup@@SAXABVQString@@0PAVQGraphicsScene@@@Z @ 206 NONAME ABSENT ; void HbDiscreetPopup::launchPopup(class QString const &, class QString const &, class QGraphicsScene *)
	?updateWidget@HbFormViewItem@@MAEXPAVQGraphicsWidget@@ABUWidgetSpec@1@@Z @ 207 NONAME ABSENT ; void HbFormViewItem::updateWidget(class QGraphicsWidget *, struct HbFormViewItem::WidgetSpec const &)
	?removeChildren@HbDataFormModelItem@@QAEXHH@Z @ 208 NONAME ; void HbDataFormModelItem::removeChildren(int, int)
	?firstZ@HbTrajectory@@QBEMXZ @ 209 NONAME ABSENT ; float HbTrajectory::firstZ(void) const
	?qt_metacast@HbSettingForm@@UAEPAXPBD@Z @ 210 NONAME ABSENT ; void * HbSettingForm::qt_metacast(char const *)
	?setInvertedAppearance@HbSliderPopup@@QAEX_N@Z @ 211 NONAME ; void HbSliderPopup::setInvertedAppearance(bool)
	?textValue@HbInputDialog@@QBE?AVQVariant@@H@Z @ 212 NONAME ABSENT ; class QVariant HbInputDialog::textValue(int) const
	?document@HbTextEdit@@QBEPAVQTextDocument@@XZ @ 213 NONAME ; class QTextDocument * HbTextEdit::document(void) const
	?getText@HbInputDialog@@SA?AVQString@@ABV2@0PA_NPAVQGraphicsScene@@PAVQGraphicsWidget@@@Z @ 214 NONAME ABSENT ; class QString HbInputDialog::getText(class QString const &, class QString const &, bool *, class QGraphicsScene *, class QGraphicsWidget *)
	?updatePrimitives@HbProgressBar@@UAEXXZ @ 215 NONAME ; void HbProgressBar::updatePrimitives(void)
	?secondaryInputMode@HbDualDataQuery@@QBE?AW4InputMode@HbDataQuery@@XZ @ 216 NONAME ABSENT ; enum HbDataQuery::InputMode HbDualDataQuery::secondaryInputMode(void) const
	?directory@HbFileDialog@@QBE?AVQString@@XZ @ 217 NONAME ABSENT ; class QString HbFileDialog::directory(void) const
	?rowCount@HbDataFormModel@@UBEHABVQModelIndex@@@Z @ 218 NONAME ; int HbDataFormModel::rowCount(class QModelIndex const &) const
	?qt_metacast@HbZoomSlider@@UAEPAXPBD@Z @ 219 NONAME ; void * HbZoomSlider::qt_metacast(char const *)
	?type@HbComboBox@@UBEHXZ @ 220 NONAME ; int HbComboBox::type(void) const
	?setPrimaryValue@HbDualDataQuery@@QAEXABVQVariant@@@Z @ 221 NONAME ABSENT ; void HbDualDataQuery::setPrimaryValue(class QVariant const &)
	?hitButton@HbCheckBox@@MBE_NABVQPointF@@@Z @ 222 NONAME ; bool HbCheckBox::hitButton(class QPointF const &) const
	?staticMetaObject@HbCommonNote@@2UQMetaObject@@B @ 223 NONAME ABSENT ; struct QMetaObject const HbCommonNote::staticMetaObject
	?tr@HbAbstractSliderControl@@SA?AVQString@@PBD0H@Z @ 224 NONAME ; class QString HbAbstractSliderControl::tr(char const *, char const *, int)
	?focusOutEvent@HbAbstractEdit@@MAEXPAVQFocusEvent@@@Z @ 225 NONAME ; void HbAbstractEdit::focusOutEvent(class QFocusEvent *)
	?resizeEvent@HbProgressSlider@@MAEXPAVQGraphicsSceneResizeEvent@@@Z @ 226 NONAME ABSENT ; void HbProgressSlider::resizeEvent(class QGraphicsSceneResizeEvent *)
	?setDefaultSeparator@HbValidator@@QAEXABVQString@@@Z @ 227 NONAME ; void HbValidator::setDefaultSeparator(class QString const &)
	?setRange@HbSliderPopup@@QAEXHH@Z @ 228 NONAME ; void HbSliderPopup::setRange(int, int)
	?trUtf8@HbRatingSlider@@SA?AVQString@@PBD0@Z @ 229 NONAME ; class QString HbRatingSlider::trUtf8(char const *, char const *)
	??0HbPushButton@@QAE@ABVQString@@PAVQGraphicsItem@@@Z @ 230 NONAME ; HbPushButton::HbPushButton(class QString const &, class QGraphicsItem *)
	?setTitle@HbFormItem@@QAEXABVQString@@@Z @ 231 NONAME ABSENT ; void HbFormItem::setTitle(class QString const &)
	?setRange@HbAbstractSliderControl@@QAEXHH@Z @ 232 NONAME ; void HbAbstractSliderControl::setRange(int, int)
	??0HbGlobalConfirmationQuery@@QAE@PAVQObject@@@Z @ 233 NONAME ABSENT ; HbGlobalConfirmationQuery::HbGlobalConfirmationQuery(class QObject *)
	?trUtf8@HbSettingFormItem@@SA?AVQString@@PBD0H@Z @ 234 NONAME ABSENT ; class QString HbSettingFormItem::trUtf8(char const *, char const *, int)
	?getStaticMetaObject@HbListDialog@@SAABUQMetaObject@@XZ @ 235 NONAME ABSENT ; struct QMetaObject const & HbListDialog::getStaticMetaObject(void)
	?setSliderPosition@HbSliderPopup@@QAEXH@Z @ 236 NONAME ; void HbSliderPopup::setSliderPosition(int)
	?trUtf8@HbGlobalProgressNote@@SA?AVQString@@PBD0@Z @ 237 NONAME ABSENT ; class QString HbGlobalProgressNote::trUtf8(char const *, char const *)
	??0HbDeviceProgressDialog@@QAE@PAVQObject@@@Z @ 238 NONAME ; HbDeviceProgressDialog::HbDeviceProgressDialog(class QObject *)
	?elements@HbSliderPopup@@QBE?AV?$QList@W4SliderElement@HbSlider@@@@XZ @ 239 NONAME ABSENT ; class QList<enum HbSlider::SliderElement> HbSliderPopup::elements(void) const
	??1HbNote@@UAE@XZ @ 240 NONAME ABSENT ; HbNote::~HbNote(void)
	?d_func@HbRadioButtonList@@AAEPAVHbRadioButtonListPrivate@@XZ @ 241 NONAME ; class HbRadioButtonListPrivate * HbRadioButtonList::d_func(void)
	?setOrientation@HbProgressBar@@QAEXW4Orientation@Qt@@@Z @ 242 NONAME ; void HbProgressBar::setOrientation(enum Qt::Orientation)
	?drawContents@HbAbstractEdit@@IAEXPAVQPainter@@ABVQStyleOptionGraphicsItem@@@Z @ 243 NONAME ; void HbAbstractEdit::drawContents(class QPainter *, class QStyleOptionGraphicsItem const &)
	?exec@HbGlobalCommonNote@@QAEXXZ @ 244 NONAME ABSENT ; void HbGlobalCommonNote::exec(void)
	?setExpanded@HbSettingForm@@QAEXABVQModelIndex@@_N@Z @ 245 NONAME ABSENT ; void HbSettingForm::setExpanded(class QModelIndex const &, bool)
	??0HbDataForm@@IAE@AAVHbDataFormPrivate@@PAVHbAbstractItemContainer@@PAVQGraphicsItem@@@Z @ 246 NONAME ; HbDataForm::HbDataForm(class HbDataFormPrivate &, class HbAbstractItemContainer *, class QGraphicsItem *)
	?contentWidgetData@HbDataFormModelItem@@QBE?AVQVariant@@ABVQString@@@Z @ 247 NONAME ; class QVariant HbDataFormModelItem::contentWidgetData(class QString const &) const
	??0HbFileDialog@@QAE@PAVQGraphicsItem@@@Z @ 248 NONAME ABSENT ; HbFileDialog::HbFileDialog(class QGraphicsItem *)
	?setToolTipText@HbRatingSlider@@QAEXABVQString@@@Z @ 249 NONAME ABSENT ; void HbRatingSlider::setToolTipText(class QString const &)
	?setTimeout@HbGlobalCommonNote@@QAEXW4DefaultTimeout@HbPopupBase@@@Z @ 250 NONAME ABSENT ; void HbGlobalCommonNote::setTimeout(enum HbPopupBase::DefaultTimeout)
	??0HbSettingFormItem@@QAE@PAVQGraphicsItem@@@Z @ 251 NONAME ABSENT ; HbSettingFormItem::HbSettingFormItem(class QGraphicsItem *)
	?_q_orientationAboutToChange@HbListDialog@@AAEXXZ @ 252 NONAME ABSENT ; void HbListDialog::_q_orientationAboutToChange(void)
	?staticMetaObject@HbTransparentWindow@@2UQMetaObject@@B @ 253 NONAME ; struct QMetaObject const HbTransparentWindow::staticMetaObject
	?setMinMaxTextVisible@HbProgressBar@@QAEX_N@Z @ 254 NONAME ; void HbProgressBar::setMinMaxTextVisible(bool)
	?iconToggled@HbVolumeSliderPopup@@IAEX_N@Z @ 255 NONAME ; void HbVolumeSliderPopup::iconToggled(bool)
	?d_func@HbSettingFormDataItem@@ABEPBVHbSettingFormDataItemPrivate@@XZ @ 256 NONAME ABSENT ; class HbSettingFormDataItemPrivate const * HbSettingFormDataItem::d_func(void) const
	?tr@HbNote@@SA?AVQString@@PBD0H@Z @ 257 NONAME ABSENT ; class QString HbNote::tr(char const *, char const *, int)
	?enableTouchActivation@HbDeviceNotificationDialog@@QAEX_N@Z @ 258 NONAME ; void HbDeviceNotificationDialog::enableTouchActivation(bool)
	?canInsertFromMimeData@HbAbstractEdit@@MBE_NPBVQMimeData@@@Z @ 259 NONAME ; bool HbAbstractEdit::canInsertFromMimeData(class QMimeData const *) const
	?primitive@HbSettingForm@@UBEPAVQGraphicsItem@@W4Primitive@HbStyle@@@Z @ 260 NONAME ABSENT ; class QGraphicsItem * HbSettingForm::primitive(enum HbStyle::Primitive) const
	?insertSettingFormItem@HbSettingFormModel@@QAEPAVHbSettingFormDataItem@@HW4SettingItemType@2@ABVQString@@PBV2@@Z @ 261 NONAME ABSENT ; class HbSettingFormDataItem * HbSettingFormModel::insertSettingFormItem(int, enum HbSettingFormDataItem::SettingItemType, class QString const &, class HbSettingFormDataItem const *)
	?initialiseEditorWidget@HbFormViewItem@@MAEXPAVQGraphicsWidget@@W4FieldType@HbFormItem@@@Z @ 262 NONAME ABSENT ; void HbFormViewItem::initialiseEditorWidget(class QGraphicsWidget *, enum HbFormItem::FieldType)
	?tr@HbConfirmationQuery@@SA?AVQString@@PBD0@Z @ 263 NONAME ABSENT ; class QString HbConfirmationQuery::tr(char const *, char const *)
	?defaultZoomLevel@HbZoomSlider@@QBEHXZ @ 264 NONAME ; int HbZoomSlider::defaultZoomLevel(void) const
	?launchPopup@HbGlobalDiscreetPopup@@SAXABVQString@@@Z @ 265 NONAME ABSENT ; void HbGlobalDiscreetPopup::launchPopup(class QString const &)
	??0HbSettingFormModel@@QAE@PAVQObject@@@Z @ 266 NONAME ABSENT ; HbSettingFormModel::HbSettingFormModel(class QObject *)
	?isTouchActivating@HbNotificationDialog@@QAE_NXZ @ 267 NONAME ABSENT ; bool HbNotificationDialog::isTouchActivating(void)
	?primitive@HbSlider@@UBEPAVQGraphicsItem@@W4Primitive@HbStyle@@@Z @ 268 NONAME ; class QGraphicsItem * HbSlider::primitive(enum HbStyle::Primitive) const
	?staticMetaObject@HbAbstractEdit@@2UQMetaObject@@B @ 269 NONAME ; struct QMetaObject const HbAbstractEdit::staticMetaObject
	?removeChild@HbSettingFormDataItem@@QAEXH@Z @ 270 NONAME ABSENT ; void HbSettingFormDataItem::removeChild(int)
	?iconAlignment@HbProgressNote@@QBE?AV?$QFlags@W4AlignmentFlag@Qt@@@@XZ @ 271 NONAME ABSENT ; class QFlags<enum Qt::AlignmentFlag> HbProgressNote::iconAlignment(void) const
	?d_func@HbAbstractEdit@@ABEPBVHbAbstractEditPrivate@@XZ @ 272 NONAME ; class HbAbstractEditPrivate const * HbAbstractEdit::d_func(void) const
	?qt_metacast@HbGlobalConfirmationQuery@@UAEPAXPBD@Z @ 273 NONAME ABSENT ; void * HbGlobalConfirmationQuery::qt_metacast(char const *)
	?additionalText@HbPushButton@@QBE?AVQString@@XZ @ 274 NONAME ; class QString HbPushButton::additionalText(void) const
	?setIcon@HbProgressNote@@QAEXABVHbIcon@@@Z @ 275 NONAME ABSENT ; void HbProgressNote::setIcon(class HbIcon const &)
	?setData@HbFormItem@@QAEXABVQVariant@@ABVQString@@@Z @ 276 NONAME ABSENT ; void HbFormItem::setData(class QVariant const &, class QString const &)
	?d_func@HbFormViewItem@@AAEPAVHbFormViewItemPrivate@@XZ @ 277 NONAME ABSENT ; class HbFormViewItemPrivate * HbFormViewItem::d_func(void)
	?d_func@HbDeviceNotificationDialog@@ABEPBVHbDeviceNotificationDialogPrivate@@XZ @ 278 NONAME ; class HbDeviceNotificationDialogPrivate const * HbDeviceNotificationDialog::d_func(void) const
	?type@HbListDialog@@UBEHXZ @ 279 NONAME ABSENT ; int HbListDialog::type(void) const
	?qt_metacast@HbProgressBar@@UAEPAXPBD@Z @ 280 NONAME ; void * HbProgressBar::qt_metacast(char const *)
	?setPlainText@HbTextEdit@@QAEXABVQString@@@Z @ 281 NONAME ; void HbTextEdit::setPlainText(class QString const &)
	?keyPressEvent@HbAbstractEdit@@MAEXPAVQKeyEvent@@@Z @ 282 NONAME ; void HbAbstractEdit::keyPressEvent(class QKeyEvent *)
	?editorWidgetType@HbFormItem@@QBE?AW4GraphicsItemType@Hb@@XZ @ 283 NONAME ABSENT ; enum Hb::GraphicsItemType HbFormItem::editorWidgetType(void) const
	??_EHbValidator@@UAE@I@Z @ 284 NONAME ; HbValidator::~HbValidator(unsigned int)
	?setProgressDialogType@HbDeviceProgressDialog@@QAEXW4ProgressNoteType@HbProgressNote@@@Z @ 285 NONAME ABSENT ; void HbDeviceProgressDialog::setProgressDialogType(enum HbProgressNote::ProgressNoteType)
	?qt_metacall@HbSlider@@UAEHW4Call@QMetaObject@@HPAPAX@Z @ 286 NONAME ; int HbSlider::qt_metacall(enum QMetaObject::Call, int, void * *)
	??1HbDataFormModel@@UAE@XZ @ 287 NONAME ; HbDataFormModel::~HbDataFormModel(void)
	?trUtf8@HbRadioButtonList@@SA?AVQString@@PBD0@Z @ 288 NONAME ; class QString HbRadioButtonList::trUtf8(char const *, char const *)
	?itemShown@HbSettingFormItem@@IAEXABVQModelIndex@@@Z @ 289 NONAME ABSENT ; void HbSettingFormItem::itemShown(class QModelIndex const &)
	?getStaticMetaObject@HbCommonNote@@SAABUQMetaObject@@XZ @ 290 NONAME ABSENT ; struct QMetaObject const & HbCommonNote::getStaticMetaObject(void)
	??1HbTransparentWindow@@UAE@XZ @ 291 NONAME ; HbTransparentWindow::~HbTransparentWindow(void)
	?text@HbGlobalDiscreetPopup@@QBE?AVQString@@XZ @ 292 NONAME ABSENT ; class QString HbGlobalDiscreetPopup::text(void) const
	?resizeEvent@HbProgressBar@@MAEXPAVQGraphicsSceneResizeEvent@@@Z @ 293 NONAME ABSENT ; void HbProgressBar::resizeEvent(class QGraphicsSceneResizeEvent *)
	?setProgressValue@HbProgressBar@@QAEXH@Z @ 294 NONAME ; void HbProgressBar::setProgressValue(int)
	?rowsRemoved@HbDataForm@@UAEXABVQModelIndex@@HH@Z @ 295 NONAME ABSENT ; void HbDataForm::rowsRemoved(class QModelIndex const &, int, int)
	?setIconAlignment@HbGlobalConfirmationQuery@@QAEXV?$QFlags@W4AlignmentFlag@Qt@@@@@Z @ 296 NONAME ABSENT ; void HbGlobalConfirmationQuery::setIconAlignment(class QFlags<enum Qt::AlignmentFlag>)
	?setDocument@HbAbstractEdit@@IAEXPAVQTextDocument@@@Z @ 297 NONAME ; void HbAbstractEdit::setDocument(class QTextDocument *)
	?qt_metacall@HbDataQuery@@UAEHW4Call@QMetaObject@@HPAPAX@Z @ 298 NONAME ABSENT ; int HbDataQuery::qt_metacall(enum QMetaObject::Call, int, void * *)
	?setIconName@HbGlobalCommonNote@@QAEXABVQString@@@Z @ 299 NONAME ABSENT ; void HbGlobalCommonNote::setIconName(class QString const &)
	??_EHbInputDialog@@UAE@I@Z @ 300 NONAME ; HbInputDialog::~HbInputDialog(unsigned int)
	?copy@HbAbstractEdit@@QAEXXZ @ 301 NONAME ; void HbAbstractEdit::copy(void)
	?setCurrentRow@HbListDialog@@QAEXH@Z @ 302 NONAME ABSENT ; void HbListDialog::setCurrentRow(int)
	?minimum@HbSlider@@QBEHXZ @ 303 NONAME ; int HbSlider::minimum(void) const
	?setValidator@HbAbstractEdit@@QAEXPAVHbValidator@@@Z @ 304 NONAME ; void HbAbstractEdit::setValidator(class HbValidator *)
	?appendDataFormItem@HbDataFormModel@@QAEXPBVHbDataFormModelItem@@PAV2@@Z @ 305 NONAME ABSENT ; void HbDataFormModel::appendDataFormItem(class HbDataFormModelItem const *, class HbDataFormModelItem *)
	?tr@HbDataForm@@SA?AVQString@@PBD0H@Z @ 306 NONAME ; class QString HbDataForm::tr(char const *, char const *, int)
	?text@HbGlobalCommonNote@@QBE?AVQString@@XZ @ 307 NONAME ABSENT ; class QString HbGlobalCommonNote::text(void) const
	?setSelection@HbLineEdit@@QAEXHH@Z @ 308 NONAME ; void HbLineEdit::setSelection(int, int)
	?rowsRemoved@HbRadioButtonList@@MAEXABVQModelIndex@@HH@Z @ 309 NONAME ; void HbRadioButtonList::rowsRemoved(class QModelIndex const &, int, int)
	??0HbProgressNote@@QAE@PAVQGraphicsItem@@@Z @ 310 NONAME ABSENT ; HbProgressNote::HbProgressNote(class QGraphicsItem *)
	?contentWidget@HbDataFormViewItem@@QBEPAVHbWidget@@XZ @ 311 NONAME ABSENT ; class HbWidget * HbDataFormViewItem::contentWidget(void) const
	?trUtf8@HbDeviceNotificationDialog@@SA?AVQString@@PBD0H@Z @ 312 NONAME ; class QString HbDeviceNotificationDialog::trUtf8(char const *, char const *, int)
	?updateTextCursor@HbValidator@@UAEXAAVQTextCursor@@@Z @ 313 NONAME ; void HbValidator::updateTextCursor(class QTextCursor &)
	?setTextValue@HbDataQuery@@QAEXABVQVariant@@@Z @ 314 NONAME ABSENT ; void HbDataQuery::setTextValue(class QVariant const &)
	?colorSelected@HbColorDialog@@IAEXABVQColor@@@Z @ 315 NONAME ; void HbColorDialog::colorSelected(class QColor const &)
	?trUtf8@HbTextEdit@@SA?AVQString@@PBD0@Z @ 316 NONAME ; class QString HbTextEdit::trUtf8(char const *, char const *)
	?setHtml@HbTextEdit@@QAEXABVQString@@@Z @ 317 NONAME ; void HbTextEdit::setHtml(class QString const &)
	?qt_metacast@HbDeviceProgressDialog@@UAEPAXPBD@Z @ 318 NONAME ; void * HbDeviceProgressDialog::qt_metacast(char const *)
	?trUtf8@HbNote@@SA?AVQString@@PBD0H@Z @ 319 NONAME ABSENT ; class QString HbNote::trUtf8(char const *, char const *, int)
	?trUtf8@HbCarouselView@@SA?AVQString@@PBD0@Z @ 320 NONAME ABSENT ; class QString HbCarouselView::trUtf8(char const *, char const *)
	?metaObject@HbSlider@@UBEPBUQMetaObject@@XZ @ 321 NONAME ; struct QMetaObject const * HbSlider::metaObject(void) const
	?setInvertedAppearance@HbProgressBar@@QAEX_N@Z @ 322 NONAME ; void HbProgressBar::setInvertedAppearance(bool)
	?d_func@HbVolumeSliderPopup@@AAEPAVHbVolumeSliderPopupPrivate@@XZ @ 323 NONAME ; class HbVolumeSliderPopupPrivate * HbVolumeSliderPopup::d_func(void)
	?setIconAlignment@HbDeviceProgressDialog@@QAEXV?$QFlags@W4AlignmentFlag@Qt@@@@@Z @ 324 NONAME ABSENT ; void HbDeviceProgressDialog::setIconAlignment(class QFlags<enum Qt::AlignmentFlag>)
	?setAllItemData@HbFormViewItem@@IBEXPAVQObject@@@Z @ 325 NONAME ABSENT ; void HbFormViewItem::setAllItemData(class QObject *) const
	?sliderReleased@HbAbstractSliderControl@@IAEXXZ @ 326 NONAME ; void HbAbstractSliderControl::sliderReleased(void)
	?type@HbCombinedQuery@@UBEHXZ @ 327 NONAME ABSENT ; int HbCombinedQuery::type(void) const
	?isExpanded@HbFormViewItem@@QBE_NXZ @ 328 NONAME ABSENT ; bool HbFormViewItem::isExpanded(void) const
	?trUtf8@HbDataFormViewItem@@SA?AVQString@@PBD0H@Z @ 329 NONAME ; class QString HbDataFormViewItem::trUtf8(char const *, char const *, int)
	?d_func@HbFileDialog@@ABEPBVHbFileDialogPrivate@@XZ @ 330 NONAME ABSENT ; class HbFileDialogPrivate const * HbFileDialog::d_func(void) const
	?setMinorTickLabels@HbSliderPopup@@QAEXABVQStringList@@@Z @ 331 NONAME ; void HbSliderPopup::setMinorTickLabels(class QStringList const &)
	?itemChange@HbSlider@@MAE?AVQVariant@@W4GraphicsItemChange@QGraphicsItem@@ABV2@@Z @ 332 NONAME ; class QVariant HbSlider::itemChange(enum QGraphicsItem::GraphicsItemChange, class QVariant const &)
	?itemShown@HbDataFormViewItem@@IAEXABVQModelIndex@@@Z @ 333 NONAME ; void HbDataFormViewItem::itemShown(class QModelIndex const &)
	?tr@HbSettingFormItem@@SA?AVQString@@PBD0H@Z @ 334 NONAME ABSENT ; class QString HbSettingFormItem::tr(char const *, char const *, int)
	?setIconAlignment@HbNote@@QAEXV?$QFlags@W4AlignmentFlag@Qt@@@@@Z @ 335 NONAME ABSENT ; void HbNote::setIconAlignment(class QFlags<enum Qt::AlignmentFlag>)
	?setDateTime@HbDateTimeEdit@@QAEXABVQDateTime@@@Z @ 336 NONAME ABSENT ; void HbDateTimeEdit::setDateTime(class QDateTime const &)
	?setMinimum@HbDeviceProgressDialog@@QAEXH@Z @ 337 NONAME ; void HbDeviceProgressDialog::setMinimum(int)
	?trUtf8@HbDataForm@@SA?AVQString@@PBD0H@Z @ 338 NONAME ; class QString HbDataForm::trUtf8(char const *, char const *, int)
	?setTextValue@HbInputDialog@@QAEXABVQVariant@@H@Z @ 339 NONAME ABSENT ; void HbInputDialog::setTextValue(class QVariant const &, int)
	?qt_metacast@HbDataFormViewItem@@UAEPAXPBD@Z @ 340 NONAME ; void * HbDataFormViewItem::qt_metacast(char const *)
	??_EHbNote@@UAE@I@Z @ 341 NONAME ABSENT ; HbNote::~HbNote(unsigned int)
	?showEvent@HbListDialog@@MAEXPAVQShowEvent@@@Z @ 342 NONAME ABSENT ; void HbListDialog::showEvent(class QShowEvent *)
	?qt_metacall@HbAbstractSliderControl@@UAEHW4Call@QMetaObject@@HPAPAX@Z @ 343 NONAME ; int HbAbstractSliderControl::qt_metacall(enum QMetaObject::Call, int, void * *)
	?pageStep@HbAbstractSliderControl@@QBEHXZ @ 344 NONAME ; int HbAbstractSliderControl::pageStep(void) const
	?settingFormItem@HbSettingForm@@QBEPAVHbSettingFormItem@@ABVQModelIndex@@@Z @ 345 NONAME ABSENT ; class HbSettingFormItem * HbSettingForm::settingFormItem(class QModelIndex const &) const
	?trUtf8@HbAbstractEdit@@SA?AVQString@@PBD0H@Z @ 346 NONAME ; class QString HbAbstractEdit::trUtf8(char const *, char const *, int)
	?setSelectedItems@HbListDialog@@QAEXV?$QList@H@@@Z @ 347 NONAME ABSENT ; void HbListDialog::setSelectedItems(class QList<int>)
	?setRange@HbProgressBar@@QAEXHH@Z @ 348 NONAME ; void HbProgressBar::setRange(int, int)
	?qt_metacall@HbListDialog@@UAEHW4Call@QMetaObject@@HPAPAX@Z @ 349 NONAME ABSENT ; int HbListDialog::qt_metacall(enum QMetaObject::Call, int, void * *)
	?d_func@HbDateTimeEdit@@ABEPBVHbDateTimeEditPrivate@@XZ @ 350 NONAME ABSENT ; class HbDateTimeEditPrivate const * HbDateTimeEdit::d_func(void) const
	?setTitle@HbGlobalDiscreetPopup@@QAEXABVQString@@@Z @ 351 NONAME ABSENT ; void HbGlobalDiscreetPopup::setTitle(class QString const &)
	?resizeEvent@HbPushButton@@MAEXPAVQGraphicsSceneResizeEvent@@@Z @ 352 NONAME ; void HbPushButton::resizeEvent(class QGraphicsSceneResizeEvent *)
	??0HbDataFormModel@@QAE@PAVQObject@@@Z @ 353 NONAME ; HbDataFormModel::HbDataFormModel(class QObject *)
	?sizeHint@HbRadioButtonList@@MBE?AVQSizeF@@W4SizeHint@Qt@@ABV2@@Z @ 354 NONAME ; class QSizeF HbRadioButtonList::sizeHint(enum Qt::SizeHint, class QSizeF const &) const
	??1HbFormViewItem@@UAE@XZ @ 355 NONAME ABSENT ; HbFormViewItem::~HbFormViewItem(void)
	?stringItems@HbListDialog@@QBE?AVQStringList@@XZ @ 356 NONAME ABSENT ; class QStringList HbListDialog::stringItems(void) const
	?iconToggled@HbSlider@@IAEX_N@Z @ 357 NONAME ; void HbSlider::iconToggled(bool)
	?setTitleModified@HbFormItem@@QAEXXZ @ 358 NONAME ABSENT ; void HbFormItem::setTitleModified(void)
	?initStyleOption@HbSettingForm@@IAEXPAVHbStyleOptionSettingForm@@@Z @ 359 NONAME ABSENT ; void HbSettingForm::initStyleOption(class HbStyleOptionSettingForm *)
	?d_func@HbComboBox@@ABEPBVHbComboBoxPrivate@@XZ @ 360 NONAME ; class HbComboBoxPrivate const * HbComboBox::d_func(void) const
	??1HbAbstractSliderControl@@UAE@XZ @ 361 NONAME ; HbAbstractSliderControl::~HbAbstractSliderControl(void)
	??0HbDataQuery@@IAE@AAVHbPopupPrivate@@PAVQGraphicsItem@@@Z @ 362 NONAME ABSENT ; HbDataQuery::HbDataQuery(class HbPopupPrivate &, class QGraphicsItem *)
	?setText@HbSlider@@QAEXABVQString@@@Z @ 363 NONAME ; void HbSlider::setText(class QString const &)
	?currentText@HbComboBox@@QBE?AVQString@@XZ @ 364 NONAME ; class QString HbComboBox::currentText(void) const
	?setTextWrapping@HbGlobalConfirmationQuery@@QAEX_N@Z @ 365 NONAME ABSENT ; void HbGlobalConfirmationQuery::setTextWrapping(bool)
	??1HbProgressNote@@UAE@XZ @ 366 NONAME ABSENT ; HbProgressNote::~HbProgressNote(void)
	?setText@HbGlobalDiscreetPopup@@QAEXABVQString@@@Z @ 367 NONAME ABSENT ; void HbGlobalDiscreetPopup::setText(class QString const &)
	?setLabel@HbSettingFormDataItem@@QAEXABVQString@@@Z @ 368 NONAME ABSENT ; void HbSettingFormDataItem::setLabel(class QString const &)
	?d_func@HbPushButton@@ABEPBVHbPushButtonPrivate@@XZ @ 369 NONAME ; class HbPushButtonPrivate const * HbPushButton::d_func(void) const
	?invisibleRootItem@HbSettingFormModel@@QBEPAVHbSettingFormDataItem@@XZ @ 370 NONAME ABSENT ; class HbSettingFormDataItem * HbSettingFormModel::invisibleRootItem(void) const
	?d_func@HbProgressBar@@AAEPAVHbProgressBarPrivate@@XZ @ 371 NONAME ; class HbProgressBarPrivate * HbProgressBar::d_func(void)
	?tr@HbCombinedQuery@@SA?AVQString@@PBD0@Z @ 372 NONAME ABSENT ; class QString HbCombinedQuery::tr(char const *, char const *)
	?icon@HbNote@@QBE?AVHbIcon@@XZ @ 373 NONAME ABSENT ; class HbIcon HbNote::icon(void) const
	?cursorPositionChanged@HbAbstractEdit@@IAEXHH@Z @ 374 NONAME ; void HbAbstractEdit::cursorPositionChanged(int, int)
	?qt_metacast@HbCarouselView@@UAEPAXPBD@Z @ 375 NONAME ABSENT ; void * HbCarouselView::qt_metacast(char const *)
	?nextCheckState@HbCheckBox@@MAEXXZ @ 376 NONAME ; void HbCheckBox::nextCheckState(void)
	?d_func@HbMessageBox@@ABEPBVHbMessageBoxPrivate@@XZ @ 377 NONAME ; class HbMessageBoxPrivate const * HbMessageBox::d_func(void) const
	?removeChildren@HbSettingFormDataItem@@QAEXHH@Z @ 378 NONAME ABSENT ; void HbSettingFormDataItem::removeChildren(int, int)
	?mousePressEvent@HbDiscreetPopup@@MAEXPAVQGraphicsSceneMouseEvent@@@Z @ 379 NONAME ABSENT ; void HbDiscreetPopup::mousePressEvent(class QGraphicsSceneMouseEvent *)
	?updatePrimitives@HbCheckBox@@UAEXXZ @ 380 NONAME ; void HbCheckBox::updatePrimitives(void)
	?setText@HbGlobalProgressNote@@QAEXABVQString@@@Z @ 381 NONAME ABSENT ; void HbGlobalProgressNote::setText(class QString const &)
	?tr@HbColorDialog@@SA?AVQString@@PBD0@Z @ 382 NONAME ; class QString HbColorDialog::tr(char const *, char const *)
	?keyReleaseEvent@HbComboBox@@MAEXPAVQKeyEvent@@@Z @ 383 NONAME ; void HbComboBox::keyReleaseEvent(class QKeyEvent *)
	?state@HbSettingFormItem@@UBE?AV?$QMap@HVQVariant@@@@XZ @ 384 NONAME ABSENT ; class QMap<int, class QVariant> HbSettingFormItem::state(void) const
	?paint@HbTransparentWindow@@UAEXPAVQPainter@@PBVQStyleOptionGraphicsItem@@PAVQWidget@@@Z @ 385 NONAME ; void HbTransparentWindow::paint(class QPainter *, class QStyleOptionGraphicsItem const *, class QWidget *)
	?setMinimum@HbSlider@@QAEXH@Z @ 386 NONAME ; void HbSlider::setMinimum(int)
	?secondaryValue@HbDualDataQuery@@QBE?AVQVariant@@XZ @ 387 NONAME ABSENT ; class QVariant HbDualDataQuery::secondaryValue(void) const
	?previousIndex@HbSettingForm@@UBE?AVQModelIndex@@ABV2@@Z @ 388 NONAME ABSENT ; class QModelIndex HbSettingForm::previousIndex(class QModelIndex const &) const
	?setStringItems@HbListDialog@@QAEXABVQStringList@@H@Z @ 389 NONAME ABSENT ; void HbListDialog::setStringItems(class QStringList const &, int)
	?setTracking@HbAbstractSliderControl@@QAEX_N@Z @ 390 NONAME ; void HbAbstractSliderControl::setTracking(bool)
	?isExpanded@HbDataForm@@QBE_NABVQModelIndex@@@Z @ 391 NONAME ; bool HbDataForm::isExpanded(class QModelIndex const &) const
	??0HbFormView@@IAE@AAVHbFormViewPrivate@@W4Mode@0@PAVQGraphicsItem@@@Z @ 392 NONAME ABSENT ; HbFormView::HbFormView(class HbFormViewPrivate &, enum HbFormView::Mode, class QGraphicsItem *)
	?d_func@HbRadioButtonList@@ABEPBVHbRadioButtonListPrivate@@XZ @ 393 NONAME ; class HbRadioButtonListPrivate const * HbRadioButtonList::d_func(void) const
	?trUtf8@HbRatingSlider@@SA?AVQString@@PBD0H@Z @ 394 NONAME ; class QString HbRatingSlider::trUtf8(char const *, char const *, int)
	?setToolTipVisible@HbSlider@@UAEX_N@Z @ 395 NONAME ; void HbSlider::setToolTipVisible(bool)
	?text@HbMessageQuery@@QBE?AVQString@@XZ @ 396 NONAME ABSENT ; class QString HbMessageQuery::text(void) const
	?launchDialog@HbNotificationDialog@@SAXABVQString@@0PAVQGraphicsScene@@@Z @ 397 NONAME ; void HbNotificationDialog::launchDialog(class QString const &, class QString const &, class QGraphicsScene *)
	?data@HbDataFormModelItem@@QBE?AVQVariant@@H@Z @ 398 NONAME ; class QVariant HbDataFormModelItem::data(int) const
	?setPageStep@HbSlider@@QAEXH@Z @ 399 NONAME ; void HbSlider::setPageStep(int)
	?sliderPosition@HbSlider@@QBEHXZ @ 400 NONAME ; int HbSlider::sliderPosition(void) const
	?handleToolTip@HbProgressSlider@@QBE?AVQString@@XZ @ 401 NONAME ABSENT ; class QString HbProgressSlider::handleToolTip(void) const
	??0HbDateTimeEdit@@IAE@AAVHbDateTimeEditPrivate@@PAVQGraphicsItem@@@Z @ 402 NONAME ABSENT ; HbDateTimeEdit::HbDateTimeEdit(class HbDateTimeEditPrivate &, class QGraphicsItem *)
	?trUtf8@HbGlobalConfirmationQuery@@SA?AVQString@@PBD0H@Z @ 403 NONAME ABSENT ; class QString HbGlobalConfirmationQuery::trUtf8(char const *, char const *, int)
	?separatorAt@HbValidator@@QAE?AVQString@@H@Z @ 404 NONAME ; class QString HbValidator::separatorAt(int)
	?storeSettings@HbSettingForm@@QAEXXZ @ 405 NONAME ABSENT ; void HbSettingForm::storeSettings(void)
	?count@HbComboBox@@QBEHXZ @ 406 NONAME ; int HbComboBox::count(void) const
	?title@HbFormItem@@QBE?AVQString@@XZ @ 407 NONAME ABSENT ; class QString HbFormItem::title(void) const
	?metaObject@HbInputDialog@@UBEPBUQMetaObject@@XZ @ 408 NONAME ; struct QMetaObject const * HbInputDialog::metaObject(void) const
	?textChanged@HbLineEdit@@IAEXABVQString@@@Z @ 409 NONAME ; void HbLineEdit::textChanged(class QString const &)
	?setModel@HbSettingForm@@UAEXPAVQAbstractItemModel@@PAVHbAbstractViewItem@@@Z @ 410 NONAME ABSENT ; void HbSettingForm::setModel(class QAbstractItemModel *, class HbAbstractViewItem *)
	?map@HbTrajectory@@QBE_NMAAVQPointF@@@Z @ 411 NONAME ABSENT ; bool HbTrajectory::map(float, class QPointF &) const
	?tr@HbCommonNote@@SA?AVQString@@PBD0H@Z @ 412 NONAME ABSENT ; class QString HbCommonNote::tr(char const *, char const *, int)
	?qt_metacast@HbGlobalProgressNote@@UAEPAXPBD@Z @ 413 NONAME ABSENT ; void * HbGlobalProgressNote::qt_metacast(char const *)
	?mouseReleaseEvent@HbVolumeSlider@@MAEXPAVQGraphicsSceneMouseEvent@@@Z @ 414 NONAME ; void HbVolumeSlider::mouseReleaseEvent(class QGraphicsSceneMouseEvent *)
	?alignment@HbAbstractEdit@@QBE?AV?$QFlags@W4AlignmentFlag@Qt@@@@XZ @ 415 NONAME ; class QFlags<enum Qt::AlignmentFlag> HbAbstractEdit::alignment(void) const
	?noteType@HbCommonNote@@QBE?AW4NoteType@1@XZ @ 416 NONAME ABSENT ; enum HbCommonNote::NoteType HbCommonNote::noteType(void) const
	?getStaticMetaObject@HbNote@@SAABUQMetaObject@@XZ @ 417 NONAME ABSENT ; struct QMetaObject const & HbNote::getStaticMetaObject(void)
	?tr@HbRatingSlider@@SA?AVQString@@PBD0@Z @ 418 NONAME ; class QString HbRatingSlider::tr(char const *, char const *)
	?updateChildItems@HbDataFormViewItem@@UAEXXZ @ 419 NONAME ; void HbDataFormViewItem::updateChildItems(void)
	?removeRows@HbSettingFormModel@@UAE_NHHABVQModelIndex@@@Z @ 420 NONAME ABSENT ; bool HbSettingFormModel::removeRows(int, int, class QModelIndex const &)
	?index@HbFormItem@@QBEHXZ @ 421 NONAME ABSENT ; int HbFormItem::index(void) const
	??1HbVolumeSlider@@UAE@XZ @ 422 NONAME ABSENT ; HbVolumeSlider::~HbVolumeSlider(void)
	?tr@HbListDialog@@SA?AVQString@@PBD0H@Z @ 423 NONAME ABSENT ; class QString HbListDialog::tr(char const *, char const *, int)
	?iconClicked@HbSlider@@IAEXXZ @ 424 NONAME ; void HbSlider::iconClicked(void)
	?changeEvent@HbAbstractEdit@@MAEXPAVQEvent@@@Z @ 425 NONAME ; void HbAbstractEdit::changeEvent(class QEvent *)
	??_EHbSliderPopup@@UAE@I@Z @ 426 NONAME ; HbSliderPopup::~HbSliderPopup(unsigned int)
	??0HbCheckBox@@QAE@PAVQGraphicsItem@@@Z @ 427 NONAME ; HbCheckBox::HbCheckBox(class QGraphicsItem *)
	?qt_metacall@HbProgressNote@@UAEHW4Call@QMetaObject@@HPAPAX@Z @ 428 NONAME ABSENT ; int HbProgressNote::qt_metacall(enum QMetaObject::Call, int, void * *)
	?setModel@HbSettingFormDataItem@@QAEXPBVQAbstractItemModel@@@Z @ 429 NONAME ABSENT ; void HbSettingFormDataItem::setModel(class QAbstractItemModel const *)
	?isTouchActivating@HbDiscreetPopup@@QAE_NXZ @ 430 NONAME ABSENT ; bool HbDiscreetPopup::isTouchActivating(void)
	?progressNoteType@HbGlobalProgressNote@@QBE?AW4ProgressNoteType@HbProgressNote@@XZ @ 431 NONAME ABSENT ; enum HbProgressNote::ProgressNoteType HbGlobalProgressNote::progressNoteType(void) const
	?majorTickLabels@HbSliderPopup@@QBE?AVQStringList@@XZ @ 432 NONAME ; class QStringList HbSliderPopup::majorTickLabels(void) const
	?startPreview@HbRadioButtonList@@IAEXH@Z @ 433 NONAME ; void HbRadioButtonList::startPreview(int)
	?focusInEvent@HbAbstractSliderControl@@MAEXPAVQFocusEvent@@@Z @ 434 NONAME ; void HbAbstractSliderControl::focusInEvent(class QFocusEvent *)
	?updateChildItems@HbSettingFormItem@@UAEXXZ @ 435 NONAME ABSENT ; void HbSettingFormItem::updateChildItems(void)
	?itemSelected@HbRadioButtonList@@IAEXH@Z @ 436 NONAME ; void HbRadioButtonList::itemSelected(int)
	?sliderPressed@HbSliderPopup@@IAEXXZ @ 437 NONAME ; void HbSliderPopup::sliderPressed(void)
	?minimum@HbDeviceProgressDialog@@QBEHXZ @ 438 NONAME ; int HbDeviceProgressDialog::minimum(void) const
	?setProgressNoteType@HbGlobalProgressNote@@QAEXW4ProgressNoteType@HbProgressNote@@@Z @ 439 NONAME ABSENT ; void HbGlobalProgressNote::setProgressNoteType(enum HbProgressNote::ProgressNoteType)
	?staticMetaObject@HbSettingForm@@2UQMetaObject@@B @ 440 NONAME ABSENT ; struct QMetaObject const HbSettingForm::staticMetaObject
	?setModel@HbListQuery@@QAEXPAVQAbstractItemModel@@@Z @ 441 NONAME ABSENT ; void HbListQuery::setModel(class QAbstractItemModel *)
	?maximum@HbProgressBar@@QBEHXZ @ 442 NONAME ; int HbProgressBar::maximum(void) const
	?inputMethodEvent@HbAbstractEdit@@MAEXPAVQInputMethodEvent@@@Z @ 443 NONAME ; void HbAbstractEdit::inputMethodEvent(class QInputMethodEvent *)
	?setValidator@HbComboBox@@QAEXPAVHbValidator@@@Z @ 444 NONAME ; void HbComboBox::setValidator(class HbValidator *)
	?linkHovered@HbMessageQuery@@IAEXABVQString@@@Z @ 445 NONAME ABSENT ; void HbMessageQuery::linkHovered(class QString const &)
	?mousePressEvent@HbPushButton@@MAEXPAVQGraphicsSceneMouseEvent@@@Z @ 446 NONAME ; void HbPushButton::mousePressEvent(class QGraphicsSceneMouseEvent *)
	?updatePrimitives@HbSliderPopup@@UAEXXZ @ 447 NONAME ; void HbSliderPopup::updatePrimitives(void)
	?setEditText@HbComboBox@@QAEXABVQString@@@Z @ 448 NONAME ; void HbComboBox::setEditText(class QString const &)
	?iconPressed@HbSlider@@IAEXXZ @ 449 NONAME ; void HbSlider::iconPressed(void)
	?appendLine@HbTrajectory@@QAEXMABVQPointF@@@Z @ 450 NONAME ABSENT ; void HbTrajectory::appendLine(float, class QPointF const &)
	??_EHbPushButton@@UAE@I@Z @ 451 NONAME ; HbPushButton::~HbPushButton(unsigned int)
	?metaObject@HbCommonNote@@UBEPBUQMetaObject@@XZ @ 452 NONAME ABSENT ; struct QMetaObject const * HbCommonNote::metaObject(void) const
	??_EHbSlider@@UAE@I@Z @ 453 NONAME ; HbSlider::~HbSlider(unsigned int)
	?textAlignment@HbProgressBar@@QBE?AV?$QFlags@W4AlignmentFlag@Qt@@@@XZ @ 454 NONAME ABSENT ; class QFlags<enum Qt::AlignmentFlag> HbProgressBar::textAlignment(void) const
	?removeItem@HbComboBox@@QAEXH@Z @ 455 NONAME ; void HbComboBox::removeItem(int)
	?type@HbMessageQuery@@UBEHXZ @ 456 NONAME ABSENT ; int HbMessageQuery::type(void) const
	?setTextVisible@HbProgressBar@@QAEX_N@Z @ 457 NONAME ABSENT ; void HbProgressBar::setTextVisible(bool)
	?focusInEvent@HbZoomSlider@@MAEXPAVQFocusEvent@@@Z @ 458 NONAME ; void HbZoomSlider::focusInEvent(class QFocusEvent *)
	??0HbLineEdit@@IAE@AAVHbLineEditPrivate@@PAVQGraphicsItem@@@Z @ 459 NONAME ; HbLineEdit::HbLineEdit(class HbLineEditPrivate &, class QGraphicsItem *)
	?d_func@HbCheckBox@@AAEPAVHbCheckBoxPrivate@@XZ @ 460 NONAME ; class HbCheckBoxPrivate * HbCheckBox::d_func(void)
	?d_func@HbGlobalConfirmationQuery@@ABEPBVHbGlobalConfirmationQueryPrivate@@XZ @ 461 NONAME ABSENT ; class HbGlobalConfirmationQueryPrivate const * HbGlobalConfirmationQuery::d_func(void) const
	?trUtf8@HbTransparentWindow@@SA?AVQString@@PBD0H@Z @ 462 NONAME ; class QString HbTransparentWindow::trUtf8(char const *, char const *, int)
	?setProgressNoteType@HbProgressNote@@QAEXW4ProgressNoteType@1@@Z @ 463 NONAME ABSENT ; void HbProgressNote::setProgressNoteType(enum HbProgressNote::ProgressNoteType)
	?staticMetaObject@HbFormItem@@2UQMetaObject@@B @ 464 NONAME ABSENT ; struct QMetaObject const HbFormItem::staticMetaObject
	??0HbNote@@QAE@PAVQGraphicsItem@@@Z @ 465 NONAME ABSENT ; HbNote::HbNote(class QGraphicsItem *)
	?metaObject@HbListDialog@@UBEPBUQMetaObject@@XZ @ 466 NONAME ABSENT ; struct QMetaObject const * HbListDialog::metaObject(void) const
	?itemText@HbComboBox@@QBE?AVQString@@H@Z @ 467 NONAME ; class QString HbComboBox::itemText(int) const
	?iconAlignment@HbGlobalConfirmationQuery@@QBE?AV?$QFlags@W4AlignmentFlag@Qt@@@@XZ @ 468 NONAME ABSENT ; class QFlags<enum Qt::AlignmentFlag> HbGlobalConfirmationQuery::iconAlignment(void) const
	?text@HbNotificationDialog@@QBE?AVQString@@XZ @ 469 NONAME ; class QString HbNotificationDialog::text(void) const
	?qt_metacast@HbFileDialog@@UAEPAXPBD@Z @ 470 NONAME ABSENT ; void * HbFileDialog::qt_metacast(char const *)
	??_EHbSettingFormDataItem@@UAE@I@Z @ 471 NONAME ABSENT ; HbSettingFormDataItem::~HbSettingFormDataItem(unsigned int)
	?initStyleOption@HbVolumeSlider@@IBEXPAVHbStyleOptionSlider@@@Z @ 472 NONAME ; void HbVolumeSlider::initStyleOption(class HbStyleOptionSlider *) const
	??0HbDeviceNotificationDialog@@QAE@PAVQObject@@@Z @ 473 NONAME ; HbDeviceNotificationDialog::HbDeviceNotificationDialog(class QObject *)
	?setPlainText@HbAbstractEdit@@IAEXABVQString@@@Z @ 474 NONAME ; void HbAbstractEdit::setPlainText(class QString const &)
	?createCustomWidget@HbDataFormViewItem@@MAEPAVHbWidget@@XZ @ 475 NONAME ; class HbWidget * HbDataFormViewItem::createCustomWidget(void)
	?columnCount@HbSettingFormModel@@UBEHABVQModelIndex@@@Z @ 476 NONAME ABSENT ; int HbSettingFormModel::columnCount(class QModelIndex const &) const
	?titleWidgets@HbFormViewItem@@QBE?AV?$QList@PAVQGraphicsWidget@@@@XZ @ 477 NONAME ABSENT ; class QList<class QGraphicsWidget *> HbFormViewItem::titleWidgets(void) const
	?setMinText@HbProgressBar@@QAEXABVQString@@@Z @ 478 NONAME ; void HbProgressBar::setMinText(class QString const &)
	?type@HbSettingFormItem@@UBEHXZ @ 479 NONAME ABSENT ; int HbSettingFormItem::type(void) const
	?itemActivated@HbFormViewItem@@MAEXXZ @ 480 NONAME ABSENT ; void HbFormViewItem::itemActivated(void)
	?isExpandable@HbFormViewItem@@UBE_NPBVHbFormItem@@@Z @ 481 NONAME ABSENT ; bool HbFormViewItem::isExpandable(class HbFormItem const *) const
	?staticMetaObject@HbDataFormViewItem@@2UQMetaObject@@B @ 482 NONAME ; struct QMetaObject const HbDataFormViewItem::staticMetaObject
	?d_func@HbLineEdit@@AAEPAVHbLineEditPrivate@@XZ @ 483 NONAME ; class HbLineEditPrivate * HbLineEdit::d_func(void)
	?setMaximum@HbSlider@@QAEXH@Z @ 484 NONAME ; void HbSlider::setMaximum(int)
	?isToolTipVisible@HbSlider@@QBE_NXZ @ 485 NONAME ; bool HbSlider::isToolTipVisible(void) const
	??1HbZoomSlider@@UAE@XZ @ 486 NONAME ABSENT ; HbZoomSlider::~HbZoomSlider(void)
	?enableTouchActivation@HbGlobalDiscreetPopup@@QAEX_N@Z @ 487 NONAME ABSENT ; void HbGlobalDiscreetPopup::enableTouchActivation(bool)
	?tr@HbTransparentWindow@@SA?AVQString@@PBD0@Z @ 488 NONAME ; class QString HbTransparentWindow::tr(char const *, char const *)
	?mousePressEvent@HbInputDialog@@MAEXPAVQGraphicsSceneMouseEvent@@@Z @ 489 NONAME ABSENT ; void HbInputDialog::mousePressEvent(class QGraphicsSceneMouseEvent *)
	?minimumRows@HbLineEdit@@QBEHXZ @ 490 NONAME ABSENT ; int HbLineEdit::minimumRows(void) const
	?majorTickInterval@HbSlider@@QBEHXZ @ 491 NONAME ; int HbSlider::majorTickInterval(void) const
	??_EHbFormItem@@UAE@I@Z @ 492 NONAME ABSENT ; HbFormItem::~HbFormItem(unsigned int)
	?metaObject@HbDataFormViewItem@@UBEPBUQMetaObject@@XZ @ 493 NONAME ; struct QMetaObject const * HbDataFormViewItem::metaObject(void) const
	?autoClose@HbGlobalProgressNote@@QBE_NXZ @ 494 NONAME ABSENT ; bool HbGlobalProgressNote::autoClose(void) const
	?firstPoint@HbTrajectory@@QBE?AVQPointF@@XZ @ 495 NONAME ABSENT ; class QPointF HbTrajectory::firstPoint(void) const
	?invertedControls@HbAbstractSliderControl@@QBE_NXZ @ 496 NONAME ; bool HbAbstractSliderControl::invertedControls(void) const
	?qt_metacall@HbFormViewItem@@UAEHW4Call@QMetaObject@@HPAPAX@Z @ 497 NONAME ABSENT ; int HbFormViewItem::qt_metacall(enum QMetaObject::Call, int, void * *)
	?isNoneBlockVisible@HbColorDialog@@QBE_NXZ @ 498 NONAME ; bool HbColorDialog::isNoneBlockVisible(void) const
	?setRange@HbProgressNote@@QAEXHH@Z @ 499 NONAME ABSENT ; void HbProgressNote::setRange(int, int)
	?isModified@HbFormView@@QBE_NXZ @ 500 NONAME ABSENT ; bool HbFormView::isModified(void) const
	?setContentWidgetData@HbSettingFormDataItem@@QAEXABVQString@@ABVQVariant@@@Z @ 501 NONAME ABSENT ; void HbSettingFormDataItem::setContentWidgetData(class QString const &, class QVariant const &)
	?thumbItem@HbProgressSlider@@QBEPAVQGraphicsWidget@@XZ @ 502 NONAME ABSENT ; class QGraphicsWidget * HbProgressSlider::thumbItem(void) const
	?staticMetaObject@HbSliderPopup@@2UQMetaObject@@B @ 503 NONAME ; struct QMetaObject const HbSliderPopup::staticMetaObject
	?setWidgetItems@HbListQuery@@QAEXAAV?$QList@PAVHbListWidgetItem@@@@_NH@Z @ 504 NONAME ABSENT ; void HbListQuery::setWidgetItems(class QList<class HbListWidgetItem *> &, bool, int)
	?setTitle@HbFileDialog@@QAEXABVQString@@@Z @ 505 NONAME ABSENT ; void HbFileDialog::setTitle(class QString const &)
	??1HbDualDataQuery@@UAE@XZ @ 506 NONAME ABSENT ; HbDualDataQuery::~HbDualDataQuery(void)
	?d_func@HbCarouselView@@ABEPBVHbCarouselViewPrivate@@XZ @ 507 NONAME ABSENT ; class HbCarouselViewPrivate const * HbCarouselView::d_func(void) const
	?trUtf8@HbDiscreetPopup@@SA?AVQString@@PBD0H@Z @ 508 NONAME ABSENT ; class QString HbDiscreetPopup::trUtf8(char const *, char const *, int)
	?primaryAction@HbGlobalConfirmationQuery@@QBEPAVHbAction@@XZ @ 509 NONAME ABSENT ; class HbAction * HbGlobalConfirmationQuery::primaryAction(void) const
	?insertDataFormGroupPage@HbDataFormModel@@QAEPAVHbDataFormModelItem@@HABVQString@@PBV2@@Z @ 510 NONAME ABSENT ; class HbDataFormModelItem * HbDataFormModel::insertDataFormGroupPage(int, class QString const &, class HbDataFormModelItem const *)
	?currentIndex@HbCarouselView@@QBE?AVQModelIndex@@XZ @ 511 NONAME ABSENT ; class QModelIndex HbCarouselView::currentIndex(void) const
	?trUtf8@HbHighlight@@SA?AVQString@@PBD0H@Z @ 512 NONAME ABSENT ; class QString HbHighlight::trUtf8(char const *, char const *, int)
	?appendDataFormItem@HbDataFormModel@@QAEPAVHbDataFormModelItem@@W4DataItemType@2@ABVQString@@PBV2@@Z @ 513 NONAME ABSENT ; class HbDataFormModelItem * HbDataFormModel::appendDataFormItem(enum HbDataFormModelItem::DataItemType, class QString const &, class HbDataFormModelItem const *)
	?setThumbItem@HbProgressSlider@@QAEXPAVQGraphicsWidget@@@Z @ 514 NONAME ABSENT ; void HbProgressSlider::setThumbItem(class QGraphicsWidget *)
	?focusInEvent@HbSlider@@MAEXPAVQFocusEvent@@@Z @ 515 NONAME ; void HbSlider::focusInEvent(class QFocusEvent *)
	?tr@HbCarouselView@@SA?AVQString@@PBD0@Z @ 516 NONAME ABSENT ; class QString HbCarouselView::tr(char const *, char const *)
	??0HbLineEdit@@QAE@ABVQString@@PAVQGraphicsItem@@@Z @ 517 NONAME ; HbLineEdit::HbLineEdit(class QString const &, class QGraphicsItem *)
	?qt_metacall@HbConfirmationQuery@@UAEHW4Call@QMetaObject@@HPAPAX@Z @ 518 NONAME ABSENT ; int HbConfirmationQuery::qt_metacall(enum QMetaObject::Call, int, void * *)
	?initStyleOption@HbProgressSlider@@MBEXPAVHbStyleOption@@@Z @ 519 NONAME ABSENT ; void HbProgressSlider::initStyleOption(class HbStyleOption *) const
	?trUtf8@HbRadioButtonList@@SA?AVQString@@PBD0H@Z @ 520 NONAME ; class QString HbRadioButtonList::trUtf8(char const *, char const *, int)
	??0HbDateTimeEdit@@QAE@PAVQGraphicsItem@@@Z @ 521 NONAME ABSENT ; HbDateTimeEdit::HbDateTimeEdit(class QGraphicsItem *)
	?type@HbProgressSlider@@UBEHXZ @ 522 NONAME ; int HbProgressSlider::type(void) const
	?blockCountChanged@HbAbstractEdit@@MAEXH@Z @ 523 NONAME ; void HbAbstractEdit::blockCountChanged(int)
	?metaObject@HbVolumeSlider@@UBEPBUQMetaObject@@XZ @ 524 NONAME ; struct QMetaObject const * HbVolumeSlider::metaObject(void) const
	?launchDialog@HbDeviceNotificationDialog@@SAXABVQString@@0@Z @ 525 NONAME ABSENT ; void HbDeviceNotificationDialog::launchDialog(class QString const &, class QString const &)
	?type@HbSettingForm@@UBEHXZ @ 526 NONAME ABSENT ; int HbSettingForm::type(void) const
	?getStaticMetaObject@HbDiscreetPopup@@SAABUQMetaObject@@XZ @ 527 NONAME ABSENT ; struct QMetaObject const & HbDiscreetPopup::getStaticMetaObject(void)
	?valueChanged@HbProgressBar@@IAEXH@Z @ 528 NONAME ; void HbProgressBar::valueChanged(int)
	?currentRow@HbListDialog@@QAEHXZ @ 529 NONAME ABSENT ; int HbListDialog::currentRow(void)
	?trUtf8@HbFormViewItem@@SA?AVQString@@PBD0H@Z @ 530 NONAME ABSENT ; class QString HbFormViewItem::trUtf8(char const *, char const *, int)
	?mouseReleaseEvent@HbComboBox@@MAEXPAVQGraphicsSceneMouseEvent@@@Z @ 531 NONAME ABSENT ; void HbComboBox::mouseReleaseEvent(class QGraphicsSceneMouseEvent *)
	?type@HbCarouselView@@UBEHXZ @ 532 NONAME ABSENT ; int HbCarouselView::type(void) const
	?enableTouchActivation@HbDiscreetPopup@@QAEX_N@Z @ 533 NONAME ABSENT ; void HbDiscreetPopup::enableTouchActivation(bool)
	?trUtf8@HbVolumeSliderPopup@@SA?AVQString@@PBD0@Z @ 534 NONAME ; class QString HbVolumeSliderPopup::trUtf8(char const *, char const *)
	?getStaticMetaObject@HbGlobalCommonNote@@SAABUQMetaObject@@XZ @ 535 NONAME ABSENT ; struct QMetaObject const & HbGlobalCommonNote::getStaticMetaObject(void)
	?d_func@HbVolumeSlider@@AAEPAVHbVolumeSliderPrivate@@XZ @ 536 NONAME ; class HbVolumeSliderPrivate * HbVolumeSlider::d_func(void)
	?mousePressEvent@HbZoomSlider@@MAEXPAVQGraphicsSceneMouseEvent@@@Z @ 537 NONAME ; void HbZoomSlider::mousePressEvent(class QGraphicsSceneMouseEvent *)
	?d_func@HbListDialog@@AAEPAVHbListDialogPrivate@@XZ @ 538 NONAME ABSENT ; class HbListDialogPrivate * HbListDialog::d_func(void)
	?timerEvent@HbAbstractSliderControl@@MAEXPAVQTimerEvent@@@Z @ 539 NONAME ; void HbAbstractSliderControl::timerEvent(class QTimerEvent *)
	?updateGeometry@HbAbstractEdit@@MAEXXZ @ 540 NONAME ; void HbAbstractEdit::updateGeometry(void)
	?childAt@HbDataFormModelItem@@QBEPAV1@H@Z @ 541 NONAME ; class HbDataFormModelItem * HbDataFormModelItem::childAt(int) const
	?d_func@HbSettingForm@@AAEPAVHbSettingFormPrivate@@XZ @ 542 NONAME ABSENT ; class HbSettingFormPrivate * HbSettingForm::d_func(void)
	?insertRows@HbDataFormModel@@UAE_NHHABVQModelIndex@@@Z @ 543 NONAME ABSENT ; bool HbDataFormModel::insertRows(int, int, class QModelIndex const &)
	?text@HbGlobalProgressNote@@QBE?AVQString@@XZ @ 544 NONAME ABSENT ; class QString HbGlobalProgressNote::text(void) const
	?cancel@HbGlobalProgressNote@@QAEXXZ @ 545 NONAME ABSENT ; void HbGlobalProgressNote::cancel(void)
	?d_func@HbSettingFormModel@@ABEPBVHbSettingFormModelPrivate@@XZ @ 546 NONAME ABSENT ; class HbSettingFormModelPrivate const * HbSettingFormModel::d_func(void) const
	?tr@HbFormItem@@SA?AVQString@@PBD0@Z @ 547 NONAME ABSENT ; class QString HbFormItem::tr(char const *, char const *)
	??_EHbTrajectory@@UAE@I@Z @ 548 NONAME ABSENT ; HbTrajectory::~HbTrajectory(unsigned int)
	?setIconCheckable@HbSlider@@QAEX_N@Z @ 549 NONAME ; void HbSlider::setIconCheckable(bool)
	?listItems@HbCombinedQuery@@QBE?AV?$QMap@VQString@@V1@@@XZ @ 550 NONAME ABSENT ; class QMap<class QString, class QString> HbCombinedQuery::listItems(void) const
	?d_func@HbInputDialog@@ABEPBVHbInputDialogPrivate@@XZ @ 551 NONAME ; class HbInputDialogPrivate const * HbInputDialog::d_func(void) const
	?inputMethodQuery@HbAbstractEdit@@MBE?AVQVariant@@W4InputMethodQuery@Qt@@@Z @ 552 NONAME ; class QVariant HbAbstractEdit::inputMethodQuery(enum Qt::InputMethodQuery) const
	?viewWidgetType@HbFormViewItem@@UBE?AW4GraphicsItemType@Hb@@XZ @ 553 NONAME ABSENT ; enum Hb::GraphicsItemType HbFormViewItem::viewWidgetType(void) const
	?setState@HbSettingFormItem@@UAEXABV?$QMap@HVQVariant@@@@@Z @ 554 NONAME ABSENT ; void HbSettingFormItem::setState(class QMap<int, class QVariant> const &)
	?initStyleOption@HbPushButton@@IBEXPAVHbStyleOptionPushButton@@@Z @ 555 NONAME ; void HbPushButton::initStyleOption(class HbStyleOptionPushButton *) const
	?setTimeout@HbDeviceNotificationDialog@@QAEXW4DefaultTimeout@HbPopupBase@@@Z @ 556 NONAME ABSENT ; void HbDeviceNotificationDialog::setTimeout(enum HbPopupBase::DefaultTimeout)
	??0HbNote@@IAE@AAVHbNotePrivate@@PAVQGraphicsItem@@@Z @ 557 NONAME ABSENT ; HbNote::HbNote(class HbNotePrivate &, class QGraphicsItem *)
	?event@HbAbstractEdit@@UAE_NPAVQEvent@@@Z @ 558 NONAME ; bool HbAbstractEdit::event(class QEvent *)
	?trUtf8@HbDeviceProgressDialog@@SA?AVQString@@PBD0H@Z @ 559 NONAME ; class QString HbDeviceProgressDialog::trUtf8(char const *, char const *, int)
	?setSingleStep@HbSliderPopup@@QAEXH@Z @ 560 NONAME ; void HbSliderPopup::setSingleStep(int)
	?insertSettingFormPage@HbSettingFormModel@@QAEPAVHbSettingFormDataItem@@HABVQString@@@Z @ 561 NONAME ABSENT ; class HbSettingFormDataItem * HbSettingFormModel::insertSettingFormPage(int, class QString const &)
	?expandAnimationTimeOut@HbFormViewItem@@IAEXM@Z @ 562 NONAME ABSENT ; void HbFormViewItem::expandAnimationTimeOut(float)
	?trUtf8@HbDeviceProgressDialog@@SA?AVQString@@PBD0@Z @ 563 NONAME ; class QString HbDeviceProgressDialog::trUtf8(char const *, char const *)
	??0HbFormView@@IAE@AAVHbFormViewPrivate@@PAVQGraphicsItem@@@Z @ 564 NONAME ABSENT ; HbFormView::HbFormView(class HbFormViewPrivate &, class QGraphicsItem *)
	??_EHbColorDialog@@UAE@I@Z @ 565 NONAME ; HbColorDialog::~HbColorDialog(unsigned int)
	??_EHbZoomSlider@@UAE@I@Z @ 566 NONAME ABSENT ; HbZoomSlider::~HbZoomSlider(unsigned int)
	??0HbDataQuery@@QAE@PAVQGraphicsWidget@@@Z @ 567 NONAME ABSENT ; HbDataQuery::HbDataQuery(class QGraphicsWidget *)
	?getStaticMetaObject@HbDateTimeEdit@@SAABUQMetaObject@@XZ @ 568 NONAME ABSENT ; struct QMetaObject const & HbDateTimeEdit::getStaticMetaObject(void)
	?setModel@HbDataForm@@UAEXPAVQAbstractItemModel@@PAVHbAbstractViewItem@@@Z @ 569 NONAME ; void HbDataForm::setModel(class QAbstractItemModel *, class HbAbstractViewItem *)
	?setText@HbPushButton@@QAEXABVQString@@@Z @ 570 NONAME ; void HbPushButton::setText(class QString const &)
	?trUtf8@HbSlider@@SA?AVQString@@PBD0H@Z @ 571 NONAME ; class QString HbSlider::trUtf8(char const *, char const *, int)
	?store@HbDataFormViewItem@@UAEXXZ @ 572 NONAME ABSENT ; void HbDataFormViewItem::store(void)
	?resizeEvent@HbLineEdit@@MAEXPAVQGraphicsSceneResizeEvent@@@Z @ 573 NONAME ABSENT ; void HbLineEdit::resizeEvent(class QGraphicsSceneResizeEvent *)
	?type@HbMessageBox@@UBEHXZ @ 574 NONAME ; int HbMessageBox::type(void) const
	?d_func@HbDataFormModelItem@@ABEPBVHbDataFormModelItemPrivate@@XZ @ 575 NONAME ; class HbDataFormModelItemPrivate const * HbDataFormModelItem::d_func(void) const
	?_q_orientationChanged@HbListDialog@@AAEXW4Orientation@Qt@@@Z @ 576 NONAME ABSENT ; void HbListDialog::_q_orientationChanged(enum Qt::Orientation)
	?currentIndexChanged@HbCarouselView@@IAEXABVQModelIndex@@0@Z @ 577 NONAME ABSENT ; void HbCarouselView::currentIndexChanged(class QModelIndex const &, class QModelIndex const &)
	?staticMetaObject@HbFileDialog@@2UQMetaObject@@B @ 578 NONAME ABSENT ; struct QMetaObject const HbFileDialog::staticMetaObject
	?showContextMenu@HbAbstractEdit@@IAEXVQPointF@@@Z @ 579 NONAME ; void HbAbstractEdit::showContextMenu(class QPointF)
	?setItemData@HbFormViewItem@@KAXPAVQObject@@PBDABVQVariant@@@Z @ 580 NONAME ABSENT ; void HbFormViewItem::setItemData(class QObject *, char const *, class QVariant const &)
	?selectionMode@HbListDialog@@QBE?AW4SelectionMode@HbAbstractItemView@@XZ @ 581 NONAME ABSENT ; enum HbAbstractItemView::SelectionMode HbListDialog::selectionMode(void) const
	??0HbAbstractSliderControl@@QAE@W4Orientation@Qt@@PAVQGraphicsItem@@@Z @ 582 NONAME ; HbAbstractSliderControl::HbAbstractSliderControl(enum Qt::Orientation, class QGraphicsItem *)
	?setValue@HbAbstractSliderControl@@QAEXH@Z @ 583 NONAME ; void HbAbstractSliderControl::setValue(int)
	?insertFromMimeData@HbAbstractEdit@@MAEXPBVQMimeData@@@Z @ 584 NONAME ; void HbAbstractEdit::insertFromMimeData(class QMimeData const *)
	?rowCount@HbSettingFormModel@@UBEHABVQModelIndex@@@Z @ 585 NONAME ABSENT ; int HbSettingFormModel::rowCount(class QModelIndex const &) const
	?qt_metacall@HbNote@@UAEHW4Call@QMetaObject@@HPAPAX@Z @ 586 NONAME ABSENT ; int HbNote::qt_metacall(enum QMetaObject::Call, int, void * *)
	?d_func@HbCommonNote@@ABEPBVHbCommonNotePrivate@@XZ @ 587 NONAME ABSENT ; class HbCommonNotePrivate const * HbCommonNote::d_func(void) const
	??_EHbGlobalDiscreetPopup@@UAE@I@Z @ 588 NONAME ABSENT ; HbGlobalDiscreetPopup::~HbGlobalDiscreetPopup(unsigned int)
	?tr@HbVolumeSlider@@SA?AVQString@@PBD0H@Z @ 589 NONAME ; class QString HbVolumeSlider::tr(char const *, char const *, int)
	?insertChildren@HbDataFormModelItem@@QAEXHHV?$QList@PAVHbDataFormModelItem@@@@@Z @ 590 NONAME ; void HbDataFormModelItem::insertChildren(int, int, class QList<class HbDataFormModelItem *>)
	?setMinRows@HbLineEdit@@QAEXH@Z @ 591 NONAME ; void HbLineEdit::setMinRows(int)
	?getWidgetItems@HbListDialog@@SA?AV?$QList@PAVHbListWidgetItem@@@@ABVQString@@AAV2@HPA_NW4SelectionMode@HbAbstractItemView@@PAVQGraphicsScene@@PAVQGraphicsItem@@@Z @ 592 NONAME ABSENT ; class QList<class HbListWidgetItem *> HbListDialog::getWidgetItems(class QString const &, class QList<class HbListWidgetItem *> &, int, bool *, enum HbAbstractItemView::SelectionMode, class QGraphicsScene *, class QGraphicsItem *)
	?tr@HbRadioButtonList@@SA?AVQString@@PBD0H@Z @ 593 NONAME ; class QString HbRadioButtonList::tr(char const *, char const *, int)
	?staticMetaObject@HbNote@@2UQMetaObject@@B @ 594 NONAME ABSENT ; struct QMetaObject const HbNote::staticMetaObject
	?timeout@HbGlobalDiscreetPopup@@QBE?AW4DefaultTimeout@HbPopupBase@@XZ @ 595 NONAME ABSENT ; enum HbPopupBase::DefaultTimeout HbGlobalDiscreetPopup::timeout(void) const
	?staticMetaObject@HbDateTimeEdit@@2UQMetaObject@@B @ 596 NONAME ABSENT ; struct QMetaObject const HbDateTimeEdit::staticMetaObject
	?model@HbListDialog@@QBEPAVQAbstractItemModel@@XZ @ 597 NONAME ABSENT ; class QAbstractItemModel * HbListDialog::model(void) const
	?setItemData@HbFormViewItem@@IBEXPAVQObject@@PBD@Z @ 598 NONAME ABSENT ; void HbFormViewItem::setItemData(class QObject *, char const *) const
	?directoryChanged@HbFileDialog@@IAEXABVQString@@@Z @ 599 NONAME ABSENT ; void HbFileDialog::directoryChanged(class QString const &)
	?validateCursorPosition@HbValidator@@UAEXABVQTextCursor@@AAV2@W4ChangeSource@1@@Z @ 600 NONAME ; void HbValidator::validateCursorPosition(class QTextCursor const &, class QTextCursor &, enum HbValidator::ChangeSource)
	?setLayoutName@HbFormView@@QAEXABVQString@@@Z @ 601 NONAME ABSENT ; void HbFormView::setLayoutName(class QString const &)
	?tr@HbNotificationDialog@@SA?AVQString@@PBD0@Z @ 602 NONAME ; class QString HbNotificationDialog::tr(char const *, char const *)
	??0HbSettingForm@@IAE@AAVHbSettingFormPrivate@@PAVHbAbstractItemContainer@@PAVQGraphicsItem@@@Z @ 603 NONAME ABSENT ; HbSettingForm::HbSettingForm(class HbSettingFormPrivate &, class HbAbstractItemContainer *, class QGraphicsItem *)
	?text@HbProgressNote@@QBE?AVQString@@XZ @ 604 NONAME ABSENT ; class QString HbProgressNote::text(void) const
	?type@HbRatingSlider@@UBEHXZ @ 605 NONAME ; int HbRatingSlider::type(void) const
	?close@HbDeviceNotificationDialog@@QAEXXZ @ 606 NONAME ; void HbDeviceNotificationDialog::close(void)
	?isTouchActivating@HbGlobalDiscreetPopup@@QBE_NXZ @ 607 NONAME ABSENT ; bool HbGlobalDiscreetPopup::isTouchActivating(void) const
	?inputMethodEvent@HbLineEdit@@MAEXPAVQInputMethodEvent@@@Z @ 608 NONAME ; void HbLineEdit::inputMethodEvent(class QInputMethodEvent *)
	?d_func@HbSlider@@ABEPBVHbSliderPrivate@@XZ @ 609 NONAME ; class HbSliderPrivate const * HbSlider::d_func(void) const
	?editingFinished@HbLineEdit@@IAEXXZ @ 610 NONAME ; void HbLineEdit::editingFinished(void)
	?showEvent@HbDualDataQuery@@MAEXPAVQShowEvent@@@Z @ 611 NONAME ABSENT ; void HbDualDataQuery::showEvent(class QShowEvent *)
	?type@HbZoomSliderPopup@@UBEHXZ @ 612 NONAME ; int HbZoomSliderPopup::type(void) const
	?createItem@HbDataFormViewItem@@UAEPAVHbAbstractViewItem@@XZ @ 613 NONAME ; class HbAbstractViewItem * HbDataFormViewItem::createItem(void)
	?createMimeDataFromSelection@HbAbstractEdit@@MBEPAVQMimeData@@XZ @ 614 NONAME ; class QMimeData * HbAbstractEdit::createMimeDataFromSelection(void) const
	??_EHbRatingSlider@@UAE@I@Z @ 615 NONAME ; HbRatingSlider::~HbRatingSlider(unsigned int)
	?qt_metacast@HbPushButton@@UAEPAXPBD@Z @ 616 NONAME ; void * HbPushButton::qt_metacast(char const *)
	?getStaticMetaObject@HbCheckBox@@SAABUQMetaObject@@XZ @ 617 NONAME ; struct QMetaObject const & HbCheckBox::getStaticMetaObject(void)
	?d_func@HbAbstractEdit@@AAEPAVHbAbstractEditPrivate@@XZ @ 618 NONAME ; class HbAbstractEditPrivate * HbAbstractEdit::d_func(void)
	?tr@HbProgressSlider@@SA?AVQString@@PBD0@Z @ 619 NONAME ; class QString HbProgressSlider::tr(char const *, char const *)
	?textAlignment@HbGlobalConfirmationQuery@@QBE?AV?$QFlags@W4AlignmentFlag@Qt@@@@XZ @ 620 NONAME ABSENT ; class QFlags<enum Qt::AlignmentFlag> HbGlobalConfirmationQuery::textAlignment(void) const
	?keyPressEvent@HbVolumeSliderPopup@@MAEXPAVQKeyEvent@@@Z @ 621 NONAME ; void HbVolumeSliderPopup::keyPressEvent(class QKeyEvent *)
	?createCustomWidget@HbSettingFormItem@@MAEPAVHbWidget@@XZ @ 622 NONAME ABSENT ; class HbWidget * HbSettingFormItem::createCustomWidget(void)
	?tr@HbDualDataQuery@@SA?AVQString@@PBD0@Z @ 623 NONAME ABSENT ; class QString HbDualDataQuery::tr(char const *, char const *)
	?tr@HbLineEdit@@SA?AVQString@@PBD0@Z @ 624 NONAME ; class QString HbLineEdit::tr(char const *, char const *)
	?setText@HbGlobalCommonNote@@QAEXABVQString@@@Z @ 625 NONAME ABSENT ; void HbGlobalCommonNote::setText(class QString const &)
	?setIcon@HbPushButton@@QAEXABVHbIcon@@@Z @ 626 NONAME ; void HbPushButton::setIcon(class HbIcon const &)
	?fileSelected@HbFileDialog@@IAEXABVQString@@@Z @ 627 NONAME ABSENT ; void HbFileDialog::fileSelected(class QString const &)
	?launchConfirmationDialog@HbConfirmationQuery@@SA_NABVQString@@00_NPAVQGraphicsWidget@@PAVQGraphicsScene@@PAVQGraphicsItem@@@Z @ 628 NONAME ABSENT ; bool HbConfirmationQuery::launchConfirmationDialog(class QString const &, class QString const &, class QString const &, bool, class QGraphicsWidget *, class QGraphicsScene *, class QGraphicsItem *)
	??0HbInputDialog@@QAE@PAVQGraphicsWidget@@@Z @ 629 NONAME ABSENT ; HbInputDialog::HbInputDialog(class QGraphicsWidget *)
	?resizeEvent@HbZoomSliderPopup@@MAEXPAVQGraphicsSceneResizeEvent@@@Z @ 630 NONAME ABSENT ; void HbZoomSliderPopup::resizeEvent(class QGraphicsSceneResizeEvent *)
	??1HbDeviceNotificationDialog@@UAE@XZ @ 631 NONAME ; HbDeviceNotificationDialog::~HbDeviceNotificationDialog(void)
	?setThumbIcon@HbProgressSlider@@QAEXABVHbIcon@@@Z @ 632 NONAME ABSENT ; void HbProgressSlider::setThumbIcon(class HbIcon const &)
	?setGeometry@HbRatingSlider@@MAEXABVQRectF@@@Z @ 633 NONAME ABSENT ; void HbRatingSlider::setGeometry(class QRectF const &)
	??0HbTextEdit@@QAE@ABVQString@@PAVQGraphicsItem@@@Z @ 634 NONAME ; HbTextEdit::HbTextEdit(class QString const &, class QGraphicsItem *)
	?setTextAlignment@HbGlobalCommonNote@@QAEXV?$QFlags@W4AlignmentFlag@Qt@@@@@Z @ 635 NONAME ABSENT ; void HbGlobalCommonNote::setTextAlignment(class QFlags<enum Qt::AlignmentFlag>)
	?d_func@HbConfirmationQuery@@AAEPAVHbConfirmationQueryPrivate@@XZ @ 636 NONAME ABSENT ; class HbConfirmationQueryPrivate * HbConfirmationQuery::d_func(void)
	?removeItem@HbSettingFormModel@@QAE_NABVQModelIndex@@@Z @ 637 NONAME ABSENT ; bool HbSettingFormModel::removeItem(class QModelIndex const &)
	?value@HbAbstractSliderControl@@QBEHXZ @ 638 NONAME ; int HbAbstractSliderControl::value(void) const
	?staticMetaObject@HbProgressSlider@@2UQMetaObject@@B @ 639 NONAME ; struct QMetaObject const HbProgressSlider::staticMetaObject
	?setOrientation@HbAbstractSliderControl@@QAEXW4Orientation@Qt@@@Z @ 640 NONAME ; void HbAbstractSliderControl::setOrientation(enum Qt::Orientation)
	?d_func@HbCombinedQuery@@AAEPAVHbCombinedQueryPrivate@@XZ @ 641 NONAME ABSENT ; class HbCombinedQueryPrivate * HbCombinedQuery::d_func(void)
	?d_func@HbZoomSlider@@ABEPBVHbZoomSliderPrivate@@XZ @ 642 NONAME ; class HbZoomSliderPrivate const * HbZoomSlider::d_func(void) const
	?selected@HbRadioButtonList@@QBEHXZ @ 643 NONAME ; int HbRadioButtonList::selected(void) const
	?tr@HbProgressSlider@@SA?AVQString@@PBD0H@Z @ 644 NONAME ; class QString HbProgressSlider::tr(char const *, char const *, int)
	?qt_metacast@HbLineEdit@@UAEPAXPBD@Z @ 645 NONAME ; void * HbLineEdit::qt_metacast(char const *)
	?hasTracking@HbSliderPopup@@QBE_NXZ @ 646 NONAME ; bool HbSliderPopup::hasTracking(void) const
	?rowsRemoved@HbSettingForm@@UAEXABVQModelIndex@@HH@Z @ 647 NONAME ABSENT ; void HbSettingForm::rowsRemoved(class QModelIndex const &, int, int)
	?getStaticMetaObject@HbInputDialog@@SAABUQMetaObject@@XZ @ 648 NONAME ; struct QMetaObject const & HbInputDialog::getStaticMetaObject(void)
	?type@HbFileDialog@@UBEHXZ @ 649 NONAME ABSENT ; int HbFileDialog::type(void) const
	?isEmpty@HbFormItem@@QBE_NXZ @ 650 NONAME ABSENT ; bool HbFormItem::isEmpty(void) const
	?setPrimaryActionText@HbFileDialog@@QAEXABVQString@@@Z @ 651 NONAME ABSENT ; void HbFileDialog::setPrimaryActionText(class QString const &)
	?handleIcon@HbSlider@@QBE?AVQString@@XZ @ 652 NONAME ; class QString HbSlider::handleIcon(void) const
	?metaObject@HbFormItem@@UBEPBUQMetaObject@@XZ @ 653 NONAME ABSENT ; struct QMetaObject const * HbFormItem::metaObject(void) const
	?setDirectory@HbFileDialog@@QAEXABVQString@@@Z @ 654 NONAME ABSENT ; void HbFileDialog::setDirectory(class QString const &)
	?trUtf8@HbZoomSlider@@SA?AVQString@@PBD0H@Z @ 655 NONAME ; class QString HbZoomSlider::trUtf8(char const *, char const *, int)
	?findData@HbComboBox@@QBEHABVQVariant@@HV?$QFlags@W4MatchFlag@Qt@@@@@Z @ 656 NONAME ; int HbComboBox::findData(class QVariant const &, int, class QFlags<enum Qt::MatchFlag>) const
	?textClicked@HbSlider@@IAEXXZ @ 657 NONAME ; void HbSlider::textClicked(void)
	?parent@HbSettingFormModel@@UBE?AVQModelIndex@@ABV2@@Z @ 658 NONAME ABSENT ; class QModelIndex HbSettingFormModel::parent(class QModelIndex const &) const
	?setValidator@HbInputDialog@@QAEXPAVHbValidator@@H@Z @ 659 NONAME ; void HbInputDialog::setValidator(class HbValidator *, int)
	?metaObject@HbProgressBar@@UBEPBUQMetaObject@@XZ @ 660 NONAME ; struct QMetaObject const * HbProgressBar::metaObject(void) const
	?launchInformationMessageBox@HbMessageBox@@SAXABVQString@@PAVQGraphicsWidget@@PAVQGraphicsScene@@PAVQGraphicsItem@@@Z @ 661 NONAME ABSENT ; void HbMessageBox::launchInformationMessageBox(class QString const &, class QGraphicsWidget *, class QGraphicsScene *, class QGraphicsItem *)
	??_EHbGlobalProgressNote@@UAE@I@Z @ 662 NONAME ABSENT ; HbGlobalProgressNote::~HbGlobalProgressNote(unsigned int)
	?qt_metacall@HbCommonNote@@UAEHW4Call@QMetaObject@@HPAPAX@Z @ 663 NONAME ABSENT ; int HbCommonNote::qt_metacall(enum QMetaObject::Call, int, void * *)
	?iconAlignment@HbGlobalProgressNote@@QBE?AV?$QFlags@W4AlignmentFlag@Qt@@@@XZ @ 664 NONAME ABSENT ; class QFlags<enum Qt::AlignmentFlag> HbGlobalProgressNote::iconAlignment(void) const
	?setRange@HbGlobalProgressNote@@QAEXHH@Z @ 665 NONAME ABSENT ; void HbGlobalProgressNote::setRange(int, int)
	?widgetItems@HbListDialog@@QBE?AV?$QList@PAVHbListWidgetItem@@@@XZ @ 666 NONAME ABSENT ; class QList<class HbListWidgetItem *> HbListDialog::widgetItems(void) const
	?cursorVisibility@HbAbstractEdit@@QBE?AW4TextCursorVisibility@Hb@@XZ @ 667 NONAME ; enum Hb::TextCursorVisibility HbAbstractEdit::cursorVisibility(void) const
	??0HbValidator@@IAE@AAVHbValidatorPrivate@@PAVQObject@@@Z @ 668 NONAME ; HbValidator::HbValidator(class HbValidatorPrivate &, class QObject *)
	?visibleItems@HbFormView@@QBE?AV?$QList@PAVHbFormItem@@@@XZ @ 669 NONAME ABSENT ; class QList<class HbFormItem *> HbFormView::visibleItems(void) const
	?setParent@HbSettingFormDataItem@@QAEXPAV1@@Z @ 670 NONAME ABSENT ; void HbSettingFormDataItem::setParent(class HbSettingFormDataItem *)
	?qt_metacall@HbAbstractEdit@@UAEHW4Call@QMetaObject@@HPAPAX@Z @ 671 NONAME ; int HbAbstractEdit::qt_metacall(enum QMetaObject::Call, int, void * *)
	??1HbDiscreetPopup@@UAE@XZ @ 672 NONAME ABSENT ; HbDiscreetPopup::~HbDiscreetPopup(void)
	?emitActivated@HbRadioButtonList@@MAEXABVQModelIndex@@@Z @ 673 NONAME ; void HbRadioButtonList::emitActivated(class QModelIndex const &)
	?textAlignment@HbGlobalCommonNote@@QBE?AV?$QFlags@W4AlignmentFlag@Qt@@@@XZ @ 674 NONAME ABSENT ; class QFlags<enum Qt::AlignmentFlag> HbGlobalCommonNote::textAlignment(void) const
	?launchWarningMessageBox@HbMessageBox@@SAXABVQString@@PAVQGraphicsWidget@@PAVQGraphicsScene@@PAVQGraphicsItem@@@Z @ 675 NONAME ABSENT ; void HbMessageBox::launchWarningMessageBox(class QString const &, class QGraphicsWidget *, class QGraphicsScene *, class QGraphicsItem *)
	?staticMetaObject@HbDiscreetPopup@@2UQMetaObject@@B @ 676 NONAME ABSENT ; struct QMetaObject const HbDiscreetPopup::staticMetaObject
	?maximum@HbSliderPopup@@QBEHXZ @ 677 NONAME ; int HbSliderPopup::maximum(void) const
	??0HbProgressSlider@@QAE@PAVQGraphicsItem@@@Z @ 678 NONAME ; HbProgressSlider::HbProgressSlider(class QGraphicsItem *)
	?iconName@HbGlobalProgressNote@@QBE?AVQString@@XZ @ 679 NONAME ABSENT ; class QString HbGlobalProgressNote::iconName(void) const
	??0HbTextEdit@@QAE@PAVQGraphicsItem@@@Z @ 680 NONAME ; HbTextEdit::HbTextEdit(class QGraphicsItem *)
	?mousePressEvent@HbNotificationDialog@@MAEXPAVQGraphicsSceneMouseEvent@@@Z @ 681 NONAME ABSENT ; void HbNotificationDialog::mousePressEvent(class QGraphicsSceneMouseEvent *)
	?activated@HbGlobalDiscreetPopup@@IAEXXZ @ 682 NONAME ABSENT ; void HbGlobalDiscreetPopup::activated(void)
	?focusInEvent@HbComboBox@@MAEXPAVQFocusEvent@@@Z @ 683 NONAME ABSENT ; void HbComboBox::focusInEvent(class QFocusEvent *)
	?queryMode@HbCombinedQuery@@QBE?AW4QueryMode@1@XZ @ 684 NONAME ABSENT ; enum HbCombinedQuery::QueryMode HbCombinedQuery::queryMode(void) const
	?metaObject@HbNote@@UBEPBUQMetaObject@@XZ @ 685 NONAME ABSENT ; struct QMetaObject const * HbNote::metaObject(void) const
	?launchDialog@HbDeviceNotificationDialog@@SAXABVQString@@@Z @ 686 NONAME ABSENT ; void HbDeviceNotificationDialog::launchDialog(class QString const &)
	?trUtf8@HbConfirmationQuery@@SA?AVQString@@PBD0@Z @ 687 NONAME ABSENT ; class QString HbConfirmationQuery::trUtf8(char const *, char const *)
	?staticMetaObject@HbGlobalDiscreetPopup@@2UQMetaObject@@B @ 688 NONAME ABSENT ; struct QMetaObject const HbGlobalDiscreetPopup::staticMetaObject
	?qt_metacall@HbCombinedQuery@@UAEHW4Call@QMetaObject@@HPAPAX@Z @ 689 NONAME ABSENT ; int HbCombinedQuery::qt_metacall(enum QMetaObject::Call, int, void * *)
	?trUtf8@HbZoomSliderPopup@@SA?AVQString@@PBD0@Z @ 690 NONAME ; class QString HbZoomSliderPopup::trUtf8(char const *, char const *)
	?setIcon@HbDiscreetPopup@@QAEXABVHbIcon@@@Z @ 691 NONAME ABSENT ; void HbDiscreetPopup::setIcon(class HbIcon const &)
	??_EHbCombinedQuery@@UAE@I@Z @ 692 NONAME ABSENT ; HbCombinedQuery::~HbCombinedQuery(unsigned int)
	??0HbSliderPopup@@QAE@PAVQGraphicsItem@@@Z @ 693 NONAME ; HbSliderPopup::HbSliderPopup(class QGraphicsItem *)
	?checkStateSet@HbCheckBox@@MAEXXZ @ 694 NONAME ; void HbCheckBox::checkStateSet(void)
	??_EHbAbstractEdit@@UAE@I@Z @ 695 NONAME ; HbAbstractEdit::~HbAbstractEdit(unsigned int)
	?setValue@HbSlider@@QAEXH@Z @ 696 NONAME ; void HbSlider::setValue(int)
	?type@HbCommonNote@@UBEHXZ @ 697 NONAME ABSENT ; int HbCommonNote::type(void) const
	?initStyleOption@HbDataForm@@IAEXPAVHbStyleOptionDataForm@@@Z @ 698 NONAME ; void HbDataForm::initStyleOption(class HbStyleOptionDataForm *)
	?d_func@HbDateTimeEdit@@AAEPAVHbDateTimeEditPrivate@@XZ @ 699 NONAME ABSENT ; class HbDateTimeEditPrivate * HbDateTimeEdit::d_func(void)
	?setMajorTickLabels@HbSlider@@QAEXABVQStringList@@@Z @ 700 NONAME ; void HbSlider::setMajorTickLabels(class QStringList const &)
	?setExpanded@HbDataFormViewItem@@QAEX_N@Z @ 701 NONAME ; void HbDataFormViewItem::setExpanded(bool)
	?launchConfirmationDialog@HbConfirmationQuery@@SA_NABVQString@@_NPAVQGraphicsWidget@@PAVQGraphicsScene@@PAVQGraphicsItem@@@Z @ 702 NONAME ABSENT ; bool HbConfirmationQuery::launchConfirmationDialog(class QString const &, bool, class QGraphicsWidget *, class QGraphicsScene *, class QGraphicsItem *)
	?metaObject@HbTextEdit@@UBEPBUQMetaObject@@XZ @ 703 NONAME ; struct QMetaObject const * HbTextEdit::metaObject(void) const
	??0HbListQuery@@QAE@PAVQGraphicsItem@@@Z @ 704 NONAME ABSENT ; HbListQuery::HbListQuery(class QGraphicsItem *)
	?d_func@HbProgressNote@@ABEPBVHbProgressNotePrivate@@XZ @ 705 NONAME ABSENT ; class HbProgressNotePrivate const * HbProgressNote::d_func(void) const
	?trUtf8@HbGlobalCommonNote@@SA?AVQString@@PBD0@Z @ 706 NONAME ABSENT ; class QString HbGlobalCommonNote::trUtf8(char const *, char const *)
	?launchDialog@HbNotificationDialog@@SAXABVQString@@PAVQGraphicsScene@@@Z @ 707 NONAME ; void HbNotificationDialog::launchDialog(class QString const &, class QGraphicsScene *)
	?d_func@HbFormView@@ABEPBVHbFormViewPrivate@@XZ @ 708 NONAME ABSENT ; class HbFormViewPrivate const * HbFormView::d_func(void) const
	??0HbSettingFormDataItem@@QAE@PBV0@@Z @ 709 NONAME ABSENT ; HbSettingFormDataItem::HbSettingFormDataItem(class HbSettingFormDataItem const *)
	?noteType@HbGlobalCommonNote@@QBE?AW4NoteType@HbCommonNote@@XZ @ 710 NONAME ABSENT ; enum HbCommonNote::NoteType HbGlobalCommonNote::noteType(void) const
	?changeEvent@HbComboBox@@MAEXPAVQEvent@@@Z @ 711 NONAME ; void HbComboBox::changeEvent(class QEvent *)
	?setSnappingMode@HbSlider@@QAEXW4SnappingMode@1@@Z @ 712 NONAME ; void HbSlider::setSnappingMode(enum HbSlider::SnappingMode)
	?mousePressEvent@HbVolumeSlider@@MAEXPAVQGraphicsSceneMouseEvent@@@Z @ 713 NONAME ; void HbVolumeSlider::mousePressEvent(class QGraphicsSceneMouseEvent *)
	?metaObject@HbAbstractEdit@@UBEPBUQMetaObject@@XZ @ 714 NONAME ; struct QMetaObject const * HbAbstractEdit::metaObject(void) const
	??0HbProgressBar@@IAE@AAVHbProgressBarPrivate@@W4ProgressBarType@0@PAVQGraphicsItem@@@Z @ 715 NONAME ABSENT ; HbProgressBar::HbProgressBar(class HbProgressBarPrivate &, enum HbProgressBar::ProgressBarType, class QGraphicsItem *)
	?autoClose@HbDeviceProgressDialog@@QBE_NXZ @ 716 NONAME ; bool HbDeviceProgressDialog::autoClose(void) const
	?minorTickLabels@HbSlider@@QBE?AVQStringList@@XZ @ 717 NONAME ; class QStringList HbSlider::minorTickLabels(void) const
	?setTimeout@HbGlobalCommonNote@@QAEXH@Z @ 718 NONAME ABSENT ; void HbGlobalCommonNote::setTimeout(int)
	?resizeEvent@HbTextEdit@@MAEXPAVQGraphicsSceneResizeEvent@@@Z @ 719 NONAME ; void HbTextEdit::resizeEvent(class QGraphicsSceneResizeEvent *)
	?primitive@HbSliderPopup@@UBEPAVQGraphicsItem@@W4Primitive@HbStyle@@@Z @ 720 NONAME ; class QGraphicsItem * HbSliderPopup::primitive(enum HbStyle::Primitive) const
	?keyPressEvent@HbMessageBox@@MAEXPAVQKeyEvent@@@Z @ 721 NONAME ABSENT ; void HbMessageBox::keyPressEvent(class QKeyEvent *)
	?itemModified@HbFormView@@IAEXPAVHbFormItem@@@Z @ 722 NONAME ABSENT ; void HbFormView::itemModified(class HbFormItem *)
	??0HbSettingForm@@QAE@PAVQGraphicsItem@@@Z @ 723 NONAME ABSENT ; HbSettingForm::HbSettingForm(class QGraphicsItem *)
	??0HbMessageBox@@QAE@W4MessageBoxType@0@PAVQGraphicsItem@@@Z @ 724 NONAME ; HbMessageBox::HbMessageBox(enum HbMessageBox::MessageBoxType, class QGraphicsItem *)
	?d_func@HbProgressSlider@@AAEPAVHbProgressSliderPrivate@@XZ @ 725 NONAME ; class HbProgressSliderPrivate * HbProgressSlider::d_func(void)
	?mouseReleaseEvent@HbPushButton@@MAEXPAVQGraphicsSceneMouseEvent@@@Z @ 726 NONAME ABSENT ; void HbPushButton::mouseReleaseEvent(class QGraphicsSceneMouseEvent *)
	??0HbProgressBar@@QAE@W4ProgressBarType@0@PAVQGraphicsItem@@@Z @ 727 NONAME ABSENT ; HbProgressBar::HbProgressBar(enum HbProgressBar::ProgressBarType, class QGraphicsItem *)
	?trUtf8@HbGlobalProgressNote@@SA?AVQString@@PBD0H@Z @ 728 NONAME ABSENT ; class QString HbGlobalProgressNote::trUtf8(char const *, char const *, int)
	?event@HbRadioButtonList@@MAE_NPAVQEvent@@@Z @ 729 NONAME ; bool HbRadioButtonList::event(class QEvent *)
	?tr@HbListQuery@@SA?AVQString@@PBD0H@Z @ 730 NONAME ABSENT ; class QString HbListQuery::tr(char const *, char const *, int)
	?setSecondaryAction@HbGlobalConfirmationQuery@@QAEXPAVHbAction@@@Z @ 731 NONAME ABSENT ; void HbGlobalConfirmationQuery::setSecondaryAction(class HbAction *)
	?keyPressEvent@HbPushButton@@MAEXPAVQKeyEvent@@@Z @ 732 NONAME ; void HbPushButton::keyPressEvent(class QKeyEvent *)
	??_EHbMessageQuery@@UAE@I@Z @ 733 NONAME ABSENT ; HbMessageQuery::~HbMessageQuery(unsigned int)
	?tr@HbDualDataQuery@@SA?AVQString@@PBD0H@Z @ 734 NONAME ABSENT ; class QString HbDualDataQuery::tr(char const *, char const *, int)
	?setTextWrapping@HbGlobalProgressNote@@QAEX_N@Z @ 735 NONAME ABSENT ; void HbGlobalProgressNote::setTextWrapping(bool)
	?toPlainText@HbTextEdit@@QBE?AVQString@@XZ @ 736 NONAME ; class QString HbTextEdit::toPlainText(void) const
	?trUtf8@HbGlobalDiscreetPopup@@SA?AVQString@@PBD0H@Z @ 737 NONAME ABSENT ; class QString HbGlobalDiscreetPopup::trUtf8(char const *, char const *, int)
	?setMaximum@HbDeviceProgressDialog@@QAEXH@Z @ 738 NONAME ; void HbDeviceProgressDialog::setMaximum(int)
	?setHandleIcon@HbSlider@@QAEXABVQString@@@Z @ 739 NONAME ; void HbSlider::setHandleIcon(class QString const &)
	?aboutToClose@HbGlobalDiscreetPopup@@IAEXXZ @ 740 NONAME ABSENT ; void HbGlobalDiscreetPopup::aboutToClose(void)
	?setTextWrapping@HbGlobalCommonNote@@QAEX_N@Z @ 741 NONAME ABSENT ; void HbGlobalCommonNote::setTextWrapping(bool)
	?triggerAction@HbAbstractSliderControl@@QAEXW4SliderAction@1@@Z @ 742 NONAME ; void HbAbstractSliderControl::triggerAction(enum HbAbstractSliderControl::SliderAction)
	??0HbCarouselView@@QAE@PAVQGraphicsItem@@@Z @ 743 NONAME ABSENT ; HbCarouselView::HbCarouselView(class QGraphicsItem *)
	?setCursorVisibility@HbAbstractEdit@@QAEXW4TextCursorVisibility@Hb@@@Z @ 744 NONAME ; void HbAbstractEdit::setCursorVisibility(enum Hb::TextCursorVisibility)
	?document@HbAbstractEdit@@IBEPAVQTextDocument@@XZ @ 745 NONAME ; class QTextDocument * HbAbstractEdit::document(void) const
	?getStaticMetaObject@HbMessageQuery@@SAABUQMetaObject@@XZ @ 746 NONAME ABSENT ; struct QMetaObject const & HbMessageQuery::getStaticMetaObject(void)
	?getStaticMetaObject@HbCombinedQuery@@SAABUQMetaObject@@XZ @ 747 NONAME ABSENT ; struct QMetaObject const & HbCombinedQuery::getStaticMetaObject(void)
	?itemModified@HbDataFormViewItem@@IAEXVQPersistentModelIndex@@VQVariant@@@Z @ 748 NONAME ABSENT ; void HbDataFormViewItem::itemModified(class QPersistentModelIndex, class QVariant)
	?setMinimum@HbProgressNote@@QAEXH@Z @ 749 NONAME ABSENT ; void HbProgressNote::setMinimum(int)
	?qt_metacast@HbComboBox@@UAEPAXPBD@Z @ 750 NONAME ; void * HbComboBox::qt_metacast(char const *)
	?index@HbSettingFormModel@@UBE?AVQModelIndex@@HHABV2@@Z @ 751 NONAME ABSENT ; class QModelIndex HbSettingFormModel::index(int, int, class QModelIndex const &) const
	?setTracking@HbSlider@@QAEX_N@Z @ 752 NONAME ; void HbSlider::setTracking(bool)
	?trUtf8@HbInputDialog@@SA?AVQString@@PBD0@Z @ 753 NONAME ; class QString HbInputDialog::trUtf8(char const *, char const *)
	?setToolTipVisible@HbZoomSlider@@UAEX_N@Z @ 754 NONAME ; void HbZoomSlider::setToolTipVisible(bool)
	?setPrimaryAction@HbGlobalConfirmationQuery@@QAEXPAVHbAction@@@Z @ 755 NONAME ABSENT ; void HbGlobalConfirmationQuery::setPrimaryAction(class HbAction *)
	?metaObject@HbDataQuery@@UBEPBUQMetaObject@@XZ @ 756 NONAME ABSENT ; struct QMetaObject const * HbDataQuery::metaObject(void) const
	?isTristate@HbCheckBox@@QBE_NXZ @ 757 NONAME ; bool HbCheckBox::isTristate(void) const
	?sizeHint@HbDataFormViewItem@@MBE?AVQSizeF@@W4SizeHint@Qt@@ABV2@@Z @ 758 NONAME ABSENT ; class QSizeF HbDataFormViewItem::sizeHint(enum Qt::SizeHint, class QSizeF const &) const
	?setSecondRowVisible@HbInputDialog@@QAEX_N@Z @ 759 NONAME ABSENT ; void HbInputDialog::setSecondRowVisible(bool)
	?setText@HbCheckBox@@QAEXABVQString@@@Z @ 760 NONAME ; void HbCheckBox::setText(class QString const &)
	??0HbCombinedQuery@@QAE@PAVQGraphicsItem@@@Z @ 761 NONAME ABSENT ; HbCombinedQuery::HbCombinedQuery(class QGraphicsItem *)
	?d_func@HbGlobalConfirmationQuery@@AAEPAVHbGlobalConfirmationQueryPrivate@@XZ @ 762 NONAME ABSENT ; class HbGlobalConfirmationQueryPrivate * HbGlobalConfirmationQuery::d_func(void)
	?tr@HbLineEdit@@SA?AVQString@@PBD0H@Z @ 763 NONAME ; class QString HbLineEdit::tr(char const *, char const *, int)
	?launchPopup@HbDiscreetPopup@@SAXABVQString@@PAVQGraphicsScene@@@Z @ 764 NONAME ABSENT ; void HbDiscreetPopup::launchPopup(class QString const &, class QGraphicsScene *)
	??_EHbDiscreetPopup@@UAE@I@Z @ 765 NONAME ABSENT ; HbDiscreetPopup::~HbDiscreetPopup(unsigned int)
	?text@HbNote@@QBE?AVQString@@XZ @ 766 NONAME ABSENT ; class QString HbNote::text(void) const
	?setContentWidgetData@HbDataFormModelItem@@QAEXABVQString@@ABVQVariant@@@Z @ 767 NONAME ; void HbDataFormModelItem::setContentWidgetData(class QString const &, class QVariant const &)
	?metaObject@HbRatingSlider@@UBEPBUQMetaObject@@XZ @ 768 NONAME ; struct QMetaObject const * HbRatingSlider::metaObject(void) const
	?insertItems@HbComboBox@@QAEXHABVQStringList@@@Z @ 769 NONAME ; void HbComboBox::insertItems(int, class QStringList const &)
	?textAlignment@HbGlobalProgressNote@@QBE?AV?$QFlags@W4AlignmentFlag@Qt@@@@XZ @ 770 NONAME ABSENT ; class QFlags<enum Qt::AlignmentFlag> HbGlobalProgressNote::textAlignment(void) const
	?secondaryAction@HbGlobalConfirmationQuery@@QBEPAVHbAction@@XZ @ 771 NONAME ABSENT ; class HbAction * HbGlobalConfirmationQuery::secondaryAction(void) const
	?trUtf8@HbAbstractSliderControl@@SA?AVQString@@PBD0H@Z @ 772 NONAME ; class QString HbAbstractSliderControl::trUtf8(char const *, char const *, int)
	?close@HbGlobalDiscreetPopup@@QAEXXZ @ 773 NONAME ABSENT ; void HbGlobalDiscreetPopup::close(void)
	?state@HbFormView@@QBE?AW4State@1@XZ @ 774 NONAME ABSENT ; enum HbFormView::State HbFormView::state(void) const
	?metaObject@HbColorDialog@@UBEPBUQMetaObject@@XZ @ 775 NONAME ; struct QMetaObject const * HbColorDialog::metaObject(void) const
	?items@HbFormView@@QBE?AV?$QList@PAVHbFormItem@@@@XZ @ 776 NONAME ABSENT ; class QList<class HbFormItem *> HbFormView::items(void) const
	?selectedItems@HbCombinedQuery@@QBE?AVQStringList@@XZ @ 777 NONAME ABSENT ; class QStringList HbCombinedQuery::selectedItems(void) const
	?tr@HbFormView@@SA?AVQString@@PBD0@Z @ 778 NONAME ABSENT ; class QString HbFormView::tr(char const *, char const *)
	?cancelled@HbDeviceProgressDialog@@IAEXXZ @ 779 NONAME ; void HbDeviceProgressDialog::cancelled(void)
	?tr@HbFileDialog@@SA?AVQString@@PBD0@Z @ 780 NONAME ABSENT ; class QString HbFileDialog::tr(char const *, char const *)
	?metaObject@HbCheckBox@@UBEPBUQMetaObject@@XZ @ 781 NONAME ; struct QMetaObject const * HbCheckBox::metaObject(void) const
	?progressValue@HbProgressNote@@QBEHXZ @ 782 NONAME ABSENT ; int HbProgressNote::progressValue(void) const
	?setEditable@HbComboBox@@QAEX_N@Z @ 783 NONAME ; void HbComboBox::setEditable(bool)
	?getStaticMetaObject@HbAbstractEdit@@SAABUQMetaObject@@XZ @ 784 NONAME ; struct QMetaObject const & HbAbstractEdit::getStaticMetaObject(void)
	?setText@HbGlobalConfirmationQuery@@QAEXABVQString@@@Z @ 785 NONAME ABSENT ; void HbGlobalConfirmationQuery::setText(class QString const &)
	??1HbDataForm@@UAE@XZ @ 786 NONAME ; HbDataForm::~HbDataForm(void)
	?getStaticMetaObject@HbSliderPopup@@SAABUQMetaObject@@XZ @ 787 NONAME ; struct QMetaObject const & HbSliderPopup::getStaticMetaObject(void)
	?setTitleReadOnly@HbFormItem@@QAEX_N@Z @ 788 NONAME ABSENT ; void HbFormItem::setTitleReadOnly(bool)
	?update@HbDeviceNotificationDialog@@QAEXXZ @ 789 NONAME ; void HbDeviceNotificationDialog::update(void)
	?singleStep@HbSliderPopup@@QBEHXZ @ 790 NONAME ; int HbSliderPopup::singleStep(void) const
	?trUtf8@HbLineEdit@@SA?AVQString@@PBD0H@Z @ 791 NONAME ; class QString HbLineEdit::trUtf8(char const *, char const *, int)
	?parent@HbDataFormModel@@UBE?AVQModelIndex@@ABV2@@Z @ 792 NONAME ; class QModelIndex HbDataFormModel::parent(class QModelIndex const &) const
	?itemChange@HbNote@@MAE?AVQVariant@@W4GraphicsItemChange@QGraphicsItem@@ABV2@@Z @ 793 NONAME ABSENT ; class QVariant HbNote::itemChange(enum QGraphicsItem::GraphicsItemChange, class QVariant const &)
	?hasChildren@HbDataFormModel@@UBE_NABVQModelIndex@@@Z @ 794 NONAME ; bool HbDataFormModel::hasChildren(class QModelIndex const &) const
	?mouseReleaseEvent@HbNote@@MAEXPAVQGraphicsSceneMouseEvent@@@Z @ 795 NONAME ABSENT ; void HbNote::mouseReleaseEvent(class QGraphicsSceneMouseEvent *)
	?hasTracking@HbSlider@@QBE_NXZ @ 796 NONAME ; bool HbSlider::hasTracking(void) const
	?getColor@HbColorDialog@@SA?AVQColor@@_NPA_NPAVQGraphicsScene@@PAVQGraphicsItem@@@Z @ 797 NONAME ABSENT ; class QColor HbColorDialog::getColor(bool, bool *, class QGraphicsScene *, class QGraphicsItem *)
	??0HbGlobalCommonNote@@QAE@ABVQString@@W4NoteType@HbCommonNote@@PAVQObject@@@Z @ 798 NONAME ABSENT ; HbGlobalCommonNote::HbGlobalCommonNote(class QString const &, enum HbCommonNote::NoteType, class QObject *)
	?setType@HbDataFormModelItem@@QAEXW4DataItemType@1@@Z @ 799 NONAME ; void HbDataFormModelItem::setType(enum HbDataFormModelItem::DataItemType)
	??1HbInputDialog@@UAE@XZ @ 800 NONAME ; HbInputDialog::~HbInputDialog(void)
	?setToolTipAlignment@HbSliderPopup@@QAEXV?$QFlags@W4AlignmentFlag@Qt@@@@@Z @ 801 NONAME ; void HbSliderPopup::setToolTipAlignment(class QFlags<enum Qt::AlignmentFlag>)
	?setDisplayFormat@HbDateTimeEdit@@QAEXABVQString@@@Z @ 802 NONAME ABSENT ; void HbDateTimeEdit::setDisplayFormat(class QString const &)
	?stringItems@HbListQuery@@QBE?AVQStringList@@XZ @ 803 NONAME ABSENT ; class QStringList HbListQuery::stringItems(void) const
	?setSliderPosition@HbAbstractSliderControl@@QAEXH@Z @ 804 NONAME ; void HbAbstractSliderControl::setSliderPosition(int)
	?trUtf8@HbMessageBox@@SA?AVQString@@PBD0@Z @ 805 NONAME ; class QString HbMessageBox::trUtf8(char const *, char const *)
	?itemChange@HbVolumeSlider@@MAE?AVQVariant@@W4GraphicsItemChange@QGraphicsItem@@ABV2@@Z @ 806 NONAME ; class QVariant HbVolumeSlider::itemChange(enum QGraphicsItem::GraphicsItemChange, class QVariant const &)
	?tr@HbAbstractEdit@@SA?AVQString@@PBD0H@Z @ 807 NONAME ; class QString HbAbstractEdit::tr(char const *, char const *, int)
	?setMajorTickLabels@HbSliderPopup@@QAEXABVQStringList@@@Z @ 808 NONAME ; void HbSliderPopup::setMajorTickLabels(class QStringList const &)
	?tr@HbGlobalCommonNote@@SA?AVQString@@PBD0@Z @ 809 NONAME ABSENT ; class QString HbGlobalCommonNote::tr(char const *, char const *)
	?mouseReleaseEvent@HbZoomSlider@@MAEXPAVQGraphicsSceneMouseEvent@@@Z @ 810 NONAME ; void HbZoomSlider::mouseReleaseEvent(class QGraphicsSceneMouseEvent *)
	?setCheckState@HbCheckBox@@QAEXW4CheckState@Qt@@@Z @ 811 NONAME ; void HbCheckBox::setCheckState(enum Qt::CheckState)
	?getStaticMetaObject@HbDataForm@@SAABUQMetaObject@@XZ @ 812 NONAME ; struct QMetaObject const & HbDataForm::getStaticMetaObject(void)
	?trUtf8@HbPushButton@@SA?AVQString@@PBD0@Z @ 813 NONAME ; class QString HbPushButton::trUtf8(char const *, char const *)
	?tr@HbComboBox@@SA?AVQString@@PBD0H@Z @ 814 NONAME ; class QString HbComboBox::tr(char const *, char const *, int)
	?linkActivated@HbMessageQuery@@IAEXABVQString@@@Z @ 815 NONAME ABSENT ; void HbMessageQuery::linkActivated(class QString const &)
	?isExpanded@HbDataFormViewItem@@QBE_NXZ @ 816 NONAME ; bool HbDataFormViewItem::isExpanded(void) const
	?sliderPosition@HbAbstractSliderControl@@QBEHXZ @ 817 NONAME ; int HbAbstractSliderControl::sliderPosition(void) const
	?getStaticMetaObject@HbVolumeSliderPopup@@SAABUQMetaObject@@XZ @ 818 NONAME ; struct QMetaObject const & HbVolumeSliderPopup::getStaticMetaObject(void)
	?isExpanded@HbSettingForm@@QBE_NABVQModelIndex@@@Z @ 819 NONAME ABSENT ; bool HbSettingForm::isExpanded(class QModelIndex const &) const
	??_EHbVolumeSliderPopup@@UAE@I@Z @ 820 NONAME ; HbVolumeSliderPopup::~HbVolumeSliderPopup(unsigned int)
	?setSingleStep@HbSlider@@QAEXH@Z @ 821 NONAME ; void HbSlider::setSingleStep(int)
	?cancelled@HbGlobalProgressNote@@IAEXXZ @ 822 NONAME ABSENT ; void HbGlobalProgressNote::cancelled(void)
	?setModel@HbListDialog@@QAEXPAVQAbstractItemModel@@@Z @ 823 NONAME ABSENT ; void HbListDialog::setModel(class QAbstractItemModel *)
	?removeRows@HbDataFormModel@@UAE_NHHABVQModelIndex@@@Z @ 824 NONAME ; bool HbDataFormModel::removeRows(int, int, class QModelIndex const &)
	?promptText@HbInputDialog@@QBE?AVQString@@H@Z @ 825 NONAME ; class QString HbInputDialog::promptText(int) const
	?keyReleaseEvent@HbLineEdit@@MAEXPAVQKeyEvent@@@Z @ 826 NONAME ; void HbLineEdit::keyReleaseEvent(class QKeyEvent *)
	?setMinimum@HbGlobalProgressNote@@QAEXH@Z @ 827 NONAME ABSENT ; void HbGlobalProgressNote::setMinimum(int)
	?updateChildItems@HbFormViewItem@@UAEXXZ @ 828 NONAME ABSENT ; void HbFormViewItem::updateChildItems(void)
	?setMinimum@HbProgressBar@@QAEXH@Z @ 829 NONAME ; void HbProgressBar::setMinimum(int)
	?orientation@HbSlider@@QBE?AW4Orientation@Qt@@XZ @ 830 NONAME ; enum Qt::Orientation HbSlider::orientation(void) const
	??0HbConfirmationQuery@@QAE@ABVQString@@PAVQGraphicsItem@@@Z @ 831 NONAME ABSENT ; HbConfirmationQuery::HbConfirmationQuery(class QString const &, class QGraphicsItem *)
	?contentsChanged@HbAbstractEdit@@IAEXXZ @ 832 NONAME ; void HbAbstractEdit::contentsChanged(void)
	?minorTickInterval@HbSlider@@QBEHXZ @ 833 NONAME ; int HbSlider::minorTickInterval(void) const
	??_EHbMessageBox@@UAE@I@Z @ 834 NONAME ; HbMessageBox::~HbMessageBox(unsigned int)
	?updatePrimitives@HbNote@@UAEXXZ @ 835 NONAME ABSENT ; void HbNote::updatePrimitives(void)
	?getStaticMetaObject@HbVolumeSlider@@SAABUQMetaObject@@XZ @ 836 NONAME ; struct QMetaObject const & HbVolumeSlider::getStaticMetaObject(void)
	??0HbMessageQuery@@QAE@ABVQString@@0PAVQGraphicsItem@@@Z @ 837 NONAME ABSENT ; HbMessageQuery::HbMessageQuery(class QString const &, class QString const &, class QGraphicsItem *)
	?setHtml@HbAbstractEdit@@IAEXABVQString@@@Z @ 838 NONAME ; void HbAbstractEdit::setHtml(class QString const &)
	?qt_metacall@HbFormView@@UAEHW4Call@QMetaObject@@HPAPAX@Z @ 839 NONAME ABSENT ; int HbFormView::qt_metacall(enum QMetaObject::Call, int, void * *)
	?elements@HbSlider@@QBE?AV?$QList@W4SliderElement@HbSlider@@@@XZ @ 840 NONAME ABSENT ; class QList<enum HbSlider::SliderElement> HbSlider::elements(void) const
	?show@HbGlobalDiscreetPopup@@QAEXXZ @ 841 NONAME ABSENT ; void HbGlobalDiscreetPopup::show(void)
	?insertRows@HbSettingFormModel@@UAE_NHHABVQModelIndex@@@Z @ 842 NONAME ABSENT ; bool HbSettingFormModel::insertRows(int, int, class QModelIndex const &)
	?icon@HbProgressNote@@QBE?AVHbIcon@@XZ @ 843 NONAME ABSENT ; class HbIcon HbProgressNote::icon(void) const
	?toolTipAlignment@HbSliderPopup@@QBE?AV?$QFlags@W4AlignmentFlag@Qt@@@@XZ @ 844 NONAME ; class QFlags<enum Qt::AlignmentFlag> HbSliderPopup::toolTipAlignment(void) const
	?maximum@HbDeviceProgressDialog@@QBEHXZ @ 845 NONAME ; int HbDeviceProgressDialog::maximum(void) const
	?iconName@HbGlobalConfirmationQuery@@QBE?AVQString@@XZ @ 846 NONAME ABSENT ; class QString HbGlobalConfirmationQuery::iconName(void) const
	?trUtf8@HbConfirmationQuery@@SA?AVQString@@PBD0H@Z @ 847 NONAME ABSENT ; class QString HbConfirmationQuery::trUtf8(char const *, char const *, int)
	?valueChanged@HbSliderPopup@@IAEXH@Z @ 848 NONAME ; void HbSliderPopup::valueChanged(int)
	?trUtf8@HbComboBox@@SA?AVQString@@PBD0H@Z @ 849 NONAME ; class QString HbComboBox::trUtf8(char const *, char const *, int)
	??_EHbSettingFormModel@@UAE@I@Z @ 850 NONAME ABSENT ; HbSettingFormModel::~HbSettingFormModel(unsigned int)
	??0HbPushButton@@IAE@AAVHbPushButtonPrivate@@PAVQGraphicsItem@@@Z @ 851 NONAME ; HbPushButton::HbPushButton(class HbPushButtonPrivate &, class QGraphicsItem *)
	?d_func@HbCarouselView@@AAEPAVHbCarouselViewPrivate@@XZ @ 852 NONAME ABSENT ; class HbCarouselViewPrivate * HbCarouselView::d_func(void)
	??0HbMessageBox@@IAE@AAVHbMessageBoxPrivate@@PAVQGraphicsItem@@@Z @ 853 NONAME ; HbMessageBox::HbMessageBox(class HbMessageBoxPrivate &, class QGraphicsItem *)
	?addColors@HbColorDialog@@QAEXABV?$QList@VQColor@@@@@Z @ 854 NONAME ; void HbColorDialog::addColors(class QList<class QColor> const &)
	?noneSelected@HbColorDialog@@IAEXXZ @ 855 NONAME ; void HbColorDialog::noneSelected(void)
	??1HbMessageQuery@@UAE@XZ @ 856 NONAME ABSENT ; HbMessageQuery::~HbMessageQuery(void)
	?qt_metacast@HbFormItem@@UAEPAXPBD@Z @ 857 NONAME ABSENT ; void * HbFormItem::qt_metacast(char const *)
	?tr@HbRatingSlider@@SA?AVQString@@PBD0H@Z @ 858 NONAME ; class QString HbRatingSlider::tr(char const *, char const *, int)
	?insertItem@HbComboBox@@QAEXHABVHbIcon@@ABVQString@@@Z @ 859 NONAME ABSENT ; void HbComboBox::insertItem(int, class HbIcon const &, class QString const &)
	?trUtf8@HbGlobalDiscreetPopup@@SA?AVQString@@PBD0@Z @ 860 NONAME ABSENT ; class QString HbGlobalDiscreetPopup::trUtf8(char const *, char const *)
	??0HbCommonNote@@QAE@ABVQString@@W4NoteType@0@PAVQGraphicsWidget@@@Z @ 861 NONAME ABSENT ; HbCommonNote::HbCommonNote(class QString const &, enum HbCommonNote::NoteType, class QGraphicsWidget *)
	?iconAlignment@HbGlobalCommonNote@@QBE?AV?$QFlags@W4AlignmentFlag@Qt@@@@XZ @ 862 NONAME ABSENT ; class QFlags<enum Qt::AlignmentFlag> HbGlobalCommonNote::iconAlignment(void) const
	?trUtf8@HbCombinedQuery@@SA?AVQString@@PBD0H@Z @ 863 NONAME ABSENT ; class QString HbCombinedQuery::trUtf8(char const *, char const *, int)
	?setSliderDown@HbAbstractSliderControl@@QAEX_N@Z @ 864 NONAME ; void HbAbstractSliderControl::setSliderDown(bool)
	?expandAnimationFinished@HbFormViewItem@@UAEXXZ @ 865 NONAME ABSENT ; void HbFormViewItem::expandAnimationFinished(void)
	?trUtf8@HbVolumeSliderPopup@@SA?AVQString@@PBD0H@Z @ 866 NONAME ; class QString HbVolumeSliderPopup::trUtf8(char const *, char const *, int)
	?qt_metacast@HbMessageQuery@@UAEPAXPBD@Z @ 867 NONAME ABSENT ; void * HbMessageQuery::qt_metacast(char const *)
	?focusInEvent@HbAbstractEdit@@MAEXPAVQFocusEvent@@@Z @ 868 NONAME ; void HbAbstractEdit::focusInEvent(class QFocusEvent *)
	?secondaryPromptText@HbDualDataQuery@@QBE?AVQString@@XZ @ 869 NONAME ABSENT ; class QString HbDualDataQuery::secondaryPromptText(void) const
	?minorTickLabels@HbSliderPopup@@QBE?AVQStringList@@XZ @ 870 NONAME ; class QStringList HbSliderPopup::minorTickLabels(void) const
	?setMinorTickLabels@HbSlider@@QAEXABVQStringList@@@Z @ 871 NONAME ; void HbSlider::setMinorTickLabels(class QStringList const &)
	?setFileNameFilters@HbFileDialog@@QAEXABVQStringList@@@Z @ 872 NONAME ABSENT ; void HbFileDialog::setFileNameFilters(class QStringList const &)
	?formView@HbFormViewItem@@QBEPAVHbFormView@@XZ @ 873 NONAME ABSENT ; class HbFormView * HbFormViewItem::formView(void) const
	??4HbSettingFormItem@@IAEAAV0@ABV0@@Z @ 874 NONAME ABSENT ; class HbSettingFormItem & HbSettingFormItem::operator=(class HbSettingFormItem const &)
	??1HbValidator@@UAE@XZ @ 875 NONAME ; HbValidator::~HbValidator(void)
	?paste@HbAbstractEdit@@QAEXXZ @ 876 NONAME ; void HbAbstractEdit::paste(void)
	?getStaticMetaObject@HbProgressNote@@SAABUQMetaObject@@XZ @ 877 NONAME ABSENT ; struct QMetaObject const & HbProgressNote::getStaticMetaObject(void)
	?lineEdit@HbInputDialog@@QBEPAVHbLineEdit@@H@Z @ 878 NONAME ; class HbLineEdit * HbInputDialog::lineEdit(int) const
	??_EHbCommonNote@@UAE@I@Z @ 879 NONAME ABSENT ; HbCommonNote::~HbCommonNote(unsigned int)
	?qt_metacall@HbMessageBox@@UAEHW4Call@QMetaObject@@HPAPAX@Z @ 880 NONAME ; int HbMessageBox::qt_metacall(enum QMetaObject::Call, int, void * *)
	?rowsInserted@HbDataForm@@UAEXABVQModelIndex@@HH@Z @ 881 NONAME ABSENT ; void HbDataForm::rowsInserted(class QModelIndex const &, int, int)
	?close@HbGlobalCommonNote@@QAEXXZ @ 882 NONAME ABSENT ; void HbGlobalCommonNote::close(void)
	?setTextWrapping@HbDeviceProgressDialog@@QAEX_N@Z @ 883 NONAME ABSENT ; void HbDeviceProgressDialog::setTextWrapping(bool)
	??0HbFormItem@@QAE@PAVQObject@@@Z @ 884 NONAME ABSENT ; HbFormItem::HbFormItem(class QObject *)
	?trUtf8@HbDateTimeEdit@@SA?AVQString@@PBD0H@Z @ 885 NONAME ABSENT ; class QString HbDateTimeEdit::trUtf8(char const *, char const *, int)
	?qt_metacall@HbSettingFormItem@@UAEHW4Call@QMetaObject@@HPAPAX@Z @ 886 NONAME ABSENT ; int HbSettingFormItem::qt_metacall(enum QMetaObject::Call, int, void * *)
	?trUtf8@HbCheckBox@@SA?AVQString@@PBD0@Z @ 887 NONAME ; class QString HbCheckBox::trUtf8(char const *, char const *)
	?longPressed@HbCarouselView@@IAEXABVQModelIndex@@@Z @ 888 NONAME ABSENT ; void HbCarouselView::longPressed(class QModelIndex const &)
	?currentColor@HbColorDialog@@QBE?AVQColor@@XZ @ 889 NONAME ; class QColor HbColorDialog::currentColor(void) const
	??0HbRatingSlider@@QAE@PAVQGraphicsItem@@@Z @ 890 NONAME ; HbRatingSlider::HbRatingSlider(class QGraphicsItem *)
	?setRange@HbSlider@@QAEXHH@Z @ 891 NONAME ; void HbSlider::setRange(int, int)
	??0HbCarouselView@@IAE@AAVHbCarouselViewPrivate@@PAVQGraphicsItem@@@Z @ 892 NONAME ABSENT ; HbCarouselView::HbCarouselView(class HbCarouselViewPrivate &, class QGraphicsItem *)
	?qt_metacall@HbDualDataQuery@@UAEHW4Call@QMetaObject@@HPAPAX@Z @ 893 NONAME ABSENT ; int HbDualDataQuery::qt_metacall(enum QMetaObject::Call, int, void * *)
	?createItem@HbSettingFormItem@@UAEPAVHbAbstractViewItem@@XZ @ 894 NONAME ABSENT ; class HbAbstractViewItem * HbSettingFormItem::createItem(void)
	?qt_metacall@HbCheckBox@@UAEHW4Call@QMetaObject@@HPAPAX@Z @ 895 NONAME ; int HbCheckBox::qt_metacall(enum QMetaObject::Call, int, void * *)
	?type@HbVolumeSliderPopup@@UBEHXZ @ 896 NONAME ; int HbVolumeSliderPopup::type(void) const
	?trUtf8@HbSliderPopup@@SA?AVQString@@PBD0@Z @ 897 NONAME ; class QString HbSliderPopup::trUtf8(char const *, char const *)
	?editTitle@HbFormView@@QAEXPAVHbFormItem@@@Z @ 898 NONAME ABSENT ; void HbFormView::editTitle(class HbFormItem *)
	?state@HbDataFormViewItem@@UBE?AV?$QMap@HVQVariant@@@@XZ @ 899 NONAME ABSENT ; class QMap<int, class QVariant> HbDataFormViewItem::state(void) const
	?type@HbDataQuery@@UBEHXZ @ 900 NONAME ABSENT ; int HbDataQuery::type(void) const
	?mode@HbFormView@@QBE?AW4Mode@1@XZ @ 901 NONAME ABSENT ; enum HbFormView::Mode HbFormView::mode(void) const
	?takeItem@HbFormView@@QAEPAVHbFormItem@@H@Z @ 902 NONAME ABSENT ; class HbFormItem * HbFormView::takeItem(int)
	?setCurrentItem@HbFormView@@QAEXPAVHbFormItem@@@Z @ 903 NONAME ABSENT ; void HbFormView::setCurrentItem(class HbFormItem *)
	?qt_metacast@HbCommonNote@@UAEPAXPBD@Z @ 904 NONAME ABSENT ; void * HbCommonNote::qt_metacast(char const *)
	?getStaticMetaObject@HbFileDialog@@SAABUQMetaObject@@XZ @ 905 NONAME ABSENT ; struct QMetaObject const & HbFileDialog::getStaticMetaObject(void)
	??0HbFormViewItem@@IAE@ABV0@@Z @ 906 NONAME ABSENT ; HbFormViewItem::HbFormViewItem(class HbFormViewItem const &)
	?mousePressEvent@HbSlider@@MAEXPAVQGraphicsSceneMouseEvent@@@Z @ 907 NONAME ; void HbSlider::mousePressEvent(class QGraphicsSceneMouseEvent *)
	?resizeEvent@HbCarouselView@@MAEXPAVQGraphicsSceneResizeEvent@@@Z @ 908 NONAME ABSENT ; void HbCarouselView::resizeEvent(class QGraphicsSceneResizeEvent *)
	?metaObject@HbFormViewItem@@UBEPBUQMetaObject@@XZ @ 909 NONAME ABSENT ; struct QMetaObject const * HbFormViewItem::metaObject(void) const
	?itemChange@HbSliderPopup@@MAE?AVQVariant@@W4GraphicsItemChange@QGraphicsItem@@ABV2@@Z @ 910 NONAME ABSENT ; class QVariant HbSliderPopup::itemChange(enum QGraphicsItem::GraphicsItemChange, class QVariant const &)
	?type@HbDataForm@@UBEHXZ @ 911 NONAME ; int HbDataForm::type(void) const
	?setText@HbLineEdit@@QAEXABVQString@@@Z @ 912 NONAME ; void HbLineEdit::setText(class QString const &)
	?load@HbDataFormViewItem@@UAEXXZ @ 913 NONAME ABSENT ; void HbDataFormViewItem::load(void)
	?setMode@HbFormView@@QAEXW4Mode@1@@Z @ 914 NONAME ABSENT ; void HbFormView::setMode(enum HbFormView::Mode)
	?setMinimumRows@HbLineEdit@@QAEXH@Z @ 915 NONAME ABSENT ; void HbLineEdit::setMinimumRows(int)
	?data@HbFormItem@@QBE?AVQVariant@@ABVQString@@@Z @ 916 NONAME ABSENT ; class QVariant HbFormItem::data(class QString const &) const
	?title@HbGlobalDiscreetPopup@@QBE?AVQString@@XZ @ 917 NONAME ABSENT ; class QString HbGlobalDiscreetPopup::title(void) const
	?setAutoClose@HbProgressNote@@QAEX_N@Z @ 918 NONAME ABSENT ; void HbProgressNote::setAutoClose(bool)
	?trUtf8@HbTransparentWindow@@SA?AVQString@@PBD0@Z @ 919 NONAME ; class QString HbTransparentWindow::trUtf8(char const *, char const *)
	?setPreviewMode@HbRadioButtonList@@QAEXW4PreviewMode@1@@Z @ 920 NONAME ; void HbRadioButtonList::setPreviewMode(enum HbRadioButtonList::PreviewMode)
	?setInvertedAppearance@HbProgressSlider@@UAEX_N@Z @ 921 NONAME ; void HbProgressSlider::setInvertedAppearance(bool)
	?setHandleToolTip@HbProgressSlider@@QAEXABVQString@@@Z @ 922 NONAME ABSENT ; void HbProgressSlider::setHandleToolTip(class QString const &)
	?isTouchActivating@HbDeviceNotificationDialog@@QBE_NXZ @ 923 NONAME ; bool HbDeviceNotificationDialog::isTouchActivating(void) const
	??0HbInputDialog@@IAE@AAVHbPopupPrivate@@PAVQGraphicsItem@@@Z @ 924 NONAME ABSENT ; HbInputDialog::HbInputDialog(class HbPopupPrivate &, class QGraphicsItem *)
	?parent@HbDataFormModelItem@@QBEPAV1@XZ @ 925 NONAME ; class HbDataFormModelItem * HbDataFormModelItem::parent(void) const
	?invertedAppearance@HbProgressBar@@QBE_NXZ @ 926 NONAME ; bool HbProgressBar::invertedAppearance(void) const
	?exec@HbGlobalConfirmationQuery@@QAEPAVHbAction@@XZ @ 927 NONAME ABSENT ; class HbAction * HbGlobalConfirmationQuery::exec(void)
	?timerEvent@HbAbstractEdit@@MAEXPAVQTimerEvent@@@Z @ 928 NONAME ; void HbAbstractEdit::timerEvent(class QTimerEvent *)
	?setMaximum@HbProgressNote@@QAEXH@Z @ 929 NONAME ABSENT ; void HbProgressNote::setMaximum(int)
	?qt_metacall@HbDeviceNotificationDialog@@UAEHW4Call@QMetaObject@@HPAPAX@Z @ 930 NONAME ; int HbDeviceNotificationDialog::qt_metacall(enum QMetaObject::Call, int, void * *)
	?icon@HbPushButton@@QBE?AVHbIcon@@XZ @ 931 NONAME ; class HbIcon HbPushButton::icon(void) const
	?trUtf8@HbAbstractSliderControl@@SA?AVQString@@PBD0@Z @ 932 NONAME ; class QString HbAbstractSliderControl::trUtf8(char const *, char const *)
	?rangeChanged@HbAbstractSliderControl@@IAEXHH@Z @ 933 NONAME ; void HbAbstractSliderControl::rangeChanged(int, int)
	?minText@HbProgressBar@@QBE?AVQString@@XZ @ 934 NONAME ; class QString HbProgressBar::minText(void) const
	?showEvent@HbInputDialog@@MAEXPAVQShowEvent@@@Z @ 935 NONAME ABSENT ; void HbInputDialog::showEvent(class QShowEvent *)
	?setSelectionMode@HbListQuery@@QAEXW4SelectionMode@HbAbstractItemView@@@Z @ 936 NONAME ABSENT ; void HbListQuery::setSelectionMode(enum HbAbstractItemView::SelectionMode)
	?qt_metacall@HbGlobalConfirmationQuery@@UAEHW4Call@QMetaObject@@HPAPAX@Z @ 937 NONAME ABSENT ; int HbGlobalConfirmationQuery::qt_metacall(enum QMetaObject::Call, int, void * *)
	??1HbCarouselView@@UAE@XZ @ 938 NONAME ABSENT ; HbCarouselView::~HbCarouselView(void)
	??_EHbDataFormModel@@UAE@I@Z @ 939 NONAME ; HbDataFormModel::~HbDataFormModel(unsigned int)
	?setData@HbDataFormModelItem@@QAEXHABVQVariant@@@Z @ 940 NONAME ; void HbDataFormModelItem::setData(int, class QVariant const &)
	?inputMode@HbDataQuery@@QBE?AW4InputMode@1@XZ @ 941 NONAME ABSENT ; enum HbDataQuery::InputMode HbDataQuery::inputMode(void) const
	?setIcon@HbGlobalDiscreetPopup@@QAEXABVHbIcon@@@Z @ 942 NONAME ABSENT ; void HbGlobalDiscreetPopup::setIcon(class HbIcon const &)
	??0HbTrajectory@@QAE@XZ @ 943 NONAME ABSENT ; HbTrajectory::HbTrajectory(void)
	?d_func@HbMessageQuery@@ABEPBVHbMessageQueryPrivate@@XZ @ 944 NONAME ABSENT ; class HbMessageQueryPrivate const * HbMessageQuery::d_func(void) const
	?currentIndexChanged@HbComboBox@@IAEXABVQString@@@Z @ 945 NONAME ; void HbComboBox::currentIndexChanged(class QString const &)
	?tr@HbZoomSlider@@SA?AVQString@@PBD0@Z @ 946 NONAME ; class QString HbZoomSlider::tr(char const *, char const *)
	?qt_metacast@HbDateTimeEdit@@UAEPAXPBD@Z @ 947 NONAME ABSENT ; void * HbDateTimeEdit::qt_metacast(char const *)
	?addItems@HbComboBox@@QAEXABVQStringList@@@Z @ 948 NONAME ; void HbComboBox::addItems(class QStringList const &)
	?launchQuestionMessageBox@HbMessageBox@@SA_NABVQString@@00PAVQGraphicsWidget@@PAVQGraphicsScene@@PAVQGraphicsItem@@@Z @ 949 NONAME ABSENT ; bool HbMessageBox::launchQuestionMessageBox(class QString const &, class QString const &, class QString const &, class QGraphicsWidget *, class QGraphicsScene *, class QGraphicsItem *)
	?icon@HbDiscreetPopup@@QBE?AVHbIcon@@XZ @ 950 NONAME ABSENT ; class HbIcon HbDiscreetPopup::icon(void) const
	?tr@HbGlobalProgressNote@@SA?AVQString@@PBD0@Z @ 951 NONAME ABSENT ; class QString HbGlobalProgressNote::tr(char const *, char const *)
	?qt_metacast@HbAbstractSliderControl@@UAEPAXPBD@Z @ 952 NONAME ; void * HbAbstractSliderControl::qt_metacast(char const *)
	?keyPressEvent@HbNote@@MAEXPAVQKeyEvent@@@Z @ 953 NONAME ABSENT ; void HbNote::keyPressEvent(class QKeyEvent *)
	?d_func@HbTextEdit@@AAEPAVHbTextEditPrivate@@XZ @ 954 NONAME ; class HbTextEditPrivate * HbTextEdit::d_func(void)
	?staticMetaObject@HbCheckBox@@2UQMetaObject@@B @ 955 NONAME ; struct QMetaObject const HbCheckBox::staticMetaObject
	?addColor@HbColorDialog@@QAEXABVQColor@@@Z @ 956 NONAME ; void HbColorDialog::addColor(class QColor const &)
	?pageStep@HbSlider@@QBEHXZ @ 957 NONAME ; int HbSlider::pageStep(void) const
	?trUtf8@HbMessageBox@@SA?AVQString@@PBD0H@Z @ 958 NONAME ; class QString HbMessageBox::trUtf8(char const *, char const *, int)
	?selectedModelIndexes@HbListQuery@@QBE?AV?$QList@VQModelIndex@@@@XZ @ 959 NONAME ABSENT ; class QList<class QModelIndex> HbListQuery::selectedModelIndexes(void) const
	?tr@HbSlider@@SA?AVQString@@PBD0H@Z @ 960 NONAME ; class QString HbSlider::tr(char const *, char const *, int)
	?maxRows@HbLineEdit@@QBEHXZ @ 961 NONAME ; int HbLineEdit::maxRows(void) const
	?metaObject@HbGlobalProgressNote@@UBEPBUQMetaObject@@XZ @ 962 NONAME ABSENT ; struct QMetaObject const * HbGlobalProgressNote::metaObject(void) const
	?qt_metacall@HbTextEdit@@UAEHW4Call@QMetaObject@@HPAPAX@Z @ 963 NONAME ; int HbTextEdit::qt_metacall(enum QMetaObject::Call, int, void * *)
	??0HbFormItem@@IAE@AAVHbFormItemPrivate@@PAVQObject@@@Z @ 964 NONAME ABSENT ; HbFormItem::HbFormItem(class HbFormItemPrivate &, class QObject *)
	??0HbNotificationDialog@@QAE@XZ @ 965 NONAME ; HbNotificationDialog::HbNotificationDialog(void)
	?staticMetaObject@HbRatingSlider@@2UQMetaObject@@B @ 966 NONAME ; struct QMetaObject const HbRatingSlider::staticMetaObject
	?d_func@HbGlobalDiscreetPopup@@AAEPAVHbGlobalDiscreetPopupPrivate@@XZ @ 967 NONAME ABSENT ; class HbGlobalDiscreetPopupPrivate * HbGlobalDiscreetPopup::d_func(void)
	?delayedShow@HbProgressNote@@QAEXXZ @ 968 NONAME ABSENT ; void HbProgressNote::delayedShow(void)
	??1HbDataFormViewItem@@UAE@XZ @ 969 NONAME ; HbDataFormViewItem::~HbDataFormViewItem(void)
	?setIcon@HbMessageBox@@QAEXABVHbIcon@@@Z @ 970 NONAME ; void HbMessageBox::setIcon(class HbIcon const &)
	?setInvertedControls@HbAbstractSliderControl@@QAEX_N@Z @ 971 NONAME ; void HbAbstractSliderControl::setInvertedControls(bool)
	??_EHbNotificationDialog@@UAE@I@Z @ 972 NONAME ; HbNotificationDialog::~HbNotificationDialog(unsigned int)
	?metaObject@HbDeviceProgressDialog@@UBEPBUQMetaObject@@XZ @ 973 NONAME ; struct QMetaObject const * HbDeviceProgressDialog::metaObject(void) const
	?setTextCursor@HbAbstractEdit@@IAEXABVQTextCursor@@@Z @ 974 NONAME ; void HbAbstractEdit::setTextCursor(class QTextCursor const &)
	?selectAll@HbAbstractEdit@@QAEXXZ @ 975 NONAME ; void HbAbstractEdit::selectAll(void)
	?singleStep@HbAbstractSliderControl@@QBEHXZ @ 976 NONAME ; int HbAbstractSliderControl::singleStep(void) const
	?d_func@HbProgressSlider@@ABEPBVHbProgressSliderPrivate@@XZ @ 977 NONAME ; class HbProgressSliderPrivate const * HbProgressSlider::d_func(void) const
	?trUtf8@HbZoomSliderPopup@@SA?AVQString@@PBD0H@Z @ 978 NONAME ; class QString HbZoomSliderPopup::trUtf8(char const *, char const *, int)
	?text@HbDiscreetPopup@@QBE?AVQString@@XZ @ 979 NONAME ABSENT ; class QString HbDiscreetPopup::text(void) const
	?setContentFilters@HbFileDialog@@QAEXV?$QFlags@W4Filter@QDir@@@@@Z @ 980 NONAME ABSENT ; void HbFileDialog::setContentFilters(class QFlags<enum QDir::Filter>)
	?snappingMode@HbSlider@@QBE?AW4SnappingMode@1@XZ @ 981 NONAME ; enum HbSlider::SnappingMode HbSlider::snappingMode(void) const
	?changeEvent@HbAbstractSliderControl@@MAEXPAVQEvent@@@Z @ 982 NONAME ; void HbAbstractSliderControl::changeEvent(class QEvent *)
	?qt_metacall@HbCarouselView@@UAEHW4Call@QMetaObject@@HPAPAX@Z @ 983 NONAME ABSENT ; int HbCarouselView::qt_metacall(enum QMetaObject::Call, int, void * *)
	?type@HbDataFormViewItem@@UBEHXZ @ 984 NONAME ; int HbDataFormViewItem::type(void) const
	??_EHbDataFormViewItem@@UAE@I@Z @ 985 NONAME ; HbDataFormViewItem::~HbDataFormViewItem(unsigned int)
	?d_func@HbDataFormViewItem@@AAEPAVHbDataFormViewItemPrivate@@XZ @ 986 NONAME ; class HbDataFormViewItemPrivate * HbDataFormViewItem::d_func(void)
	?setItemData@HbComboBox@@QAEXHABVQVariant@@H@Z @ 987 NONAME ; void HbComboBox::setItemData(int, class QVariant const &, int)
	?isEditable@HbComboBox@@QBE_NXZ @ 988 NONAME ; bool HbComboBox::isEditable(void) const
	?showEvent@HbProgressSlider@@MAEXPAVQShowEvent@@@Z @ 989 NONAME ; void HbProgressSlider::showEvent(class QShowEvent *)
	?aboutToClose@HbGlobalConfirmationQuery@@IAEXXZ @ 990 NONAME ABSENT ; void HbGlobalConfirmationQuery::aboutToClose(void)
	?description@HbDataForm@@QBE?AVQString@@XZ @ 991 NONAME ; class QString HbDataForm::description(void) const
	?getStaticMetaObject@HbSlider@@SAABUQMetaObject@@XZ @ 992 NONAME ; struct QMetaObject const & HbSlider::getStaticMetaObject(void)
	?qt_metacall@HbLineEdit@@UAEHW4Call@QMetaObject@@HPAPAX@Z @ 993 NONAME ; int HbLineEdit::qt_metacall(enum QMetaObject::Call, int, void * *)
	?iconAlignment@HbMessageBox@@QBE?AV?$QFlags@W4AlignmentFlag@Qt@@@@XZ @ 994 NONAME ABSENT ; class QFlags<enum Qt::AlignmentFlag> HbMessageBox::iconAlignment(void) const
	?type@HbRadioButtonList@@UBEHXZ @ 995 NONAME ; int HbRadioButtonList::type(void) const
	?selectedItems@HbListQuery@@QBE?AV?$QList@H@@XZ @ 996 NONAME ABSENT ; class QList<int> HbListQuery::selectedItems(void) const
	?d_func@HbRatingSlider@@ABEPBVHbRatingSliderPrivate@@XZ @ 997 NONAME ; class HbRatingSliderPrivate const * HbRatingSlider::d_func(void) const
	??0HbDataFormModelItem@@QAE@PBV0@@Z @ 998 NONAME ; HbDataFormModelItem::HbDataFormModelItem(class HbDataFormModelItem const *)
	?cancelled@HbProgressNote@@IAEXXZ @ 999 NONAME ABSENT ; void HbProgressNote::cancelled(void)
	?minimum@HbProgressNote@@QBEHXZ @ 1000 NONAME ABSENT ; int HbProgressNote::minimum(void) const
	?appendSettingFormGroupPage@HbSettingFormModel@@QAEPAVHbSettingFormDataItem@@ABVQString@@PBV2@@Z @ 1001 NONAME ABSENT ; class HbSettingFormDataItem * HbSettingFormModel::appendSettingFormGroupPage(class QString const &, class HbSettingFormDataItem const *)
	?tr@HbFormViewItem@@SA?AVQString@@PBD0H@Z @ 1002 NONAME ABSENT ; class QString HbFormViewItem::tr(char const *, char const *, int)
	?staticMetaObject@HbPushButton@@2UQMetaObject@@B @ 1003 NONAME ; struct QMetaObject const HbPushButton::staticMetaObject
	?setDefaultZoomLevel@HbZoomSlider@@QAEXH@Z @ 1004 NONAME ; void HbZoomSlider::setDefaultZoomLevel(int)
	?getStaticMetaObject@HbConfirmationQuery@@SAABUQMetaObject@@XZ @ 1005 NONAME ABSENT ; struct QMetaObject const & HbConfirmationQuery::getStaticMetaObject(void)
	?setText@HbDeviceProgressDialog@@QAEXABVQString@@@Z @ 1006 NONAME ; void HbDeviceProgressDialog::setText(class QString const &)
	?insertDataFormGroup@HbDataFormModel@@QAEPAVHbDataFormModelItem@@HABVQString@@PBV2@@Z @ 1007 NONAME ABSENT ; class HbDataFormModelItem * HbDataFormModel::insertDataFormGroup(int, class QString const &, class HbDataFormModelItem const *)
	?previousIndex@HbDataForm@@UBE?AVQModelIndex@@ABV2@@Z @ 1008 NONAME ABSENT ; class QModelIndex HbDataForm::previousIndex(class QModelIndex const &) const
	?stateChanged@HbCheckBox@@IAEXH@Z @ 1009 NONAME ; void HbCheckBox::stateChanged(int)
	?setValue@HbSliderPopup@@QAEXH@Z @ 1010 NONAME ; void HbSliderPopup::setValue(int)
	??_EHbComboBox@@UAE@I@Z @ 1011 NONAME ; HbComboBox::~HbComboBox(unsigned int)
	?canInsertFromMimeData@HbLineEdit@@MBE_NPBVQMimeData@@@Z @ 1012 NONAME ; bool HbLineEdit::canInsertFromMimeData(class QMimeData const *) const
	?valueChanged@HbSlider@@IAEXH@Z @ 1013 NONAME ; void HbSlider::valueChanged(int)
	?scrollTo@HbDataForm@@UAEXABVQModelIndex@@@Z @ 1014 NONAME ABSENT ; void HbDataForm::scrollTo(class QModelIndex const &)
	?qt_metacall@HbGlobalProgressNote@@UAEHW4Call@QMetaObject@@HPAPAX@Z @ 1015 NONAME ABSENT ; int HbGlobalProgressNote::qt_metacall(enum QMetaObject::Call, int, void * *)
	?d_func@HbSettingFormItem@@AAEPAVHbSettingFormItemPrivate@@XZ @ 1016 NONAME ABSENT ; class HbSettingFormItemPrivate * HbSettingFormItem::d_func(void)
	?trUtf8@HbMessageQuery@@SA?AVQString@@PBD0H@Z @ 1017 NONAME ABSENT ; class QString HbMessageQuery::trUtf8(char const *, char const *, int)
	?iconReleased@HbSliderPopup@@IAEXXZ @ 1018 NONAME ; void HbSliderPopup::iconReleased(void)
	?setIconName@HbGlobalProgressNote@@QAEXABVQString@@@Z @ 1019 NONAME ABSENT ; void HbGlobalProgressNote::setIconName(class QString const &)
	?dataItemContentWidget@HbDataFormViewItem@@QBEPAVHbWidget@@XZ @ 1020 NONAME ; class HbWidget * HbDataFormViewItem::dataItemContentWidget(void) const
	?setSecondaryActionText@HbFileDialog@@QAEXABVQString@@@Z @ 1021 NONAME ABSENT ; void HbFileDialog::setSecondaryActionText(class QString const &)
	??1HbLineEdit@@UAE@XZ @ 1022 NONAME ; HbLineEdit::~HbLineEdit(void)
	?getStaticMetaObject@HbDualDataQuery@@SAABUQMetaObject@@XZ @ 1023 NONAME ABSENT ; struct QMetaObject const & HbDualDataQuery::getStaticMetaObject(void)
	?mouseMoveEvent@HbCheckBox@@MAEXPAVQGraphicsSceneMouseEvent@@@Z @ 1024 NONAME ABSENT ; void HbCheckBox::mouseMoveEvent(class QGraphicsSceneMouseEvent *)
	?d_func@HbColorDialog@@AAEPAVHbColorDialogPrivate@@XZ @ 1025 NONAME ; class HbColorDialogPrivate * HbColorDialog::d_func(void)
	?initStyleOption@HbZoomSlider@@IBEXPAVHbStyleOptionSlider@@@Z @ 1026 NONAME ; void HbZoomSlider::initStyleOption(class HbStyleOptionSlider *) const
	?isIconChecked@HbSlider@@QBE_NXZ @ 1027 NONAME ; bool HbSlider::isIconChecked(void) const
	?getStaticMetaObject@HbSettingForm@@SAABUQMetaObject@@XZ @ 1028 NONAME ABSENT ; struct QMetaObject const & HbSettingForm::getStaticMetaObject(void)
	?setEditorWidgetType@HbFormItem@@QAEXW4GraphicsItemType@Hb@@@Z @ 1029 NONAME ABSENT ; void HbFormItem::setEditorWidgetType(enum Hb::GraphicsItemType)
	?getStaticMetaObject@HbFormViewItem@@SAABUQMetaObject@@XZ @ 1030 NONAME ABSENT ; struct QMetaObject const & HbFormViewItem::getStaticMetaObject(void)
	?indexFromItem@HbSettingFormModel@@QBE?AVQModelIndex@@PBVHbSettingFormDataItem@@@Z @ 1031 NONAME ABSENT ; class QModelIndex HbSettingFormModel::indexFromItem(class HbSettingFormDataItem const *) const
	?setCurrentValueVisible@HbVolumeSlider@@QAEX_N@Z @ 1032 NONAME ; void HbVolumeSlider::setCurrentValueVisible(bool)
	?clearEditText@HbComboBox@@QAEXXZ @ 1033 NONAME ; void HbComboBox::clearEditText(void)
	??1HbRatingSlider@@UAE@XZ @ 1034 NONAME ; HbRatingSlider::~HbRatingSlider(void)
	?minimum@HbAbstractSliderControl@@QBEHXZ @ 1035 NONAME ; int HbAbstractSliderControl::minimum(void) const
	?textWrapping@HbGlobalProgressNote@@QBE_NXZ @ 1036 NONAME ABSENT ; bool HbGlobalProgressNote::textWrapping(void) const
	??0HbFormItem@@QAE@W4GraphicsItemType@Hb@@PAVQObject@@@Z @ 1037 NONAME ABSENT ; HbFormItem::HbFormItem(enum Hb::GraphicsItemType, class QObject *)
	?insertItem@HbFormView@@QAEXHPAVHbFormItem@@@Z @ 1038 NONAME ABSENT ; void HbFormView::insertItem(int, class HbFormItem *)
	?minorTickInterval@HbSliderPopup@@QBEHXZ @ 1039 NONAME ; int HbSliderPopup::minorTickInterval(void) const
	?sceneEventFilter@HbFormViewItem@@MAE_NPAVQGraphicsItem@@PAVQEvent@@@Z @ 1040 NONAME ABSENT ; bool HbFormViewItem::sceneEventFilter(class QGraphicsItem *, class QEvent *)
	??0HbRadioButtonList@@IAE@AAVHbRadioButtonListPrivate@@PAVHbAbstractItemContainer@@PAVQGraphicsItem@@@Z @ 1041 NONAME ; HbRadioButtonList::HbRadioButtonList(class HbRadioButtonListPrivate &, class HbAbstractItemContainer *, class QGraphicsItem *)
	?setElements@HbSliderPopup@@QAEXABV?$QList@W4SliderElement@HbSlider@@@@@Z @ 1042 NONAME ABSENT ; void HbSliderPopup::setElements(class QList<enum HbSlider::SliderElement> const &)
	?mousePressEvent@HbComboBox@@MAEXPAVQGraphicsSceneMouseEvent@@@Z @ 1043 NONAME ABSENT ; void HbComboBox::mousePressEvent(class QGraphicsSceneMouseEvent *)
	?contentFilter@HbFileDialog@@QBE?AV?$QFlags@W4Filter@QDir@@@@XZ @ 1044 NONAME ABSENT ; class QFlags<enum QDir::Filter> HbFileDialog::contentFilter(void) const
	?setHeading@HbDataForm@@QAEXABVQString@@@Z @ 1045 NONAME ; void HbDataForm::setHeading(class QString const &)
	?focusOutEvent@HbComboBox@@MAEXPAVQFocusEvent@@@Z @ 1046 NONAME ABSENT ; void HbComboBox::focusOutEvent(class QFocusEvent *)
	?trUtf8@HbDateTimeEdit@@SA?AVQString@@PBD0@Z @ 1047 NONAME ABSENT ; class QString HbDateTimeEdit::trUtf8(char const *, char const *)
	?valueWidgets@HbFormViewItem@@QBE?AV?$QList@PAVQGraphicsWidget@@@@XZ @ 1048 NONAME ABSENT ; class QList<class QGraphicsWidget *> HbFormViewItem::valueWidgets(void) const
	?removeItem@HbSettingFormModel@@QAE_NPAVHbSettingFormDataItem@@@Z @ 1049 NONAME ABSENT ; bool HbSettingFormModel::removeItem(class HbSettingFormDataItem *)
	?d_func@HbFileDialog@@AAEPAVHbFileDialogPrivate@@XZ @ 1050 NONAME ABSENT ; class HbFileDialogPrivate * HbFileDialog::d_func(void)
	??0HbColorDialog@@IAE@AAVHbColorDialogPrivate@@PAVQGraphicsItem@@@Z @ 1051 NONAME ; HbColorDialog::HbColorDialog(class HbColorDialogPrivate &, class QGraphicsItem *)
	?tr@HbDiscreetPopup@@SA?AVQString@@PBD0H@Z @ 1052 NONAME ABSENT ; class QString HbDiscreetPopup::tr(char const *, char const *, int)
	?d_func@HbSliderPopup@@AAEPAVHbSliderPopupPrivate@@XZ @ 1053 NONAME ; class HbSliderPopupPrivate * HbSliderPopup::d_func(void)
	?map@HbTrajectory@@QBE_NMAAVQPointF@@AAM@Z @ 1054 NONAME ABSENT ; bool HbTrajectory::map(float, class QPointF &, float &) const
	?tr@HbDeviceNotificationDialog@@SA?AVQString@@PBD0@Z @ 1055 NONAME ; class QString HbDeviceNotificationDialog::tr(char const *, char const *)
	?defaultValue@HbValidator@@QAE?AVQString@@XZ @ 1056 NONAME ; class QString HbValidator::defaultValue(void)
	?getStaticMetaObject@HbZoomSlider@@SAABUQMetaObject@@XZ @ 1057 NONAME ; struct QMetaObject const & HbZoomSlider::getStaticMetaObject(void)
	?tr@HbTextEdit@@SA?AVQString@@PBD0@Z @ 1058 NONAME ; class QString HbTextEdit::tr(char const *, char const *)
	?setState@HbFormViewItem@@UAEXABV?$QMap@HVQVariant@@@@@Z @ 1059 NONAME ABSENT ; void HbFormViewItem::setState(class QMap<int, class QVariant> const &)
	?setToolTipAlignment@HbSlider@@QAEXV?$QFlags@W4AlignmentFlag@Qt@@@@@Z @ 1060 NONAME ; void HbSlider::setToolTipAlignment(class QFlags<enum Qt::AlignmentFlag>)
	?pressed@HbCarouselView@@IAEXABVQModelIndex@@@Z @ 1061 NONAME ABSENT ; void HbCarouselView::pressed(class QModelIndex const &)
	?appendDataFormPage@HbDataFormModel@@QAEPAVHbDataFormModelItem@@ABVQString@@@Z @ 1062 NONAME ; class HbDataFormModelItem * HbDataFormModel::appendDataFormPage(class QString const &)
	?tr@HbDeviceProgressDialog@@SA?AVQString@@PBD0@Z @ 1063 NONAME ; class QString HbDeviceProgressDialog::tr(char const *, char const *)
	?trUtf8@HbInputDialog@@SA?AVQString@@PBD0H@Z @ 1064 NONAME ; class QString HbInputDialog::trUtf8(char const *, char const *, int)
	?metaObject@HbFormView@@UBEPBUQMetaObject@@XZ @ 1065 NONAME ABSENT ; struct QMetaObject const * HbFormView::metaObject(void) const
	?qt_metacall@HbFileDialog@@UAEHW4Call@QMetaObject@@HPAPAX@Z @ 1066 NONAME ABSENT ; int HbFileDialog::qt_metacall(enum QMetaObject::Call, int, void * *)
	?d_func@HbDataForm@@ABEPBVHbDataFormPrivate@@XZ @ 1067 NONAME ; class HbDataFormPrivate const * HbDataForm::d_func(void) const
	?setMaxText@HbProgressBar@@QAEXABVQString@@@Z @ 1068 NONAME ; void HbProgressBar::setMaxText(class QString const &)
	?setItemIcon@HbComboBox@@QAEXHABVHbIcon@@@Z @ 1069 NONAME ; void HbComboBox::setItemIcon(int, class HbIcon const &)
	?validator@HbInputDialog@@QBEPAVHbValidator@@H@Z @ 1070 NONAME ; class HbValidator * HbInputDialog::validator(int) const
	?show@HbGlobalConfirmationQuery@@QAEXXZ @ 1071 NONAME ABSENT ; void HbGlobalConfirmationQuery::show(void)
	?getStaticMetaObject@HbComboBox@@SAABUQMetaObject@@XZ @ 1072 NONAME ; struct QMetaObject const & HbComboBox::getStaticMetaObject(void)
	?validator@HbAbstractEdit@@QBEPAVHbValidator@@XZ @ 1073 NONAME ; class HbValidator * HbAbstractEdit::validator(void) const
	??0HbDataFormViewItem@@IAE@ABV0@@Z @ 1074 NONAME ; HbDataFormViewItem::HbDataFormViewItem(class HbDataFormViewItem const &)
	?getStaticMetaObject@HbProgressBar@@SAABUQMetaObject@@XZ @ 1075 NONAME ; struct QMetaObject const & HbProgressBar::getStaticMetaObject(void)
	?loadSettings@HbSettingForm@@QAEXXZ @ 1076 NONAME ABSENT ; void HbSettingForm::loadSettings(void)
	?qt_metacast@HbCombinedQuery@@UAEPAXPBD@Z @ 1077 NONAME ABSENT ; void * HbCombinedQuery::qt_metacast(char const *)
	??_EHbFormViewItem@@UAE@I@Z @ 1078 NONAME ABSENT ; HbFormViewItem::~HbFormViewItem(unsigned int)
	?data@HbDataFormModel@@UBE?AVQVariant@@ABVQModelIndex@@H@Z @ 1079 NONAME ; class QVariant HbDataFormModel::data(class QModelIndex const &, int) const
	?dateTime@HbDateTimeEdit@@QBE?AVQDateTime@@XZ @ 1080 NONAME ABSENT ; class QDateTime HbDateTimeEdit::dateTime(void) const
	?qt_metacast@HbNote@@UAEPAXPBD@Z @ 1081 NONAME ABSENT ; void * HbNote::qt_metacast(char const *)
	?currentItem@HbFormView@@QBEPAVHbFormItem@@XZ @ 1082 NONAME ABSENT ; class HbFormItem * HbFormView::currentItem(void) const
	?tr@HbZoomSliderPopup@@SA?AVQString@@PBD0H@Z @ 1083 NONAME ; class QString HbZoomSliderPopup::tr(char const *, char const *, int)
	?setMaximumRows@HbLineEdit@@QAEXH@Z @ 1084 NONAME ABSENT ; void HbLineEdit::setMaximumRows(int)
	?trUtf8@HbDataQuery@@SA?AVQString@@PBD0H@Z @ 1085 NONAME ABSENT ; class QString HbDataQuery::trUtf8(char const *, char const *, int)
	?qt_metacast@HbTextEdit@@UAEPAXPBD@Z @ 1086 NONAME ; void * HbTextEdit::qt_metacast(char const *)
	?showEvent@HbDataQuery@@MAEXPAVQShowEvent@@@Z @ 1087 NONAME ABSENT ; void HbDataQuery::showEvent(class QShowEvent *)
	?metaObject@HbSettingForm@@UBEPBUQMetaObject@@XZ @ 1088 NONAME ABSENT ; struct QMetaObject const * HbSettingForm::metaObject(void) const
	?qt_metacast@HbTransparentWindow@@UAEPAXPBD@Z @ 1089 NONAME ; void * HbTransparentWindow::qt_metacast(char const *)
	?offset@HbTrajectory@@QBEMXZ @ 1090 NONAME ABSENT ; float HbTrajectory::offset(void) const
	??_EHbDateTimeEdit@@UAE@I@Z @ 1091 NONAME ABSENT ; HbDateTimeEdit::~HbDateTimeEdit(unsigned int)
	?d_func@HbProgressNote@@AAEPAVHbProgressNotePrivate@@XZ @ 1092 NONAME ABSENT ; class HbProgressNotePrivate * HbProgressNote::d_func(void)
	?icon@HbSlider@@QBE?AVHbIcon@@W4SliderElement@1@@Z @ 1093 NONAME ABSENT ; class HbIcon HbSlider::icon(enum HbSlider::SliderElement) const
	?toHtml@HbAbstractEdit@@IBE?AVQString@@XZ @ 1094 NONAME ; class QString HbAbstractEdit::toHtml(void) const
	?qt_metacast@HbSliderPopup@@UAEPAXPBD@Z @ 1095 NONAME ; void * HbSliderPopup::qt_metacast(char const *)
	?trUtf8@HbDataForm@@SA?AVQString@@PBD0@Z @ 1096 NONAME ; class QString HbDataForm::trUtf8(char const *, char const *)
	??0HbPushButton@@QAE@ABVHbIcon@@ABVQString@@W4Orientation@Qt@@PAVQGraphicsItem@@@Z @ 1097 NONAME ABSENT ; HbPushButton::HbPushButton(class HbIcon const &, class QString const &, enum Qt::Orientation, class QGraphicsItem *)
	?trUtf8@HbGlobalConfirmationQuery@@SA?AVQString@@PBD0@Z @ 1098 NONAME ABSENT ; class QString HbGlobalConfirmationQuery::trUtf8(char const *, char const *)
	?d_func@HbDeviceNotificationDialog@@AAEPAVHbDeviceNotificationDialogPrivate@@XZ @ 1099 NONAME ; class HbDeviceNotificationDialogPrivate * HbDeviceNotificationDialog::d_func(void)
	?resizeEvent@HbVolumeSliderPopup@@MAEXPAVQGraphicsSceneResizeEvent@@@Z @ 1100 NONAME ABSENT ; void HbVolumeSliderPopup::resizeEvent(class QGraphicsSceneResizeEvent *)
	?d_func@HbPushButton@@AAEPAVHbPushButtonPrivate@@XZ @ 1101 NONAME ; class HbPushButtonPrivate * HbPushButton::d_func(void)
	?sizeHint@HbSettingFormItem@@MBE?AVQSizeF@@W4SizeHint@Qt@@ABV2@@Z @ 1102 NONAME ABSENT ; class QSizeF HbSettingFormItem::sizeHint(enum Qt::SizeHint, class QSizeF const &) const
	??1HbProgressBar@@UAE@XZ @ 1103 NONAME ; HbProgressBar::~HbProgressBar(void)
	?setIconAlignment@HbMessageBox@@QAEXV?$QFlags@W4AlignmentFlag@Qt@@@@@Z @ 1104 NONAME ABSENT ; void HbMessageBox::setIconAlignment(class QFlags<enum Qt::AlignmentFlag>)
	?setType@HbSettingFormDataItem@@QAEXW4SettingItemType@1@@Z @ 1105 NONAME ABSENT ; void HbSettingFormDataItem::setType(enum HbSettingFormDataItem::SettingItemType)
	?insertSettingFormGroup@HbSettingFormModel@@QAEPAVHbSettingFormDataItem@@HABVQString@@PBV2@@Z @ 1106 NONAME ABSENT ; class HbSettingFormDataItem * HbSettingFormModel::insertSettingFormGroup(int, class QString const &, class HbSettingFormDataItem const *)
	?itemModified@HbSettingFormItem@@IAEXVQPersistentModelIndex@@VQVariant@@@Z @ 1107 NONAME ABSENT ; void HbSettingFormItem::itemModified(class QPersistentModelIndex, class QVariant)
	?validator@HbComboBox@@QBEPBVHbValidator@@XZ @ 1108 NONAME ; class HbValidator const * HbComboBox::validator(void) const
	?cursorPosition@HbAbstractEdit@@QBEHXZ @ 1109 NONAME ; int HbAbstractEdit::cursorPosition(void) const
	?d_func@HbMessageBox@@AAEPAVHbMessageBoxPrivate@@XZ @ 1110 NONAME ; class HbMessageBoxPrivate * HbMessageBox::d_func(void)
	?eventFilter@HbComboBox@@MAE_NPAVQObject@@PAVQEvent@@@Z @ 1111 NONAME ; bool HbComboBox::eventFilter(class QObject *, class QEvent *)
	?setSelectionMode@HbListDialog@@QAEXW4SelectionMode@HbAbstractItemView@@@Z @ 1112 NONAME ABSENT ; void HbListDialog::setSelectionMode(enum HbAbstractItemView::SelectionMode)
	?setFrameBackground@HbPushButton@@QAEXPAVHbFrameDrawer@@@Z @ 1113 NONAME ; void HbPushButton::setFrameBackground(class HbFrameDrawer *)
	?sliderReleased@HbProgressSlider@@IAEXXZ @ 1114 NONAME ; void HbProgressSlider::sliderReleased(void)
	?setTextAlignment@HbProgressBar@@QAEXV?$QFlags@W4AlignmentFlag@Qt@@@@@Z @ 1115 NONAME ABSENT ; void HbProgressBar::setTextAlignment(class QFlags<enum Qt::AlignmentFlag>)
	?iconName@HbDeviceProgressDialog@@QBE?AVQString@@XZ @ 1116 NONAME ; class QString HbDeviceProgressDialog::iconName(void) const
	?staticMetaObject@HbHighlight@@2UQMetaObject@@B @ 1117 NONAME ABSENT ; struct QMetaObject const HbHighlight::staticMetaObject
	?setTextAlignment@HbGlobalProgressNote@@QAEXV?$QFlags@W4AlignmentFlag@Qt@@@@@Z @ 1118 NONAME ABSENT ; void HbGlobalProgressNote::setTextAlignment(class QFlags<enum Qt::AlignmentFlag>)
	??0HbVolumeSlider@@QAE@_NPAVQGraphicsItem@@@Z @ 1119 NONAME ; HbVolumeSlider::HbVolumeSlider(bool, class QGraphicsItem *)
	?heading@HbDataForm@@QBE?AVQString@@XZ @ 1120 NONAME ; class QString HbDataForm::heading(void) const
	?metaObject@HbSettingFormItem@@UBEPBUQMetaObject@@XZ @ 1121 NONAME ABSENT ; struct QMetaObject const * HbSettingFormItem::metaObject(void) const
	?mouseReleaseEvent@HbDiscreetPopup@@MAEXPAVQGraphicsSceneMouseEvent@@@Z @ 1122 NONAME ABSENT ; void HbDiscreetPopup::mouseReleaseEvent(class QGraphicsSceneMouseEvent *)
	?setTitle@HbNotificationDialog@@QAEXABVQString@@@Z @ 1123 NONAME ; void HbNotificationDialog::setTitle(class QString const &)
	?getStaticMetaObject@HbProgressSlider@@SAABUQMetaObject@@XZ @ 1124 NONAME ; struct QMetaObject const & HbProgressSlider::getStaticMetaObject(void)
	?itemDestroyed@HbSettingFormItem@@IAEXVQPersistentModelIndex@@@Z @ 1125 NONAME ABSENT ; void HbSettingFormItem::itemDestroyed(class QPersistentModelIndex)
	?promptText@HbDataQuery@@QBE?AVQString@@XZ @ 1126 NONAME ABSENT ; class QString HbDataQuery::promptText(void) const
	?setIconAlignment@HbProgressNote@@QAEXV?$QFlags@W4AlignmentFlag@Qt@@@@@Z @ 1127 NONAME ABSENT ; void HbProgressNote::setIconAlignment(class QFlags<enum Qt::AlignmentFlag>)
	?setCursorPosition@HbLineEdit@@QAEXH@Z @ 1128 NONAME ; void HbLineEdit::setCursorPosition(int)
	?selectClickedWord@HbAbstractEdit@@QAEXXZ @ 1129 NONAME ; void HbAbstractEdit::selectClickedWord(void)
	?d_func@HbDataQuery@@AAEPAVHbDataQueryPrivate@@XZ @ 1130 NONAME ABSENT ; class HbDataQueryPrivate * HbDataQuery::d_func(void)
	?updatePrimitives@HbComboBox@@UAEXXZ @ 1131 NONAME ; void HbComboBox::updatePrimitives(void)
	?maximumRows@HbLineEdit@@QBEHXZ @ 1132 NONAME ABSENT ; int HbLineEdit::maximumRows(void) const
	?appendChild@HbDataFormModelItem@@QAEXPAV1@@Z @ 1133 NONAME ; void HbDataFormModelItem::appendChild(class HbDataFormModelItem *)
	?setMaxRows@HbLineEdit@@QAEXH@Z @ 1134 NONAME ; void HbLineEdit::setMaxRows(int)
	?keyPressEvent@HbCheckBox@@MAEXPAVQKeyEvent@@@Z @ 1135 NONAME ; void HbCheckBox::keyPressEvent(class QKeyEvent *)
	?setInvertedAppearance@HbSlider@@QAEX_N@Z @ 1136 NONAME ; void HbSlider::setInvertedAppearance(bool)
	?setWidgetItems@HbListDialog@@QAEXAAV?$QList@PAVHbListWidgetItem@@@@_NH@Z @ 1137 NONAME ABSENT ; void HbListDialog::setWidgetItems(class QList<class HbListWidgetItem *> &, bool, int)
	?itemDestroyed@HbDataFormViewItem@@IAEXVQPersistentModelIndex@@@Z @ 1138 NONAME ABSENT ; void HbDataFormViewItem::itemDestroyed(class QPersistentModelIndex)
	?updatePrimitives@HbAbstractEdit@@UAEXXZ @ 1139 NONAME ; void HbAbstractEdit::updatePrimitives(void)
	?text@HbSliderPopup@@QBE?AVQString@@XZ @ 1140 NONAME ; class QString HbSliderPopup::text(void) const
	?trUtf8@HbListDialog@@SA?AVQString@@PBD0@Z @ 1141 NONAME ABSENT ; class QString HbListDialog::trUtf8(char const *, char const *)
	?getStaticMetaObject@HbDeviceProgressDialog@@SAABUQMetaObject@@XZ @ 1142 NONAME ; struct QMetaObject const & HbDeviceProgressDialog::getStaticMetaObject(void)
	?trUtf8@HbSettingForm@@SA?AVQString@@PBD0@Z @ 1143 NONAME ABSENT ; class QString HbSettingForm::trUtf8(char const *, char const *)
	?textCursor@HbTextEdit@@QBE?AVQTextCursor@@XZ @ 1144 NONAME ; class QTextCursor HbTextEdit::textCursor(void) const
	?setListItems@HbCombinedQuery@@QAEXABV?$QMap@VQString@@V1@@@H@Z @ 1145 NONAME ABSENT ; void HbCombinedQuery::setListItems(class QMap<class QString, class QString> const &, int)
	?type@HbHighlight@@UBEHXZ @ 1146 NONAME ABSENT ; int HbHighlight::type(void) const
	?setText@HbMessageQuery@@QAEXABVQString@@@Z @ 1147 NONAME ABSENT ; void HbMessageQuery::setText(class QString const &)
	?tr@HbGlobalCommonNote@@SA?AVQString@@PBD0H@Z @ 1148 NONAME ABSENT ; class QString HbGlobalCommonNote::tr(char const *, char const *, int)
	?type@HbLineEdit@@UBEHXZ @ 1149 NONAME ; int HbLineEdit::type(void) const
	?text@HbLineEdit@@QBE?AVQString@@XZ @ 1150 NONAME ; class QString HbLineEdit::text(void) const
	?closeEvent@HbProgressBar@@MAEXPAVQCloseEvent@@@Z @ 1151 NONAME ; void HbProgressBar::closeEvent(class QCloseEvent *)
	?insertChild@HbDataFormModelItem@@QAEXHPAV1@@Z @ 1152 NONAME ; void HbDataFormModelItem::insertChild(int, class HbDataFormModelItem *)
	?type@HbListQuery@@UBEHXZ @ 1153 NONAME ABSENT ; int HbListQuery::type(void) const
	?getStaticMetaObject@HbAbstractSliderControl@@SAABUQMetaObject@@XZ @ 1154 NONAME ; struct QMetaObject const & HbAbstractSliderControl::getStaticMetaObject(void)
	??0HbSettingFormDataItem@@QAE@W4SettingItemType@0@ABVQString@@PBV0@@Z @ 1155 NONAME ABSENT ; HbSettingFormDataItem::HbSettingFormDataItem(enum HbSettingFormDataItem::SettingItemType, class QString const &, class HbSettingFormDataItem const *)
	?resizeEvent@HbAbstractEdit@@MAEXPAVQGraphicsSceneResizeEvent@@@Z @ 1156 NONAME ; void HbAbstractEdit::resizeEvent(class QGraphicsSceneResizeEvent *)
	??0HbSliderPopup@@IAE@AAVHbSliderPopupPrivate@@PAVQGraphicsItem@@@Z @ 1157 NONAME ; HbSliderPopup::HbSliderPopup(class HbSliderPopupPrivate &, class QGraphicsItem *)
	?activated@HbDeviceNotificationDialog@@IAEXXZ @ 1158 NONAME ; void HbDeviceNotificationDialog::activated(void)
	?itemActivated@HbFormView@@IAEXPAVHbFormItem@@@Z @ 1159 NONAME ABSENT ; void HbFormView::itemActivated(class HbFormItem *)
	?metaObject@HbSliderPopup@@UBEPBUQMetaObject@@XZ @ 1160 NONAME ; struct QMetaObject const * HbSliderPopup::metaObject(void) const
	?type@HbZoomSlider@@UBEHXZ @ 1161 NONAME ; int HbZoomSlider::type(void) const
	?setCurrentListItem@HbCombinedQuery@@QAEXH@Z @ 1162 NONAME ABSENT ; void HbCombinedQuery::setCurrentListItem(int)
	?getStaticMetaObject@HbSettingFormItem@@SAABUQMetaObject@@XZ @ 1163 NONAME ABSENT ; struct QMetaObject const & HbSettingFormItem::getStaticMetaObject(void)
	?setToolTipVisible@HbSliderPopup@@UAEX_N@Z @ 1164 NONAME ; void HbSliderPopup::setToolTipVisible(bool)
	?aboutToClose@HbGlobalCommonNote@@IAEXXZ @ 1165 NONAME ABSENT ; void HbGlobalCommonNote::aboutToClose(void)
	?background@HbPushButton@@QBE?AVHbIcon@@XZ @ 1166 NONAME ; class HbIcon HbPushButton::background(void) const
	?d_func@HbSettingFormItem@@ABEPBVHbSettingFormItemPrivate@@XZ @ 1167 NONAME ABSENT ; class HbSettingFormItemPrivate const * HbSettingFormItem::d_func(void) const
	??0HbHighlight@@QAE@PAVQGraphicsItem@@@Z @ 1168 NONAME ABSENT ; HbHighlight::HbHighlight(class QGraphicsItem *)
	?mouseReleaseEvent@HbRatingSlider@@MAEXPAVQGraphicsSceneMouseEvent@@@Z @ 1169 NONAME ABSENT ; void HbRatingSlider::mouseReleaseEvent(class QGraphicsSceneMouseEvent *)
	??1HbColorDialog@@UAE@XZ @ 1170 NONAME ; HbColorDialog::~HbColorDialog(void)
	??0HbGlobalCommonNote@@QAE@W4NoteType@HbCommonNote@@PAVQObject@@@Z @ 1171 NONAME ABSENT ; HbGlobalCommonNote::HbGlobalCommonNote(enum HbCommonNote::NoteType, class QObject *)
	?mouseReleaseEvent@HbCarouselView@@MAEXPAVQGraphicsSceneMouseEvent@@@Z @ 1172 NONAME ABSENT ; void HbCarouselView::mouseReleaseEvent(class QGraphicsSceneMouseEvent *)
	?staticMetaObject@HbLineEdit@@2UQMetaObject@@B @ 1173 NONAME ; struct QMetaObject const HbLineEdit::staticMetaObject
	?timeout@HbDeviceNotificationDialog@@QBE?AW4DefaultTimeout@HbPopupBase@@XZ @ 1174 NONAME ABSENT ; enum HbPopupBase::DefaultTimeout HbDeviceNotificationDialog::timeout(void) const
	?tr@HbTransparentWindow@@SA?AVQString@@PBD0H@Z @ 1175 NONAME ; class QString HbTransparentWindow::tr(char const *, char const *, int)
	?activated@HbCarouselView@@IAEXABVQModelIndex@@@Z @ 1176 NONAME ABSENT ; void HbCarouselView::activated(class QModelIndex const &)
	?setText@HbProgressNote@@QAEXABVQString@@@Z @ 1177 NONAME ABSENT ; void HbProgressNote::setText(class QString const &)
	?minimum@HbProgressBar@@QBEHXZ @ 1178 NONAME ; int HbProgressBar::minimum(void) const
	?trUtf8@HbProgressSlider@@SA?AVQString@@PBD0H@Z @ 1179 NONAME ; class QString HbProgressSlider::trUtf8(char const *, char const *, int)
	?trUtf8@HbProgressBar@@SA?AVQString@@PBD0@Z @ 1180 NONAME ; class QString HbProgressBar::trUtf8(char const *, char const *)
	?setInputMode@HbInputDialog@@QAEXW4InputMode@1@H@Z @ 1181 NONAME ; void HbInputDialog::setInputMode(enum HbInputDialog::InputMode, int)
	?lastZ@HbTrajectory@@QBEMXZ @ 1182 NONAME ABSENT ; float HbTrajectory::lastZ(void) const
	?type@HbNotificationDialog@@UBEHXZ @ 1183 NONAME ; int HbNotificationDialog::type(void) const
	?rangeChanged@HbSliderPopup@@IAEXHH@Z @ 1184 NONAME ; void HbSliderPopup::rangeChanged(int, int)
	?rangeChanged@HbSlider@@IAEXHH@Z @ 1185 NONAME ; void HbSlider::rangeChanged(int, int)
	?setMinimum@HbSliderPopup@@QAEXH@Z @ 1186 NONAME ; void HbSliderPopup::setMinimum(int)
	?textCursor@HbAbstractEdit@@IBE?AVQTextCursor@@XZ @ 1187 NONAME ; class QTextCursor HbAbstractEdit::textCursor(void) const
	?trUtf8@HbCommonNote@@SA?AVQString@@PBD0@Z @ 1188 NONAME ABSENT ; class QString HbCommonNote::trUtf8(char const *, char const *)
	?icon@HbGlobalDiscreetPopup@@QBE?AVHbIcon@@XZ @ 1189 NONAME ABSENT ; class HbIcon HbGlobalDiscreetPopup::icon(void) const
	?itemChange@HbProgressBar@@MAE?AVQVariant@@W4GraphicsItemChange@QGraphicsItem@@ABV2@@Z @ 1190 NONAME ; class QVariant HbProgressBar::itemChange(enum QGraphicsItem::GraphicsItemChange, class QVariant const &)
	?metaObject@HbDualDataQuery@@UBEPBUQMetaObject@@XZ @ 1191 NONAME ABSENT ; struct QMetaObject const * HbDualDataQuery::metaObject(void) const
	?setExpanded@HbSettingFormItem@@QAEX_N@Z @ 1192 NONAME ABSENT ; void HbSettingFormItem::setExpanded(bool)
	?getModelIndexes@HbListQuery@@SA?AV?$QList@VQModelIndex@@@@ABVQString@@PAVQAbstractItemModel@@PA_NW4SelectionMode@HbAbstractItemView@@PAVQGraphicsScene@@PAVQGraphicsItem@@@Z @ 1193 NONAME ABSENT ; class QList<class QModelIndex> HbListQuery::getModelIndexes(class QString const &, class QAbstractItemModel *, bool *, enum HbAbstractItemView::SelectionMode, class QGraphicsScene *, class QGraphicsItem *)
	?initStyleOption@HbMessageBox@@IBEXPAVHbStyleOptionMessageBox@@@Z @ 1194 NONAME ; void HbMessageBox::initStyleOption(class HbStyleOptionMessageBox *) const
	?isSelectDirsSet@HbFileDialog@@QBE_NXZ @ 1195 NONAME ABSENT ; bool HbFileDialog::isSelectDirsSet(void) const
	?undo@HbFormView@@QAEXXZ @ 1196 NONAME ABSENT ; void HbFormView::undo(void)
	?type@HbSlider@@UBEHXZ @ 1197 NONAME ; int HbSlider::type(void) const
	??1HbSettingFormModel@@UAE@XZ @ 1198 NONAME ABSENT ; HbSettingFormModel::~HbSettingFormModel(void)
	?expandAnimation@HbFormViewItem@@UAEXM@Z @ 1199 NONAME ABSENT ; void HbFormViewItem::expandAnimation(float)
	?setData@HbSettingFormModel@@UAE_NABVQModelIndex@@ABVQVariant@@H@Z @ 1200 NONAME ABSENT ; bool HbSettingFormModel::setData(class QModelIndex const &, class QVariant const &, int)
	??0HbRatingSlider@@IAE@AAVHbRatingSliderPrivate@@PAVQGraphicsItem@@@Z @ 1201 NONAME ; HbRatingSlider::HbRatingSlider(class HbRatingSliderPrivate &, class QGraphicsItem *)
	?setModel@HbDataFormModelItem@@QAEXPBVQAbstractItemModel@@@Z @ 1202 NONAME ABSENT ; void HbDataFormModelItem::setModel(class QAbstractItemModel const *)
	??_EHbCarouselView@@UAE@I@Z @ 1203 NONAME ABSENT ; HbCarouselView::~HbCarouselView(unsigned int)
	?setText@HbProgressBar@@QAEXABVQString@@@Z @ 1204 NONAME ABSENT ; void HbProgressBar::setText(class QString const &)
	?previewMode@HbRadioButtonList@@QBE?AW4PreviewMode@1@XZ @ 1205 NONAME ; enum HbRadioButtonList::PreviewMode HbRadioButtonList::previewMode(void) const
	?setItemPrototype@HbFormView@@QAEXPAVHbFormViewItem@@@Z @ 1206 NONAME ABSENT ; void HbFormView::setItemPrototype(class HbFormViewItem *)
	??_EHbAbstractSliderControl@@UAE@I@Z @ 1207 NONAME ; HbAbstractSliderControl::~HbAbstractSliderControl(unsigned int)
	?d_func@HbComboBox@@AAEPAVHbComboBoxPrivate@@XZ @ 1208 NONAME ; class HbComboBoxPrivate * HbComboBox::d_func(void)
	?type@HbDateTimeEdit@@UBEHXZ @ 1209 NONAME ABSENT ; int HbDateTimeEdit::type(void) const
	?setItems@HbComboBox@@QAEXABVQStringList@@@Z @ 1210 NONAME ; void HbComboBox::setItems(class QStringList const &)
	?aboutToDeleteEditorWidget@HbFormViewItem@@MAEXW4FieldType@HbFormItem@@@Z @ 1211 NONAME ABSENT ; void HbFormViewItem::aboutToDeleteEditorWidget(enum HbFormItem::FieldType)
	?tr@HbSlider@@SA?AVQString@@PBD0@Z @ 1212 NONAME ; class QString HbSlider::tr(char const *, char const *)
	?setPromptText@HbInputDialog@@QAEXABVQString@@H@Z @ 1213 NONAME ; void HbInputDialog::setPromptText(class QString const &, int)
	?qt_metacast@HbHighlight@@UAEPAXPBD@Z @ 1214 NONAME ABSENT ; void * HbHighlight::qt_metacast(char const *)
	??1HbPushButton@@UAE@XZ @ 1215 NONAME ; HbPushButton::~HbPushButton(void)
	?selectedText@HbLineEdit@@QBE?AVQString@@XZ @ 1216 NONAME ; class QString HbLineEdit::selectedText(void) const
	??_EHbVolumeSlider@@UAE@I@Z @ 1217 NONAME ABSENT ; HbVolumeSlider::~HbVolumeSlider(unsigned int)
	?getStaticMetaObject@HbTransparentWindow@@SAABUQMetaObject@@XZ @ 1218 NONAME ; struct QMetaObject const & HbTransparentWindow::getStaticMetaObject(void)
	?trUtf8@HbMessageQuery@@SA?AVQString@@PBD0@Z @ 1219 NONAME ABSENT ; class QString HbMessageQuery::trUtf8(char const *, char const *)
	?d_func@HbProgressBar@@ABEPBVHbProgressBarPrivate@@XZ @ 1220 NONAME ; class HbProgressBarPrivate const * HbProgressBar::d_func(void) const
	?createContextMenu@HbAbstractEdit@@MAEPAVHbMenu@@XZ @ 1221 NONAME ; class HbMenu * HbAbstractEdit::createContextMenu(void)
	?autoClose@HbProgressNote@@QBE_NXZ @ 1222 NONAME ABSENT ; bool HbProgressNote::autoClose(void) const
	?maximum@HbSlider@@QBEHXZ @ 1223 NONAME ; int HbSlider::maximum(void) const
	?appendSettingFormItem@HbSettingFormModel@@QAEXPBVHbSettingFormDataItem@@PAV2@@Z @ 1224 NONAME ABSENT ; void HbSettingFormModel::appendSettingFormItem(class HbSettingFormDataItem const *, class HbSettingFormDataItem *)
	?data@HbSettingFormModel@@UBE?AVQVariant@@ABVQModelIndex@@H@Z @ 1225 NONAME ABSENT ; class QVariant HbSettingFormModel::data(class QModelIndex const &, int) const
	?qt_metacall@HbDataForm@@UAEHW4Call@QMetaObject@@HPAPAX@Z @ 1226 NONAME ; int HbDataForm::qt_metacall(enum QMetaObject::Call, int, void * *)
	?launchPopup@HbGlobalDiscreetPopup@@SAXABVHbIcon@@@Z @ 1227 NONAME ABSENT ; void HbGlobalDiscreetPopup::launchPopup(class HbIcon const &)
	?qt_metacast@HbVolumeSlider@@UAEPAXPBD@Z @ 1228 NONAME ; void * HbVolumeSlider::qt_metacast(char const *)
	?mouseReleaseEvent@HbAbstractEdit@@MAEXPAVQGraphicsSceneMouseEvent@@@Z @ 1229 NONAME ABSENT ; void HbAbstractEdit::mouseReleaseEvent(class QGraphicsSceneMouseEvent *)
	?d_func@HbFormItem@@ABEPBVHbFormItemPrivate@@XZ @ 1230 NONAME ABSENT ; class HbFormItemPrivate const * HbFormItem::d_func(void) const
	?tr@HbDateTimeEdit@@SA?AVQString@@PBD0@Z @ 1231 NONAME ABSENT ; class QString HbDateTimeEdit::tr(char const *, char const *)
	?trUtf8@HbFileDialog@@SA?AVQString@@PBD0H@Z @ 1232 NONAME ABSENT ; class QString HbFileDialog::trUtf8(char const *, char const *, int)
	?polish@HbProgressBar@@MAEXAAVHbStyleParameters@@@Z @ 1233 NONAME ABSENT ; void HbProgressBar::polish(class HbStyleParameters &)
	?setState@HbDataFormViewItem@@UAEXABV?$QMap@HVQVariant@@@@@Z @ 1234 NONAME ABSENT ; void HbDataFormViewItem::setState(class QMap<int, class QVariant> const &)
	?moveCursor@HbAbstractEdit@@IAEXW4MoveOperation@QTextCursor@@W4MoveMode@3@@Z @ 1235 NONAME ; void HbAbstractEdit::moveCursor(enum QTextCursor::MoveOperation, enum QTextCursor::MoveMode)
	?show@HbDeviceProgressDialog@@QAEXXZ @ 1236 NONAME ; void HbDeviceProgressDialog::show(void)
	?d_func@HbNotificationDialog@@AAEPAVHbNotificationDialogPrivate@@XZ @ 1237 NONAME ; class HbNotificationDialogPrivate * HbNotificationDialog::d_func(void)
	?tr@HbGlobalDiscreetPopup@@SA?AVQString@@PBD0H@Z @ 1238 NONAME ABSENT ; class QString HbGlobalDiscreetPopup::tr(char const *, char const *, int)
	?setCurrentValueVisible@HbVolumeSliderPopup@@QAEX_N@Z @ 1239 NONAME ; void HbVolumeSliderPopup::setCurrentValueVisible(bool)
	??_EHbLineEdit@@UAE@I@Z @ 1240 NONAME ; HbLineEdit::~HbLineEdit(unsigned int)
	?aboutToClose@HbDeviceProgressDialog@@IAEXXZ @ 1241 NONAME ; void HbDeviceProgressDialog::aboutToClose(void)
	?insertPolicy@HbComboBox@@QBE?AW4InsertPolicy@1@XZ @ 1242 NONAME ABSENT ; enum HbComboBox::InsertPolicy HbComboBox::insertPolicy(void) const
	?disableContextMenuRequested@HbFormView@@QAEXXZ @ 1243 NONAME ABSENT ; void HbFormView::disableContextMenuRequested(void)
	?qt_metacast@HbAbstractEdit@@UAEPAXPBD@Z @ 1244 NONAME ; void * HbAbstractEdit::qt_metacast(char const *)
	??_EHbDataForm@@UAE@I@Z @ 1245 NONAME ; HbDataForm::~HbDataForm(unsigned int)
	?d_func@HbZoomSliderPopup@@AAEPAVHbZoomSliderPopupPrivate@@XZ @ 1246 NONAME ; class HbZoomSliderPopupPrivate * HbZoomSliderPopup::d_func(void)
	?showEvent@HbProgressNote@@MAEXPAVQShowEvent@@@Z @ 1247 NONAME ABSENT ; void HbProgressNote::showEvent(class QShowEvent *)
	?setRemovable@HbFormItem@@QAEX_N@Z @ 1248 NONAME ABSENT ; void HbFormItem::setRemovable(bool)
	?isModified@HbFormItem@@QBE_NXZ @ 1249 NONAME ABSENT ; bool HbFormItem::isModified(void) const
	?launchDialog@HbDeviceNotificationDialog@@SAXABVHbIcon@@ABVQString@@1@Z @ 1250 NONAME ABSENT ; void HbDeviceNotificationDialog::launchDialog(class HbIcon const &, class QString const &, class QString const &)
	?tr@HbInputDialog@@SA?AVQString@@PBD0H@Z @ 1251 NONAME ; class QString HbInputDialog::tr(char const *, char const *, int)
	?qt_metacast@HbProgressSlider@@UAEPAXPBD@Z @ 1252 NONAME ; void * HbProgressSlider::qt_metacast(char const *)
	?longPress@HbPushButton@@IAEXVQPointF@@@Z @ 1253 NONAME ; void HbPushButton::longPress(class QPointF)
	?staticMetaObject@HbZoomSlider@@2UQMetaObject@@B @ 1254 NONAME ; struct QMetaObject const HbZoomSlider::staticMetaObject
	??1HbCheckBox@@UAE@XZ @ 1255 NONAME ; HbCheckBox::~HbCheckBox(void)
	??0HbGlobalProgressNote@@QAE@W4ProgressNoteType@HbProgressNote@@PAVQObject@@@Z @ 1256 NONAME ABSENT ; HbGlobalProgressNote::HbGlobalProgressNote(enum HbProgressNote::ProgressNoteType, class QObject *)
	?trUtf8@HbAbstractEdit@@SA?AVQString@@PBD0@Z @ 1257 NONAME ; class QString HbAbstractEdit::trUtf8(char const *, char const *)
	?sliderMoved@HbSliderPopup@@IAEXH@Z @ 1258 NONAME ; void HbSliderPopup::sliderMoved(int)
	??_EHbGlobalCommonNote@@UAE@I@Z @ 1259 NONAME ABSENT ; HbGlobalCommonNote::~HbGlobalCommonNote(unsigned int)
	?getWidgetItems@HbListQuery@@SA?AV?$QList@PAVHbListWidgetItem@@@@ABVQString@@AAV2@HPA_NW4SelectionMode@HbAbstractItemView@@PAVQGraphicsScene@@PAVQGraphicsItem@@@Z @ 1260 NONAME ABSENT ; class QList<class HbListWidgetItem *> HbListQuery::getWidgetItems(class QString const &, class QList<class HbListWidgetItem *> &, int, bool *, enum HbAbstractItemView::SelectionMode, class QGraphicsScene *, class QGraphicsItem *)
	?defaultSeparator@HbValidator@@QAE?AVQString@@XZ @ 1261 NONAME ; class QString HbValidator::defaultSeparator(void)
	?setPageStep@HbAbstractSliderControl@@QAEXH@Z @ 1262 NONAME ; void HbAbstractSliderControl::setPageStep(int)
	?sliderPressed@HbProgressSlider@@IAEXXZ @ 1263 NONAME ; void HbProgressSlider::sliderPressed(void)
	?getInteger@HbInputDialog@@SAHABVQString@@HPA_NPAVQGraphicsScene@@PAVQGraphicsWidget@@@Z @ 1264 NONAME ABSENT ; int HbInputDialog::getInteger(class QString const &, int, bool *, class QGraphicsScene *, class QGraphicsWidget *)
	?invertedAppearance@HbSliderPopup@@QBE_NXZ @ 1265 NONAME ; bool HbSliderPopup::invertedAppearance(void) const
	?setParent@HbDataFormModelItem@@QAEXPAV1@@Z @ 1266 NONAME ; void HbDataFormModelItem::setParent(class HbDataFormModelItem *)
	?invisibleRootItem@HbDataFormModel@@QBEPAVHbDataFormModelItem@@XZ @ 1267 NONAME ; class HbDataFormModelItem * HbDataFormModel::invisibleRootItem(void) const
	?clear@HbDataFormModel@@QAEXXZ @ 1268 NONAME ; void HbDataFormModel::clear(void)
	??0HbComboBox@@IAE@AAVHbComboBoxPrivate@@PAVQGraphicsItem@@@Z @ 1269 NONAME ; HbComboBox::HbComboBox(class HbComboBoxPrivate &, class QGraphicsItem *)
	?setSingleStep@HbAbstractSliderControl@@QAEXH@Z @ 1270 NONAME ; void HbAbstractSliderControl::setSingleStep(int)
	??_EHbFileDialog@@UAE@I@Z @ 1271 NONAME ABSENT ; HbFileDialog::~HbFileDialog(unsigned int)
	?staticMetaObject@HbRadioButtonList@@2UQMetaObject@@B @ 1272 NONAME ; struct QMetaObject const HbRadioButtonList::staticMetaObject
	??_EHbHighlight@@UAE@I@Z @ 1273 NONAME ABSENT ; HbHighlight::~HbHighlight(unsigned int)
	?isSecondRowVisible@HbInputDialog@@QAE_NXZ @ 1274 NONAME ABSENT ; bool HbInputDialog::isSecondRowVisible(void)
	?trUtf8@HbPushButton@@SA?AVQString@@PBD0H@Z @ 1275 NONAME ; class QString HbPushButton::trUtf8(char const *, char const *, int)
	?qt_metacall@HbDataFormViewItem@@UAEHW4Call@QMetaObject@@HPAPAX@Z @ 1276 NONAME ; int HbDataFormViewItem::qt_metacall(enum QMetaObject::Call, int, void * *)
	?addField@HbValidator@@QAEXPAVQValidator@@ABVQString@@@Z @ 1277 NONAME ; void HbValidator::addField(class QValidator *, class QString const &)
	??1HbGlobalDiscreetPopup@@UAE@XZ @ 1278 NONAME ABSENT ; HbGlobalDiscreetPopup::~HbGlobalDiscreetPopup(void)
	??_EHbDataFormModelItem@@UAE@I@Z @ 1279 NONAME ; HbDataFormModelItem::~HbDataFormModelItem(unsigned int)
	?focusOutEvent@HbPushButton@@MAEXPAVQFocusEvent@@@Z @ 1280 NONAME ; void HbPushButton::focusOutEvent(class QFocusEvent *)
	?metaObject@HbDateTimeEdit@@UBEPBUQMetaObject@@XZ @ 1281 NONAME ABSENT ; struct QMetaObject const * HbDateTimeEdit::metaObject(void) const
	??1HbTextEdit@@UAE@XZ @ 1282 NONAME ; HbTextEdit::~HbTextEdit(void)
	?hasSelectedText@HbLineEdit@@QBE_NXZ @ 1283 NONAME ; bool HbLineEdit::hasSelectedText(void) const
	?isSliderDown@HbAbstractSliderControl@@QBE_NXZ @ 1284 NONAME ; bool HbAbstractSliderControl::isSliderDown(void) const
	?type@HbDualDataQuery@@UBEHXZ @ 1285 NONAME ABSENT ; int HbDualDataQuery::type(void) const
	?getStaticMetaObject@HbRadioButtonList@@SAABUQMetaObject@@XZ @ 1286 NONAME ; struct QMetaObject const & HbRadioButtonList::getStaticMetaObject(void)
	?addItem@HbFormView@@QAEXPAVHbFormItem@@@Z @ 1287 NONAME ABSENT ; void HbFormView::addItem(class HbFormItem *)
	??0HbComboBox@@QAE@PAVQGraphicsItem@@@Z @ 1288 NONAME ; HbComboBox::HbComboBox(class QGraphicsItem *)
	?d_func@HbValidator@@AAEPAVHbValidatorPrivate@@XZ @ 1289 NONAME ; class HbValidatorPrivate * HbValidator::d_func(void)
	??0HbAbstractSliderControl@@QAE@PAVQGraphicsItem@@@Z @ 1290 NONAME ; HbAbstractSliderControl::HbAbstractSliderControl(class QGraphicsItem *)
	?isToolTipVisible@HbRatingSlider@@QBE_NXZ @ 1291 NONAME ABSENT ; bool HbRatingSlider::isToolTipVisible(void) const
	??0HbColorDialog@@QAE@PAVQGraphicsItem@@@Z @ 1292 NONAME ; HbColorDialog::HbColorDialog(class QGraphicsItem *)
	?userPropertyValue@HbFormViewItem@@IBE?AVQVariant@@PBVQObject@@@Z @ 1293 NONAME ABSENT ; class QVariant HbFormViewItem::userPropertyValue(class QObject const *) const
	?itemChange@HbCarouselView@@MAE?AVQVariant@@W4GraphicsItemChange@QGraphicsItem@@ABV2@@Z @ 1294 NONAME ABSENT ; class QVariant HbCarouselView::itemChange(enum QGraphicsItem::GraphicsItemChange, class QVariant const &)
	?clear@HbFormView@@QAEXXZ @ 1295 NONAME ABSENT ; void HbFormView::clear(void)
	?keyPressEvent@HbZoomSliderPopup@@MAEXPAVQKeyEvent@@@Z @ 1296 NONAME ; void HbZoomSliderPopup::keyPressEvent(class QKeyEvent *)
	?setCursorPosition@HbAbstractEdit@@UAEXHW4MoveMode@QTextCursor@@@Z @ 1297 NONAME ; void HbAbstractEdit::setCursorPosition(int, enum QTextCursor::MoveMode)
	?setTimeout@HbGlobalDiscreetPopup@@QAEXW4DefaultTimeout@HbPopupBase@@@Z @ 1298 NONAME ABSENT ; void HbGlobalDiscreetPopup::setTimeout(enum HbPopupBase::DefaultTimeout)
	?setIcon@HbSlider@@QAEXW4SliderElement@1@ABVHbIcon@@@Z @ 1299 NONAME ABSENT ; void HbSlider::setIcon(enum HbSlider::SliderElement, class HbIcon const &)
	?trUtf8@HbNotificationDialog@@SA?AVQString@@PBD0H@Z @ 1300 NONAME ; class QString HbNotificationDialog::trUtf8(char const *, char const *, int)
	?qt_metacast@HbGlobalCommonNote@@UAEPAXPBD@Z @ 1301 NONAME ABSENT ; void * HbGlobalCommonNote::qt_metacast(char const *)
	?insertDataFormItem@HbDataFormModel@@QAEXHPBVHbDataFormModelItem@@PAV2@@Z @ 1302 NONAME ABSENT ; void HbDataFormModel::insertDataFormItem(int, class HbDataFormModelItem const *, class HbDataFormModelItem *)
	?d_func@HbMessageQuery@@AAEPAVHbMessageQueryPrivate@@XZ @ 1303 NONAME ABSENT ; class HbMessageQueryPrivate * HbMessageQuery::d_func(void)
	?value@HbSlider@@QBEHXZ @ 1304 NONAME ; int HbSlider::value(void) const
	?sliderReleased@HbSliderPopup@@IAEXXZ @ 1305 NONAME ; void HbSliderPopup::sliderReleased(void)
	?setMajorTickInterval@HbSlider@@QAEXH@Z @ 1306 NONAME ; void HbSlider::setMajorTickInterval(int)
	??_EHbDataQuery@@UAE@I@Z @ 1307 NONAME ABSENT ; HbDataQuery::~HbDataQuery(unsigned int)
	?itemChange@HbPushButton@@MAE?AVQVariant@@W4GraphicsItemChange@QGraphicsItem@@ABV2@@Z @ 1308 NONAME ; class QVariant HbPushButton::itemChange(enum QGraphicsItem::GraphicsItemChange, class QVariant const &)
	?tr@HbZoomSlider@@SA?AVQString@@PBD0H@Z @ 1309 NONAME ; class QString HbZoomSlider::tr(char const *, char const *, int)
	?hideEvent@HbAbstractEdit@@MAEXPAVQHideEvent@@@Z @ 1310 NONAME ; void HbAbstractEdit::hideEvent(class QHideEvent *)
	?fileNameFilters@HbFileDialog@@QBE?AVQStringList@@XZ @ 1311 NONAME ABSENT ; class QStringList HbFileDialog::fileNameFilters(void) const
	?trUtf8@HbVolumeSlider@@SA?AVQString@@PBD0@Z @ 1312 NONAME ; class QString HbVolumeSlider::trUtf8(char const *, char const *)
	??0HbFormItem@@IAE@W4GraphicsItemType@Hb@@AAVHbFormItemPrivate@@PAVQObject@@@Z @ 1313 NONAME ABSENT ; HbFormItem::HbFormItem(enum Hb::GraphicsItemType, class HbFormItemPrivate &, class QObject *)
	?setMaximum@HbGlobalProgressNote@@QAEXH@Z @ 1314 NONAME ABSENT ; void HbGlobalProgressNote::setMaximum(int)
	?pageStep@HbSliderPopup@@QBEHXZ @ 1315 NONAME ; int HbSliderPopup::pageStep(void) const
	?invertedAppearance@HbSlider@@QBE_NXZ @ 1316 NONAME ; bool HbSlider::invertedAppearance(void) const
	?items@HbComboBox@@QBE?AVQStringList@@XZ @ 1317 NONAME ; class QStringList HbComboBox::items(void) const
	?staticMetaObject@HbDualDataQuery@@2UQMetaObject@@B @ 1318 NONAME ABSENT ; struct QMetaObject const HbDualDataQuery::staticMetaObject
	?childCount@HbDataFormModelItem@@QBEHXZ @ 1319 NONAME ; int HbDataFormModelItem::childCount(void) const
	?hasTracking@HbAbstractSliderControl@@QBE_NXZ @ 1320 NONAME ; bool HbAbstractSliderControl::hasTracking(void) const
	?updatePrimitives@HbPushButton@@UAEXXZ @ 1321 NONAME ; void HbPushButton::updatePrimitives(void)
	?showEvent@HbColorDialog@@MAEXPAVQShowEvent@@@Z @ 1322 NONAME ; void HbColorDialog::showEvent(class QShowEvent *)
	?qt_metacall@HbRadioButtonList@@UAEHW4Call@QMetaObject@@HPAPAX@Z @ 1323 NONAME ; int HbRadioButtonList::qt_metacall(enum QMetaObject::Call, int, void * *)
	??_EHbCheckBox@@UAE@I@Z @ 1324 NONAME ; HbCheckBox::~HbCheckBox(unsigned int)
	?d_func@HbCommonNote@@AAEPAVHbCommonNotePrivate@@XZ @ 1325 NONAME ABSENT ; class HbCommonNotePrivate * HbCommonNote::d_func(void)
	?updatePrimitives@HbSlider@@UAEXXZ @ 1326 NONAME ; void HbSlider::updatePrimitives(void)
	?setTristate@HbCheckBox@@QAEX_N@Z @ 1327 NONAME ; void HbCheckBox::setTristate(bool)
	?setModel@HbComboBox@@QAEXPAVQAbstractItemModel@@@Z @ 1328 NONAME ; void HbComboBox::setModel(class QAbstractItemModel *)
	?setData@HbDataFormModel@@UAE_NABVQModelIndex@@ABVQVariant@@H@Z @ 1329 NONAME ; bool HbDataFormModel::setData(class QModelIndex const &, class QVariant const &, int)
	?isIconEnabled@HbSlider@@QBE_NXZ @ 1330 NONAME ; bool HbSlider::isIconEnabled(void) const
	??4HbTrajectory@@QAEAAV0@ABV0@@Z @ 1331 NONAME ABSENT ; class HbTrajectory & HbTrajectory::operator=(class HbTrajectory const &)
	?focusOutEvent@HbDateTimeEdit@@MAEXPAVQFocusEvent@@@Z @ 1332 NONAME ABSENT ; void HbDateTimeEdit::focusOutEvent(class QFocusEvent *)
	??0HbDataFormViewItem@@QAE@PAVQGraphicsItem@@@Z @ 1333 NONAME ; HbDataFormViewItem::HbDataFormViewItem(class QGraphicsItem *)
	?setIconName@HbDeviceProgressDialog@@QAEXABVQString@@@Z @ 1334 NONAME ; void HbDeviceProgressDialog::setIconName(class QString const &)
	??1HbSliderPopup@@UAE@XZ @ 1335 NONAME ; HbSliderPopup::~HbSliderPopup(void)
	?trUtf8@HbComboBox@@SA?AVQString@@PBD0@Z @ 1336 NONAME ; class QString HbComboBox::trUtf8(char const *, char const *)
	?model@HbCarouselView@@QBEPAVQAbstractItemModel@@XZ @ 1337 NONAME ABSENT ; class QAbstractItemModel * HbCarouselView::model(void) const
	?toHtml@HbTextEdit@@QBE?AVQString@@XZ @ 1338 NONAME ; class QString HbTextEdit::toHtml(void) const
	?staticMetaObject@HbDataQuery@@2UQMetaObject@@B @ 1339 NONAME ABSENT ; struct QMetaObject const HbDataQuery::staticMetaObject
	?trUtf8@HbProgressBar@@SA?AVQString@@PBD0H@Z @ 1340 NONAME ; class QString HbProgressBar::trUtf8(char const *, char const *, int)
	?staticMetaObject@HbGlobalConfirmationQuery@@2UQMetaObject@@B @ 1341 NONAME ABSENT ; struct QMetaObject const HbGlobalConfirmationQuery::staticMetaObject
	?childCount@HbDataFormModel@@QBEHABVQModelIndex@@@Z @ 1342 NONAME ; int HbDataFormModel::childCount(class QModelIndex const &) const
	?staticMetaObject@HbCombinedQuery@@2UQMetaObject@@B @ 1343 NONAME ABSENT ; struct QMetaObject const HbCombinedQuery::staticMetaObject
	?metaObject@HbTransparentWindow@@UBEPBUQMetaObject@@XZ @ 1344 NONAME ; struct QMetaObject const * HbTransparentWindow::metaObject(void) const
	?formItem@HbFormView@@QBEPAVHbFormItem@@H@Z @ 1345 NONAME ABSENT ; class HbFormItem * HbFormView::formItem(int) const
	?scrollTo@HbSettingForm@@UAEXABVQModelIndex@@@Z @ 1346 NONAME ABSENT ; void HbSettingForm::scrollTo(class QModelIndex const &)
	?minimum@HbGlobalProgressNote@@QBEHXZ @ 1347 NONAME ABSENT ; int HbGlobalProgressNote::minimum(void) const
	?launchPopup@HbGlobalDiscreetPopup@@SAXABVQString@@0@Z @ 1348 NONAME ABSENT ; void HbGlobalDiscreetPopup::launchPopup(class QString const &, class QString const &)
	?text@HbProgressBar@@QBE?AVQString@@XZ @ 1349 NONAME ABSENT ; class QString HbProgressBar::text(void) const
	?qt_metacast@HbDeviceNotificationDialog@@UAEPAXPBD@Z @ 1350 NONAME ; void * HbDeviceNotificationDialog::qt_metacast(char const *)
	??_EHbZoomSliderPopup@@UAE@I@Z @ 1351 NONAME ; HbZoomSliderPopup::~HbZoomSliderPopup(unsigned int)
	??1HbVolumeSliderPopup@@UAE@XZ @ 1352 NONAME ; HbVolumeSliderPopup::~HbVolumeSliderPopup(void)
	?trUtf8@HbProgressNote@@SA?AVQString@@PBD0@Z @ 1353 NONAME ABSENT ; class QString HbProgressNote::trUtf8(char const *, char const *)
	?childCount@HbSettingFormModel@@QBEHABVQModelIndex@@@Z @ 1354 NONAME ABSENT ; int HbSettingFormModel::childCount(class QModelIndex const &) const
	?formItem@HbFormViewItem@@QBEPAVHbFormItem@@XZ @ 1355 NONAME ABSENT ; class HbFormItem * HbFormViewItem::formItem(void) const
	?progressValue@HbDeviceProgressDialog@@QBEHXZ @ 1356 NONAME ; int HbDeviceProgressDialog::progressValue(void) const
	?enableTouchActivation@HbNotificationDialog@@QAEX_N@Z @ 1357 NONAME ; void HbNotificationDialog::enableTouchActivation(bool)
	?metaObject@HbZoomSlider@@UBEPBUQMetaObject@@XZ @ 1358 NONAME ; struct QMetaObject const * HbZoomSlider::metaObject(void) const
	?qt_metacast@HbListQuery@@UAEPAXPBD@Z @ 1359 NONAME ABSENT ; void * HbListQuery::qt_metacast(char const *)
	?mouseReleaseEvent@HbProgressSlider@@MAEXPAVQGraphicsSceneMouseEvent@@@Z @ 1360 NONAME ; void HbProgressSlider::mouseReleaseEvent(class QGraphicsSceneMouseEvent *)
	?hitButton@HbPushButton@@MBE_NABVQPointF@@@Z @ 1361 NONAME ; bool HbPushButton::hitButton(class QPointF const &) const
	?setRepeatAction@HbAbstractSliderControl@@QAEXW4SliderAction@1@HHH@Z @ 1362 NONAME ; void HbAbstractSliderControl::setRepeatAction(enum HbAbstractSliderControl::SliderAction, int, int, int)
	?secondaryActionText@HbFileDialog@@QBE?AVQString@@XZ @ 1363 NONAME ABSENT ; class QString HbFileDialog::secondaryActionText(void) const
	?childAt@HbSettingFormDataItem@@QBEPAV1@H@Z @ 1364 NONAME ABSENT ; class HbSettingFormDataItem * HbSettingFormDataItem::childAt(int) const
	?d_func@HbGlobalDiscreetPopup@@ABEPBVHbGlobalDiscreetPopupPrivate@@XZ @ 1365 NONAME ABSENT ; class HbGlobalDiscreetPopupPrivate const * HbGlobalDiscreetPopup::d_func(void) const
	?d_func@HbRatingSlider@@AAEPAVHbRatingSliderPrivate@@XZ @ 1366 NONAME ; class HbRatingSliderPrivate * HbRatingSlider::d_func(void)
	?d_func@HbSlider@@AAEPAVHbSliderPrivate@@XZ @ 1367 NONAME ; class HbSliderPrivate * HbSlider::d_func(void)
	?primitive@HbMessageBox@@UBEPAVQGraphicsItem@@W4Primitive@HbStyle@@@Z @ 1368 NONAME ABSENT ; class QGraphicsItem * HbMessageBox::primitive(enum HbStyle::Primitive) const
	?launchDialog@HbDeviceNotificationDialog@@SAXABVHbIcon@@@Z @ 1369 NONAME ABSENT ; void HbDeviceNotificationDialog::launchDialog(class HbIcon const &)
	?reset@HbRadioButtonList@@UAEXXZ @ 1370 NONAME ; void HbRadioButtonList::reset(void)
	?length@HbTrajectory@@QBEMXZ @ 1371 NONAME ABSENT ; float HbTrajectory::length(void) const
	??1HbGlobalProgressNote@@UAE@XZ @ 1372 NONAME ABSENT ; HbGlobalProgressNote::~HbGlobalProgressNote(void)
	?tr@HbDeviceNotificationDialog@@SA?AVQString@@PBD0H@Z @ 1373 NONAME ; class QString HbDeviceNotificationDialog::tr(char const *, char const *, int)
	?nextIndex@HbDataForm@@UBE?AVQModelIndex@@ABV2@@Z @ 1374 NONAME ABSENT ; class QModelIndex HbDataForm::nextIndex(class QModelIndex const &) const
	??1HbSettingFormItem@@UAE@XZ @ 1375 NONAME ABSENT ; HbSettingFormItem::~HbSettingFormItem(void)
	?primaryPromptText@HbDualDataQuery@@QBE?AVQString@@XZ @ 1376 NONAME ABSENT ; class QString HbDualDataQuery::primaryPromptText(void) const
	?setTextWrapping@HbNote@@QAEX_N@Z @ 1377 NONAME ABSENT ; void HbNote::setTextWrapping(bool)
	?setInputMode@HbDataQuery@@QAEXW4InputMode@1@@Z @ 1378 NONAME ABSENT ; void HbDataQuery::setInputMode(enum HbDataQuery::InputMode)
	?d_func@HbDiscreetPopup@@ABEPBVHbDiscreetPopupPrivate@@XZ @ 1379 NONAME ABSENT ; class HbDiscreetPopupPrivate const * HbDiscreetPopup::d_func(void) const
	?iconClicked@HbSliderPopup@@IAEXXZ @ 1380 NONAME ; void HbSliderPopup::iconClicked(void)
	?orientation@HbSliderPopup@@QBE?AW4Orientation@Qt@@XZ @ 1381 NONAME ; enum Qt::Orientation HbSliderPopup::orientation(void) const
	?tr@HbDateTimeEdit@@SA?AVQString@@PBD0H@Z @ 1382 NONAME ABSENT ; class QString HbDateTimeEdit::tr(char const *, char const *, int)
	?progressNoteType@HbProgressNote@@QBE?AW4ProgressNoteType@1@XZ @ 1383 NONAME ABSENT ; enum HbProgressNote::ProgressNoteType HbProgressNote::progressNoteType(void) const
	?setItemPrototypes@HbFormView@@QAEXABV?$QList@PAVHbFormViewItem@@@@@Z @ 1384 NONAME ABSENT ; void HbFormView::setItemPrototypes(class QList<class HbFormViewItem *> const &)
	?d_func@HbSettingFormModel@@AAEPAVHbSettingFormModelPrivate@@XZ @ 1385 NONAME ABSENT ; class HbSettingFormModelPrivate * HbSettingFormModel::d_func(void)
	?type@HbCheckBox@@UBEHXZ @ 1386 NONAME ; int HbCheckBox::type(void) const
	?staticMetaObject@HbSlider@@2UQMetaObject@@B @ 1387 NONAME ; struct QMetaObject const HbSlider::staticMetaObject
	?rowsInserted@HbRadioButtonList@@MAEXABVQModelIndex@@HH@Z @ 1388 NONAME ; void HbRadioButtonList::rowsInserted(class QModelIndex const &, int, int)
	?qt_metacall@HbProgressBar@@UAEHW4Call@QMetaObject@@HPAPAX@Z @ 1389 NONAME ; int HbProgressBar::qt_metacall(enum QMetaObject::Call, int, void * *)
	?appendDataFormGroup@HbDataFormModel@@QAEPAVHbDataFormModelItem@@ABVQString@@PBV2@@Z @ 1390 NONAME ABSENT ; class HbDataFormModelItem * HbDataFormModel::appendDataFormGroup(class QString const &, class HbDataFormModelItem const *)
	?mouseReleaseEvent@HbNotificationDialog@@MAEXPAVQGraphicsSceneMouseEvent@@@Z @ 1391 NONAME ABSENT ; void HbNotificationDialog::mouseReleaseEvent(class QGraphicsSceneMouseEvent *)
	?d_func@HbZoomSlider@@AAEPAVHbZoomSliderPrivate@@XZ @ 1392 NONAME ; class HbZoomSliderPrivate * HbZoomSlider::d_func(void)
	?focusInEvent@HbVolumeSlider@@MAEXPAVQFocusEvent@@@Z @ 1393 NONAME ; void HbVolumeSlider::focusInEvent(class QFocusEvent *)
	?staticMetaObject@HbColorDialog@@2UQMetaObject@@B @ 1394 NONAME ; struct QMetaObject const HbColorDialog::staticMetaObject
	?insertFromMimeData@HbLineEdit@@MAEXPBVQMimeData@@@Z @ 1395 NONAME ; void HbLineEdit::insertFromMimeData(class QMimeData const *)
	?label@HbSettingFormDataItem@@QBE?AVQString@@XZ @ 1396 NONAME ABSENT ; class QString HbSettingFormDataItem::label(void) const
	?setSnappingMode@HbSliderPopup@@QAEXW4SnappingMode@HbSlider@@@Z @ 1397 NONAME ; void HbSliderPopup::setSnappingMode(enum HbSlider::SnappingMode)
	??0HbDiscreetPopup@@IAE@AAVHbDiscreetPopupPrivate@@PAVQGraphicsItem@@@Z @ 1398 NONAME ABSENT ; HbDiscreetPopup::HbDiscreetPopup(class HbDiscreetPopupPrivate &, class QGraphicsItem *)
	?tr@HbHighlight@@SA?AVQString@@PBD0H@Z @ 1399 NONAME ABSENT ; class QString HbHighlight::tr(char const *, char const *, int)
	?qt_metacast@HbZoomSliderPopup@@UAEPAXPBD@Z @ 1400 NONAME ; void * HbZoomSliderPopup::qt_metacast(char const *)
	?qt_metacall@HbDeviceProgressDialog@@UAEHW4Call@QMetaObject@@HPAPAX@Z @ 1401 NONAME ; int HbDeviceProgressDialog::qt_metacall(enum QMetaObject::Call, int, void * *)
	?setNoteType@HbCommonNote@@QAEXW4NoteType@1@@Z @ 1402 NONAME ABSENT ; void HbCommonNote::setNoteType(enum HbCommonNote::NoteType)
	?eventFilter@HbAbstractEdit@@UAE_NPAVQObject@@PAVQEvent@@@Z @ 1403 NONAME ABSENT ; bool HbAbstractEdit::eventFilter(class QObject *, class QEvent *)
	?metaObject@HbProgressSlider@@UBEPBUQMetaObject@@XZ @ 1404 NONAME ; struct QMetaObject const * HbProgressSlider::metaObject(void) const
	?metaObject@HbRadioButtonList@@UBEPBUQMetaObject@@XZ @ 1405 NONAME ; struct QMetaObject const * HbRadioButtonList::metaObject(void) const
	?snappingMode@HbSliderPopup@@QBE?AW4SnappingMode@HbSlider@@XZ @ 1406 NONAME ; enum HbSlider::SnappingMode HbSliderPopup::snappingMode(void) const
	?setLabel@HbDataFormModelItem@@QAEXABVQString@@@Z @ 1407 NONAME ; void HbDataFormModelItem::setLabel(class QString const &)
	??0HbGlobalProgressNote@@QAE@PAVQObject@@@Z @ 1408 NONAME ABSENT ; HbGlobalProgressNote::HbGlobalProgressNote(class QObject *)
	?d_func@HbDataFormModelItem@@AAEPAVHbDataFormModelItemPrivate@@XZ @ 1409 NONAME ; class HbDataFormModelItemPrivate * HbDataFormModelItem::d_func(void)
	?d_func@HbSettingForm@@ABEPBVHbSettingFormPrivate@@XZ @ 1410 NONAME ABSENT ; class HbSettingFormPrivate const * HbSettingForm::d_func(void) const
	?data@HbSettingFormDataItem@@QBE?AVQVariant@@H@Z @ 1411 NONAME ABSENT ; class QVariant HbSettingFormDataItem::data(int) const
	?contextMenuRequested@HbFormView@@IAEXPAVHbFormItem@@ABVQPointF@@@Z @ 1412 NONAME ABSENT ; void HbFormView::contextMenuRequested(class HbFormItem *, class QPointF const &)
	?show@HbGlobalProgressNote@@QAEXXZ @ 1413 NONAME ABSENT ; void HbGlobalProgressNote::show(void)
	??1HbTrajectory@@UAE@XZ @ 1414 NONAME ABSENT ; HbTrajectory::~HbTrajectory(void)
	?frameBackground@HbPushButton@@QBEPAVHbFrameDrawer@@XZ @ 1415 NONAME ; class HbFrameDrawer * HbPushButton::frameBackground(void) const
	?setNoteType@HbGlobalCommonNote@@QAEXW4NoteType@HbCommonNote@@@Z @ 1416 NONAME ABSENT ; void HbGlobalCommonNote::setNoteType(enum HbCommonNote::NoteType)
	?progressValue@HbProgressBar@@QBEHXZ @ 1417 NONAME ; int HbProgressBar::progressValue(void) const
	?type@HbTextEdit@@UBEHXZ @ 1418 NONAME ; int HbTextEdit::type(void) const
	?textWrapping@HbDeviceProgressDialog@@QBE_NXZ @ 1419 NONAME ABSENT ; bool HbDeviceProgressDialog::textWrapping(void) const
	?qt_metacall@HbVolumeSlider@@UAEHW4Call@QMetaObject@@HPAPAX@Z @ 1420 NONAME ; int HbVolumeSlider::qt_metacall(enum QMetaObject::Call, int, void * *)
	?d_func@HbZoomSliderPopup@@ABEPBVHbZoomSliderPopupPrivate@@XZ @ 1421 NONAME ; class HbZoomSliderPopupPrivate const * HbZoomSliderPopup::d_func(void) const
	?isValid@HbTrajectory@@QBE_NXZ @ 1422 NONAME ABSENT ; bool HbTrajectory::isValid(void) const
	?type@HbConfirmationQuery@@UBEHXZ @ 1423 NONAME ABSENT ; int HbConfirmationQuery::type(void) const
	?linkActivated@HbCombinedQuery@@IAEXABVQString@@@Z @ 1424 NONAME ABSENT ; void HbCombinedQuery::linkActivated(class QString const &)
	?tr@HbInputDialog@@SA?AVQString@@PBD0@Z @ 1425 NONAME ; class QString HbInputDialog::tr(char const *, char const *)
	??1HbSlider@@UAE@XZ @ 1426 NONAME ; HbSlider::~HbSlider(void)
	?displayFormat@HbDateTimeEdit@@QBE?AVQString@@XZ @ 1427 NONAME ABSENT ; class QString HbDateTimeEdit::displayFormat(void) const
	?qt_metacast@HbInputDialog@@UAEPAXPBD@Z @ 1428 NONAME ; void * HbInputDialog::qt_metacast(char const *)
	?metaObject@HbMessageQuery@@UBEPBUQMetaObject@@XZ @ 1429 NONAME ABSENT ; struct QMetaObject const * HbMessageQuery::metaObject(void) const
	?activated@HbDiscreetPopup@@IAEXXZ @ 1430 NONAME ABSENT ; void HbDiscreetPopup::activated(void)
	?d_func@HbListQuery@@AAEPAVHbListQueryPrivate@@XZ @ 1431 NONAME ABSENT ; class HbListQueryPrivate * HbListQuery::d_func(void)
	?textAlignment@HbNote@@QBE?AV?$QFlags@W4AlignmentFlag@Qt@@@@XZ @ 1432 NONAME ABSENT ; class QFlags<enum Qt::AlignmentFlag> HbNote::textAlignment(void) const
	?tr@HbMessageQuery@@SA?AVQString@@PBD0@Z @ 1433 NONAME ABSENT ; class QString HbMessageQuery::tr(char const *, char const *)
	?setCurrentIndex@HbComboBox@@QAEXH@Z @ 1434 NONAME ; void HbComboBox::setCurrentIndex(int)
	?maxText@HbProgressBar@@QBE?AVQString@@XZ @ 1435 NONAME ; class QString HbProgressBar::maxText(void) const
	?setTextAlignment@HbNote@@QAEXV?$QFlags@W4AlignmentFlag@Qt@@@@@Z @ 1436 NONAME ABSENT ; void HbNote::setTextAlignment(class QFlags<enum Qt::AlignmentFlag>)
	?clear@HbSettingFormModel@@QAEXXZ @ 1437 NONAME ABSENT ; void HbSettingFormModel::clear(void)
	?icon@HbSliderPopup@@QBE?AVHbIcon@@W4SliderElement@HbSlider@@@Z @ 1438 NONAME ABSENT ; class HbIcon HbSliderPopup::icon(enum HbSlider::SliderElement) const
	??0HbProgressSlider@@IAE@AAVHbProgressSliderPrivate@@PAVQGraphicsItem@@@Z @ 1439 NONAME ; HbProgressSlider::HbProgressSlider(class HbProgressSliderPrivate &, class QGraphicsItem *)
	?staticMetaObject@HbDataForm@@2UQMetaObject@@B @ 1440 NONAME ; struct QMetaObject const HbDataForm::staticMetaObject
	?minimum@HbSliderPopup@@QBEHXZ @ 1441 NONAME ; int HbSliderPopup::minimum(void) const
	?setTitle@HbDiscreetPopup@@QAEXABVQString@@@Z @ 1442 NONAME ABSENT ; void HbDiscreetPopup::setTitle(class QString const &)
	?editTextChanged@HbComboBox@@IAEXABVQString@@@Z @ 1443 NONAME ; void HbComboBox::editTextChanged(class QString const &)
	?isReadOnly@HbRatingSlider@@QBE_NXZ @ 1444 NONAME ; bool HbRatingSlider::isReadOnly(void) const
	?sliderPressed@HbSlider@@IAEXXZ @ 1445 NONAME ; void HbSlider::sliderPressed(void)
	?d_func@HbVolumeSliderPopup@@ABEPBVHbVolumeSliderPopupPrivate@@XZ @ 1446 NONAME ; class HbVolumeSliderPopupPrivate const * HbVolumeSliderPopup::d_func(void) const
	?exit@HbFormView@@QAEXXZ @ 1447 NONAME ABSENT ; void HbFormView::exit(void)
	?qt_metacast@HbListDialog@@UAEPAXPBD@Z @ 1448 NONAME ABSENT ; void * HbListDialog::qt_metacast(char const *)
	?metaObject@HbDeviceNotificationDialog@@UBEPBUQMetaObject@@XZ @ 1449 NONAME ; struct QMetaObject const * HbDeviceNotificationDialog::metaObject(void) const
	?staticMetaObject@HbProgressNote@@2UQMetaObject@@B @ 1450 NONAME ABSENT ; struct QMetaObject const HbProgressNote::staticMetaObject
	?setSecondaryInputMode@HbDualDataQuery@@QAEXW4InputMode@HbDataQuery@@@Z @ 1451 NONAME ABSENT ; void HbDualDataQuery::setSecondaryInputMode(enum HbDataQuery::InputMode)
	?qt_metacall@HbSliderPopup@@UAEHW4Call@QMetaObject@@HPAPAX@Z @ 1452 NONAME ; int HbSliderPopup::qt_metacall(enum QMetaObject::Call, int, void * *)
	?staticMetaObject@HbGlobalProgressNote@@2UQMetaObject@@B @ 1453 NONAME ABSENT ; struct QMetaObject const HbGlobalProgressNote::staticMetaObject
	??0HbMessageBox@@QAE@ABVQString@@W4MessageBoxType@0@PAVQGraphicsItem@@@Z @ 1454 NONAME ; HbMessageBox::HbMessageBox(class QString const &, enum HbMessageBox::MessageBoxType, class QGraphicsItem *)
	?staticMetaObject@HbTextEdit@@2UQMetaObject@@B @ 1455 NONAME ; struct QMetaObject const HbTextEdit::staticMetaObject
	??0HbFormView@@QAE@W4Mode@0@PAVQGraphicsItem@@@Z @ 1456 NONAME ABSENT ; HbFormView::HbFormView(enum HbFormView::Mode, class QGraphicsItem *)
	?primitive@HbDataForm@@UBEPAVQGraphicsItem@@W4Primitive@HbStyle@@@Z @ 1457 NONAME ; class QGraphicsItem * HbDataForm::primitive(enum HbStyle::Primitive) const
	?trUtf8@HbProgressNote@@SA?AVQString@@PBD0H@Z @ 1458 NONAME ABSENT ; class QString HbProgressNote::trUtf8(char const *, char const *, int)
	?mouseMoveEvent@HbRatingSlider@@MAEXPAVQGraphicsSceneMouseEvent@@@Z @ 1459 NONAME ABSENT ; void HbRatingSlider::mouseMoveEvent(class QGraphicsSceneMouseEvent *)
	??0HbSlider@@QAE@PAVQGraphicsItem@@@Z @ 1460 NONAME ; HbSlider::HbSlider(class QGraphicsItem *)
	??1HbCombinedQuery@@UAE@XZ @ 1461 NONAME ABSENT ; HbCombinedQuery::~HbCombinedQuery(void)
	??0HbNote@@QAE@ABVQString@@PAVQGraphicsItem@@@Z @ 1462 NONAME ABSENT ; HbNote::HbNote(class QString const &, class QGraphicsItem *)
	?metaObject@HbDataForm@@UBEPBUQMetaObject@@XZ @ 1463 NONAME ; struct QMetaObject const * HbDataForm::metaObject(void) const
	?setPrimaryAndSecondaryActionTexts@HbFileDialog@@QAEXABVQString@@0@Z @ 1464 NONAME ABSENT ; void HbFileDialog::setPrimaryAndSecondaryActionTexts(class QString const &, class QString const &)
	?setGeometry@HbProgressSlider@@UAEXABVQRectF@@@Z @ 1465 NONAME ; void HbProgressSlider::setGeometry(class QRectF const &)
	?tr@HbCombinedQuery@@SA?AVQString@@PBD0H@Z @ 1466 NONAME ABSENT ; class QString HbCombinedQuery::tr(char const *, char const *, int)
	?insertDataFormItem@HbDataFormModel@@QAEPAVHbDataFormModelItem@@HW4DataItemType@2@ABVQString@@PBV2@@Z @ 1467 NONAME ABSENT ; class HbDataFormModelItem * HbDataFormModel::insertDataFormItem(int, enum HbDataFormModelItem::DataItemType, class QString const &, class HbDataFormModelItem const *)
	?primitive@HbCheckBox@@UBEPAVQGraphicsItem@@W4Primitive@HbStyle@@@Z @ 1468 NONAME ; class QGraphicsItem * HbCheckBox::primitive(enum HbStyle::Primitive) const
	?setOrientation@HbPushButton@@QAEXW4Orientation@Qt@@@Z @ 1469 NONAME ABSENT ; void HbPushButton::setOrientation(enum Qt::Orientation)
	??1HbGlobalCommonNote@@UAE@XZ @ 1470 NONAME ABSENT ; HbGlobalCommonNote::~HbGlobalCommonNote(void)
	?getStaticMetaObject@HbFormItem@@SAABUQMetaObject@@XZ @ 1471 NONAME ABSENT ; struct QMetaObject const & HbFormItem::getStaticMetaObject(void)
	?qt_metacall@HbGlobalCommonNote@@UAEHW4Call@QMetaObject@@HPAPAX@Z @ 1472 NONAME ABSENT ; int HbGlobalCommonNote::qt_metacall(enum QMetaObject::Call, int, void * *)
	?mouseReleaseEvent@HbCheckBox@@MAEXPAVQGraphicsSceneMouseEvent@@@Z @ 1473 NONAME ABSENT ; void HbCheckBox::mouseReleaseEvent(class QGraphicsSceneMouseEvent *)
	?tr@HbFormItem@@SA?AVQString@@PBD0H@Z @ 1474 NONAME ABSENT ; class QString HbFormItem::tr(char const *, char const *, int)
	?trUtf8@HbSlider@@SA?AVQString@@PBD0@Z @ 1475 NONAME ; class QString HbSlider::trUtf8(char const *, char const *)
	?title@HbDeviceNotificationDialog@@QBE?AVQString@@XZ @ 1476 NONAME ; class QString HbDeviceNotificationDialog::title(void) const
	?timeout@HbGlobalCommonNote@@QBEHXZ @ 1477 NONAME ABSENT ; int HbGlobalCommonNote::timeout(void) const
	?setInitialColor@HbColorDialog@@QAEXABVQColor@@@Z @ 1478 NONAME ; void HbColorDialog::setInitialColor(class QColor const &)
	?setMinimum@HbAbstractSliderControl@@QAEXH@Z @ 1479 NONAME ; void HbAbstractSliderControl::setMinimum(int)
	?ratingChanged@HbRatingSlider@@IAEXH@Z @ 1480 NONAME ; void HbRatingSlider::ratingChanged(int)
	?tr@HbAbstractEdit@@SA?AVQString@@PBD0@Z @ 1481 NONAME ; class QString HbAbstractEdit::tr(char const *, char const *)
	?d_func@HbDualDataQuery@@ABEPBVHbDualDataQueryPrivate@@XZ @ 1482 NONAME ABSENT ; class HbDualDataQueryPrivate const * HbDualDataQuery::d_func(void) const
	??0HbZoomSliderPopup@@QAE@XZ @ 1483 NONAME ; HbZoomSliderPopup::HbZoomSliderPopup(void)
	?maximum@HbAbstractSliderControl@@QBEHXZ @ 1484 NONAME ; int HbAbstractSliderControl::maximum(void) const
	?tr@HbGlobalProgressNote@@SA?AVQString@@PBD0H@Z @ 1485 NONAME ABSENT ; class QString HbGlobalProgressNote::tr(char const *, char const *, int)
	?setTextAlignment@HbProgressNote@@QAEXV?$QFlags@W4AlignmentFlag@Qt@@@@@Z @ 1486 NONAME ABSENT ; void HbProgressNote::setTextAlignment(class QFlags<enum Qt::AlignmentFlag>)
	?metaObject@HbListQuery@@UBEPBUQMetaObject@@XZ @ 1487 NONAME ABSENT ; struct QMetaObject const * HbListQuery::metaObject(void) const
	?setTextAlignment@HbGlobalConfirmationQuery@@QAEXV?$QFlags@W4AlignmentFlag@Qt@@@@@Z @ 1488 NONAME ABSENT ; void HbGlobalConfirmationQuery::setTextAlignment(class QFlags<enum Qt::AlignmentFlag>)
	?clear@HbComboBox@@QAEXXZ @ 1489 NONAME ; void HbComboBox::clear(void)
	?getStaticMetaObject@HbNotificationDialog@@SAABUQMetaObject@@XZ @ 1490 NONAME ; struct QMetaObject const & HbNotificationDialog::getStaticMetaObject(void)
	?trUtf8@HbColorDialog@@SA?AVQString@@PBD0H@Z @ 1491 NONAME ; class QString HbColorDialog::trUtf8(char const *, char const *, int)
	?qt_metacast@HbFormView@@UAEPAXPBD@Z @ 1492 NONAME ABSENT ; void * HbFormView::qt_metacast(char const *)
	??0HbListDialog@@QAE@PAVQGraphicsItem@@@Z @ 1493 NONAME ABSENT ; HbListDialog::HbListDialog(class QGraphicsItem *)
	?setPrimaryInputMode@HbDualDataQuery@@QAEXW4InputMode@HbDataQuery@@@Z @ 1494 NONAME ABSENT ; void HbDualDataQuery::setPrimaryInputMode(enum HbDataQuery::InputMode)
	?setReadOnly@HbRatingSlider@@QAEX_N@Z @ 1495 NONAME ; void HbRatingSlider::setReadOnly(bool)
	?sizeHint@HbFormViewItem@@MBE?AVQSizeF@@W4SizeHint@Qt@@ABV2@@Z @ 1496 NONAME ABSENT ; class QSizeF HbFormViewItem::sizeHint(enum Qt::SizeHint, class QSizeF const &) const
	?hasAcceptableInput@HbAbstractEdit@@QBE_NXZ @ 1497 NONAME ; bool HbAbstractEdit::hasAcceptableInput(void) const
	?initStyleOption@HbProgressNote@@IBEXPAVHbStyleOption@@@Z @ 1498 NONAME ABSENT ; void HbProgressNote::initStyleOption(class HbStyleOption *) const
	?progressDialogType@HbDeviceProgressDialog@@QBE?AW4ProgressNoteType@HbProgressNote@@XZ @ 1499 NONAME ABSENT ; enum HbProgressNote::ProgressNoteType HbDeviceProgressDialog::progressDialogType(void) const
	?qt_metacast@HbGlobalDiscreetPopup@@UAEPAXPBD@Z @ 1500 NONAME ABSENT ; void * HbGlobalDiscreetPopup::qt_metacast(char const *)
	?getStaticMetaObject@HbDataFormViewItem@@SAABUQMetaObject@@XZ @ 1501 NONAME ; struct QMetaObject const & HbDataFormViewItem::getStaticMetaObject(void)
	?setSliderPosition@HbSlider@@QAEXH@Z @ 1502 NONAME ; void HbSlider::setSliderPosition(int)
	?setMinorTickInterval@HbSliderPopup@@QAEXH@Z @ 1503 NONAME ; void HbSliderPopup::setMinorTickInterval(int)
	?trUtf8@HbFormItem@@SA?AVQString@@PBD0H@Z @ 1504 NONAME ABSENT ; class QString HbFormItem::trUtf8(char const *, char const *, int)
	?masterValidator@HbValidator@@QBEPBVQValidator@@XZ @ 1505 NONAME ABSENT ; class QValidator const * HbValidator::masterValidator(void) const
	?staticMetaObject@HbMessageQuery@@2UQMetaObject@@B @ 1506 NONAME ABSENT ; struct QMetaObject const HbMessageQuery::staticMetaObject
	?type@HbDiscreetPopup@@UBEHXZ @ 1507 NONAME ABSENT ; int HbDiscreetPopup::type(void) const
	?getStaticMetaObject@HbDeviceNotificationDialog@@SAABUQMetaObject@@XZ @ 1508 NONAME ; struct QMetaObject const & HbDeviceNotificationDialog::getStaticMetaObject(void)
	?setMaximum@HbProgressBar@@QAEXH@Z @ 1509 NONAME ; void HbProgressBar::setMaximum(int)
	?setIconChecked@HbSlider@@QAEX_N@Z @ 1510 NONAME ; void HbSlider::setIconChecked(bool)
	?scrollTo@HbCarouselView@@QAEXABVQModelIndex@@@Z @ 1511 NONAME ABSENT ; void HbCarouselView::scrollTo(class QModelIndex const &)
	??0HbAbstractSliderControl@@IAE@AAVHbAbstractSliderControlPrivate@@PAVQGraphicsItem@@@Z @ 1512 NONAME ; HbAbstractSliderControl::HbAbstractSliderControl(class HbAbstractSliderControlPrivate &, class QGraphicsItem *)
	?getText@HbDataQuery@@SA?AVQString@@ABV2@0PA_NPAVQGraphicsScene@@PAVQGraphicsWidget@@@Z @ 1513 NONAME ABSENT ; class QString HbDataQuery::getText(class QString const &, class QString const &, bool *, class QGraphicsScene *, class QGraphicsWidget *)
	?_q_orientationAboutToChange@HbListQuery@@AAEXXZ @ 1514 NONAME ABSENT ; void HbListQuery::_q_orientationAboutToChange(void)
	?setDescription@HbDataForm@@QAEXABVQString@@@Z @ 1515 NONAME ; void HbDataForm::setDescription(class QString const &)
	?insertSettingFormItem@HbSettingFormModel@@QAEXHPBVHbSettingFormDataItem@@PAV2@@Z @ 1516 NONAME ABSENT ; void HbSettingFormModel::insertSettingFormItem(int, class HbSettingFormDataItem const *, class HbSettingFormDataItem *)
	?textValue@HbDataQuery@@QBE?AVQVariant@@XZ @ 1517 NONAME ABSENT ; class QVariant HbDataQuery::textValue(void) const
	?d_func@HbNotificationDialog@@ABEPBVHbNotificationDialogPrivate@@XZ @ 1518 NONAME ; class HbNotificationDialogPrivate const * HbNotificationDialog::d_func(void) const
	??_EHbProgressNote@@UAE@I@Z @ 1519 NONAME ABSENT ; HbProgressNote::~HbProgressNote(unsigned int)
	??0HbSettingFormItem@@IAE@ABV0@@Z @ 1520 NONAME ABSENT ; HbSettingFormItem::HbSettingFormItem(class HbSettingFormItem const &)
	?mousePressEvent@HbRatingSlider@@MAEXPAVQGraphicsSceneMouseEvent@@@Z @ 1521 NONAME ; void HbRatingSlider::mousePressEvent(class QGraphicsSceneMouseEvent *)
	?setSelected@HbRadioButtonList@@QAEXH@Z @ 1522 NONAME ; void HbRadioButtonList::setSelected(int)
	?mousePressEvent@HbCarouselView@@MAEXPAVQGraphicsSceneMouseEvent@@@Z @ 1523 NONAME ABSENT ; void HbCarouselView::mousePressEvent(class QGraphicsSceneMouseEvent *)
	?tr@HbTextEdit@@SA?AVQString@@PBD0H@Z @ 1524 NONAME ; class QString HbTextEdit::tr(char const *, char const *, int)
	??1HbListDialog@@UAE@XZ @ 1525 NONAME ABSENT ; HbListDialog::~HbListDialog(void)
	?isReadOnly@HbAbstractEdit@@QBE_NXZ @ 1526 NONAME ; bool HbAbstractEdit::isReadOnly(void) const
	?metaObject@HbDiscreetPopup@@UBEPBUQMetaObject@@XZ @ 1527 NONAME ABSENT ; struct QMetaObject const * HbDiscreetPopup::metaObject(void) const
	?trUtf8@HbFormViewItem@@SA?AVQString@@PBD0@Z @ 1528 NONAME ABSENT ; class QString HbFormViewItem::trUtf8(char const *, char const *)
	?tr@HbMessageQuery@@SA?AVQString@@PBD0H@Z @ 1529 NONAME ABSENT ; class QString HbMessageQuery::tr(char const *, char const *, int)
	?setDescription@HbSettingForm@@QAEXABVQString@@@Z @ 1530 NONAME ABSENT ; void HbSettingForm::setDescription(class QString const &)
	?focusInEvent@HbPushButton@@MAEXPAVQFocusEvent@@@Z @ 1531 NONAME ; void HbPushButton::focusInEvent(class QFocusEvent *)
	?createItem@HbFormViewItem@@UAEPAVHbAbstractViewItem@@XZ @ 1532 NONAME ABSENT ; class HbAbstractViewItem * HbFormViewItem::createItem(void)
	?mouseMoveEvent@HbAbstractEdit@@MAEXPAVQGraphicsSceneMouseEvent@@@Z @ 1533 NONAME ABSENT ; void HbAbstractEdit::mouseMoveEvent(class QGraphicsSceneMouseEvent *)
	?tr@HbVolumeSlider@@SA?AVQString@@PBD0@Z @ 1534 NONAME ; class QString HbVolumeSlider::tr(char const *, char const *)
	?aboutToDeleteEditorWidget@HbFormViewItem@@IAEXPAV1@W4FieldType@HbFormItem@@@Z @ 1535 NONAME ABSENT ; void HbFormViewItem::aboutToDeleteEditorWidget(class HbFormViewItem *, enum HbFormItem::FieldType)
	?setData@HbSettingFormDataItem@@QAEXHABVQVariant@@@Z @ 1536 NONAME ABSENT ; void HbSettingFormDataItem::setData(int, class QVariant const &)
	?setOrientation@HbSliderPopup@@QAEXW4Orientation@Qt@@@Z @ 1537 NONAME ; void HbSliderPopup::setOrientation(enum Qt::Orientation)
	?sliderReleased@HbSlider@@IAEXXZ @ 1538 NONAME ; void HbSlider::sliderReleased(void)
	?setInsertPolicy@HbComboBox@@QAEXW4InsertPolicy@1@@Z @ 1539 NONAME ABSENT ; void HbComboBox::setInsertPolicy(enum HbComboBox::InsertPolicy)
	?maxLength@HbLineEdit@@QBEHXZ @ 1540 NONAME ; int HbLineEdit::maxLength(void) const
	?d_func@HbNote@@ABEPBVHbNotePrivate@@XZ @ 1541 NONAME ABSENT ; class HbNotePrivate const * HbNote::d_func(void) const
	?startCurveAt@HbTrajectory@@QAEXABVQPointF@@M@Z @ 1542 NONAME ABSENT ; void HbTrajectory::startCurveAt(class QPointF const &, float)
	?scrollArea@HbAbstractEdit@@IBEPAVHbScrollArea@@XZ @ 1543 NONAME ; class HbScrollArea * HbAbstractEdit::scrollArea(void) const
	?d_func@HbDataFormModel@@ABEPBVHbDataFormModelPrivate@@XZ @ 1544 NONAME ; class HbDataFormModelPrivate const * HbDataFormModel::d_func(void) const
	?d_func@HbCheckBox@@ABEPBVHbCheckBoxPrivate@@XZ @ 1545 NONAME ; class HbCheckBoxPrivate const * HbCheckBox::d_func(void) const
	?isExpandable@HbLineEdit@@QBE_NXZ @ 1546 NONAME ; bool HbLineEdit::isExpandable(void) const
	??_EHbSettingForm@@UAE@I@Z @ 1547 NONAME ABSENT ; HbSettingForm::~HbSettingForm(unsigned int)
	?mousePressEvent@HbNote@@MAEXPAVQGraphicsSceneMouseEvent@@@Z @ 1548 NONAME ABSENT ; void HbNote::mousePressEvent(class QGraphicsSceneMouseEvent *)
	?metaObject@HbNotificationDialog@@UBEPBUQMetaObject@@XZ @ 1549 NONAME ; struct QMetaObject const * HbNotificationDialog::metaObject(void) const
	?qt_metacall@HbNotificationDialog@@UAEHW4Call@QMetaObject@@HPAPAX@Z @ 1550 NONAME ; int HbNotificationDialog::qt_metacall(enum QMetaObject::Call, int, void * *)
	?storeSettings@HbDataForm@@QAEXXZ @ 1551 NONAME ABSENT ; void HbDataForm::storeSettings(void)
	?setIcon@HbDeviceNotificationDialog@@QAEXABVHbIcon@@@Z @ 1552 NONAME ABSENT ; void HbDeviceNotificationDialog::setIcon(class HbIcon const &)
	?trUtf8@HbTextEdit@@SA?AVQString@@PBD0H@Z @ 1553 NONAME ; class QString HbTextEdit::trUtf8(char const *, char const *, int)
	?getReal@HbDataQuery@@SANABVQString@@NPA_NPAVQGraphicsScene@@PAVQGraphicsWidget@@@Z @ 1554 NONAME ABSENT ; double HbDataQuery::getReal(class QString const &, double, bool *, class QGraphicsScene *, class QGraphicsWidget *)
	?setExpanded@HbFormViewItem@@QAEX_N@Z @ 1555 NONAME ABSENT ; void HbFormViewItem::setExpanded(bool)
	?setDefaultZoomLevel@HbZoomSliderPopup@@QAEXH@Z @ 1556 NONAME ; void HbZoomSliderPopup::setDefaultZoomLevel(int)
	??1HbZoomSliderPopup@@UAE@XZ @ 1557 NONAME ; HbZoomSliderPopup::~HbZoomSliderPopup(void)
	?tr@HbProgressBar@@SA?AVQString@@PBD0H@Z @ 1558 NONAME ; class QString HbProgressBar::tr(char const *, char const *, int)
	??0HbLineEdit@@QAE@PAVQGraphicsItem@@@Z @ 1559 NONAME ; HbLineEdit::HbLineEdit(class QGraphicsItem *)
	?paint@HbHighlight@@UAEXPAVQPainter@@PBVQStyleOptionGraphicsItem@@PAVQWidget@@@Z @ 1560 NONAME ABSENT ; void HbHighlight::paint(class QPainter *, class QStyleOptionGraphicsItem const *, class QWidget *)
	?type@HbAbstractSliderControl@@UBEHXZ @ 1561 NONAME ; int HbAbstractSliderControl::type(void) const
	?d_func@HbLineEdit@@ABEPBVHbLineEditPrivate@@XZ @ 1562 NONAME ; class HbLineEditPrivate const * HbLineEdit::d_func(void) const
	?value@HbSliderPopup@@QBEHXZ @ 1563 NONAME ; int HbSliderPopup::value(void) const
	?setText@HbSliderPopup@@QAEXABVQString@@@Z @ 1564 NONAME ; void HbSliderPopup::setText(class QString const &)
	?setMaxLength@HbLineEdit@@QAEXH@Z @ 1565 NONAME ; void HbLineEdit::setMaxLength(int)
	?getStaticMetaObject@HbLineEdit@@SAABUQMetaObject@@XZ @ 1566 NONAME ; struct QMetaObject const & HbLineEdit::getStaticMetaObject(void)
	??0HbFormViewItem@@QAE@PAVQGraphicsItem@@@Z @ 1567 NONAME ABSENT ; HbFormViewItem::HbFormViewItem(class QGraphicsItem *)
	?primitive@HbNote@@UBEPAVQGraphicsItem@@W4Primitive@HbStyle@@@Z @ 1568 NONAME ABSENT ; class QGraphicsItem * HbNote::primitive(enum HbStyle::Primitive) const
	?setToolTipVisible@HbRatingSlider@@QAEX_N@Z @ 1569 NONAME ABSENT ; void HbRatingSlider::setToolTipVisible(bool)
	?getStaticMetaObject@HbColorDialog@@SAABUQMetaObject@@XZ @ 1570 NONAME ; struct QMetaObject const & HbColorDialog::getStaticMetaObject(void)
	?tr@HbProgressNote@@SA?AVQString@@PBD0@Z @ 1571 NONAME ABSENT ; class QString HbProgressNote::tr(char const *, char const *)
	?qt_metacall@HbSettingForm@@UAEHW4Call@QMetaObject@@HPAPAX@Z @ 1572 NONAME ABSENT ; int HbSettingForm::qt_metacall(enum QMetaObject::Call, int, void * *)
	?tr@HbSliderPopup@@SA?AVQString@@PBD0@Z @ 1573 NONAME ; class QString HbSliderPopup::tr(char const *, char const *)
	?text@HbCheckBox@@QBE?AVQString@@XZ @ 1574 NONAME ; class QString HbCheckBox::text(void) const
	?sliderPressed@HbAbstractSliderControl@@IAEXXZ @ 1575 NONAME ; void HbAbstractSliderControl::sliderPressed(void)
	?removeItem@HbDataFormModel@@QAE_NABVQModelIndex@@@Z @ 1576 NONAME ; bool HbDataFormModel::removeItem(class QModelIndex const &)
	??1HbNotificationDialog@@UAE@XZ @ 1577 NONAME ; HbNotificationDialog::~HbNotificationDialog(void)
	?changeEvent@HbProgressBar@@MAEXPAVQEvent@@@Z @ 1578 NONAME ; void HbProgressBar::changeEvent(class QEvent *)
	?getStaticMetaObject@HbGlobalDiscreetPopup@@SAABUQMetaObject@@XZ @ 1579 NONAME ABSENT ; struct QMetaObject const & HbGlobalDiscreetPopup::getStaticMetaObject(void)
	?setModified@HbFormItem@@QAEXXZ @ 1580 NONAME ABSENT ; void HbFormItem::setModified(void)
	?tr@HbSettingFormItem@@SA?AVQString@@PBD0@Z @ 1581 NONAME ABSENT ; class QString HbSettingFormItem::tr(char const *, char const *)
	?staticMetaObject@HbAbstractSliderControl@@2UQMetaObject@@B @ 1582 NONAME ; struct QMetaObject const HbAbstractSliderControl::staticMetaObject
	?qt_metacast@HbConfirmationQuery@@UAEPAXPBD@Z @ 1583 NONAME ABSENT ; void * HbConfirmationQuery::qt_metacast(char const *)
	?addField@HbValidator@@QAEXABVQString@@PAVQValidator@@0@Z @ 1584 NONAME ; void HbValidator::addField(class QString const &, class QValidator *, class QString const &)
	?setSecondaryValue@HbDualDataQuery@@QAEXABVQVariant@@@Z @ 1585 NONAME ABSENT ; void HbDualDataQuery::setSecondaryValue(class QVariant const &)
	?setToolTipVisible@HbVolumeSlider@@UAEX_N@Z @ 1586 NONAME ; void HbVolumeSlider::setToolTipVisible(bool)
	?trUtf8@HbDiscreetPopup@@SA?AVQString@@PBD0@Z @ 1587 NONAME ABSENT ; class QString HbDiscreetPopup::trUtf8(char const *, char const *)
	?receivedFocus@HbFormViewItem@@UAEXXZ @ 1588 NONAME ABSENT ; void HbFormViewItem::receivedFocus(void)
	?addItem@HbComboBox@@QAEXABVQString@@@Z @ 1589 NONAME ABSENT ; void HbComboBox::addItem(class QString const &)
	?item@HbSettingFormModel@@QBEPAVHbSettingFormDataItem@@HABVQModelIndex@@@Z @ 1590 NONAME ABSENT ; class HbSettingFormDataItem * HbSettingFormModel::item(int, class QModelIndex const &) const
	?initialColor@HbColorDialog@@QBE?AVQColor@@XZ @ 1591 NONAME ; class QColor HbColorDialog::initialColor(void) const
	?getFileName@HbFileDialog@@QAE?AVQString@@ABV2@@Z @ 1592 NONAME ABSENT ; class QString HbFileDialog::getFileName(class QString const &)
	?mousePressEvent@HbAbstractEdit@@MAEXPAVQGraphicsSceneMouseEvent@@@Z @ 1593 NONAME ABSENT ; void HbAbstractEdit::mousePressEvent(class QGraphicsSceneMouseEvent *)
	?findText@HbComboBox@@QBEHABVQString@@V?$QFlags@W4MatchFlag@Qt@@@@@Z @ 1594 NONAME ; int HbComboBox::findText(class QString const &, class QFlags<enum Qt::MatchFlag>) const
	?setOrientation@HbSlider@@QAEXW4Orientation@Qt@@@Z @ 1595 NONAME ; void HbSlider::setOrientation(enum Qt::Orientation)
	?qt_metacast@HbDiscreetPopup@@UAEPAXPBD@Z @ 1596 NONAME ABSENT ; void * HbDiscreetPopup::qt_metacast(char const *)
	?keyPressEvent@HbComboBox@@MAEXPAVQKeyEvent@@@Z @ 1597 NONAME ; void HbComboBox::keyPressEvent(class QKeyEvent *)
	?tr@HbListQuery@@SA?AVQString@@PBD0@Z @ 1598 NONAME ABSENT ; class QString HbListQuery::tr(char const *, char const *)
	?setDocument@HbTextEdit@@QAEXPAVQTextDocument@@@Z @ 1599 NONAME ; void HbTextEdit::setDocument(class QTextDocument *)
	?setAutoClose@HbDeviceProgressDialog@@QAEX_N@Z @ 1600 NONAME ; void HbDeviceProgressDialog::setAutoClose(bool)
	?model@HbDataFormModelItem@@QBEPAVQAbstractItemModel@@XZ @ 1601 NONAME ABSENT ; class QAbstractItemModel * HbDataFormModelItem::model(void) const
	?tr@HbCheckBox@@SA?AVQString@@PBD0H@Z @ 1602 NONAME ; class QString HbCheckBox::tr(char const *, char const *, int)
	?appendLine@HbTrajectory@@QAEXMABVQPointF@@M@Z @ 1603 NONAME ABSENT ; void HbTrajectory::appendLine(float, class QPointF const &, float)
	?index@HbDataFormModel@@UBE?AVQModelIndex@@HHABV2@@Z @ 1604 NONAME ; class QModelIndex HbDataFormModel::index(int, int, class QModelIndex const &) const
	?dataFormViewItem@HbDataForm@@QBEPAVHbDataFormViewItem@@ABVQModelIndex@@@Z @ 1605 NONAME ABSENT ; class HbDataFormViewItem * HbDataForm::dataFormViewItem(class QModelIndex const &) const
	?primitive@HbComboBox@@UBEPAVQGraphicsItem@@W4Primitive@HbStyle@@@Z @ 1606 NONAME ; class QGraphicsItem * HbComboBox::primitive(enum HbStyle::Primitive) const
	?keyReleaseEvent@HbPushButton@@MAEXPAVQKeyEvent@@@Z @ 1607 NONAME ; void HbPushButton::keyReleaseEvent(class QKeyEvent *)
	?majorTickInterval@HbSliderPopup@@QBEHXZ @ 1608 NONAME ; int HbSliderPopup::majorTickInterval(void) const
	?trUtf8@HbCarouselView@@SA?AVQString@@PBD0H@Z @ 1609 NONAME ABSENT ; class QString HbCarouselView::trUtf8(char const *, char const *, int)
	?tr@HbConfirmationQuery@@SA?AVQString@@PBD0H@Z @ 1610 NONAME ABSENT ; class QString HbConfirmationQuery::tr(char const *, char const *, int)
	?d_func@HbFormView@@AAEPAVHbFormViewPrivate@@XZ @ 1611 NONAME ABSENT ; class HbFormViewPrivate * HbFormView::d_func(void)
	?setIconAlignment@HbGlobalProgressNote@@QAEXV?$QFlags@W4AlignmentFlag@Qt@@@@@Z @ 1612 NONAME ABSENT ; void HbGlobalProgressNote::setIconAlignment(class QFlags<enum Qt::AlignmentFlag>)
	??4HbDataFormViewItem@@IAEAAV0@ABV0@@Z @ 1613 NONAME ; class HbDataFormViewItem & HbDataFormViewItem::operator=(class HbDataFormViewItem const &)
	?text@HbDeviceProgressDialog@@QBE?AVQString@@XZ @ 1614 NONAME ; class QString HbDeviceProgressDialog::text(void) const
	?qt_metacast@HbNotificationDialog@@UAEPAXPBD@Z @ 1615 NONAME ; void * HbNotificationDialog::qt_metacast(char const *)
	?updatePrimitives@HbProgressSlider@@UAEXXZ @ 1616 NONAME ; void HbProgressSlider::updatePrimitives(void)
	?tr@HbGlobalDiscreetPopup@@SA?AVQString@@PBD0@Z @ 1617 NONAME ABSENT ; class QString HbGlobalDiscreetPopup::tr(char const *, char const *)
	?trUtf8@HbGlobalCommonNote@@SA?AVQString@@PBD0H@Z @ 1618 NONAME ABSENT ; class QString HbGlobalCommonNote::trUtf8(char const *, char const *, int)
	?sliderMoved@HbSlider@@IAEXH@Z @ 1619 NONAME ; void HbSlider::sliderMoved(int)
	??1HbFormItem@@UAE@XZ @ 1620 NONAME ABSENT ; HbFormItem::~HbFormItem(void)
	?createWidget@HbFormViewItem@@MAEPAVQGraphicsWidget@@ABUWidgetSpec@1@@Z @ 1621 NONAME ABSENT ; class QGraphicsWidget * HbFormViewItem::createWidget(struct HbFormViewItem::WidgetSpec const &)
	?qt_metacast@HbRatingSlider@@UAEPAXPBD@Z @ 1622 NONAME ; void * HbRatingSlider::qt_metacast(char const *)
	??0HbAbstractEdit@@IAE@PAVQGraphicsItem@@@Z @ 1623 NONAME ; HbAbstractEdit::HbAbstractEdit(class QGraphicsItem *)
	??0HbVolumeSliderPopup@@IAE@AAVHbVolumeSliderPopupPrivate@@PAVQGraphicsItem@@@Z @ 1624 NONAME ; HbVolumeSliderPopup::HbVolumeSliderPopup(class HbVolumeSliderPopupPrivate &, class QGraphicsItem *)
	?insertDataFormPage@HbDataFormModel@@QAEPAVHbDataFormModelItem@@HABVQString@@@Z @ 1625 NONAME ; class HbDataFormModelItem * HbDataFormModel::insertDataFormPage(int, class QString const &)
	?tr@HbVolumeSliderPopup@@SA?AVQString@@PBD0H@Z @ 1626 NONAME ; class QString HbVolumeSliderPopup::tr(char const *, char const *, int)
	?setIcon@HbSliderPopup@@QAEXW4SliderElement@HbSlider@@ABVHbIcon@@@Z @ 1627 NONAME ABSENT ; void HbSliderPopup::setIcon(enum HbSlider::SliderElement, class HbIcon const &)
	?trUtf8@HbListQuery@@SA?AVQString@@PBD0@Z @ 1628 NONAME ABSENT ; class QString HbListQuery::trUtf8(char const *, char const *)
	?tr@HbGlobalConfirmationQuery@@SA?AVQString@@PBD0@Z @ 1629 NONAME ABSENT ; class QString HbGlobalConfirmationQuery::tr(char const *, char const *)
	?getStaticMetaObject@HbListQuery@@SAABUQMetaObject@@XZ @ 1630 NONAME ABSENT ; struct QMetaObject const & HbListQuery::getStaticMetaObject(void)
	?trUtf8@HbCheckBox@@SA?AVQString@@PBD0H@Z @ 1631 NONAME ; class QString HbCheckBox::trUtf8(char const *, char const *, int)
	?tr@HbDeviceProgressDialog@@SA?AVQString@@PBD0H@Z @ 1632 NONAME ; class QString HbDeviceProgressDialog::tr(char const *, char const *, int)
	?isReadOnly@HbFormItem@@QBE_NXZ @ 1633 NONAME ABSENT ; bool HbFormItem::isReadOnly(void) const
	??0HbVolumeSliderPopup@@QAE@XZ @ 1634 NONAME ; HbVolumeSliderPopup::HbVolumeSliderPopup(void)
	?tr@HbMessageBox@@SA?AVQString@@PBD0H@Z @ 1635 NONAME ; class QString HbMessageBox::tr(char const *, char const *, int)
	??1HbSettingForm@@UAE@XZ @ 1636 NONAME ABSENT ; HbSettingForm::~HbSettingForm(void)
	?text@HbGlobalConfirmationQuery@@QBE?AVQString@@XZ @ 1637 NONAME ABSENT ; class QString HbGlobalConfirmationQuery::text(void) const
	?isNoneSelected@HbColorDialog@@QBE_NXZ @ 1638 NONAME ; bool HbColorDialog::isNoneSelected(void) const
	?setMasterValidator@HbValidator@@QAEXPAVQValidator@@@Z @ 1639 NONAME ABSENT ; void HbValidator::setMasterValidator(class QValidator *)
	?trUtf8@HbDeviceNotificationDialog@@SA?AVQString@@PBD0@Z @ 1640 NONAME ; class QString HbDeviceNotificationDialog::trUtf8(char const *, char const *)
	?d_func@HbInputDialog@@AAEPAVHbInputDialogPrivate@@XZ @ 1641 NONAME ; class HbInputDialogPrivate * HbInputDialog::d_func(void)
	?qt_metacall@HbHighlight@@UAEHW4Call@QMetaObject@@HPAPAX@Z @ 1642 NONAME ABSENT ; int HbHighlight::qt_metacall(enum QMetaObject::Call, int, void * *)
	?text@HbPushButton@@QBE?AVQString@@XZ @ 1643 NONAME ; class QString HbPushButton::text(void) const
	?qt_metacall@HbZoomSlider@@UAEHW4Call@QMetaObject@@HPAPAX@Z @ 1644 NONAME ; int HbZoomSlider::qt_metacall(enum QMetaObject::Call, int, void * *)
	?description@HbSettingForm@@QBE?AVQString@@XZ @ 1645 NONAME ABSENT ; class QString HbSettingForm::description(void) const
	?itemSize@HbCarouselView@@QAE?AVQSizeF@@XZ @ 1646 NONAME ABSENT ; class QSizeF HbCarouselView::itemSize(void)
	?orientation@HbProgressBar@@QBE?AW4Orientation@Qt@@XZ @ 1647 NONAME ; enum Qt::Orientation HbProgressBar::orientation(void) const
	?close@HbGlobalConfirmationQuery@@QAEXXZ @ 1648 NONAME ABSENT ; void HbGlobalConfirmationQuery::close(void)
	??_EHbDeviceNotificationDialog@@UAE@I@Z @ 1649 NONAME ; HbDeviceNotificationDialog::~HbDeviceNotificationDialog(unsigned int)
	??_EHbFormView@@UAE@I@Z @ 1650 NONAME ABSENT ; HbFormView::~HbFormView(unsigned int)
	?qt_metacast@HbDataForm@@UAEPAXPBD@Z @ 1651 NONAME ; void * HbDataForm::qt_metacast(char const *)
	?model@HbSettingFormDataItem@@QBEPAVQAbstractItemModel@@XZ @ 1652 NONAME ABSENT ; class QAbstractItemModel * HbSettingFormDataItem::model(void) const
	?qt_metacall@HbTransparentWindow@@UAEHW4Call@QMetaObject@@HPAPAX@Z @ 1653 NONAME ; int HbTransparentWindow::qt_metacall(enum QMetaObject::Call, int, void * *)
	?addSeparator@HbValidator@@QAEXABVQString@@@Z @ 1654 NONAME ABSENT ; void HbValidator::addSeparator(class QString const &)
	??1HbDateTimeEdit@@UAE@XZ @ 1655 NONAME ABSENT ; HbDateTimeEdit::~HbDateTimeEdit(void)
	??1HbDeviceProgressDialog@@UAE@XZ @ 1656 NONAME ; HbDeviceProgressDialog::~HbDeviceProgressDialog(void)
	?isReadOnlyWidget@HbFormViewItem@@MBE_NPBVQGraphicsWidget@@@Z @ 1657 NONAME ABSENT ; bool HbFormViewItem::isReadOnlyWidget(class QGraphicsWidget const *) const
	?model@HbComboBox@@QBEPAVQAbstractItemModel@@XZ @ 1658 NONAME ; class QAbstractItemModel * HbComboBox::model(void) const
	?selectionChanged@HbAbstractEdit@@IAEXABVQTextCursor@@0@Z @ 1659 NONAME ; void HbAbstractEdit::selectionChanged(class QTextCursor const &, class QTextCursor const &)
	?setProgressValue@HbProgressNote@@QAEXH@Z @ 1660 NONAME ABSENT ; void HbProgressNote::setProgressValue(int)
	?qt_metacast@HbFormViewItem@@UAEPAXPBD@Z @ 1661 NONAME ABSENT ; void * HbFormViewItem::qt_metacast(char const *)
	?setText@HbNotificationDialog@@QAEXABVQString@@@Z @ 1662 NONAME ; void HbNotificationDialog::setText(class QString const &)
	?type@HbInputDialog@@UBEHXZ @ 1663 NONAME ; int HbInputDialog::type(void) const
	?isScrollable@HbAbstractEdit@@IBE_NXZ @ 1664 NONAME ; bool HbAbstractEdit::isScrollable(void) const
	?maximum@HbProgressNote@@QBEHXZ @ 1665 NONAME ABSENT ; int HbProgressNote::maximum(void) const
	?setIconAlignment@HbGlobalCommonNote@@QAEXV?$QFlags@W4AlignmentFlag@Qt@@@@@Z @ 1666 NONAME ABSENT ; void HbGlobalCommonNote::setIconAlignment(class QFlags<enum Qt::AlignmentFlag>)
	?textWrapping@HbNote@@QBE_NXZ @ 1667 NONAME ABSENT ; bool HbNote::textWrapping(void) const
	?minRows@HbLineEdit@@QBEHXZ @ 1668 NONAME ; int HbLineEdit::minRows(void) const
	?isMinMaxTextVisible@HbProgressBar@@QBE_NXZ @ 1669 NONAME ; bool HbProgressBar::isMinMaxTextVisible(void) const
	?qt_metacall@HbDateTimeEdit@@UAEHW4Call@QMetaObject@@HPAPAX@Z @ 1670 NONAME ABSENT ; int HbDateTimeEdit::qt_metacall(enum QMetaObject::Call, int, void * *)
	?trUtf8@HbColorDialog@@SA?AVQString@@PBD0@Z @ 1671 NONAME ; class QString HbColorDialog::trUtf8(char const *, char const *)
	?thumbIcon@HbProgressSlider@@QBE?AVHbIcon@@XZ @ 1672 NONAME ABSENT ; class HbIcon HbProgressSlider::thumbIcon(void) const
	?tr@HbColorDialog@@SA?AVQString@@PBD0H@Z @ 1673 NONAME ; class QString HbColorDialog::tr(char const *, char const *, int)
	?singleStep@HbSlider@@QBEHXZ @ 1674 NONAME ; int HbSlider::singleStep(void) const
	?metaObject@HbMessageBox@@UBEPBUQMetaObject@@XZ @ 1675 NONAME ; struct QMetaObject const * HbMessageBox::metaObject(void) const
	?parent@HbSettingFormDataItem@@QBEPAV1@XZ @ 1676 NONAME ABSENT ; class HbSettingFormDataItem * HbSettingFormDataItem::parent(void) const
	??0HbCheckBox@@QAE@ABVQString@@PAVQGraphicsItem@@@Z @ 1677 NONAME ; HbCheckBox::HbCheckBox(class QString const &, class QGraphicsItem *)
	?tr@HbCheckBox@@SA?AVQString@@PBD0@Z @ 1678 NONAME ; class QString HbCheckBox::tr(char const *, char const *)
	?showEvent@HbNote@@MAEXPAVQShowEvent@@@Z @ 1679 NONAME ABSENT ; void HbNote::showEvent(class QShowEvent *)
	?toolTipAlignment@HbSlider@@QBE?AV?$QFlags@W4AlignmentFlag@Qt@@@@XZ @ 1680 NONAME ; class QFlags<enum Qt::AlignmentFlag> HbSlider::toolTipAlignment(void) const
	?columnCount@HbDataFormModel@@UBEHABVQModelIndex@@@Z @ 1681 NONAME ; int HbDataFormModel::columnCount(class QModelIndex const &) const
	?majorTickLabels@HbSlider@@QBE?AVQStringList@@XZ @ 1682 NONAME ; class QStringList HbSlider::majorTickLabels(void) const
	?setAutoClose@HbGlobalProgressNote@@QAEX_N@Z @ 1683 NONAME ABSENT ; void HbGlobalProgressNote::setAutoClose(bool)
	?qt_metacall@HbPushButton@@UAEHW4Call@QMetaObject@@HPAPAX@Z @ 1684 NONAME ; int HbPushButton::qt_metacall(enum QMetaObject::Call, int, void * *)
	??0HbDualDataQuery@@QAE@PAVQGraphicsWidget@@@Z @ 1685 NONAME ABSENT ; HbDualDataQuery::HbDualDataQuery(class QGraphicsWidget *)
	?itemFromIndex@HbDataFormModel@@QBEPAVHbDataFormModelItem@@ABVQModelIndex@@@Z @ 1686 NONAME ; class HbDataFormModelItem * HbDataFormModel::itemFromIndex(class QModelIndex const &) const
	?indexCount@HbDataForm@@UBEHXZ @ 1687 NONAME ABSENT ; int HbDataForm::indexCount(void) const
	?qt_metacall@HbComboBox@@UAEHW4Call@QMetaObject@@HPAPAX@Z @ 1688 NONAME ; int HbComboBox::qt_metacall(enum QMetaObject::Call, int, void * *)
	?staticMetaObject@HbListQuery@@2UQMetaObject@@B @ 1689 NONAME ABSENT ; struct QMetaObject const HbListQuery::staticMetaObject
	?qt_metacast@HbSlider@@UAEPAXPBD@Z @ 1690 NONAME ; void * HbSlider::qt_metacast(char const *)
	?getColor@HbColorDialog@@SA?AVQColor@@ABV?$QList@VQColor@@@@ABV2@_NPA_NPAVQGraphicsScene@@PAVQGraphicsItem@@@Z @ 1691 NONAME ABSENT ; class QColor HbColorDialog::getColor(class QList<class QColor> const &, class QColor const &, bool, bool *, class QGraphicsScene *, class QGraphicsItem *)
	?itemPrototypes@HbFormView@@QBE?AV?$QList@PAVHbFormViewItem@@@@XZ @ 1692 NONAME ABSENT ; class QList<class HbFormViewItem *> HbFormView::itemPrototypes(void) const
	?type@HbAbstractEdit@@UBEHXZ @ 1693 NONAME ; int HbAbstractEdit::type(void) const
	?getStaticMetaObject@HbRatingSlider@@SAABUQMetaObject@@XZ @ 1694 NONAME ; struct QMetaObject const & HbRatingSlider::getStaticMetaObject(void)
	?trUtf8@HbDataFormViewItem@@SA?AVQString@@PBD0@Z @ 1695 NONAME ; class QString HbDataFormViewItem::trUtf8(char const *, char const *)
	?iconName@HbGlobalCommonNote@@QBE?AVQString@@XZ @ 1696 NONAME ABSENT ; class QString HbGlobalCommonNote::iconName(void) const
	?setStretched@HbFormViewItem@@QAEX_N@Z @ 1697 NONAME ABSENT ; void HbFormViewItem::setStretched(bool)
	?trUtf8@HbCommonNote@@SA?AVQString@@PBD0H@Z @ 1698 NONAME ABSENT ; class QString HbCommonNote::trUtf8(char const *, char const *, int)
	?qt_metacall@HbMessageQuery@@UAEHW4Call@QMetaObject@@HPAPAX@Z @ 1699 NONAME ABSENT ; int HbMessageQuery::qt_metacall(enum QMetaObject::Call, int, void * *)
	?keyReleaseEvent@HbAbstractEdit@@MAEXPAVQKeyEvent@@@Z @ 1700 NONAME ; void HbAbstractEdit::keyReleaseEvent(class QKeyEvent *)
	??_EHbListQuery@@UAE@I@Z @ 1701 NONAME ABSENT ; HbListQuery::~HbListQuery(unsigned int)
	??_EHbProgressSlider@@UAE@I@Z @ 1702 NONAME ; HbProgressSlider::~HbProgressSlider(unsigned int)
	?primitive@HbProgressNote@@UBEPAVQGraphicsItem@@W4Primitive@HbStyle@@@Z @ 1703 NONAME ABSENT ; class QGraphicsItem * HbProgressNote::primitive(enum HbStyle::Primitive) const
	?title@HbFileDialog@@QBE?AVQString@@XZ @ 1704 NONAME ABSENT ; class QString HbFileDialog::title(void) const
	?tr@HbRadioButtonList@@SA?AVQString@@PBD0@Z @ 1705 NONAME ; class QString HbRadioButtonList::tr(char const *, char const *)
	?setText@HbDateTimeEdit@@IAEXABVQString@@@Z @ 1706 NONAME ABSENT ; void HbDateTimeEdit::setText(class QString const &)
	?staticMetaObject@HbDeviceNotificationDialog@@2UQMetaObject@@B @ 1707 NONAME ; struct QMetaObject const HbDeviceNotificationDialog::staticMetaObject
	?qt_metacall@HbZoomSliderPopup@@UAEHW4Call@QMetaObject@@HPAPAX@Z @ 1708 NONAME ; int HbZoomSliderPopup::qt_metacall(enum QMetaObject::Call, int, void * *)
	?getStaticMetaObject@HbFormView@@SAABUQMetaObject@@XZ @ 1709 NONAME ABSENT ; struct QMetaObject const & HbFormView::getStaticMetaObject(void)
	?trUtf8@HbListDialog@@SA?AVQString@@PBD0H@Z @ 1710 NONAME ABSENT ; class QString HbListDialog::trUtf8(char const *, char const *, int)
	?removeChild@HbDataFormModelItem@@QAEXH@Z @ 1711 NONAME ; void HbDataFormModelItem::removeChild(int)
	?tr@HbFormViewItem@@SA?AVQString@@PBD0@Z @ 1712 NONAME ABSENT ; class QString HbFormViewItem::tr(char const *, char const *)
	?staticMetaObject@HbVolumeSlider@@2UQMetaObject@@B @ 1713 NONAME ; struct QMetaObject const HbVolumeSlider::staticMetaObject
	?initStyleOption@HbCommonNote@@IBEXPAVHbStyleOptionCommonNote@@@Z @ 1714 NONAME ABSENT ; void HbCommonNote::initStyleOption(class HbStyleOptionCommonNote *) const
	?setScrollable@HbAbstractEdit@@IAEX_N@Z @ 1715 NONAME ; void HbAbstractEdit::setScrollable(bool)
	?getStringItems@HbListDialog@@SA?AVQStringList@@ABVQString@@ABV2@HPA_NW4SelectionMode@HbAbstractItemView@@PAVQGraphicsScene@@PAVQGraphicsItem@@@Z @ 1716 NONAME ABSENT ; class QStringList HbListDialog::getStringItems(class QString const &, class QStringList const &, int, bool *, enum HbAbstractItemView::SelectionMode, class QGraphicsScene *, class QGraphicsItem *)
	?getStringItems@HbListQuery@@SA?AVQStringList@@ABVQString@@ABV2@HPA_NW4SelectionMode@HbAbstractItemView@@PAVQGraphicsScene@@PAVQGraphicsItem@@@Z @ 1717 NONAME ABSENT ; class QStringList HbListQuery::getStringItems(class QString const &, class QStringList const &, int, bool *, enum HbAbstractItemView::SelectionMode, class QGraphicsScene *, class QGraphicsItem *)
	?staticMetaObject@HbInputDialog@@2UQMetaObject@@B @ 1718 NONAME ; struct QMetaObject const HbInputDialog::staticMetaObject
	??0HbPushButton@@QAE@PAVQGraphicsItem@@@Z @ 1719 NONAME ; HbPushButton::HbPushButton(class QGraphicsItem *)
	?sliderMoved@HbProgressSlider@@IAEXH@Z @ 1720 NONAME ; void HbProgressSlider::sliderMoved(int)
	?setNoneBlockVisible@HbColorDialog@@QAEX_N@Z @ 1721 NONAME ; void HbColorDialog::setNoneBlockVisible(bool)
	?undoCompleted@HbFormView@@IAEXXZ @ 1722 NONAME ABSENT ; void HbFormView::undoCompleted(void)
	?setTextWrapping@HbProgressNote@@QAEX_N@Z @ 1723 NONAME ABSENT ; void HbProgressNote::setTextWrapping(bool)
	?tickPosition@HbSlider@@QBE?AV?$QFlags@W4SliderTickPosition@Hb@@@@XZ @ 1724 NONAME ; class QFlags<enum Hb::SliderTickPosition> HbSlider::tickPosition(void) const
	?show@HbDeviceNotificationDialog@@QAEXXZ @ 1725 NONAME ; void HbDeviceNotificationDialog::show(void)
	?setText@HbNote@@QAEXABVQString@@@Z @ 1726 NONAME ABSENT ; void HbNote::setText(class QString const &)
	?selectionCommand@HbRadioButtonList@@MAE?AV?$QFlags@W4SelectionFlag@QItemSelectionModel@@@@PBVHbAbstractViewItem@@PBVQEvent@@_N@Z @ 1727 NONAME ABSENT ; class QFlags<enum QItemSelectionModel::SelectionFlag> HbRadioButtonList::selectionCommand(class HbAbstractViewItem const *, class QEvent const *, bool)
	?trUtf8@HbFormItem@@SA?AVQString@@PBD0@Z @ 1728 NONAME ABSENT ; class QString HbFormItem::trUtf8(char const *, char const *)
	?insertItem@HbComboBox@@QAEXHABVQString@@@Z @ 1729 NONAME ABSENT ; void HbComboBox::insertItem(int, class QString const &)
	?qt_metacall@HbVolumeSliderPopup@@UAEHW4Call@QMetaObject@@HPAPAX@Z @ 1730 NONAME ; int HbVolumeSliderPopup::qt_metacall(enum QMetaObject::Call, int, void * *)
	?tr@HbMessageBox@@SA?AVQString@@PBD0@Z @ 1731 NONAME ; class QString HbMessageBox::tr(char const *, char const *)
	?staticMetaObject@HbGlobalCommonNote@@2UQMetaObject@@B @ 1732 NONAME ABSENT ; struct QMetaObject const HbGlobalCommonNote::staticMetaObject
	?getStaticMetaObject@HbZoomSliderPopup@@SAABUQMetaObject@@XZ @ 1733 NONAME ; struct QMetaObject const & HbZoomSliderPopup::getStaticMetaObject(void)
	?initStyleOption@HbNote@@IBEXPAVHbStyleOptionNote@@@Z @ 1734 NONAME ABSENT ; void HbNote::initStyleOption(class HbStyleOptionNote *) const
	?settingItemContentWidget@HbSettingFormItem@@QBEPAVHbWidget@@XZ @ 1735 NONAME ABSENT ; class HbWidget * HbSettingFormItem::settingItemContentWidget(void) const
	??1HbDataFormModelItem@@UAE@XZ @ 1736 NONAME ; HbDataFormModelItem::~HbDataFormModelItem(void)
	??0HbNotificationDialog@@IAE@AAVHbNotificationDialogPrivate@@PAVQGraphicsItem@@@Z @ 1737 NONAME ; HbNotificationDialog::HbNotificationDialog(class HbNotificationDialogPrivate &, class QGraphicsItem *)
	?title@HbDiscreetPopup@@QBE?AVQString@@XZ @ 1738 NONAME ABSENT ; class QString HbDiscreetPopup::title(void) const
	?setExpanded@HbDataForm@@QAEXABVQModelIndex@@_N@Z @ 1739 NONAME ; void HbDataForm::setExpanded(class QModelIndex const &, bool)
	?qt_metacall@HbDiscreetPopup@@UAEHW4Call@QMetaObject@@HPAPAX@Z @ 1740 NONAME ABSENT ; int HbDiscreetPopup::qt_metacall(enum QMetaObject::Call, int, void * *)
	?tr@HbPushButton@@SA?AVQString@@PBD0@Z @ 1741 NONAME ; class QString HbPushButton::tr(char const *, char const *)
	?d_func@HbListDialog@@ABEPBVHbListDialogPrivate@@XZ @ 1742 NONAME ABSENT ; class HbListDialogPrivate const * HbListDialog::d_func(void) const
	?isTitleModified@HbFormItem@@QBE_NXZ @ 1743 NONAME ABSENT ; bool HbFormItem::isTitleModified(void) const
	??0HbDeviceProgressDialog@@QAE@W4ProgressNoteType@HbProgressNote@@PAVQObject@@@Z @ 1744 NONAME ABSENT ; HbDeviceProgressDialog::HbDeviceProgressDialog(enum HbProgressNote::ProgressNoteType, class QObject *)
	??0HbAbstractEdit@@IAE@AAVHbAbstractEditPrivate@@PAVQGraphicsItem@@@Z @ 1745 NONAME ; HbAbstractEdit::HbAbstractEdit(class HbAbstractEditPrivate &, class QGraphicsItem *)
	?qt_metacall@HbColorDialog@@UAEHW4Call@QMetaObject@@HPAPAX@Z @ 1746 NONAME ; int HbColorDialog::qt_metacall(enum QMetaObject::Call, int, void * *)
	?setText@HbDeviceNotificationDialog@@QAEXABVQString@@@Z @ 1747 NONAME ; void HbDeviceNotificationDialog::setText(class QString const &)
	?getInteger@HbDataQuery@@SAHABVQString@@HPA_NPAVQGraphicsScene@@PAVQGraphicsWidget@@@Z @ 1748 NONAME ABSENT ; int HbDataQuery::getInteger(class QString const &, int, bool *, class QGraphicsScene *, class QGraphicsWidget *)
	?textAlignment@HbDeviceProgressDialog@@QBE?AV?$QFlags@W4AlignmentFlag@Qt@@@@XZ @ 1749 NONAME ABSENT ; class QFlags<enum Qt::AlignmentFlag> HbDeviceProgressDialog::textAlignment(void) const
	??1HbDataQuery@@UAE@XZ @ 1750 NONAME ABSENT ; HbDataQuery::~HbDataQuery(void)
	?textWrapping@HbGlobalCommonNote@@QBE_NXZ @ 1751 NONAME ABSENT ; bool HbGlobalCommonNote::textWrapping(void) const
	?deselect@HbAbstractEdit@@QAEXXZ @ 1752 NONAME ; void HbAbstractEdit::deselect(void)
	?setQueryMode@HbCombinedQuery@@QAEXW4QueryMode@1@@Z @ 1753 NONAME ABSENT ; void HbCombinedQuery::setQueryMode(enum HbCombinedQuery::QueryMode)
	?userPropertyName@HbFormViewItem@@IBE?AVQString@@PBVQObject@@@Z @ 1754 NONAME ABSENT ; class QString HbFormViewItem::userPropertyName(class QObject const *) const
	?d_func@HbDataQuery@@ABEPBVHbDataQueryPrivate@@XZ @ 1755 NONAME ABSENT ; class HbDataQueryPrivate const * HbDataQuery::d_func(void) const
	?resizeEvent@HbCheckBox@@MAEXPAVQGraphicsSceneResizeEvent@@@Z @ 1756 NONAME ; void HbCheckBox::resizeEvent(class QGraphicsSceneResizeEvent *)
	?itemPressed@HbFormView@@IAEXPAVHbFormItem@@@Z @ 1757 NONAME ABSENT ; void HbFormView::itemPressed(class HbFormItem *)
	?widgetItems@HbListQuery@@QBE?AV?$QList@PAVHbListWidgetItem@@@@XZ @ 1758 NONAME ABSENT ; class QList<class HbListWidgetItem *> HbListQuery::widgetItems(void) const
	?staticMetaObject@HbFormView@@2UQMetaObject@@B @ 1759 NONAME ABSENT ; struct QMetaObject const HbFormView::staticMetaObject
	?setTextCursor@HbTextEdit@@QAEXABVQTextCursor@@@Z @ 1760 NONAME ; void HbTextEdit::setTextCursor(class QTextCursor const &)
	?metaObject@HbGlobalCommonNote@@UBEPBUQMetaObject@@XZ @ 1761 NONAME ABSENT ; struct QMetaObject const * HbGlobalCommonNote::metaObject(void) const
	?sliderMoved@HbAbstractSliderControl@@IAEXH@Z @ 1762 NONAME ; void HbAbstractSliderControl::sliderMoved(int)
	?insertChildren@HbSettingFormDataItem@@QAEXHHV?$QList@PAVHbSettingFormDataItem@@@@@Z @ 1763 NONAME ABSENT ; void HbSettingFormDataItem::insertChildren(int, int, class QList<class HbSettingFormDataItem *>)
	?documentSizeChanged@HbAbstractEdit@@MAEXABVQSizeF@@@Z @ 1764 NONAME ; void HbAbstractEdit::documentSizeChanged(class QSizeF const &)
	?appendChild@HbSettingFormDataItem@@QAEXPAV1@@Z @ 1765 NONAME ABSENT ; void HbSettingFormDataItem::appendChild(class HbSettingFormDataItem *)
	?insertChild@HbSettingFormDataItem@@QAEXHPAV1@@Z @ 1766 NONAME ABSENT ; void HbSettingFormDataItem::insertChild(int, class HbSettingFormDataItem *)
	?setIcon@HbNote@@QAEXABVHbIcon@@@Z @ 1767 NONAME ABSENT ; void HbNote::setIcon(class HbIcon const &)
	?metaObject@HbConfirmationQuery@@UBEPBUQMetaObject@@XZ @ 1768 NONAME ABSENT ; struct QMetaObject const * HbConfirmationQuery::metaObject(void) const
	?valueChanged@HbAbstractSliderControl@@IAEXH@Z @ 1769 NONAME ; void HbAbstractSliderControl::valueChanged(int)
	?setModel@HbCarouselView@@QAEXPAVQAbstractItemModel@@@Z @ 1770 NONAME ABSENT ; void HbCarouselView::setModel(class QAbstractItemModel *)
	??0HbFormView@@QAE@PAVQGraphicsItem@@@Z @ 1771 NONAME ABSENT ; HbFormView::HbFormView(class QGraphicsItem *)
	?_q_orientationChanged@HbListQuery@@AAEXW4Orientation@Qt@@@Z @ 1772 NONAME ABSENT ; void HbListQuery::_q_orientationChanged(enum Qt::Orientation)
	?type@HbSettingFormDataItem@@QBE?AW4SettingItemType@1@XZ @ 1773 NONAME ABSENT ; enum HbSettingFormDataItem::SettingItemType HbSettingFormDataItem::type(void) const
	?type@HbTransparentWindow@@UBEHXZ @ 1774 NONAME ; int HbTransparentWindow::type(void) const
	?setTickPosition@HbSlider@@QAEXV?$QFlags@W4SliderTickPosition@Hb@@@@@Z @ 1775 NONAME ; void HbSlider::setTickPosition(class QFlags<enum Hb::SliderTickPosition>)
	?launchPopup@HbDiscreetPopup@@SAXABVHbIcon@@PAVQGraphicsScene@@@Z @ 1776 NONAME ABSENT ; void HbDiscreetPopup::launchPopup(class HbIcon const &, class QGraphicsScene *)
	?setHeading@HbSettingForm@@QAEXABVQString@@@Z @ 1777 NONAME ABSENT ; void HbSettingForm::setHeading(class QString const &)
	?setTracking@HbSliderPopup@@QAEX_N@Z @ 1778 NONAME ; void HbSliderPopup::setTracking(bool)
	?appendSettingFormItem@HbSettingFormModel@@QAEPAVHbSettingFormDataItem@@W4SettingItemType@2@ABVQString@@PBV2@@Z @ 1779 NONAME ABSENT ; class HbSettingFormDataItem * HbSettingFormModel::appendSettingFormItem(enum HbSettingFormDataItem::SettingItemType, class QString const &, class HbSettingFormDataItem const *)
	?trUtf8@HbSettingForm@@SA?AVQString@@PBD0H@Z @ 1780 NONAME ABSENT ; class QString HbSettingForm::trUtf8(char const *, char const *, int)
	?deleteWidget@HbFormViewItem@@MAEXPAVQGraphicsWidget@@@Z @ 1781 NONAME ABSENT ; void HbFormViewItem::deleteWidget(class QGraphicsWidget *)
	?qt_metacast@HbSettingFormItem@@UAEPAXPBD@Z @ 1782 NONAME ABSENT ; void * HbSettingFormItem::qt_metacast(char const *)
	?d_func@HbConfirmationQuery@@ABEPBVHbConfirmationQueryPrivate@@XZ @ 1783 NONAME ABSENT ; class HbConfirmationQueryPrivate const * HbConfirmationQuery::d_func(void) const
	?itemRemoved@HbFormView@@IAEXPAVHbFormItem@@@Z @ 1784 NONAME ABSENT ; void HbFormView::itemRemoved(class HbFormItem *)
	?aboutToClose@HbGlobalProgressNote@@IAEXXZ @ 1785 NONAME ABSENT ; void HbGlobalProgressNote::aboutToClose(void)
	?getStaticMetaObject@HbCarouselView@@SAABUQMetaObject@@XZ @ 1786 NONAME ABSENT ; struct QMetaObject const & HbCarouselView::getStaticMetaObject(void)
	?metaObject@HbGlobalDiscreetPopup@@UBEPBUQMetaObject@@XZ @ 1787 NONAME ABSENT ; struct QMetaObject const * HbGlobalDiscreetPopup::metaObject(void) const
	?tr@HbGlobalConfirmationQuery@@SA?AVQString@@PBD0H@Z @ 1788 NONAME ABSENT ; class QString HbGlobalConfirmationQuery::tr(char const *, char const *, int)
	?setWidgetData@HbFormViewItem@@MBEXW4FieldType@HbFormItem@@@Z @ 1789 NONAME ABSENT ; void HbFormViewItem::setWidgetData(enum HbFormItem::FieldType) const
	??_EHbSettingFormItem@@UAE@I@Z @ 1790 NONAME ABSENT ; HbSettingFormItem::~HbSettingFormItem(unsigned int)
	?metaObject@HbVolumeSliderPopup@@UBEPBUQMetaObject@@XZ @ 1791 NONAME ; struct QMetaObject const * HbVolumeSliderPopup::metaObject(void) const
	?d_func@HbSettingFormDataItem@@AAEPAVHbSettingFormDataItemPrivate@@XZ @ 1792 NONAME ABSENT ; class HbSettingFormDataItemPrivate * HbSettingFormDataItem::d_func(void)
	?activated@HbNotificationDialog@@IAEXXZ @ 1793 NONAME ; void HbNotificationDialog::activated(void)
	?setIconName@HbGlobalConfirmationQuery@@QAEXABVQString@@@Z @ 1794 NONAME ABSENT ; void HbGlobalConfirmationQuery::setIconName(class QString const &)
	?trUtf8@HbListQuery@@SA?AVQString@@PBD0H@Z @ 1795 NONAME ABSENT ; class QString HbListQuery::trUtf8(char const *, char const *, int)
	?tr@HbDataFormViewItem@@SA?AVQString@@PBD0@Z @ 1796 NONAME ; class QString HbDataFormViewItem::tr(char const *, char const *)
	?showEvent@HbListQuery@@MAEXPAVQShowEvent@@@Z @ 1797 NONAME ABSENT ; void HbListQuery::showEvent(class QShowEvent *)
	?setPrimaryPromptText@HbDualDataQuery@@QAEXABVQString@@@Z @ 1798 NONAME ABSENT ; void HbDualDataQuery::setPrimaryPromptText(class QString const &)
	?staticMetaObject@HbCarouselView@@2UQMetaObject@@B @ 1799 NONAME ABSENT ; struct QMetaObject const HbCarouselView::staticMetaObject
	??0HbRadioButtonList@@QAE@ABVQStringList@@HW4PreviewMode@0@PAVQGraphicsItem@@@Z @ 1800 NONAME ; HbRadioButtonList::HbRadioButtonList(class QStringList const &, int, enum HbRadioButtonList::PreviewMode, class QGraphicsItem *)
	?selectionChanged@HbLineEdit@@IAEXXZ @ 1801 NONAME ; void HbLineEdit::selectionChanged(void)
	?staticMetaObject@HbNotificationDialog@@2UQMetaObject@@B @ 1802 NONAME ; struct QMetaObject const HbNotificationDialog::staticMetaObject
	?isRemovable@HbFormItem@@QBE_NXZ @ 1803 NONAME ABSENT ; bool HbFormItem::isRemovable(void) const
	?tr@HbSettingForm@@SA?AVQString@@PBD0@Z @ 1804 NONAME ABSENT ; class QString HbSettingForm::tr(char const *, char const *)
	?setPageStep@HbSliderPopup@@QAEXH@Z @ 1805 NONAME ; void HbSliderPopup::setPageStep(int)
	??0HbDataForm@@QAE@PAVQGraphicsItem@@@Z @ 1806 NONAME ; HbDataForm::HbDataForm(class QGraphicsItem *)
	??_EHbListDialog@@UAE@I@Z @ 1807 NONAME ABSENT ; HbListDialog::~HbListDialog(unsigned int)
	?tr@HbNote@@SA?AVQString@@PBD0@Z @ 1808 NONAME ABSENT ; class QString HbNote::tr(char const *, char const *)
	?qt_metacall@HbFormItem@@UAEHW4Call@QMetaObject@@HPAPAX@Z @ 1809 NONAME ABSENT ; int HbFormItem::qt_metacall(enum QMetaObject::Call, int, void * *)
	??0HbTrajectory@@QAE@ABV0@@Z @ 1810 NONAME ABSENT ; HbTrajectory::HbTrajectory(class HbTrajectory const &)
	?aboutToClose@HbFormView@@IAEXXZ @ 1811 NONAME ABSENT ; void HbFormView::aboutToClose(void)
	??1HbProgressSlider@@UAE@XZ @ 1812 NONAME ; HbProgressSlider::~HbProgressSlider(void)
	?getStaticMetaObject@HbGlobalProgressNote@@SAABUQMetaObject@@XZ @ 1813 NONAME ABSENT ; struct QMetaObject const & HbGlobalProgressNote::getStaticMetaObject(void)
	?d_func@HbAbstractSliderControl@@ABEPBVHbAbstractSliderControlPrivate@@XZ @ 1814 NONAME ; class HbAbstractSliderControlPrivate const * HbAbstractSliderControl::d_func(void) const
	?appendSettingFormPage@HbSettingFormModel@@QAEPAVHbSettingFormDataItem@@ABVQString@@@Z @ 1815 NONAME ABSENT ; class HbSettingFormDataItem * HbSettingFormModel::appendSettingFormPage(class QString const &)
	?label@HbDataFormModelItem@@QBE?AVQString@@XZ @ 1816 NONAME ; class QString HbDataFormModelItem::label(void) const
	?getItem@HbCombinedQuery@@SA?AVQStringList@@ABVQString@@ABV?$QMap@VQString@@V1@@@W4QueryMode@1@HPA_NPAV3@PAVQGraphicsScene@@PAVQGraphicsWidget@@@Z @ 1817 NONAME ABSENT ; class QStringList HbCombinedQuery::getItem(class QString const &, class QMap<class QString, class QString> const &, enum HbCombinedQuery::QueryMode, int, bool *, class QString *, class QGraphicsScene *, class QGraphicsWidget *)
	?childCount@HbSettingFormDataItem@@QBEHXZ @ 1818 NONAME ABSENT ; int HbSettingFormDataItem::childCount(void) const
	?iconReleased@HbSlider@@IAEXXZ @ 1819 NONAME ; void HbSlider::iconReleased(void)
	?primitive@HbProgressBar@@UBEPAVQGraphicsItem@@W4Primitive@HbStyle@@@Z @ 1820 NONAME ABSENT ; class QGraphicsItem * HbProgressBar::primitive(enum HbStyle::Primitive) const
	?tr@HbDataFormViewItem@@SA?AVQString@@PBD0H@Z @ 1821 NONAME ; class QString HbDataFormViewItem::tr(char const *, char const *, int)
	?icon@HbDeviceNotificationDialog@@QBE?AVHbIcon@@XZ @ 1822 NONAME ABSENT ; class HbIcon HbDeviceNotificationDialog::icon(void) const
	?qt_metacast@HbProgressNote@@UAEPAXPBD@Z @ 1823 NONAME ABSENT ; void * HbProgressNote::qt_metacast(char const *)
	?trUtf8@HbLineEdit@@SA?AVQString@@PBD0@Z @ 1824 NONAME ; class QString HbLineEdit::trUtf8(char const *, char const *)
	?itemFromIndex@HbSettingFormModel@@QBEPAVHbSettingFormDataItem@@ABVQModelIndex@@@Z @ 1825 NONAME ABSENT ; class HbSettingFormDataItem * HbSettingFormModel::itemFromIndex(class QModelIndex const &) const
	?primitive@HbAbstractEdit@@UBEPAVQGraphicsItem@@W4Primitive@HbStyle@@@Z @ 1826 NONAME ; class QGraphicsItem * HbAbstractEdit::primitive(enum HbStyle::Primitive) const
	?trUtf8@HbCombinedQuery@@SA?AVQString@@PBD0@Z @ 1827 NONAME ABSENT ; class QString HbCombinedQuery::trUtf8(char const *, char const *)
	?addItem@HbComboBox@@QAEXABVHbIcon@@ABVQString@@@Z @ 1828 NONAME ABSENT ; void HbComboBox::addItem(class HbIcon const &, class QString const &)
	??0HbZoomSlider@@QAE@PAVQGraphicsItem@@@Z @ 1829 NONAME ; HbZoomSlider::HbZoomSlider(class QGraphicsItem *)
	?setMaxLength@HbDateTimeEdit@@IAEXH@Z @ 1830 NONAME ABSENT ; void HbDateTimeEdit::setMaxLength(int)
	?launchDialog@HbNotificationDialog@@SAXABVHbIcon@@PAVQGraphicsScene@@@Z @ 1831 NONAME ABSENT ; void HbNotificationDialog::launchDialog(class HbIcon const &, class QGraphicsScene *)
	?icon@HbMessageBox@@QBE?AVHbIcon@@XZ @ 1832 NONAME ; class HbIcon HbMessageBox::icon(void) const
	?iconAlignment@HbDeviceProgressDialog@@QBE?AV?$QFlags@W4AlignmentFlag@Qt@@@@XZ @ 1833 NONAME ABSENT ; class QFlags<enum Qt::AlignmentFlag> HbDeviceProgressDialog::iconAlignment(void) const
	?trUtf8@HbFileDialog@@SA?AVQString@@PBD0@Z @ 1834 NONAME ABSENT ; class QString HbFileDialog::trUtf8(char const *, char const *)
	?actionTriggered@HbAbstractSliderControl@@IAEXH@Z @ 1835 NONAME ; void HbAbstractSliderControl::actionTriggered(int)
	?isCurrentValueVisible@HbVolumeSlider@@QBE_NXZ @ 1836 NONAME ; bool HbVolumeSlider::isCurrentValueVisible(void) const
	?isCurrentValueVisible@HbVolumeSliderPopup@@QBE_NXZ @ 1837 NONAME ; bool HbVolumeSliderPopup::isCurrentValueVisible(void) const
	?trUtf8@HbNotificationDialog@@SA?AVQString@@PBD0@Z @ 1838 NONAME ; class QString HbNotificationDialog::trUtf8(char const *, char const *)
	?contentWidget@HbSettingFormItem@@QBEPAVHbWidget@@XZ @ 1839 NONAME ABSENT ; class HbWidget * HbSettingFormItem::contentWidget(void) const
	?title@HbNotificationDialog@@QBE?AVQString@@XZ @ 1840 NONAME ; class QString HbNotificationDialog::title(void) const
	?setSecondaryPromptText@HbDualDataQuery@@QAEXABVQString@@@Z @ 1841 NONAME ABSENT ; void HbDualDataQuery::setSecondaryPromptText(class QString const &)
	??1HbMessageBox@@UAE@XZ @ 1842 NONAME ; HbMessageBox::~HbMessageBox(void)
	?qt_metacast@HbMessageBox@@UAEPAXPBD@Z @ 1843 NONAME ; void * HbMessageBox::qt_metacast(char const *)
	?iconPressed@HbSliderPopup@@IAEXXZ @ 1844 NONAME ; void HbSliderPopup::iconPressed(void)
	?d_func@HbFormViewItem@@ABEPBVHbFormViewItemPrivate@@XZ @ 1845 NONAME ABSENT ; class HbFormViewItemPrivate const * HbFormViewItem::d_func(void) const
	??0HbTransparentWindow@@QAE@PAVQGraphicsItem@@@Z @ 1846 NONAME ; HbTransparentWindow::HbTransparentWindow(class QGraphicsItem *)
	?tr@HbProgressBar@@SA?AVQString@@PBD0@Z @ 1847 NONAME ; class QString HbProgressBar::tr(char const *, char const *)
	?setTextAlignment@HbDeviceProgressDialog@@QAEXV?$QFlags@W4AlignmentFlag@Qt@@@@@Z @ 1848 NONAME ABSENT ; void HbDeviceProgressDialog::setTextAlignment(class QFlags<enum Qt::AlignmentFlag>)
	?metaObject@HbProgressNote@@UBEPBUQMetaObject@@XZ @ 1849 NONAME ABSENT ; struct QMetaObject const * HbProgressNote::metaObject(void) const
	?text@HbSlider@@QBE?AVQString@@XZ @ 1850 NONAME ; class QString HbSlider::text(void) const
	?qt_metacast@HbDataQuery@@UAEPAXPBD@Z @ 1851 NONAME ABSENT ; void * HbDataQuery::qt_metacast(char const *)
	?inputMode@HbInputDialog@@QBE?AW4InputMode@1@H@Z @ 1852 NONAME ; enum HbInputDialog::InputMode HbInputDialog::inputMode(int) const
	?mousePressEvent@HbProgressSlider@@MAEXPAVQGraphicsSceneMouseEvent@@@Z @ 1853 NONAME ; void HbProgressSlider::mousePressEvent(class QGraphicsSceneMouseEvent *)
	?setMaximum@HbSliderPopup@@QAEXH@Z @ 1854 NONAME ; void HbSliderPopup::setMaximum(int)
	?keyReleaseEvent@HbZoomSliderPopup@@MAEXPAVQKeyEvent@@@Z @ 1855 NONAME ; void HbZoomSliderPopup::keyReleaseEvent(class QKeyEvent *)
	?getStaticMetaObject@HbMessageBox@@SAABUQMetaObject@@XZ @ 1856 NONAME ; struct QMetaObject const & HbMessageBox::getStaticMetaObject(void)
	?trUtf8@HbSliderPopup@@SA?AVQString@@PBD0H@Z @ 1857 NONAME ; class QString HbSliderPopup::trUtf8(char const *, char const *, int)
	?setItemSize@HbCarouselView@@QAEXABVQSizeF@@@Z @ 1858 NONAME ABSENT ; void HbCarouselView::setItemSize(class QSizeF const &)
	?initStyleOption@HbCheckBox@@IBEXPAVHbStyleOptionCheckBox@@@Z @ 1859 NONAME ; void HbCheckBox::initStyleOption(class HbStyleOptionCheckBox *) const
	?invertedAppearance@HbAbstractSliderControl@@QBE_NXZ @ 1860 NONAME ; bool HbAbstractSliderControl::invertedAppearance(void) const
	?store@HbSettingFormItem@@UAEXXZ @ 1861 NONAME ABSENT ; void HbSettingFormItem::store(void)
	?staticMetaObject@HbProgressBar@@2UQMetaObject@@B @ 1862 NONAME ; struct QMetaObject const HbProgressBar::staticMetaObject
	?setCurrentRow@HbListQuery@@QAEXH@Z @ 1863 NONAME ABSENT ; void HbListQuery::setCurrentRow(int)
	?tr@HbDataQuery@@SA?AVQString@@PBD0@Z @ 1864 NONAME ABSENT ; class QString HbDataQuery::tr(char const *, char const *)
	?setRange@HbDeviceProgressDialog@@QAEXHH@Z @ 1865 NONAME ; void HbDeviceProgressDialog::setRange(int, int)
	?getStaticMetaObject@HbPushButton@@SAABUQMetaObject@@XZ @ 1866 NONAME ; struct QMetaObject const & HbPushButton::getStaticMetaObject(void)
	?setSecondaryVisible@HbDualDataQuery@@QAEX_N@Z @ 1867 NONAME ABSENT ; void HbDualDataQuery::setSecondaryVisible(bool)
	?selectionStart@HbLineEdit@@QBEHXZ @ 1868 NONAME ; int HbLineEdit::selectionStart(void) const
	?type@HbNote@@UBEHXZ @ 1869 NONAME ABSENT ; int HbNote::type(void) const
	?initStyleOption@HbProgressBar@@MBEXPAVHbStyleOption@@@Z @ 1870 NONAME ABSENT ; void HbProgressBar::initStyleOption(class HbStyleOption *) const
	?heading@HbSettingForm@@QBE?AVQString@@XZ @ 1871 NONAME ABSENT ; class QString HbSettingForm::heading(void) const
	?viewItem@HbFormView@@QBEPAVHbFormViewItem@@PBVHbFormItem@@@Z @ 1872 NONAME ABSENT ; class HbFormViewItem * HbFormView::viewItem(class HbFormItem const *) const
	?tr@HbDataForm@@SA?AVQString@@PBD0@Z @ 1873 NONAME ; class QString HbDataForm::tr(char const *, char const *)
	?staticMetaObject@HbListDialog@@2UQMetaObject@@B @ 1874 NONAME ABSENT ; struct QMetaObject const HbListDialog::staticMetaObject
	??_EHbRadioButtonList@@UAE@I@Z @ 1875 NONAME ; HbRadioButtonList::~HbRadioButtonList(unsigned int)
	?icon@HbNotificationDialog@@QBE?AVHbIcon@@XZ @ 1876 NONAME ; class HbIcon HbNotificationDialog::icon(void) const
	?orientation@HbAbstractSliderControl@@QBE?AW4Orientation@Qt@@XZ @ 1877 NONAME ; enum Qt::Orientation HbAbstractSliderControl::orientation(void) const
	?setProgressValue@HbDeviceProgressDialog@@QAEXH@Z @ 1878 NONAME ; void HbDeviceProgressDialog::setProgressValue(int)
	?qt_metacast@HbCheckBox@@UAEPAXPBD@Z @ 1879 NONAME ; void * HbCheckBox::qt_metacast(char const *)
	?tr@HbFormView@@SA?AVQString@@PBD0H@Z @ 1880 NONAME ABSENT ; class QString HbFormView::tr(char const *, char const *, int)
	??0HbSlider@@QAE@W4Orientation@Qt@@PAVQGraphicsItem@@@Z @ 1881 NONAME ; HbSlider::HbSlider(enum Qt::Orientation, class QGraphicsItem *)
	??1HbFormView@@UAE@XZ @ 1882 NONAME ABSENT ; HbFormView::~HbFormView(void)
	?isExpanded@HbSettingFormItem@@QBE_NXZ @ 1883 NONAME ABSENT ; bool HbSettingFormItem::isExpanded(void) const
	?loadSettings@HbDataForm@@QAEXXZ @ 1884 NONAME ABSENT ; void HbDataForm::loadSettings(void)
	?type@HbFormViewItem@@UBEHXZ @ 1885 NONAME ABSENT ; int HbFormViewItem::type(void) const
	?sliderPosition@HbSliderPopup@@QBEHXZ @ 1886 NONAME ; int HbSliderPopup::sliderPosition(void) const
	?setText@HbMessageBox@@QAEXABVQString@@@Z @ 1887 NONAME ; void HbMessageBox::setText(class QString const &)
	??1HbConfirmationQuery@@UAE@XZ @ 1888 NONAME ABSENT ; HbConfirmationQuery::~HbConfirmationQuery(void)
	??0HbZoomSliderPopup@@IAE@AAVHbZoomSliderPopupPrivate@@PAVQGraphicsItem@@@Z @ 1889 NONAME ; HbZoomSliderPopup::HbZoomSliderPopup(class HbZoomSliderPopupPrivate &, class QGraphicsItem *)
	?appendSettingFormGroup@HbSettingFormModel@@QAEPAVHbSettingFormDataItem@@ABVQString@@PBV2@@Z @ 1890 NONAME ABSENT ; class HbSettingFormDataItem * HbSettingFormModel::appendSettingFormGroup(class QString const &, class HbSettingFormDataItem const *)
	?launchDialog@HbNotificationDialog@@SAXABVHbIcon@@ABVQString@@1PAVQGraphicsScene@@@Z @ 1891 NONAME ; void HbNotificationDialog::launchDialog(class HbIcon const &, class QString const &, class QString const &, class QGraphicsScene *)
	??_EHbDeviceProgressDialog@@UAE@I@Z @ 1892 NONAME ; HbDeviceProgressDialog::~HbDeviceProgressDialog(unsigned int)
	?isStretched@HbFormViewItem@@QBE_NXZ @ 1893 NONAME ABSENT ; bool HbFormViewItem::isStretched(void) const
	??1HbSettingFormDataItem@@UAE@XZ @ 1894 NONAME ABSENT ; HbSettingFormDataItem::~HbSettingFormDataItem(void)
	?qt_metacast@HbRadioButtonList@@UAEPAXPBD@Z @ 1895 NONAME ; void * HbRadioButtonList::qt_metacast(char const *)
	?documentLayoutChanged@HbAbstractEdit@@MAEXXZ @ 1896 NONAME ; void HbAbstractEdit::documentLayoutChanged(void)
	?itemData@HbComboBox@@QBE?AVQVariant@@HH@Z @ 1897 NONAME ; class QVariant HbComboBox::itemData(int, int) const
	?metaObject@HbZoomSliderPopup@@UBEPBUQMetaObject@@XZ @ 1898 NONAME ; struct QMetaObject const * HbZoomSliderPopup::metaObject(void) const
	?type@HbProgressNote@@UBEHXZ @ 1899 NONAME ABSENT ; int HbProgressNote::type(void) const
	?trUtf8@HbDataQuery@@SA?AVQString@@PBD0@Z @ 1900 NONAME ABSENT ; class QString HbDataQuery::trUtf8(char const *, char const *)
	?getStaticMetaObject@HbDataQuery@@SAABUQMetaObject@@XZ @ 1901 NONAME ABSENT ; struct QMetaObject const & HbDataQuery::getStaticMetaObject(void)
	?d_func@HbAbstractSliderControl@@AAEPAVHbAbstractSliderControlPrivate@@XZ @ 1902 NONAME ; class HbAbstractSliderControlPrivate * HbAbstractSliderControl::d_func(void)
	?progressValue@HbGlobalProgressNote@@QBEHXZ @ 1903 NONAME ABSENT ; int HbGlobalProgressNote::progressValue(void) const
	??0HbValidator@@QAE@PAVQObject@@@Z @ 1904 NONAME ; HbValidator::HbValidator(class QObject *)
	?staticMetaObject@HbDeviceProgressDialog@@2UQMetaObject@@B @ 1905 NONAME ; struct QMetaObject const HbDeviceProgressDialog::staticMetaObject
	?setMajorTickInterval@HbSliderPopup@@QAEXH@Z @ 1906 NONAME ; void HbSliderPopup::setMajorTickInterval(int)
	??0HbSliderPopup@@QAE@W4Orientation@Qt@@PAVQGraphicsItem@@@Z @ 1907 NONAME ; HbSliderPopup::HbSliderPopup(enum Qt::Orientation, class QGraphicsItem *)
	?metaObject@HbCombinedQuery@@UBEPBUQMetaObject@@XZ @ 1908 NONAME ABSENT ; struct QMetaObject const * HbCombinedQuery::metaObject(void) const
	?trUtf8@HbFormView@@SA?AVQString@@PBD0H@Z @ 1909 NONAME ABSENT ; class QString HbFormView::trUtf8(char const *, char const *, int)
	?tr@HbFileDialog@@SA?AVQString@@PBD0H@Z @ 1910 NONAME ABSENT ; class QString HbFileDialog::tr(char const *, char const *, int)
	?isEmpty@HbFormViewItem@@UBE_NPBVHbFormItem@@@Z @ 1911 NONAME ABSENT ; bool HbFormViewItem::isEmpty(class HbFormItem const *) const
	?staticMetaObject@HbMessageBox@@2UQMetaObject@@B @ 1912 NONAME ; struct QMetaObject const HbMessageBox::staticMetaObject
	?checkState@HbCheckBox@@QBE?AW4CheckState@Qt@@XZ @ 1913 NONAME ; enum Qt::CheckState HbCheckBox::checkState(void) const
	?d_func@HbColorDialog@@ABEPBVHbColorDialogPrivate@@XZ @ 1914 NONAME ; class HbColorDialogPrivate const * HbColorDialog::d_func(void) const
	??1HbFileDialog@@UAE@XZ @ 1915 NONAME ABSENT ; HbFileDialog::~HbFileDialog(void)
	?setStringItems@HbListQuery@@QAEXABVQStringList@@H@Z @ 1916 NONAME ABSENT ; void HbListQuery::setStringItems(class QStringList const &, int)
	?textAlignment@HbProgressNote@@QBE?AV?$QFlags@W4AlignmentFlag@Qt@@@@XZ @ 1917 NONAME ABSENT ; class QFlags<enum Qt::AlignmentFlag> HbProgressNote::textAlignment(void) const
	?setTimeout@HbDeviceMessageBox@@QAEXW4DefaultTimeout@HbPopupBase@@@Z @ 1918 NONAME ABSENT ; void HbDeviceMessageBox::setTimeout(enum HbPopupBase::DefaultTimeout)
	?criteriaChanged@HbSearchPanel@@IAEXABVQString@@@Z @ 1919 NONAME ; void HbSearchPanel::criteriaChanged(class QString const &)
	?setTextAlignment@HbGroupBox@@QAEXV?$QFlags@W4AlignmentFlag@Qt@@@@@Z @ 1920 NONAME ABSENT ; void HbGroupBox::setTextAlignment(class QFlags<enum Qt::AlignmentFlag>)
	?d_func@HbDeviceMessageBox@@AAEPAVHbDeviceMessageBoxPrivate@@XZ @ 1921 NONAME ; class HbDeviceMessageBoxPrivate * HbDeviceMessageBox::d_func(void)
	?toggled@HbGroupBox@@IAEX_N@Z @ 1922 NONAME ; void HbGroupBox::toggled(bool)
	?contentWidget@HbGroupBox@@QBEPAVHbWidget@@XZ @ 1923 NONAME ; class HbWidget * HbGroupBox::contentWidget(void) const
	?isCollapsed@HbGroupBox@@QBE_NXZ @ 1924 NONAME ; bool HbGroupBox::isCollapsed(void) const
	?qt_metacall@HbSearchPanel@@UAEHW4Call@QMetaObject@@HPAPAX@Z @ 1925 NONAME ; int HbSearchPanel::qt_metacall(enum QMetaObject::Call, int, void * *)
	?trUtf8@HbSearchPanel@@SA?AVQString@@PBD0H@Z @ 1926 NONAME ; class QString HbSearchPanel::trUtf8(char const *, char const *, int)
	?iconName@HbDeviceNotificationDialog@@QBE?AVQString@@XZ @ 1927 NONAME ; class QString HbDeviceNotificationDialog::iconName(void) const
	?setCollapsable@HbGroupBox@@QAEX_N@Z @ 1928 NONAME ; void HbGroupBox::setCollapsable(bool)
	?setSearchOptionsEnabled@HbSearchPanel@@QAEX_N@Z @ 1929 NONAME ; void HbSearchPanel::setSearchOptionsEnabled(bool)
	?tr@HbDeviceMessageBox@@SA?AVQString@@PBD0H@Z @ 1930 NONAME ; class QString HbDeviceMessageBox::tr(char const *, char const *, int)
	?primaryAction@HbDeviceMessageBox@@QBEPAVHbAction@@XZ @ 1931 NONAME ABSENT ; class HbAction * HbDeviceMessageBox::primaryAction(void) const
	?text@HbDeviceMessageBox@@QBE?AVQString@@XZ @ 1932 NONAME ; class QString HbDeviceMessageBox::text(void) const
	?information@HbDeviceMessageBox@@SAXABVQString@@@Z @ 1933 NONAME ; void HbDeviceMessageBox::information(class QString const &)
	?setContentWidget@HbGroupBox@@QAEXPAVHbWidget@@@Z @ 1934 NONAME ; void HbGroupBox::setContentWidget(class HbWidget *)
	?setTimeout@HbDeviceNotificationDialog@@QAEXH@Z @ 1935 NONAME ; void HbDeviceNotificationDialog::setTimeout(int)
	?setProgressive@HbSearchPanel@@QAEX_N@Z @ 1936 NONAME ; void HbSearchPanel::setProgressive(bool)
	?setIconName@HbDeviceMessageBox@@QAEXABVQString@@@Z @ 1937 NONAME ; void HbDeviceMessageBox::setIconName(class QString const &)
	?setIcon@HbDataFormModelItem@@QAEXABVQString@@@Z @ 1938 NONAME ; void HbDataFormModelItem::setIcon(class QString const &)
	?icon@HbDataFormModelItem@@QBE?AVQString@@XZ @ 1939 NONAME ; class QString HbDataFormModelItem::icon(void) const
	?tr@HbSearchPanel@@SA?AVQString@@PBD0H@Z @ 1940 NONAME ; class QString HbSearchPanel::tr(char const *, char const *, int)
	?primitive@HbGroupBox@@UBEPAVQGraphicsItem@@W4Primitive@HbStyle@@@Z @ 1941 NONAME ; class QGraphicsItem * HbGroupBox::primitive(enum HbStyle::Primitive) const
	?tr@HbGroupBox@@SA?AVQString@@PBD0H@Z @ 1942 NONAME ; class QString HbGroupBox::tr(char const *, char const *, int)
	?setTitleText@HbGroupBox@@QAEXABVQString@@@Z @ 1943 NONAME ABSENT ; void HbGroupBox::setTitleText(class QString const &)
	??1HbGroupBox@@UAE@XZ @ 1944 NONAME ; HbGroupBox::~HbGroupBox(void)
	?trUtf8@HbGroupBox@@SA?AVQString@@PBD0H@Z @ 1945 NONAME ; class QString HbGroupBox::trUtf8(char const *, char const *, int)
	?setTitleWidget@HbGroupBox@@QAEXPAVHbWidget@@@Z @ 1946 NONAME ABSENT ; void HbGroupBox::setTitleWidget(class HbWidget *)
	?anchorAt@HbAbstractEdit@@QBE?AVQString@@ABVQPointF@@@Z @ 1947 NONAME ; class QString HbAbstractEdit::anchorAt(class QPointF const &) const
	?close@HbDeviceMessageBox@@QAEXXZ @ 1948 NONAME ; void HbDeviceMessageBox::close(void)
	?type@HbGroupBox@@UBEHXZ @ 1949 NONAME ; int HbGroupBox::type(void) const
	??0HbDeviceMessageBox@@QAE@W4MessageBoxType@HbMessageBox@@PAVQObject@@@Z @ 1950 NONAME ; HbDeviceMessageBox::HbDeviceMessageBox(enum HbMessageBox::MessageBoxType, class QObject *)
	??0HbGroupBox@@QAE@ABVQString@@PAVQGraphicsItem@@@Z @ 1951 NONAME ABSENT ; HbGroupBox::HbGroupBox(class QString const &, class QGraphicsItem *)
	?clicked@HbGroupBox@@IAEXXZ @ 1952 NONAME ; void HbGroupBox::clicked(void)
	?d_func@HbSearchPanel@@ABEPBVHbSearchPanelPrivate@@XZ @ 1953 NONAME ; class HbSearchPanelPrivate const * HbSearchPanel::d_func(void) const
	?trUtf8@HbDeviceMessageBox@@SA?AVQString@@PBD0H@Z @ 1954 NONAME ; class QString HbDeviceMessageBox::trUtf8(char const *, char const *, int)
	?tr@HbGroupBox@@SA?AVQString@@PBD0@Z @ 1955 NONAME ; class QString HbGroupBox::tr(char const *, char const *)
	?setTimeout@HbDeviceMessageBox@@QAEXH@Z @ 1956 NONAME ; void HbDeviceMessageBox::setTimeout(int)
	?setText@HbDeviceMessageBox@@QAEXABVQString@@@Z @ 1957 NONAME ; void HbDeviceMessageBox::setText(class QString const &)
	?d_func@HbGroupBox@@ABEPBVHbGroupBoxPrivate@@XZ @ 1958 NONAME ; class HbGroupBoxPrivate const * HbGroupBox::d_func(void) const
	?setCapitalization@HbLineEdit@@QAEXW4Capitalization@QFont@@@Z @ 1959 NONAME ; void HbLineEdit::setCapitalization(enum QFont::Capitalization)
	?contextMenuFlags@HbAbstractEdit@@QBE?AV?$QFlags@W4TextContextMenuFlag@Hb@@@@XZ @ 1960 NONAME ; class QFlags<enum Hb::TextContextMenuFlag> HbAbstractEdit::contextMenuFlags(void) const
	?metaObject@HbDeviceMessageBox@@UBEPBUQMetaObject@@XZ @ 1961 NONAME ; struct QMetaObject const * HbDeviceMessageBox::metaObject(void) const
	?isTouchActivating@HbNotificationDialog@@QBE_NXZ @ 1962 NONAME ; bool HbNotificationDialog::isTouchActivating(void) const
	??_EHbGroupBox@@UAE@I@Z @ 1963 NONAME ; HbGroupBox::~HbGroupBox(unsigned int)
	?qt_metacast@HbDeviceMessageBox@@UAEPAXPBD@Z @ 1964 NONAME ; void * HbDeviceMessageBox::qt_metacast(char const *)
	?aboutToClose@HbDeviceMessageBox@@IAEXXZ @ 1965 NONAME ; void HbDeviceMessageBox::aboutToClose(void)
	?exec@HbDeviceMessageBox@@QAEPAVHbAction@@XZ @ 1966 NONAME ABSENT ; class HbAction * HbDeviceMessageBox::exec(void)
	?question@HbDeviceMessageBox@@SA_NABVQString@@00@Z @ 1967 NONAME ; bool HbDeviceMessageBox::question(class QString const &, class QString const &, class QString const &)
	?isTouchActivating@HbDiscreetPopup@@QBE_NXZ @ 1968 NONAME ABSENT ; bool HbDiscreetPopup::isTouchActivating(void) const
	?setContextMenuFlags@HbAbstractEdit@@QAEXV?$QFlags@W4TextContextMenuFlag@Hb@@@@@Z @ 1969 NONAME ; void HbAbstractEdit::setContextMenuFlags(class QFlags<enum Hb::TextContextMenuFlag>)
	?isSearchOptionsEnabled@HbSearchPanel@@QBE_NXZ @ 1970 NONAME ; bool HbSearchPanel::isSearchOptionsEnabled(void) const
	??_EHbSearchPanel@@UAE@I@Z @ 1971 NONAME ; HbSearchPanel::~HbSearchPanel(unsigned int)
	?timeout@HbDeviceNotificationDialog@@QBEHXZ @ 1972 NONAME ; int HbDeviceNotificationDialog::timeout(void) const
	?displayText@HbLineEdit@@QBE?AVQString@@XZ @ 1973 NONAME ; class QString HbLineEdit::displayText(void) const
	?staticMetaObject@HbDeviceMessageBox@@2UQMetaObject@@B @ 1974 NONAME ; struct QMetaObject const HbDeviceMessageBox::staticMetaObject
	?qt_metacall@HbGroupBox@@UAEHW4Call@QMetaObject@@HPAPAX@Z @ 1975 NONAME ; int HbGroupBox::qt_metacall(enum QMetaObject::Call, int, void * *)
	?getStaticMetaObject@HbDeviceMessageBox@@SAABUQMetaObject@@XZ @ 1976 NONAME ; struct QMetaObject const & HbDeviceMessageBox::getStaticMetaObject(void)
	?notification@HbDeviceNotificationDialog@@SAXABVQString@@00@Z @ 1977 NONAME ; void HbDeviceNotificationDialog::notification(class QString const &, class QString const &, class QString const &)
	??1HbDeviceMessageBox@@UAE@XZ @ 1978 NONAME ; HbDeviceMessageBox::~HbDeviceMessageBox(void)
	?timeout@HbDeviceMessageBox@@QBEHXZ @ 1979 NONAME ; int HbDeviceMessageBox::timeout(void) const
	?getStaticMetaObject@HbSearchPanel@@SAABUQMetaObject@@XZ @ 1980 NONAME ; struct QMetaObject const & HbSearchPanel::getStaticMetaObject(void)
	?setDismissPolicy@HbDeviceMessageBox@@QAEXW4DismissPolicy@HbPopupBase@@@Z @ 1981 NONAME ABSENT ; void HbDeviceMessageBox::setDismissPolicy(enum HbPopupBase::DismissPolicy)
	?clearContextMenuFlag@HbAbstractEdit@@QAEXW4TextContextMenuFlag@Hb@@@Z @ 1982 NONAME ; void HbAbstractEdit::clearContextMenuFlag(enum Hb::TextContextMenuFlag)
	?staticMetaObject@HbGroupBox@@2UQMetaObject@@B @ 1983 NONAME ; struct QMetaObject const HbGroupBox::staticMetaObject
	?setCollapsed@HbGroupBox@@QAEX_N@Z @ 1984 NONAME ; void HbGroupBox::setCollapsed(bool)
	?aboutToShowContextMenu@HbAbstractEdit@@IAEXPAVHbMenu@@ABVQPointF@@@Z @ 1985 NONAME ; void HbAbstractEdit::aboutToShowContextMenu(class HbMenu *, class QPointF const &)
	?anchorAt@HbAbstractEdit@@QBE?AVQString@@H@Z @ 1986 NONAME ; class QString HbAbstractEdit::anchorAt(int) const
	??0HbSearchPanel@@IAE@AAVHbSearchPanelPrivate@@PAVQGraphicsItem@@@Z @ 1987 NONAME ; HbSearchPanel::HbSearchPanel(class HbSearchPanelPrivate &, class QGraphicsItem *)
	?focusOutEvent@HbLineEdit@@MAEXPAVQFocusEvent@@@Z @ 1988 NONAME ; void HbLineEdit::focusOutEvent(class QFocusEvent *)
	?d_func@HbDeviceMessageBox@@ABEPBVHbDeviceMessageBoxPrivate@@XZ @ 1989 NONAME ; class HbDeviceMessageBoxPrivate const * HbDeviceMessageBox::d_func(void) const
	?qt_metacast@HbGroupBox@@UAEPAXPBD@Z @ 1990 NONAME ; void * HbGroupBox::qt_metacast(char const *)
	??_EHbDeviceMessageBox@@UAE@I@Z @ 1991 NONAME ; HbDeviceMessageBox::~HbDeviceMessageBox(unsigned int)
	?trUtf8@HbSearchPanel@@SA?AVQString@@PBD0@Z @ 1992 NONAME ; class QString HbSearchPanel::trUtf8(char const *, char const *)
	?echoMode@HbLineEdit@@QBE?AW4EchoMode@1@XZ @ 1993 NONAME ; enum HbLineEdit::EchoMode HbLineEdit::echoMode(void) const
	?textAlignment@HbGroupBox@@QBE?AV?$QFlags@W4AlignmentFlag@Qt@@@@XZ @ 1994 NONAME ABSENT ; class QFlags<enum Qt::AlignmentFlag> HbGroupBox::textAlignment(void) const
	?iconAlignment@HbDeviceMessageBox@@QBE?AV?$QFlags@W4AlignmentFlag@Qt@@@@XZ @ 1995 NONAME ABSENT ; class QFlags<enum Qt::AlignmentFlag> HbDeviceMessageBox::iconAlignment(void) const
	?longPress@HbGroupBox@@IAEXVQPointF@@@Z @ 1996 NONAME ABSENT ; void HbGroupBox::longPress(class QPointF)
	??0HbDeviceMessageBox@@QAE@ABVQString@@W4MessageBoxType@HbMessageBox@@PAVQObject@@@Z @ 1997 NONAME ; HbDeviceMessageBox::HbDeviceMessageBox(class QString const &, enum HbMessageBox::MessageBoxType, class QObject *)
	?trUtf8@HbDeviceMessageBox@@SA?AVQString@@PBD0@Z @ 1998 NONAME ; class QString HbDeviceMessageBox::trUtf8(char const *, char const *)
	?titleText@HbGroupBox@@QBE?AVQString@@XZ @ 1999 NONAME ABSENT ; class QString HbGroupBox::titleText(void) const
	?capitalization@HbLineEdit@@QBE?AW4Capitalization@QFont@@XZ @ 2000 NONAME ; enum QFont::Capitalization HbLineEdit::capitalization(void) const
	?setIconName@HbDeviceNotificationDialog@@QAEXABVQString@@@Z @ 2001 NONAME ; void HbDeviceNotificationDialog::setIconName(class QString const &)
	?tr@HbDeviceMessageBox@@SA?AVQString@@PBD0@Z @ 2002 NONAME ; class QString HbDeviceMessageBox::tr(char const *, char const *)
	?metaObject@HbSearchPanel@@UBEPBUQMetaObject@@XZ @ 2003 NONAME ; struct QMetaObject const * HbSearchPanel::metaObject(void) const
	?isProgressive@HbSearchPanel@@QBE_NXZ @ 2004 NONAME ; bool HbSearchPanel::isProgressive(void) const
	?dismissPolicy@HbDeviceMessageBox@@QBE?AW4DismissPolicy@HbPopupBase@@XZ @ 2005 NONAME ABSENT ; enum HbPopupBase::DismissPolicy HbDeviceMessageBox::dismissPolicy(void) const
	?updatePrimitives@HbGroupBox@@UAEXXZ @ 2006 NONAME ; void HbGroupBox::updatePrimitives(void)
	?getStaticMetaObject@HbGroupBox@@SAABUQMetaObject@@XZ @ 2007 NONAME ; struct QMetaObject const & HbGroupBox::getStaticMetaObject(void)
	??1HbSearchPanel@@UAE@XZ @ 2008 NONAME ; HbSearchPanel::~HbSearchPanel(void)
	?searchOptionsClicked@HbSearchPanel@@IAEXXZ @ 2009 NONAME ; void HbSearchPanel::searchOptionsClicked(void)
	?metaObject@HbGroupBox@@UBEPBUQMetaObject@@XZ @ 2010 NONAME ; struct QMetaObject const * HbGroupBox::metaObject(void) const
	??0HbGroupBox@@QAE@PAVQGraphicsItem@@@Z @ 2011 NONAME ; HbGroupBox::HbGroupBox(class QGraphicsItem *)
	?d_func@HbGroupBox@@AAEPAVHbGroupBoxPrivate@@XZ @ 2012 NONAME ; class HbGroupBoxPrivate * HbGroupBox::d_func(void)
	?warning@HbDeviceMessageBox@@SAXABVQString@@@Z @ 2013 NONAME ; void HbDeviceMessageBox::warning(class QString const &)
	?setPrimaryAction@HbDeviceMessageBox@@QAEXPAVHbAction@@@Z @ 2014 NONAME ABSENT ; void HbDeviceMessageBox::setPrimaryAction(class HbAction *)
	?notification@HbDeviceNotificationDialog@@SAXABVQString@@0@Z @ 2015 NONAME ; void HbDeviceNotificationDialog::notification(class QString const &, class QString const &)
	??0HbSearchPanel@@QAE@PAVQGraphicsItem@@@Z @ 2016 NONAME ; HbSearchPanel::HbSearchPanel(class QGraphicsItem *)
	?iconName@HbDeviceMessageBox@@QBE?AVQString@@XZ @ 2017 NONAME ; class QString HbDeviceMessageBox::iconName(void) const
	?setSecondaryAction@HbDeviceMessageBox@@QAEXPAVHbAction@@@Z @ 2018 NONAME ABSENT ; void HbDeviceMessageBox::setSecondaryAction(class HbAction *)
	?staticMetaObject@HbSearchPanel@@2UQMetaObject@@B @ 2019 NONAME ; struct QMetaObject const HbSearchPanel::staticMetaObject
	?recreatePrimitives@HbPushButton@@UAEXXZ @ 2020 NONAME ; void HbPushButton::recreatePrimitives(void)
	?secondaryAction@HbDeviceMessageBox@@QBEPAVHbAction@@XZ @ 2021 NONAME ABSENT ; class HbAction * HbDeviceMessageBox::secondaryAction(void) const
	?show@HbDeviceMessageBox@@QAEXXZ @ 2022 NONAME ; void HbDeviceMessageBox::show(void)
	?d_func@HbSearchPanel@@AAEPAVHbSearchPanelPrivate@@XZ @ 2023 NONAME ; class HbSearchPanelPrivate * HbSearchPanel::d_func(void)
	?setIconAlignment@HbDeviceMessageBox@@QAEXV?$QFlags@W4AlignmentFlag@Qt@@@@@Z @ 2024 NONAME ABSENT ; void HbDeviceMessageBox::setIconAlignment(class QFlags<enum Qt::AlignmentFlag>)
	?trUtf8@HbGroupBox@@SA?AVQString@@PBD0@Z @ 2025 NONAME ; class QString HbGroupBox::trUtf8(char const *, char const *)
	?tr@HbSearchPanel@@SA?AVQString@@PBD0@Z @ 2026 NONAME ; class QString HbSearchPanel::tr(char const *, char const *)
	?titleWidget@HbGroupBox@@QBEPAVHbWidget@@XZ @ 2027 NONAME ABSENT ; class HbWidget * HbGroupBox::titleWidget(void) const
	?isCollapsable@HbGroupBox@@QBE_NXZ @ 2028 NONAME ; bool HbGroupBox::isCollapsable(void) const
	?setEchoMode@HbLineEdit@@QAEXW4EchoMode@1@@Z @ 2029 NONAME ; void HbLineEdit::setEchoMode(enum HbLineEdit::EchoMode)
	?qt_metacast@HbSearchPanel@@UAEPAXPBD@Z @ 2030 NONAME ; void * HbSearchPanel::qt_metacast(char const *)
	?qt_metacall@HbDeviceMessageBox@@UAEHW4Call@QMetaObject@@HPAPAX@Z @ 2031 NONAME ; int HbDeviceMessageBox::qt_metacall(enum QMetaObject::Call, int, void * *)
	?rectForPosition@HbAbstractEdit@@IBE?AVQRectF@@HW4Edge@QTextLine@@@Z @ 2032 NONAME ; class QRectF HbAbstractEdit::rectForPosition(int, enum QTextLine::Edge) const
	?exitClicked@HbSearchPanel@@IAEXXZ @ 2033 NONAME ; void HbSearchPanel::exitClicked(void)
	?setContextMenuFlag@HbAbstractEdit@@QAEXW4TextContextMenuFlag@Hb@@@Z @ 2034 NONAME ; void HbAbstractEdit::setContextMenuFlag(enum Hb::TextContextMenuFlag)
	?itemByIndex@HbAbstractItemContainer@@QBEPAVHbAbstractViewItem@@ABVQModelIndex@@@Z @ 2035 NONAME ; class HbAbstractViewItem * HbAbstractItemContainer::itemByIndex(class QModelIndex const &) const
	??0HbListItemContainer@@QAE@PAVQGraphicsItem@@@Z @ 2036 NONAME ABSENT ; HbListItemContainer::HbListItemContainer(class QGraphicsItem *)
	?d_func@HbGridViewItem@@AAEPAVHbGridViewItemPrivate@@XZ @ 2037 NONAME ; class HbGridViewItemPrivate * HbGridViewItem::d_func(void)
	?staticMetaObject@HbGridView@@2UQMetaObject@@B @ 2038 NONAME ; struct QMetaObject const HbGridView::staticMetaObject
	?setDecorationRole@HbListViewItemPrivate@@QAEXVQVariant@@H@Z @ 2039 NONAME ABSENT ; void HbListViewItemPrivate::setDecorationRole(class QVariant, int)
	?init@HbListViewItemPrivate@@QAEXXZ @ 2040 NONAME ABSENT ; void HbListViewItemPrivate::init(void)
	?addItem@HbListWidget@@QAEXABVQString@@@Z @ 2041 NONAME ; void HbListWidget::addItem(class QString const &)
	?setDateTimeFormat@HbDateTimeEdit@@QAEXABVQLocale@@@Z @ 2042 NONAME ABSENT ; void HbDateTimeEdit::setDateTimeFormat(class QLocale const &)
	??1HbGridViewItemPrivate@@UAE@XZ @ 2043 NONAME ABSENT ; HbGridViewItemPrivate::~HbGridViewItemPrivate(void)
	??0HbProgressiveSlider@@IAE@AAVHbProgressiveSliderPrivate@@PAVQGraphicsItem@@@Z @ 2044 NONAME ABSENT ; HbProgressiveSlider::HbProgressiveSlider(class HbProgressiveSliderPrivate &, class QGraphicsItem *)
	?tr@HbGridView@@SA?AVQString@@PBD0@Z @ 2045 NONAME ; class QString HbGridView::tr(char const *, char const *)
	?updatePrimitives@HbRatingSlider@@UAEXXZ @ 2046 NONAME ; void HbRatingSlider::updatePrimitives(void)
	?insertItem@HbListWidget@@QAEXHABVHbIcon@@ABVQString@@@Z @ 2047 NONAME ; void HbListWidget::insertItem(int, class HbIcon const &, class QString const &)
	??0HbListItemContainer@@IAE@AAVHbListItemContainerPrivate@@PAVQGraphicsItem@@@Z @ 2048 NONAME ABSENT ; HbListItemContainer::HbListItemContainer(class HbListItemContainerPrivate &, class QGraphicsItem *)
	?qt_metacast@HbProgressiveSlider@@UAEPAXPBD@Z @ 2049 NONAME ABSENT ; void * HbProgressiveSlider::qt_metacast(char const *)
	?rowsInserted@HbAbstractItemView@@MAEXABVQModelIndex@@HH@Z @ 2050 NONAME ; void HbAbstractItemView::rowsInserted(class QModelIndex const &, int, int)
	?_q_layoutChanged@HbAbstractItemViewPrivate@@QAEXXZ @ 2051 NONAME ABSENT ; void HbAbstractItemViewPrivate::_q_layoutChanged(void)
	?updateIconItem@HbGridViewItemPrivate@@QAEXABVHbGridViewPrivate@@@Z @ 2052 NONAME ABSENT ; void HbGridViewItemPrivate::updateIconItem(class HbGridViewPrivate const &)
	?row@HbListWidget@@QBEHPBVHbListWidgetItem@@@Z @ 2053 NONAME ; int HbListWidget::row(class HbListWidgetItem const *) const
	?duration@HbItemHighlight@@QBEHXZ @ 2054 NONAME ABSENT ; int HbItemHighlight::duration(void) const
	?mousePressEvent@HbAbstractItemView@@MAEXPAVQGraphicsSceneMouseEvent@@@Z @ 2055 NONAME ABSENT ; void HbAbstractItemView::mousePressEvent(class QGraphicsSceneMouseEvent *)
	??4HbListViewItem@@IAEAAV0@ABV0@@Z @ 2056 NONAME ; class HbListViewItem & HbListViewItem::operator=(class HbListViewItem const &)
	?columnsAboutToBeRemoved@HbAbstractItemView@@MAEXABVQModelIndex@@HH@Z @ 2057 NONAME ; void HbAbstractItemView::columnsAboutToBeRemoved(class QModelIndex const &, int, int)
	?setRootIndex@HbAbstractItemView@@UAEXABVQModelIndex@@@Z @ 2058 NONAME ; void HbAbstractItemView::setRootIndex(class QModelIndex const &)
	??_EHbListViewItemPrivate@@UAE@I@Z @ 2059 NONAME ABSENT ; HbListViewItemPrivate::~HbListViewItemPrivate(unsigned int)
	?initStyleOption@HbRatingSlider@@IBEXPAVHbStyleOption@@@Z @ 2060 NONAME ; void HbRatingSlider::initStyleOption(class HbStyleOption *) const
	?addItem@HbListWidget@@QAEXABVHbIcon@@ABVQString@@@Z @ 2061 NONAME ; void HbListWidget::addItem(class HbIcon const &, class QString const &)
	?trUtf8@HbListViewItem@@SA?AVQString@@PBD0H@Z @ 2062 NONAME ; class QString HbListViewItem::trUtf8(char const *, char const *, int)
	?getStaticMetaObject@HbTreeViewItem@@SAABUQMetaObject@@XZ @ 2063 NONAME ; struct QMetaObject const & HbTreeViewItem::getStaticMetaObject(void)
	?staticMetaObject@HbListWidget@@2UQMetaObject@@B @ 2064 NONAME ; struct QMetaObject const HbListWidget::staticMetaObject
	?dataChanged@HbAbstractItemView@@MAEXABVQModelIndex@@0@Z @ 2065 NONAME ; void HbAbstractItemView::dataChanged(class QModelIndex const &, class QModelIndex const &)
	?trUtf8@HbAbstractItemView@@SA?AVQString@@PBD0@Z @ 2066 NONAME ; class QString HbAbstractItemView::trUtf8(char const *, char const *)
	?scrollToTop@HbAbstractItemViewPrivate@@QAEXPBVHbAbstractViewItem@@@Z @ 2067 NONAME ABSENT ; void HbAbstractItemViewPrivate::scrollToTop(class HbAbstractViewItem const *)
	?isIconValid@HbGridViewItemPrivate@@QBE_NABVQVariant@@@Z @ 2068 NONAME ABSENT ; bool HbGridViewItemPrivate::isIconValid(class QVariant const &) const
	?trUtf8@HbListViewItem@@SA?AVQString@@PBD0@Z @ 2069 NONAME ; class QString HbListViewItem::trUtf8(char const *, char const *)
	?qt_metacall@HbAbstractItemContainer@@UAEHW4Call@QMetaObject@@HPAPAX@Z @ 2070 NONAME ; int HbAbstractItemContainer::qt_metacall(enum QMetaObject::Call, int, void * *)
	?target@HbItemHighlight@@QBEPAVQGraphicsWidget@@XZ @ 2071 NONAME ABSENT ; class QGraphicsWidget * HbItemHighlight::target(void) const
	?type@HbProgressiveSlider@@UBEHXZ @ 2072 NONAME ABSENT ; int HbProgressiveSlider::type(void) const
	?q_func@HbAbstractItemViewPrivate@@AAEPAVHbAbstractItemView@@XZ @ 2073 NONAME ABSENT ; class HbAbstractItemView * HbAbstractItemViewPrivate::q_func(void)
	?currentItem@HbListWidget@@QBEPAVHbListWidgetItem@@XZ @ 2074 NONAME ; class HbListWidgetItem * HbListWidget::currentItem(void) const
	??0HbListWidgetItem@@QAE@H@Z @ 2075 NONAME ; HbListWidgetItem::HbListWidgetItem(int)
	?setSecondaryDecorationText@HbListWidgetItem@@QAEXABVQString@@@Z @ 2076 NONAME ABSENT ; void HbListWidgetItem::setSecondaryDecorationText(class QString const &)
	?setItemRecycling@HbAbstractItemView@@QAEX_N@Z @ 2077 NONAME ; void HbAbstractItemView::setItemRecycling(bool)
	?metaObject@HbAbstractViewItem@@UBEPBUQMetaObject@@XZ @ 2078 NONAME ; struct QMetaObject const * HbAbstractViewItem::metaObject(void) const
	?q_func@HbGridViewItemPrivate@@AAEPAVHbGridViewItem@@XZ @ 2079 NONAME ABSENT ; class HbGridViewItem * HbGridViewItemPrivate::q_func(void)
	?handleToolTip@HbProgressiveSlider@@QBE?AVQString@@XZ @ 2080 NONAME ABSENT ; class QString HbProgressiveSlider::handleToolTip(void) const
	?mouseMoveEvent@HbGridView@@MAEXPAVQGraphicsSceneMouseEvent@@@Z @ 2081 NONAME ; void HbGridView::mouseMoveEvent(class QGraphicsSceneMouseEvent *)
	?itemChange@HbProgressiveSlider@@MAE?AVQVariant@@W4GraphicsItemChange@QGraphicsItem@@ABV2@@Z @ 2082 NONAME ABSENT ; class QVariant HbProgressiveSlider::itemChange(enum QGraphicsItem::GraphicsItemChange, class QVariant const &)
	?item@HbListModel@@QBEPAVHbListWidgetItem@@H@Z @ 2083 NONAME ; class HbListWidgetItem * HbListModel::item(int) const
	?highlight@HbAbstractItemView@@QBEPAVHbItemHighlight@@XZ @ 2084 NONAME ABSENT ; class HbItemHighlight * HbAbstractItemView::highlight(void) const
	?isExpanded@HbTreeView@@QBE_NABVQModelIndex@@@Z @ 2085 NONAME ; bool HbTreeView::isExpanded(class QModelIndex const &) const
	?tr@HbAbstractItemView@@SA?AVQString@@PBD0@Z @ 2086 NONAME ; class QString HbAbstractItemView::tr(char const *, char const *)
	??1HbListWidgetItem@@UAE@XZ @ 2087 NONAME ; HbListWidgetItem::~HbListWidgetItem(void)
	?getStaticMetaObject@HbListWidget@@SAABUQMetaObject@@XZ @ 2088 NONAME ; struct QMetaObject const & HbListWidget::getStaticMetaObject(void)
	?contiguousSelectionArea@HbGridViewItem@@UBE?AVQRectF@@XZ @ 2089 NONAME ABSENT ; class QRectF HbGridViewItem::contiguousSelectionArea(void) const
	?d_func@HbTreeViewItem@@AAEPAVHbTreeViewItemPrivate@@XZ @ 2090 NONAME ; class HbTreeViewItemPrivate * HbTreeViewItem::d_func(void)
	?setExpanded@HbTreeViewItem@@QAEX_N@Z @ 2091 NONAME ; void HbTreeViewItem::setExpanded(bool)
	?metaObject@HbAbstractItemContainer@@UBEPBUQMetaObject@@XZ @ 2092 NONAME ; struct QMetaObject const * HbAbstractItemContainer::metaObject(void) const
	?dataChanged@HbGridView@@MAEXABVQModelIndex@@0@Z @ 2093 NONAME ; void HbGridView::dataChanged(class QModelIndex const &, class QModelIndex const &)
	?setSelectionMode@HbAbstractItemView@@QAEXW4SelectionMode@1@_N@Z @ 2094 NONAME ABSENT ; void HbAbstractItemView::setSelectionMode(enum HbAbstractItemView::SelectionMode, bool)
	?getStaticMetaObject@HbGridViewItem@@SAABUQMetaObject@@XZ @ 2095 NONAME ; struct QMetaObject const & HbGridViewItem::getStaticMetaObject(void)
	?decorationText@HbListWidgetItem@@QBE?AVQString@@XZ @ 2096 NONAME ABSENT ; class QString HbListWidgetItem::decorationText(void) const
	?lostFocus@HbAbstractViewItem@@UAEXXZ @ 2097 NONAME ABSENT ; void HbAbstractViewItem::lostFocus(void)
	??0HbAbstractItemContainer@@IAE@AAVHbAbstractItemContainerPrivate@@PAVQGraphicsItem@@@Z @ 2098 NONAME ; HbAbstractItemContainer::HbAbstractItemContainer(class HbAbstractItemContainerPrivate &, class QGraphicsItem *)
	?tr@HbListViewItem@@SA?AVQString@@PBD0@Z @ 2099 NONAME ; class QString HbListViewItem::tr(char const *, char const *)
	?setEchoMode@HbInputDialog@@QAEXW4EchoMode@HbLineEdit@@H@Z @ 2100 NONAME ; void HbInputDialog::setEchoMode(enum HbLineEdit::EchoMode, int)
	?secondaryDecorationIcon@HbListWidgetItem@@QBE?AVHbIcon@@XZ @ 2101 NONAME ABSENT ; class HbIcon HbListWidgetItem::secondaryDecorationIcon(void) const
	?trUtf8@HbAbstractItemContainer@@SA?AVQString@@PBD0@Z @ 2102 NONAME ; class QString HbAbstractItemContainer::trUtf8(char const *, char const *)
	?q_func@HbListViewItemPrivate@@AAEPAVHbListViewItem@@XZ @ 2103 NONAME ABSENT ; class HbListViewItem * HbListViewItemPrivate::q_func(void)
	?setGeometry@HbTreeLayout@@UAEXABVQRectF@@@Z @ 2104 NONAME ; void HbTreeLayout::setGeometry(class QRectF const &)
	?setModel@HbAbstractItemViewPrivate@@QAEXPAVQAbstractItemModel@@@Z @ 2105 NONAME ABSENT ; void HbAbstractItemViewPrivate::setModel(class QAbstractItemModel *)
	?qt_metacast@HbTreeView@@UAEPAXPBD@Z @ 2106 NONAME ; void * HbTreeView::qt_metacast(char const *)
	?d_func@HbListWidget@@AAEPAVHbListWidgetPrivate@@XZ @ 2107 NONAME ; class HbListWidgetPrivate * HbListWidget::d_func(void)
	??0HbListView@@QAE@PAVQGraphicsItem@@@Z @ 2108 NONAME ; HbListView::HbListView(class QGraphicsItem *)
	?itemRecycling@HbAbstractItemView@@QBE_NXZ @ 2109 NONAME ; bool HbAbstractItemView::itemRecycling(void) const
	??0HbAbstractViewItemPrivate@@QAE@ABV0@@Z @ 2110 NONAME ABSENT ; HbAbstractViewItemPrivate::HbAbstractViewItemPrivate(class HbAbstractViewItemPrivate const &)
	?isSliderDown@HbProgressiveSlider@@QBE_NXZ @ 2111 NONAME ABSENT ; bool HbProgressiveSlider::isSliderDown(void) const
	??0HbTreeViewItem@@IAE@ABV0@@Z @ 2112 NONAME ; HbTreeViewItem::HbTreeViewItem(class HbTreeViewItem const &)
	?d_func@HbGridView@@ABEPBVHbGridViewPrivate@@XZ @ 2113 NONAME ; class HbGridViewPrivate const * HbGridView::d_func(void) const
	?state@HbAbstractViewItem@@UBE?AV?$QMap@HVQVariant@@@@XZ @ 2114 NONAME ABSENT ; class QMap<int, class QVariant> HbAbstractViewItem::state(void) const
	?d_func@HbAbstractViewItem@@ABEPBVHbAbstractViewItemPrivate@@XZ @ 2115 NONAME ; class HbAbstractViewItemPrivate const * HbAbstractViewItem::d_func(void) const
	?indentation@HbTreeLayout@@QBEMXZ @ 2116 NONAME ; float HbTreeLayout::indentation(void) const
	?ratedIconName@HbRatingSlider@@QBE?AVQString@@XZ @ 2117 NONAME ; class QString HbRatingSlider::ratedIconName(void) const
	?updateSelectionItem@HbAbstractViewItem@@MAEPAVHbWidgetBase@@ABVHbStyleOptionAbstractViewItem@@@Z @ 2118 NONAME ABSENT ; class HbWidgetBase * HbAbstractViewItem::updateSelectionItem(class HbStyleOptionAbstractViewItem const &)
	?qt_metacast@HbListWidget@@UAEPAXPBD@Z @ 2119 NONAME ; void * HbListWidget::qt_metacast(char const *)
	?_q_releaseAnimationFinished@HbAbstractViewItemPrivate@@QAEXABUEffectStatus@HbEffect@@@Z @ 2120 NONAME ABSENT ; void HbAbstractViewItemPrivate::_q_releaseAnimationFinished(struct HbEffect::EffectStatus const &)
	??_EHbListViewPrivate@@UAE@I@Z @ 2121 NONAME ABSENT ; HbListViewPrivate::~HbListViewPrivate(unsigned int)
	?metaObject@HbGridView@@UBEPBUQMetaObject@@XZ @ 2122 NONAME ; struct QMetaObject const * HbGridView::metaObject(void) const
	??1HbAbstractItemViewPrivate@@UAE@XZ @ 2123 NONAME ABSENT ; HbAbstractItemViewPrivate::~HbAbstractItemViewPrivate(void)
	?moveDraggedItemTo@HbListViewPrivate@@QAEXABVQPointF@@@Z @ 2124 NONAME ABSENT ; void HbListViewPrivate::moveDraggedItemTo(class QPointF const &)
	??0HbListViewItem@@IAE@AAVHbListViewItemPrivate@@PAVQGraphicsItem@@@Z @ 2125 NONAME ; HbListViewItem::HbListViewItem(class HbListViewItemPrivate &, class QGraphicsItem *)
	?metaObject@HbListViewItem@@UBEPBUQMetaObject@@XZ @ 2126 NONAME ; struct QMetaObject const * HbListViewItem::metaObject(void) const
	?scrollByAmount@HbAbstractItemView@@MAE_NABVQPointF@@@Z @ 2127 NONAME ; bool HbAbstractItemView::scrollByAmount(class QPointF const &)
	?mousePressEvent@HbProgressiveSlider@@MAEXPAVQGraphicsSceneMouseEvent@@@Z @ 2128 NONAME ABSENT ; void HbProgressiveSlider::mousePressEvent(class QGraphicsSceneMouseEvent *)
	?removeItem@HbAbstractItemContainer@@UAEXH@Z @ 2129 NONAME ABSENT ; void HbAbstractItemContainer::removeItem(int)
	??1HbListViewItem@@UAE@XZ @ 2130 NONAME ; HbListViewItem::~HbListViewItem(void)
	?indexPosition@HbTreeView@@UBEHABVQModelIndex@@@Z @ 2131 NONAME ABSENT ; int HbTreeView::indexPosition(class QModelIndex const &) const
	?selectionCommand@HbAbstractItemView@@MAE?AV?$QFlags@W4SelectionFlag@QItemSelectionModel@@@@PBVHbAbstractViewItem@@PBVQEvent@@_N@Z @ 2132 NONAME ABSENT ; class QFlags<enum QItemSelectionModel::SelectionFlag> HbAbstractItemView::selectionCommand(class HbAbstractViewItem const *, class QEvent const *, bool)
	??0HbAbstractItemContainer@@QAE@PAVQGraphicsItem@@@Z @ 2133 NONAME ; HbAbstractItemContainer::HbAbstractItemContainer(class QGraphicsItem *)
	?setSelectionModel@HbAbstractItemViewPrivate@@QAEXPAVQItemSelectionModel@@@Z @ 2134 NONAME ABSENT ; void HbAbstractItemViewPrivate::setSelectionModel(class QItemSelectionModel *)
	?tr@HbTreeView@@SA?AVQString@@PBD0H@Z @ 2135 NONAME ; class QString HbTreeView::tr(char const *, char const *, int)
	?pressStateChanged@HbAbstractViewItem@@MAEX_N@Z @ 2136 NONAME ABSENT ; void HbAbstractViewItem::pressStateChanged(bool)
	?currentViewItem@HbAbstractItemView@@QBEPAVHbAbstractViewItem@@XZ @ 2137 NONAME ; class HbAbstractViewItem * HbAbstractItemView::currentViewItem(void) const
	?state@HbTreeViewItem@@UBE?AV?$QMap@HVQVariant@@@@XZ @ 2138 NONAME ABSENT ; class QMap<int, class QVariant> HbTreeViewItem::state(void) const
	?setCurrentIndex@HbAbstractItemView@@QAEXABVQModelIndex@@V?$QFlags@W4SelectionFlag@QItemSelectionModel@@@@@Z @ 2139 NONAME ; void HbAbstractItemView::setCurrentIndex(class QModelIndex const &, class QFlags<enum QItemSelectionModel::SelectionFlag>)
	?tr@HbListModel@@SA?AVQString@@PBD0@Z @ 2140 NONAME ABSENT ; class QString HbListModel::tr(char const *, char const *)
	?d_func@HbAbstractItemView@@ABEPBVHbAbstractItemViewPrivate@@XZ @ 2141 NONAME ; class HbAbstractItemViewPrivate const * HbAbstractItemView::d_func(void) const
	?trUtf8@HbTreeViewItem@@SA?AVQString@@PBD0@Z @ 2142 NONAME ; class QString HbTreeViewItem::trUtf8(char const *, char const *)
	?metaObject@HbProgressiveSlider@@UBEPBUQMetaObject@@XZ @ 2143 NONAME ABSENT ; struct QMetaObject const * HbProgressiveSlider::metaObject(void) const
	?setHighlightMode@HbAbstractItemView@@QAEXW4HighlightMode@HbItemHighlight@@@Z @ 2144 NONAME ABSENT ; void HbAbstractItemView::setHighlightMode(enum HbItemHighlight::HighlightMode)
	?nextIndex@HbAbstractItemView@@UBE?AVQModelIndex@@ABV2@@Z @ 2145 NONAME ABSENT ; class QModelIndex HbAbstractItemView::nextIndex(class QModelIndex const &) const
	?isPrototype@HbAbstractViewItemPrivate@@QBE_NXZ @ 2146 NONAME ABSENT ; bool HbAbstractViewItemPrivate::isPrototype(void) const
	??_EHbGridViewItemPrivate@@UAE@I@Z @ 2147 NONAME ABSENT ; HbGridViewItemPrivate::~HbGridViewItemPrivate(unsigned int)
	?staticMetaObject@HbTreeView@@2UQMetaObject@@B @ 2148 NONAME ; struct QMetaObject const HbTreeView::staticMetaObject
	??1HbProgressiveSlider@@UAE@XZ @ 2149 NONAME ABSENT ; HbProgressiveSlider::~HbProgressiveSlider(void)
	?itemChange@HbAbstractItemView@@MAE?AVQVariant@@W4GraphicsItemChange@QGraphicsItem@@ABV2@@Z @ 2150 NONAME ; class QVariant HbAbstractItemView::itemChange(enum QGraphicsItem::GraphicsItemChange, class QVariant const &)
	??0HbGroupBox@@IAE@AAVHbGroupBoxPrivate@@PAVQGraphicsItem@@@Z @ 2151 NONAME ; HbGroupBox::HbGroupBox(class HbGroupBoxPrivate &, class QGraphicsItem *)
	?secondaryText@HbListWidgetItem@@QBE?AVQString@@XZ @ 2152 NONAME ; class QString HbListWidgetItem::secondaryText(void) const
	?addItem@HbComboBox@@QAEXABVQString@@ABVQVariant@@@Z @ 2153 NONAME ; void HbComboBox::addItem(class QString const &, class QVariant const &)
	?setDuration@HbItemHighlight@@QAEXHW4HighlightMode@1@@Z @ 2154 NONAME ABSENT ; void HbItemHighlight::setDuration(int, enum HbItemHighlight::HighlightMode)
	?data@HbListWidgetItem@@QBE?AVQVariant@@H@Z @ 2155 NONAME ; class QVariant HbListWidgetItem::data(int) const
	?insertItem@HbTreeLayout@@QAEXHPAVQGraphicsLayoutItem@@H@Z @ 2156 NONAME ABSENT ; void HbTreeLayout::insertItem(int, class QGraphicsLayoutItem *, int)
	?bufferSize@HbAbstractItemContainer@@QBEHXZ @ 2157 NONAME ABSENT ; int HbAbstractItemContainer::bufferSize(void) const
	?d_func@HbProgressiveSlider@@ABEPBVHbProgressiveSliderPrivate@@XZ @ 2158 NONAME ABSENT ; class HbProgressiveSliderPrivate const * HbProgressiveSlider::d_func(void) const
	?qt_metacall@HbAbstractItemView@@UAEHW4Call@QMetaObject@@HPAPAX@Z @ 2159 NONAME ; int HbAbstractItemView::qt_metacall(enum QMetaObject::Call, int, void * *)
	?columnsInserted@HbTreeView@@MAEXABVQModelIndex@@HH@Z @ 2160 NONAME ; void HbTreeView::columnsInserted(class QModelIndex const &, int, int)
	??1HbAbstractViewItem@@UAE@XZ @ 2161 NONAME ; HbAbstractViewItem::~HbAbstractViewItem(void)
	??_EHbListWidgetItem@@UAE@I@Z @ 2162 NONAME ; HbListWidgetItem::~HbListWidgetItem(unsigned int)
	?viewItem@HbListView@@QBEPAVHbAbstractViewItem@@H@Z @ 2163 NONAME ; class HbAbstractViewItem * HbListView::viewItem(int) const
	?dataChanged@HbDataForm@@MAEXABVQModelIndex@@0@Z @ 2164 NONAME ; void HbDataForm::dataChanged(class QModelIndex const &, class QModelIndex const &)
	??1HbListViewItemPrivate@@UAE@XZ @ 2165 NONAME ABSENT ; HbListViewItemPrivate::~HbListViewItemPrivate(void)
	?itemAt@HbGridView@@QBEPAVHbAbstractViewItem@@H@Z @ 2166 NONAME ABSENT ; class HbAbstractViewItem * HbGridView::itemAt(int) const
	?receivedFocus@HbAbstractViewItem@@UAEXXZ @ 2167 NONAME ABSENT ; void HbAbstractViewItem::receivedFocus(void)
	?isVisible@HbAbstractItemView@@QBE_NPAVHbAbstractViewItem@@@Z @ 2168 NONAME ABSENT ; bool HbAbstractItemView::isVisible(class HbAbstractViewItem *) const
	?tr@HbGridViewItem@@SA?AVQString@@PBD0H@Z @ 2169 NONAME ; class QString HbGridViewItem::tr(char const *, char const *, int)
	?type@HbItemHighlight@@UBEHXZ @ 2170 NONAME ABSENT ; int HbItemHighlight::type(void) const
	?currentSelectionChanged@HbTreeView@@MAEXABVQItemSelection@@0@Z @ 2171 NONAME ; void HbTreeView::currentSelectionChanged(class QItemSelection const &, class QItemSelection const &)
	??1HbGridView@@UAE@XZ @ 2172 NONAME ; HbGridView::~HbGridView(void)
	??0HbTreeViewItem@@QAE@PAVQGraphicsItem@@@Z @ 2173 NONAME ; HbTreeViewItem::HbTreeViewItem(class QGraphicsItem *)
	?pressed@HbAbstractItemView@@IAEXABVQModelIndex@@@Z @ 2174 NONAME ; void HbAbstractItemView::pressed(class QModelIndex const &)
	?setUniformItemSizes@HbAbstractItemContainer@@QAEX_N@Z @ 2175 NONAME ABSENT ; void HbAbstractItemContainer::setUniformItemSizes(bool)
	??0HbAbstractViewItemPrivate@@QAE@PAVHbAbstractViewItem@@@Z @ 2176 NONAME ABSENT ; HbAbstractViewItemPrivate::HbAbstractViewItemPrivate(class HbAbstractViewItem *)
	??1HbAbstractItemView@@UAE@XZ @ 2177 NONAME ; HbAbstractItemView::~HbAbstractItemView(void)
	??_EHbListViewItem@@UAE@I@Z @ 2178 NONAME ; HbListViewItem::~HbListViewItem(unsigned int)
	?highlightMode@HbItemHighlight@@QBE?AW4HighlightMode@1@XZ @ 2179 NONAME ABSENT ; enum HbItemHighlight::HighlightMode HbItemHighlight::highlightMode(void) const
	?updateChildItems@HbTreeViewItem@@UAEXXZ @ 2180 NONAME ; void HbTreeViewItem::updateChildItems(void)
	?d_func@HbListViewItem@@AAEPAVHbListViewItemPrivate@@XZ @ 2181 NONAME ; class HbListViewItemPrivate * HbListViewItem::d_func(void)
	?thumbItem@HbProgressiveSlider@@QBEPAVQGraphicsWidget@@XZ @ 2182 NONAME ABSENT ; class QGraphicsWidget * HbProgressiveSlider::thumbItem(void) const
	?dataChanged@HbListView@@MAEXABVQModelIndex@@0@Z @ 2183 NONAME ; void HbListView::dataChanged(class QModelIndex const &, class QModelIndex const &)
	?orientationChanged@HbGridView@@MAEXW4Orientation@Qt@@@Z @ 2184 NONAME ; void HbGridView::orientationChanged(enum Qt::Orientation)
	?maxItemCount@HbAbstractItemContainer@@MBEHXZ @ 2185 NONAME ; int HbAbstractItemContainer::maxItemCount(void) const
	?tr@HbTreeViewItem@@SA?AVQString@@PBD0@Z @ 2186 NONAME ; class QString HbTreeViewItem::tr(char const *, char const *)
	?setLayoutName@HbAbstractItemView@@QAEXABVQString@@@Z @ 2187 NONAME ; void HbAbstractItemView::setLayoutName(class QString const &)
	?primitive@HbRatingSlider@@UBEPAVQGraphicsItem@@W4Primitive@HbStyle@@@Z @ 2188 NONAME ABSENT ; class QGraphicsItem * HbRatingSlider::primitive(enum HbStyle::Primitive) const
	?setText@HbListWidgetItem@@QAEXABVQString@@@Z @ 2189 NONAME ; void HbListWidgetItem::setText(class QString const &)
	?isFocused@HbAbstractViewItem@@QBE_NXZ @ 2190 NONAME ABSENT ; bool HbAbstractViewItem::isFocused(void) const
	?defaultFrame@HbAbstractViewItem@@QBE?AVHbFrameBackground@@XZ @ 2191 NONAME ; class HbFrameBackground HbAbstractViewItem::defaultFrame(void) const
	??0HbTreeLayout@@QAE@PAVQGraphicsLayoutItem@@@Z @ 2192 NONAME ; HbTreeLayout::HbTreeLayout(class QGraphicsLayoutItem *)
	??_EHbGridView@@UAE@I@Z @ 2193 NONAME ; HbGridView::~HbGridView(unsigned int)
	?q_func@HbAbstractItemViewPrivate@@ABEPBVHbAbstractItemView@@XZ @ 2194 NONAME ABSENT ; class HbAbstractItemView const * HbAbstractItemViewPrivate::q_func(void) const
	?type@HbListView@@UBEHXZ @ 2195 NONAME ; int HbListView::type(void) const
	?createItem@HbTreeViewItem@@UAEPAVHbAbstractViewItem@@XZ @ 2196 NONAME ; class HbAbstractViewItem * HbTreeViewItem::createItem(void)
	?setItemLevel@HbTreeLayout@@QAEXPAVQGraphicsLayoutItem@@H@Z @ 2197 NONAME ; void HbTreeLayout::setItemLevel(class QGraphicsLayoutItem *, int)
	?d_func@HbTreeView@@AAEPAVHbTreeViewPrivate@@XZ @ 2198 NONAME ; class HbTreeViewPrivate * HbTreeView::d_func(void)
	?_q_modelDestroyed@HbAbstractItemViewPrivate@@QAEXXZ @ 2199 NONAME ABSENT ; void HbAbstractItemViewPrivate::_q_modelDestroyed(void)
	?trUtf8@HbGridViewItem@@SA?AVQString@@PBD0@Z @ 2200 NONAME ; class QString HbGridViewItem::trUtf8(char const *, char const *)
	?tr@HbProgressiveSlider@@SA?AVQString@@PBD0@Z @ 2201 NONAME ABSENT ; class QString HbProgressiveSlider::tr(char const *, char const *)
	?setDuration@HbItemHighlight@@QAEXH@Z @ 2202 NONAME ABSENT ; void HbItemHighlight::setDuration(int)
	?text@HbGridViewItemPrivate@@QAE?AVQString@@ABVQVariant@@@Z @ 2203 NONAME ABSENT ; class QString HbGridViewItemPrivate::text(class QVariant const &)
	?animationTimeLine@HbItemHighlight@@QBEPAVQTimeLine@@XZ @ 2204 NONAME ABSENT ; class QTimeLine * HbItemHighlight::animationTimeLine(void) const
	?updatePrimitives@HbProgressiveSlider@@UAEXXZ @ 2205 NONAME ABSENT ; void HbProgressiveSlider::updatePrimitives(void)
	??0HbTreeView@@QAE@PAVQGraphicsItem@@@Z @ 2206 NONAME ; HbTreeView::HbTreeView(class QGraphicsItem *)
	?setState@HbAbstractViewItem@@UAEXABV?$QMap@HVQVariant@@@@@Z @ 2207 NONAME ABSENT ; void HbAbstractViewItem::setState(class QMap<int, class QVariant> const &)
	?mouseReleaseEvent@HbListView@@MAEXPAVQGraphicsSceneMouseEvent@@@Z @ 2208 NONAME ABSENT ; void HbListView::mouseReleaseEvent(class QGraphicsSceneMouseEvent *)
	?container@HbAbstractItemView@@IBEPAVHbAbstractItemContainer@@XZ @ 2209 NONAME ABSENT ; class HbAbstractItemContainer * HbAbstractItemView::container(void) const
	?takeItem@HbListWidget@@QAEPAVHbListWidgetItem@@H@Z @ 2210 NONAME ; class HbListWidgetItem * HbListWidget::takeItem(int)
	?mouseReleaseEvent@HbTreeViewItem@@MAEXPAVQGraphicsSceneMouseEvent@@@Z @ 2211 NONAME ABSENT ; void HbTreeViewItem::mouseReleaseEvent(class QGraphicsSceneMouseEvent *)
	?uniformItemSizes@HbAbstractItemContainer@@QBE_NXZ @ 2212 NONAME ; bool HbAbstractItemContainer::uniformItemSizes(void) const
	?d_func@HbListView@@AAEPAVHbListViewPrivate@@XZ @ 2213 NONAME ; class HbListViewPrivate * HbListView::d_func(void)
	?setEnabled@HbListWidgetItem@@QAEX_N@Z @ 2214 NONAME ; void HbListWidgetItem::setEnabled(bool)
	?setSelectionModel@HbAbstractItemView@@QAEXPAVQItemSelectionModel@@@Z @ 2215 NONAME ; void HbAbstractItemView::setSelectionModel(class QItemSelectionModel *)
	??_EHbListView@@UAE@I@Z @ 2216 NONAME ; HbListView::~HbListView(unsigned int)
	?staticMetaObject@HbTreeViewItem@@2UQMetaObject@@B @ 2217 NONAME ; struct QMetaObject const HbTreeViewItem::staticMetaObject
	?setCurrentItem@HbListWidget@@QAEXPAVHbListWidgetItem@@@Z @ 2218 NONAME ; void HbListWidget::setCurrentItem(class HbListWidgetItem *)
	?addItem@HbTreeLayout@@QAEXPAVQGraphicsLayoutItem@@H@Z @ 2219 NONAME ABSENT ; void HbTreeLayout::addItem(class QGraphicsLayoutItem *, int)
	??0HbListViewPrivate@@QAE@XZ @ 2220 NONAME ABSENT ; HbListViewPrivate::HbListViewPrivate(void)
	??1HbListWidget@@UAE@XZ @ 2221 NONAME ; HbListWidget::~HbListWidget(void)
	?getStaticMetaObject@HbGridView@@SAABUQMetaObject@@XZ @ 2222 NONAME ; struct QMetaObject const & HbGridView::getStaticMetaObject(void)
	?appendRow@HbListModel@@QAEXPAVHbListWidgetItem@@@Z @ 2223 NONAME ; void HbListModel::appendRow(class HbListWidgetItem *)
	?trUtf8@HbTreeView@@SA?AVQString@@PBD0@Z @ 2224 NONAME ; class QString HbTreeView::trUtf8(char const *, char const *)
	??4HbListViewItemPrivate@@QAEAAV0@ABV0@@Z @ 2225 NONAME ABSENT ; class HbListViewItemPrivate & HbListViewItemPrivate::operator=(class HbListViewItemPrivate const &)
	?createItem@HbListViewItem@@UAEPAVHbAbstractViewItem@@XZ @ 2226 NONAME ; class HbAbstractViewItem * HbListViewItem::createItem(void)
	??0HbAbstractItemView@@IAE@AAVHbAbstractItemViewPrivate@@PAVHbAbstractItemContainer@@PAVQGraphicsItem@@@Z @ 2227 NONAME ABSENT ; HbAbstractItemView::HbAbstractItemView(class HbAbstractItemViewPrivate &, class HbAbstractItemContainer *, class QGraphicsItem *)
	?itemPrototypes@HbAbstractItemView@@QBE?AV?$QList@PAVHbAbstractViewItem@@@@XZ @ 2228 NONAME ; class QList<class HbAbstractViewItem *> HbAbstractItemView::itemPrototypes(void) const
	?tr@HbItemHighlight@@SA?AVQString@@PBD0@Z @ 2229 NONAME ABSENT ; class QString HbItemHighlight::tr(char const *, char const *)
	??0HbListViewItem@@IAE@ABV0@@Z @ 2230 NONAME ; HbListViewItem::HbListViewItem(class HbListViewItem const &)
	?rootIndex@HbAbstractItemView@@QBE?AVQModelIndex@@XZ @ 2231 NONAME ; class QModelIndex HbAbstractItemView::rootIndex(void) const
	??0HbAbstractItemViewPrivate@@QAE@XZ @ 2232 NONAME ABSENT ; HbAbstractItemViewPrivate::HbAbstractItemViewPrivate(void)
	??1HbListViewPrivate@@UAE@XZ @ 2233 NONAME ABSENT ; HbListViewPrivate::~HbListViewPrivate(void)
	?tr@HbGridViewItem@@SA?AVQString@@PBD0@Z @ 2234 NONAME ; class QString HbGridViewItem::tr(char const *, char const *)
	?setSecondaryText@HbListWidgetItem@@QAEXABVQString@@@Z @ 2235 NONAME ; void HbListWidgetItem::setSecondaryText(class QString const &)
	?setThumbIcon@HbProgressiveSlider@@QAEXABVHbIcon@@@Z @ 2236 NONAME ABSENT ; void HbProgressiveSlider::setThumbIcon(class HbIcon const &)
	??_EHbAbstractItemView@@UAE@I@Z @ 2237 NONAME ; HbAbstractItemView::~HbAbstractItemView(unsigned int)
	?trUtf8@HbAbstractViewItem@@SA?AVQString@@PBD0@Z @ 2238 NONAME ; class QString HbAbstractViewItem::trUtf8(char const *, char const *)
	?eventFilter@HbItemHighlight@@UAE_NPAVQObject@@PAVQEvent@@@Z @ 2239 NONAME ABSENT ; bool HbItemHighlight::eventFilter(class QObject *, class QEvent *)
	?itemBoundingRect@HbAbstractItemViewPrivate@@QBE?AVQRectF@@PBVQGraphicsItem@@@Z @ 2240 NONAME ABSENT ; class QRectF HbAbstractItemViewPrivate::itemBoundingRect(class QGraphicsItem const *) const
	??0HbGridView@@QAE@PAVQGraphicsItem@@@Z @ 2241 NONAME ; HbGridView::HbGridView(class QGraphicsItem *)
	?setBufferSize@HbAbstractItemView@@QAEXH@Z @ 2242 NONAME ABSENT ; void HbAbstractItemView::setBufferSize(int)
	?q_func@HbGridViewItemPrivate@@ABEPBVHbGridViewItem@@XZ @ 2243 NONAME ABSENT ; class HbGridViewItem const * HbGridViewItemPrivate::q_func(void) const
	?tr@HbListView@@SA?AVQString@@PBD0H@Z @ 2244 NONAME ; class QString HbListView::tr(char const *, char const *, int)
	?unRatedIconName@HbRatingSlider@@QBE?AVQString@@XZ @ 2245 NONAME ; class QString HbRatingSlider::unRatedIconName(void) const
	?q_func@HbListViewPrivate@@AAEPAVHbListView@@XZ @ 2246 NONAME ABSENT ; class HbListView * HbListViewPrivate::q_func(void)
	?itemAt@HbAbstractItemViewPrivate@@QBEPAVHbAbstractViewItem@@ABVQPointF@@@Z @ 2247 NONAME ABSENT ; class HbAbstractViewItem * HbAbstractItemViewPrivate::itemAt(class QPointF const &) const
	?updatePrimitives@HbAbstractViewItem@@UAEXXZ @ 2248 NONAME ; void HbAbstractViewItem::updatePrimitives(void)
	?model@HbAbstractItemView@@QBEPAVQAbstractItemModel@@XZ @ 2249 NONAME ; class QAbstractItemModel * HbAbstractItemView::model(void) const
	?prototype@HbAbstractViewItem@@QBEPAV1@XZ @ 2250 NONAME ; class HbAbstractViewItem * HbAbstractViewItem::prototype(void) const
	?tr@HbAbstractViewItem@@SA?AVQString@@PBD0@Z @ 2251 NONAME ; class QString HbAbstractViewItem::tr(char const *, char const *)
	?sliderMoved@HbProgressiveSlider@@IAEXH@Z @ 2252 NONAME ABSENT ; void HbProgressiveSlider::sliderMoved(int)
	?qt_metacast@HbTreeViewItem@@UAEPAXPBD@Z @ 2253 NONAME ; void * HbTreeViewItem::qt_metacast(char const *)
	?updateScrollBarForVariableSizedItems@HbAbstractItemViewPrivate@@QAEXXZ @ 2254 NONAME ABSENT ; void HbAbstractItemViewPrivate::updateScrollBarForVariableSizedItems(void)
	?updateScrollBar@HbAbstractItemViewPrivate@@UAEXW4Orientation@Qt@@@Z @ 2255 NONAME ABSENT ; void HbAbstractItemViewPrivate::updateScrollBar(enum Qt::Orientation)
	?staticMetaObject@HbListViewItem@@2UQMetaObject@@B @ 2256 NONAME ; struct QMetaObject const HbListViewItem::staticMetaObject
	?setItemPrototype@HbAbstractItemContainer@@QAE_NPAVHbAbstractViewItem@@@Z @ 2257 NONAME ; bool HbAbstractItemContainer::setItemPrototype(class HbAbstractViewItem *)
	?trUtf8@HbListWidget@@SA?AVQString@@PBD0@Z @ 2258 NONAME ; class QString HbListWidget::trUtf8(char const *, char const *)
	??0HbTreeViewItem@@IAE@AAVHbTreeViewItemPrivate@@PAVQGraphicsItem@@@Z @ 2259 NONAME ; HbTreeViewItem::HbTreeViewItem(class HbTreeViewItemPrivate &, class QGraphicsItem *)
	?trUtf8@HbListView@@SA?AVQString@@PBD0@Z @ 2260 NONAME ; class QString HbListView::trUtf8(char const *, char const *)
	?displayPrimitive@HbListViewItemPrivate@@QBE?AW4Primitive@HbStyle@@XZ @ 2261 NONAME ABSENT ; enum HbStyle::Primitive HbListViewItemPrivate::displayPrimitive(void) const
	?event@HbAbstractItemContainer@@MAE_NPAVQEvent@@@Z @ 2262 NONAME ; bool HbAbstractItemContainer::event(class QEvent *)
	?thumbIcon@HbProgressiveSlider@@QBE?AVHbIcon@@XZ @ 2263 NONAME ABSENT ; class HbIcon HbProgressiveSlider::thumbIcon(void) const
	?columnsAboutToBeInserted@HbAbstractItemView@@MAEXABVQModelIndex@@HH@Z @ 2264 NONAME ; void HbAbstractItemView::columnsAboutToBeInserted(class QModelIndex const &, int, int)
	?scrollTo@HbSettingForm@@UAEXABVQModelIndex@@W4ScrollHint@QAbstractItemView@@@Z @ 2265 NONAME ABSENT ; void HbSettingForm::scrollTo(class QModelIndex const &, enum QAbstractItemView::ScrollHint)
	?rowCount@HbListModel@@UBEHABVQModelIndex@@@Z @ 2266 NONAME ; int HbListModel::rowCount(class QModelIndex const &) const
	?q_func@HbListViewItemPrivate@@ABEPBVHbListViewItem@@XZ @ 2267 NONAME ABSENT ; class HbListViewItem const * HbListViewItemPrivate::q_func(void) const
	?mousePressEvent@HbTreeViewItem@@MAEXPAVQGraphicsSceneMouseEvent@@@Z @ 2268 NONAME ABSENT ; void HbTreeViewItem::mousePressEvent(class QGraphicsSceneMouseEvent *)
	??0HbListView@@IAE@AAVHbListViewPrivate@@PAVHbAbstractItemContainer@@PAVQGraphicsItem@@@Z @ 2269 NONAME ; HbListView::HbListView(class HbListViewPrivate &, class HbAbstractItemContainer *, class QGraphicsItem *)
	?updatePrimitives@HbTreeViewItem@@UAEXXZ @ 2270 NONAME ; void HbTreeViewItem::updatePrimitives(void)
	?trUtf8@HbItemHighlight@@SA?AVQString@@PBD0H@Z @ 2271 NONAME ABSENT ; class QString HbItemHighlight::trUtf8(char const *, char const *, int)
	?tr@HbTreeViewItem@@SA?AVQString@@PBD0H@Z @ 2272 NONAME ; class QString HbTreeViewItem::tr(char const *, char const *, int)
	?trUtf8@HbProgressiveSlider@@SA?AVQString@@PBD0@Z @ 2273 NONAME ABSENT ; class QString HbProgressiveSlider::trUtf8(char const *, char const *)
	?d_func@HbAbstractViewItem@@AAEPAVHbAbstractViewItemPrivate@@XZ @ 2274 NONAME ; class HbAbstractViewItemPrivate * HbAbstractViewItem::d_func(void)
	?metaObject@HbListModel@@UBEPBUQMetaObject@@XZ @ 2275 NONAME ; struct QMetaObject const * HbListModel::metaObject(void) const
	?type@HbGridViewItem@@UBEHXZ @ 2276 NONAME ; int HbGridViewItem::type(void) const
	?setItemPrototypes@HbAbstractItemView@@QAEXABV?$QList@PAVHbAbstractViewItem@@@@@Z @ 2277 NONAME ; void HbAbstractItemView::setItemPrototypes(class QList<class HbAbstractViewItem *> const &)
	?trUtf8@HbGridView@@SA?AVQString@@PBD0H@Z @ 2278 NONAME ; class QString HbGridView::trUtf8(char const *, char const *, int)
	?clearSelection@HbAbstractItemView@@UAEXXZ @ 2279 NONAME ; void HbAbstractItemView::clearSelection(void)
	?mouseReleaseEvent@HbAbstractViewItem@@MAEXPAVQGraphicsSceneMouseEvent@@@Z @ 2280 NONAME ABSENT ; void HbAbstractViewItem::mouseReleaseEvent(class QGraphicsSceneMouseEvent *)
	?keyPressEvent@HbAbstractItemView@@MAEXPAVQKeyEvent@@@Z @ 2281 NONAME ABSENT ; void HbAbstractItemView::keyPressEvent(class QKeyEvent *)
	?released@HbListWidget@@IAEXPAVHbListWidgetItem@@@Z @ 2282 NONAME ; void HbListWidget::released(class HbListWidgetItem *)
	??0HbAbstractViewItem@@QAE@PAVQGraphicsItem@@@Z @ 2283 NONAME ; HbAbstractViewItem::HbAbstractViewItem(class QGraphicsItem *)
	?currentSelectionChanged@HbAbstractItemView@@MAEXABVQItemSelection@@0@Z @ 2284 NONAME ; void HbAbstractItemView::currentSelectionChanged(class QItemSelection const &, class QItemSelection const &)
	?selectionModel@HbAbstractItemView@@QBEPAVQItemSelectionModel@@XZ @ 2285 NONAME ; class QItemSelectionModel * HbAbstractItemView::selectionModel(void) const
	?index@HbListModel@@QBE?AVQModelIndex@@PAVHbListWidgetItem@@@Z @ 2286 NONAME ; class QModelIndex HbListModel::index(class HbListWidgetItem *) const
	?setItemStateValue@HbAbstractItemContainer@@QAEXABVQModelIndex@@HVQVariant@@@Z @ 2287 NONAME ABSENT ; void HbAbstractItemContainer::setItemStateValue(class QModelIndex const &, int, class QVariant)
	?setText@HbListWidget@@QAEXHABVQString@@@Z @ 2288 NONAME ; void HbListWidget::setText(int, class QString const &)
	?removeRows@HbListModel@@UAE_NHHABVQModelIndex@@@Z @ 2289 NONAME ; bool HbListModel::removeRows(int, int, class QModelIndex const &)
	?removeAllConnection@HbDataForm@@QAEXPAVHbDataFormModelItem@@@Z @ 2290 NONAME ; void HbDataForm::removeAllConnection(class HbDataFormModelItem *)
	?scrollTo@HbGridView@@UAEXABVQModelIndex@@W4ScrollHint@QAbstractItemView@@@Z @ 2291 NONAME ABSENT ; void HbGridView::scrollTo(class QModelIndex const &, enum QAbstractItemView::ScrollHint)
	?getStaticMetaObject@HbItemHighlight@@SAABUQMetaObject@@XZ @ 2292 NONAME ABSENT ; struct QMetaObject const & HbItemHighlight::getStaticMetaObject(void)
	?setPressed@HbAbstractViewItem@@QAEX_N0@Z @ 2293 NONAME ABSENT ; void HbAbstractViewItem::setPressed(bool, bool)
	?mousePressEvent@HbListView@@MAEXPAVQGraphicsSceneMouseEvent@@@Z @ 2294 NONAME ABSENT ; void HbListView::mousePressEvent(class QGraphicsSceneMouseEvent *)
	?isTextValid@HbGridViewItemPrivate@@QBE_NABVQVariant@@@Z @ 2295 NONAME ABSENT ; bool HbGridViewItemPrivate::isTextValid(class QVariant const &) const
	?duration@HbItemHighlight@@QBEHW4HighlightMode@1@@Z @ 2296 NONAME ABSENT ; int HbItemHighlight::duration(enum HbItemHighlight::HighlightMode) const
	?textVisible@HbGridView@@QBE_NXZ @ 2297 NONAME ; bool HbGridView::textVisible(void) const
	?tr@HbAbstractItemContainer@@SA?AVQString@@PBD0@Z @ 2298 NONAME ; class QString HbAbstractItemContainer::tr(char const *, char const *)
	?restore@HbItemHighlight@@UAEXPAVQGraphicsWidget@@@Z @ 2299 NONAME ABSENT ; void HbItemHighlight::restore(class QGraphicsWidget *)
	??0HbDateTimeEdit@@QAE@ABVQDate@@PAVQGraphicsItem@@@Z @ 2300 NONAME ABSENT ; HbDateTimeEdit::HbDateTimeEdit(class QDate const &, class QGraphicsItem *)
	?setRatedIconName@HbRatingSlider@@QAEXVQString@@@Z @ 2301 NONAME ; void HbRatingSlider::setRatedIconName(class QString)
	??0HbAbstractViewItem@@IAE@ABV0@@Z @ 2302 NONAME ; HbAbstractViewItem::HbAbstractViewItem(class HbAbstractViewItem const &)
	?qt_metacast@HbGridView@@UAEPAXPBD@Z @ 2303 NONAME ; void * HbGridView::qt_metacast(char const *)
	?viewResized@HbListItemContainer@@MAEXABVQSizeF@@@Z @ 2304 NONAME ABSENT ; void HbListItemContainer::viewResized(class QSizeF const &)
	?setThumbItem@HbProgressiveSlider@@QAEXPAVQGraphicsWidget@@@Z @ 2305 NONAME ABSENT ; void HbProgressiveSlider::setThumbItem(class QGraphicsWidget *)
	?d_func@HbAbstractItemView@@AAEPAVHbAbstractItemViewPrivate@@XZ @ 2306 NONAME ; class HbAbstractItemViewPrivate * HbAbstractItemView::d_func(void)
	?indexPosition@HbAbstractItemView@@UBEHABVQModelIndex@@@Z @ 2307 NONAME ABSENT ; int HbAbstractItemView::indexPosition(class QModelIndex const &) const
	?contiguousSelectionArea@HbAbstractViewItem@@UBE?AVQRectF@@XZ @ 2308 NONAME ABSENT ; class QRectF HbAbstractViewItem::contiguousSelectionArea(void) const
	?tr@HbListWidget@@SA?AVQString@@PBD0H@Z @ 2309 NONAME ; class QString HbListWidget::tr(char const *, char const *, int)
	?setNumberOfIcons@HbRatingSlider@@QAEXH@Z @ 2310 NONAME ; void HbRatingSlider::setNumberOfIcons(int)
	?hasTracking@HbProgressiveSlider@@QBE_NXZ @ 2311 NONAME ABSENT ; bool HbProgressiveSlider::hasTracking(void) const
	?keyReleaseEvent@HbAbstractItemView@@MAEXPAVQKeyEvent@@@Z @ 2312 NONAME ABSENT ; void HbAbstractItemView::keyReleaseEvent(class QKeyEvent *)
	?d_func@HbProgressiveSlider@@AAEPAVHbProgressiveSliderPrivate@@XZ @ 2313 NONAME ABSENT ; class HbProgressiveSliderPrivate * HbProgressiveSlider::d_func(void)
	?q_func@HbAbstractViewItemPrivate@@AAEPAVHbAbstractViewItem@@XZ @ 2314 NONAME ABSENT ; class HbAbstractViewItem * HbAbstractViewItemPrivate::q_func(void)
	?getInteger@HbInputDialog@@SAHABVQString@@HPA_NPAVQGraphicsScene@@PAVQGraphicsItem@@@Z @ 2315 NONAME ABSENT ; int HbInputDialog::getInteger(class QString const &, int, bool *, class QGraphicsScene *, class QGraphicsItem *)
	?removeItem@HbTreeLayout@@QAEXPAVQGraphicsLayoutItem@@@Z @ 2316 NONAME ABSENT ; void HbTreeLayout::removeItem(class QGraphicsLayoutItem *)
	?iconVisible@HbGridView@@QBE_NXZ @ 2317 NONAME ; bool HbGridView::iconVisible(void) const
	?removeConnection@HbDataForm@@QAEXPAVHbDataFormModelItem@@VQString@@PAVQObject@@1@Z @ 2318 NONAME ABSENT ; void HbDataForm::removeConnection(class HbDataFormModelItem *, class QString, class QObject *, class QString)
	?qt_metacall@HbItemHighlight@@UAEHW4Call@QMetaObject@@HPAPAX@Z @ 2319 NONAME ABSENT ; int HbItemHighlight::qt_metacall(enum QMetaObject::Call, int, void * *)
	?event@HbAbstractItemView@@MAE_NPAVQEvent@@@Z @ 2320 NONAME ; bool HbAbstractItemView::event(class QEvent *)
	?eventFilter@HbAbstractItemContainer@@UAE_NPAVQObject@@PAVQEvent@@@Z @ 2321 NONAME ; bool HbAbstractItemContainer::eventFilter(class QObject *, class QEvent *)
	?d_func@HbGridViewItem@@ABEPBVHbGridViewItemPrivate@@XZ @ 2322 NONAME ; class HbGridViewItemPrivate const * HbGridViewItem::d_func(void) const
	??0HbGridViewItemPrivate@@QAE@PAVHbAbstractViewItem@@@Z @ 2323 NONAME ABSENT ; HbGridViewItemPrivate::HbGridViewItemPrivate(class HbAbstractViewItem *)
	?initializeNewModel@HbAbstractItemViewPrivate@@QAEXXZ @ 2324 NONAME ABSENT ; void HbAbstractItemViewPrivate::initializeNewModel(void)
	?move@HbListView@@MAEXABVQModelIndex@@0@Z @ 2325 NONAME ; void HbListView::move(class QModelIndex const &, class QModelIndex const &)
	?currentIndexChanged@HbAbstractItemView@@MAEXABVQModelIndex@@0@Z @ 2326 NONAME ; void HbAbstractItemView::currentIndexChanged(class QModelIndex const &, class QModelIndex const &)
	?selectionMode@HbAbstractItemView@@QBE?AW4SelectionMode@1@XZ @ 2327 NONAME ; enum HbAbstractItemView::SelectionMode HbAbstractItemView::selectionMode(void) const
	?tr@HbAbstractViewItem@@SA?AVQString@@PBD0H@Z @ 2328 NONAME ; class QString HbAbstractViewItem::tr(char const *, char const *, int)
	?indexOf@HbTreeLayout@@QBEHPAVQGraphicsLayoutItem@@@Z @ 2329 NONAME ; int HbTreeLayout::indexOf(class QGraphicsLayoutItem *) const
	?contiguousSelectionCommand@HbAbstractItemViewPrivate@@QAE?AV?$QFlags@W4SelectionFlag@QItemSelectionModel@@@@PBVHbAbstractViewItem@@PBVQEvent@@_N@Z @ 2330 NONAME ABSENT ; class QFlags<enum QItemSelectionModel::SelectionFlag> HbAbstractItemViewPrivate::contiguousSelectionCommand(class HbAbstractViewItem const *, class QEvent const *, bool)
	??_EHbListModel@@UAE@I@Z @ 2331 NONAME ; HbListModel::~HbListModel(unsigned int)
	??0HbListViewItem@@QAE@PAVQGraphicsItem@@@Z @ 2332 NONAME ; HbListViewItem::HbListViewItem(class QGraphicsItem *)
	?setUnRatedIconName@HbRatingSlider@@QAEXVQString@@@Z @ 2333 NONAME ; void HbRatingSlider::setUnRatedIconName(class QString)
	?multiSelectionCommand@HbAbstractItemViewPrivate@@QAE?AV?$QFlags@W4SelectionFlag@QItemSelectionModel@@@@PBVHbAbstractViewItem@@PBVQEvent@@@Z @ 2334 NONAME ABSENT ; class QFlags<enum QItemSelectionModel::SelectionFlag> HbAbstractItemViewPrivate::multiSelectionCommand(class HbAbstractViewItem const *, class QEvent const *)
	?sliderValueChanged@HbProgressiveSlider@@IAEXH@Z @ 2335 NONAME ABSENT ; void HbProgressiveSlider::sliderValueChanged(int)
	?d_func@HbListWidget@@ABEPBVHbListWidgetPrivate@@XZ @ 2336 NONAME ; class HbListWidgetPrivate const * HbListWidget::d_func(void) const
	?indexCount@HbTreeView@@UBEHXZ @ 2337 NONAME ABSENT ; int HbTreeView::indexCount(void) const
	?init@HbAbstractViewItemPrivate@@QAEXXZ @ 2338 NONAME ABSENT ; void HbAbstractViewItemPrivate::init(void)
	?trUtf8@HbListModel@@SA?AVQString@@PBD0H@Z @ 2339 NONAME ABSENT ; class QString HbListModel::trUtf8(char const *, char const *, int)
	?arrangeMode@HbListView@@QBE_NXZ @ 2340 NONAME ; bool HbListView::arrangeMode(void) const
	?rowsRemoved@HbListView@@MAEXABVQModelIndex@@HH@Z @ 2341 NONAME ; void HbListView::rowsRemoved(class QModelIndex const &, int, int)
	?rowsAboutToBeRemoved@HbTreeView@@MAEXABVQModelIndex@@HH@Z @ 2342 NONAME ; void HbTreeView::rowsAboutToBeRemoved(class QModelIndex const &, int, int)
	?trUtf8@HbProgressiveSlider@@SA?AVQString@@PBD0H@Z @ 2343 NONAME ABSENT ; class QString HbProgressiveSlider::trUtf8(char const *, char const *, int)
	?setHandleToolTip@HbProgressiveSlider@@QAEXABVQString@@@Z @ 2344 NONAME ABSENT ; void HbProgressiveSlider::setHandleToolTip(class QString const &)
	?layoutName@HbAbstractItemView@@QBE?AVQString@@XZ @ 2345 NONAME ; class QString HbAbstractItemView::layoutName(void) const
	?setInvertedAppearance@HbProgressiveSlider@@UAEX_N@Z @ 2346 NONAME ABSENT ; void HbProgressiveSlider::setInvertedAppearance(bool)
	?setDecorationIcon@HbListWidgetItem@@QAEXABVHbIcon@@@Z @ 2347 NONAME ABSENT ; void HbListWidgetItem::setDecorationIcon(class HbIcon const &)
	??0HbTreeView@@IAE@AAVHbTreeViewPrivate@@PAVHbAbstractItemContainer@@PAVQGraphicsItem@@@Z @ 2348 NONAME ; HbTreeView::HbTreeView(class HbTreeViewPrivate &, class HbAbstractItemContainer *, class QGraphicsItem *)
	?itemChanged@HbListModel@@QAEXPAVHbListWidgetItem@@@Z @ 2349 NONAME ; void HbListModel::itemChanged(class HbListWidgetItem *)
	?modelItemType@HbAbstractViewItemPrivate@@UBEHXZ @ 2350 NONAME ABSENT ; int HbAbstractViewItemPrivate::modelItemType(void) const
	?setItemView@HbAbstractViewItem@@QAEXPAVHbAbstractItemView@@@Z @ 2351 NONAME ; void HbAbstractViewItem::setItemView(class HbAbstractItemView *)
	?firstItemIndex@HbAbstractItemContainer@@QBE?AVQModelIndex@@XZ @ 2352 NONAME ABSENT ; class QModelIndex HbAbstractItemContainer::firstItemIndex(void) const
	?d_func@HbItemHighlight@@AAEPAVHbItemHighlightPrivate@@XZ @ 2353 NONAME ABSENT ; class HbItemHighlightPrivate * HbItemHighlight::d_func(void)
	?tr@HbTreeView@@SA?AVQString@@PBD0@Z @ 2354 NONAME ; class QString HbTreeView::tr(char const *, char const *)
	?currentRating@HbRatingSlider@@QBEHXZ @ 2355 NONAME ; int HbRatingSlider::currentRating(void) const
	?qt_metacast@HbListViewItem@@UAEPAXPBD@Z @ 2356 NONAME ; void * HbListViewItem::qt_metacast(char const *)
	?metaObject@HbTreeView@@UBEPBUQMetaObject@@XZ @ 2357 NONAME ; struct QMetaObject const * HbTreeView::metaObject(void) const
	?rowsAboutToBeRemoved@HbAbstractItemView@@MAEXABVQModelIndex@@HH@Z @ 2358 NONAME ; void HbAbstractItemView::rowsAboutToBeRemoved(class QModelIndex const &, int, int)
	?pressed@HbListWidget@@IAEXPAVHbListWidgetItem@@@Z @ 2359 NONAME ; void HbListWidget::pressed(class HbListWidgetItem *)
	?scrollTo@HbDataForm@@UAEXABVQModelIndex@@W4ScrollHint@QAbstractItemView@@@Z @ 2360 NONAME ABSENT ; void HbDataForm::scrollTo(class QModelIndex const &, enum QAbstractItemView::ScrollHint)
	?metaObject@HbAbstractItemView@@UBEPBUQMetaObject@@XZ @ 2361 NONAME ; struct QMetaObject const * HbAbstractItemView::metaObject(void) const
	??0HbListWidget@@IAE@AAVHbListWidgetPrivate@@PAVHbAbstractItemContainer@@PAVQGraphicsItem@@@Z @ 2362 NONAME ; HbListWidget::HbListWidget(class HbListWidgetPrivate &, class HbAbstractItemContainer *, class QGraphicsItem *)
	?d_func@HbListItemContainer@@ABEPBVHbListItemContainerPrivate@@XZ @ 2363 NONAME ABSENT ; class HbListItemContainerPrivate const * HbListItemContainer::d_func(void) const
	?rowsAboutToBeInserted@HbAbstractItemView@@MAEXABVQModelIndex@@HH@Z @ 2364 NONAME ; void HbAbstractItemView::rowsAboutToBeInserted(class QModelIndex const &, int, int)
	?index@HbListModel@@UBE?AVQModelIndex@@HHABV2@@Z @ 2365 NONAME ; class QModelIndex HbListModel::index(int, int, class QModelIndex const &) const
	?setTracking@HbProgressiveSlider@@QAEX_N@Z @ 2366 NONAME ABSENT ; void HbProgressiveSlider::setTracking(bool)
	?qt_metacall@HbTreeViewItem@@UAEHW4Call@QMetaObject@@HPAPAX@Z @ 2367 NONAME ; int HbTreeViewItem::qt_metacall(enum QMetaObject::Call, int, void * *)
	?itemPrototypes@HbAbstractItemContainer@@QBE?AV?$QList@PAVHbAbstractViewItem@@@@XZ @ 2368 NONAME ; class QList<class HbAbstractViewItem *> HbAbstractItemContainer::itemPrototypes(void) const
	?setItemPrototype@HbAbstractItemView@@QAEXPAVHbAbstractViewItem@@@Z @ 2369 NONAME ; void HbAbstractItemView::setItemPrototype(class HbAbstractViewItem *)
	??_EHbItemHighlight@@UAE@I@Z @ 2370 NONAME ABSENT ; HbItemHighlight::~HbItemHighlight(unsigned int)
	?primitive@HbGridViewItem@@UBEPAVQGraphicsItem@@W4Primitive@HbStyle@@@Z @ 2371 NONAME ABSENT ; class QGraphicsItem * HbGridViewItem::primitive(enum HbStyle::Primitive) const
	?emitReleased@HbAbstractItemView@@MAEXABVQModelIndex@@@Z @ 2372 NONAME ; void HbAbstractItemView::emitReleased(class QModelIndex const &)
	?d_func@HbTreeViewItem@@ABEPBVHbTreeViewItemPrivate@@XZ @ 2373 NONAME ; class HbTreeViewItemPrivate const * HbTreeViewItem::d_func(void) const
	?mouseReleaseEvent@HbAbstractItemView@@MAEXPAVQGraphicsSceneMouseEvent@@@Z @ 2374 NONAME ABSENT ; void HbAbstractItemView::mouseReleaseEvent(class QGraphicsSceneMouseEvent *)
	?setArrangeMode@HbListWidget@@UAE_N_N@Z @ 2375 NONAME ; bool HbListWidget::setArrangeMode(bool)
	?qt_metacast@HbAbstractItemContainer@@UAEPAXPBD@Z @ 2376 NONAME ; void * HbAbstractItemContainer::qt_metacast(char const *)
	?leftGesture@HbAbstractItemView@@MAEXH@Z @ 2377 NONAME ABSENT ; void HbAbstractItemView::leftGesture(int)
	?setDefaultFrame@HbAbstractViewItem@@QAEXABVHbFrameBackground@@@Z @ 2378 NONAME ; void HbAbstractViewItem::setDefaultFrame(class HbFrameBackground const &)
	?d_func@HbTreeView@@ABEPBVHbTreeViewPrivate@@XZ @ 2379 NONAME ; class HbTreeViewPrivate const * HbTreeView::d_func(void) const
	?getStaticMetaObject@HbAbstractItemView@@SAABUQMetaObject@@XZ @ 2380 NONAME ; struct QMetaObject const & HbAbstractItemView::getStaticMetaObject(void)
	??0HbGridViewItem@@QAE@PAVQGraphicsItem@@@Z @ 2381 NONAME ; HbGridViewItem::HbGridViewItem(class QGraphicsItem *)
	?text@HbListWidgetItem@@QBE?AVQString@@XZ @ 2382 NONAME ; class QString HbListWidgetItem::text(void) const
	??_EHbTreeView@@UAE@I@Z @ 2383 NONAME ; HbTreeView::~HbTreeView(unsigned int)
	??0HbGridView@@IAE@AAVHbGridViewPrivate@@PAVHbAbstractItemContainer@@PAVQGraphicsItem@@@Z @ 2384 NONAME ; HbGridView::HbGridView(class HbGridViewPrivate &, class HbAbstractItemContainer *, class QGraphicsItem *)
	?staticMetaObject@HbItemHighlight@@2UQMetaObject@@B @ 2385 NONAME ABSENT ; struct QMetaObject const HbItemHighlight::staticMetaObject
	?setIconVisible@HbGridView@@QAEX_N@Z @ 2386 NONAME ; void HbGridView::setIconVisible(bool)
	?itemView@HbAbstractViewItem@@QBEPAVHbAbstractItemView@@XZ @ 2387 NONAME ; class HbAbstractItemView * HbAbstractViewItem::itemView(void) const
	?setCurrentRow@HbListWidget@@QAEXH@Z @ 2388 NONAME ; void HbListWidget::setCurrentRow(int)
	?setItemRecycling@HbAbstractItemContainer@@QAEX_N@Z @ 2389 NONAME ; void HbAbstractItemContainer::setItemRecycling(bool)
	?d_func@HbAbstractItemContainer@@AAEPAVHbAbstractItemContainerPrivate@@XZ @ 2390 NONAME ; class HbAbstractItemContainerPrivate * HbAbstractItemContainer::d_func(void)
	?createItem@HbGridViewItem@@UAEPAVHbAbstractViewItem@@XZ @ 2391 NONAME ; class HbAbstractViewItem * HbGridViewItem::createItem(void)
	?qt_metacall@HbGridViewItem@@UAEHW4Call@QMetaObject@@HPAPAX@Z @ 2392 NONAME ; int HbGridViewItem::qt_metacall(enum QMetaObject::Call, int, void * *)
	?longPress@HbGroupBox@@IAEXABVQPointF@@@Z @ 2393 NONAME ; void HbGroupBox::longPress(class QPointF const &)
	?setSecondaryDecorationIcon@HbListWidgetItem@@QAEXABVHbIcon@@@Z @ 2394 NONAME ABSENT ; void HbListWidgetItem::setSecondaryDecorationIcon(class HbIcon const &)
	??_EHbTreeViewItem@@UAE@I@Z @ 2395 NONAME ; HbTreeViewItem::~HbTreeViewItem(unsigned int)
	?sliderReleased@HbProgressiveSlider@@IAEXXZ @ 2396 NONAME ABSENT ; void HbProgressiveSlider::sliderReleased(void)
	?tr@HbListView@@SA?AVQString@@PBD0@Z @ 2397 NONAME ; class QString HbListView::tr(char const *, char const *)
	?mouseReleaseEvent@HbProgressiveSlider@@MAEXPAVQGraphicsSceneMouseEvent@@@Z @ 2398 NONAME ABSENT ; void HbProgressiveSlider::mouseReleaseEvent(class QGraphicsSceneMouseEvent *)
	?sliderPressed@HbProgressiveSlider@@IAEXXZ @ 2399 NONAME ABSENT ; void HbProgressiveSlider::sliderPressed(void)
	?d_func@HbListView@@ABEPBVHbListViewPrivate@@XZ @ 2400 NONAME ; class HbListViewPrivate const * HbListView::d_func(void) const
	?decorationPrimitive@HbListViewItemPrivate@@QAE?AW4Primitive@HbStyle@@ABVQVariant@@@Z @ 2401 NONAME ABSENT ; enum HbStyle::Primitive HbListViewItemPrivate::decorationPrimitive(class QVariant const &)
	?trUtf8@HbAbstractViewItem@@SA?AVQString@@PBD0H@Z @ 2402 NONAME ; class QString HbAbstractViewItem::trUtf8(char const *, char const *, int)
	?removeItemStates@HbAbstractItemContainer@@QAEXXZ @ 2403 NONAME ABSENT ; void HbAbstractItemContainer::removeItemStates(void)
	?previousIndex@HbTreeView@@UBE?AVQModelIndex@@ABV2@@Z @ 2404 NONAME ABSENT ; class QModelIndex HbTreeView::previousIndex(class QModelIndex const &) const
	?setGeometry@HbProgressiveSlider@@UAEXABVQRectF@@@Z @ 2405 NONAME ABSENT ; void HbProgressiveSlider::setGeometry(class QRectF const &)
	?type@HbListViewItem@@UBEHXZ @ 2406 NONAME ; int HbListViewItem::type(void) const
	?updateChildItems@HbAbstractViewItem@@UAEXXZ @ 2407 NONAME ; void HbAbstractViewItem::updateChildItems(void)
	?rowsRemoved@HbTreeView@@MAEXABVQModelIndex@@HH@Z @ 2408 NONAME ; void HbTreeView::rowsRemoved(class QModelIndex const &, int, int)
	?secondaryDecorationText@HbListWidgetItem@@QBE?AVQString@@XZ @ 2409 NONAME ABSENT ; class QString HbListWidgetItem::secondaryDecorationText(void) const
	?uniformItemSizes@HbAbstractItemView@@QBE_NXZ @ 2410 NONAME ; bool HbAbstractItemView::uniformItemSizes(void) const
	??0HbInputDialog@@IAE@AAVHbDialogPrivate@@PAVQGraphicsItem@@@Z @ 2411 NONAME ; HbInputDialog::HbInputDialog(class HbDialogPrivate &, class QGraphicsItem *)
	?qt_metacall@HbTreeView@@UAEHW4Call@QMetaObject@@HPAPAX@Z @ 2412 NONAME ; int HbTreeView::qt_metacall(enum QMetaObject::Call, int, void * *)
	?tr@HbListWidget@@SA?AVQString@@PBD0@Z @ 2413 NONAME ; class QString HbListWidget::tr(char const *, char const *)
	?columnsInserted@HbAbstractItemView@@MAEXABVQModelIndex@@HH@Z @ 2414 NONAME ; void HbAbstractItemView::columnsInserted(class QModelIndex const &, int, int)
	?addConnection@HbDataForm@@QAEXPAVHbDataFormModelItem@@VQString@@PAVQObject@@1@Z @ 2415 NONAME ABSENT ; void HbDataForm::addConnection(class HbDataFormModelItem *, class QString, class QObject *, class QString)
	?emitPressed@HbAbstractItemView@@MAEXABVQModelIndex@@@Z @ 2416 NONAME ; void HbAbstractItemView::emitPressed(class QModelIndex const &)
	?setBufferSize@HbAbstractItemContainer@@QAEXH@Z @ 2417 NONAME ABSENT ; void HbAbstractItemContainer::setBufferSize(int)
	?itemState@HbAbstractItemContainer@@QBE?AV?$QMap@HVQVariant@@@@ABVQModelIndex@@@Z @ 2418 NONAME ABSENT ; class QMap<int, class QVariant> HbAbstractItemContainer::itemState(class QModelIndex const &) const
	?setItemModelIndex@HbAbstractItemContainer@@MAEXPAVHbAbstractViewItem@@ABVQModelIndex@@@Z @ 2419 NONAME ; void HbAbstractItemContainer::setItemModelIndex(class HbAbstractViewItem *, class QModelIndex const &)
	?q_func@HbAbstractViewItemPrivate@@ABEPBVHbAbstractViewItem@@XZ @ 2420 NONAME ABSENT ; class HbAbstractViewItem const * HbAbstractViewItemPrivate::q_func(void) const
	?staticMetaObject@HbAbstractViewItem@@2UQMetaObject@@B @ 2421 NONAME ; struct QMetaObject const HbAbstractViewItem::staticMetaObject
	?scrollByItems@HbAbstractItemViewPrivate@@QAEX_NH@Z @ 2422 NONAME ABSENT ; void HbAbstractItemViewPrivate::scrollByItems(bool, int)
	??4HbGridViewItem@@IAEAAV0@ABV0@@Z @ 2423 NONAME ; class HbGridViewItem & HbGridViewItem::operator=(class HbGridViewItem const &)
	?reset@HbAbstractItemView@@UAEXXZ @ 2424 NONAME ; void HbAbstractItemView::reset(void)
	?setCurrentRating@HbRatingSlider@@QAEXH@Z @ 2425 NONAME ; void HbRatingSlider::setCurrentRating(int)
	?rowCount@HbGridView@@QBEHXZ @ 2426 NONAME ; int HbGridView::rowCount(void) const
	?staticMetaObject@HbAbstractItemContainer@@2UQMetaObject@@B @ 2427 NONAME ; struct QMetaObject const HbAbstractItemContainer::staticMetaObject
	?previousIndex@HbAbstractItemView@@UBE?AVQModelIndex@@ABV2@@Z @ 2428 NONAME ABSENT ; class QModelIndex HbAbstractItemView::previousIndex(class QModelIndex const &) const
	?trUtf8@HbGridViewItem@@SA?AVQString@@PBD0H@Z @ 2429 NONAME ; class QString HbGridViewItem::trUtf8(char const *, char const *, int)
	?currentRow@HbListWidget@@QBEHXZ @ 2430 NONAME ; int HbListWidget::currentRow(void) const
	?setData@HbListWidgetItem@@QAEXABVQVariant@@H@Z @ 2431 NONAME ; void HbListWidgetItem::setData(class QVariant const &, int)
	?updateChildItems@HbGridViewItem@@UAEXXZ @ 2432 NONAME ; void HbGridViewItem::updateChildItems(void)
	??1HbTreeViewItem@@UAE@XZ @ 2433 NONAME ; HbTreeViewItem::~HbTreeViewItem(void)
	?metaObject@HbListView@@UBEPBUQMetaObject@@XZ @ 2434 NONAME ; struct QMetaObject const * HbListView::metaObject(void) const
	?contiguousSelectionArea@HbListViewItem@@UBE?AVQRectF@@XZ @ 2435 NONAME ABSENT ; class QRectF HbListViewItem::contiguousSelectionArea(void) const
	?qt_metacall@HbListView@@UAEHW4Call@QMetaObject@@HPAPAX@Z @ 2436 NONAME ; int HbListView::qt_metacall(enum QMetaObject::Call, int, void * *)
	?setModelIndex@HbAbstractViewItem@@UAEXABVQModelIndex@@@Z @ 2437 NONAME ; void HbAbstractViewItem::setModelIndex(class QModelIndex const &)
	?setTarget@HbItemHighlight@@QAEXPAVQGraphicsWidget@@@Z @ 2438 NONAME ABSENT ; void HbItemHighlight::setTarget(class QGraphicsWidget *)
	?rowsInserted@HbListView@@MAEXABVQModelIndex@@HH@Z @ 2439 NONAME ; void HbListView::rowsInserted(class QModelIndex const &, int, int)
	?background@HbListWidgetItem@@QBE?AVQVariant@@XZ @ 2440 NONAME ; class QVariant HbListWidgetItem::background(void) const
	?itemRemoved@HbListItemContainer@@MAEXPAVHbAbstractViewItem@@@Z @ 2441 NONAME ABSENT ; void HbListItemContainer::itemRemoved(class HbAbstractViewItem *)
	?take@HbListModel@@QAEPAVHbListWidgetItem@@H@Z @ 2442 NONAME ; class HbListWidgetItem * HbListModel::take(int)
	?rowsRemoved@HbGridView@@MAEXABVQModelIndex@@HH@Z @ 2443 NONAME ; void HbGridView::rowsRemoved(class QModelIndex const &, int, int)
	?data@HbListModel@@UBE?AVQVariant@@ABVQModelIndex@@H@Z @ 2444 NONAME ; class QVariant HbListModel::data(class QModelIndex const &, int) const
	?metaObject@HbItemHighlight@@UBEPBUQMetaObject@@XZ @ 2445 NONAME ABSENT ; struct QMetaObject const * HbItemHighlight::metaObject(void) const
	?addItem@HbComboBox@@QAEXABVHbIcon@@ABVQString@@ABVQVariant@@@Z @ 2446 NONAME ; void HbComboBox::addItem(class HbIcon const &, class QString const &, class QVariant const &)
	?qt_metacast@HbItemHighlight@@UAEPAXPBD@Z @ 2447 NONAME ABSENT ; void * HbItemHighlight::qt_metacast(char const *)
	?insertItem@HbListWidget@@QAEXHABVQString@@@Z @ 2448 NONAME ; void HbListWidget::insertItem(int, class QString const &)
	?setItemState@HbAbstractItemContainer@@QAEXABVQModelIndex@@V?$QMap@HVQVariant@@@@@Z @ 2449 NONAME ABSENT ; void HbAbstractItemContainer::setItemState(class QModelIndex const &, class QMap<int, class QVariant>)
	?removeItems@HbAbstractItemContainer@@QAEXXZ @ 2450 NONAME ; void HbAbstractItemContainer::removeItems(void)
	?d_func@HbListViewItem@@ABEPBVHbListViewItemPrivate@@XZ @ 2451 NONAME ; class HbListViewItemPrivate const * HbListViewItem::d_func(void) const
	?setBackground@HbListWidgetItem@@QAEXABVQVariant@@@Z @ 2452 NONAME ; void HbListWidgetItem::setBackground(class QVariant const &)
	?setModelIndexes@HbAbstractItemContainer@@UAEXABVQModelIndex@@@Z @ 2453 NONAME ; void HbAbstractItemContainer::setModelIndexes(class QModelIndex const &)
	?tr@HbAbstractItemContainer@@SA?AVQString@@PBD0H@Z @ 2454 NONAME ; class QString HbAbstractItemContainer::tr(char const *, char const *, int)
	?polish@HbAbstractViewItem@@MAEXAAVHbStyleParameters@@@Z @ 2455 NONAME ; void HbAbstractViewItem::polish(class HbStyleParameters &)
	?tr@HbProgressiveSlider@@SA?AVQString@@PBD0H@Z @ 2456 NONAME ABSENT ; class QString HbProgressiveSlider::tr(char const *, char const *, int)
	?indexCount@HbAbstractItemView@@UBEHXZ @ 2457 NONAME ABSENT ; int HbAbstractItemView::indexCount(void) const
	?mouseMoveEvent@HbListView@@MAEXPAVQGraphicsSceneMouseEvent@@@Z @ 2458 NONAME ABSENT ; void HbListView::mouseMoveEvent(class QGraphicsSceneMouseEvent *)
	?itemByIndex@HbAbstractItemView@@QBEPAVHbAbstractViewItem@@ABVQModelIndex@@@Z @ 2459 NONAME ; class HbAbstractViewItem * HbAbstractItemView::itemByIndex(class QModelIndex const &) const
	?addItem@HbAbstractItemContainer@@UAEXABVQModelIndex@@@Z @ 2460 NONAME ABSENT ; void HbAbstractItemContainer::addItem(class QModelIndex const &)
	?nextIndex@HbTreeView@@UBE?AVQModelIndex@@ABV2@@Z @ 2461 NONAME ABSENT ; class QModelIndex HbTreeView::nextIndex(class QModelIndex const &) const
	??_EHbAbstractViewItem@@UAE@I@Z @ 2462 NONAME ; HbAbstractViewItem::~HbAbstractViewItem(unsigned int)
	?sliderValue@HbProgressiveSlider@@QBEHXZ @ 2463 NONAME ABSENT ; int HbProgressiveSlider::sliderValue(void) const
	?upGesture@HbAbstractItemView@@MAEXH@Z @ 2464 NONAME ABSENT ; void HbAbstractItemView::upGesture(int)
	?handleScrollBar@HbAbstractItemViewPrivate@@QAE_NW4Orientation@Qt@@@Z @ 2465 NONAME ABSENT ; bool HbAbstractItemViewPrivate::handleScrollBar(enum Qt::Orientation)
	?canFetchMore@HbDataFormModel@@UBE_NABVQModelIndex@@@Z @ 2466 NONAME ; bool HbDataFormModel::canFetchMore(class QModelIndex const &) const
	?setModel@HbAbstractItemView@@UAEXPAVQAbstractItemModel@@PAVHbAbstractViewItem@@@Z @ 2467 NONAME ; void HbAbstractItemView::setModel(class QAbstractItemModel *, class HbAbstractViewItem *)
	?insertItem@HbAbstractItemContainer@@IAEXHABVQModelIndex@@@Z @ 2468 NONAME ABSENT ; void HbAbstractItemContainer::insertItem(int, class QModelIndex const &)
	?changeEvent@HbRatingSlider@@MAEXPAVQEvent@@@Z @ 2469 NONAME ; void HbRatingSlider::changeEvent(class QEvent *)
	?trUtf8@HbItemHighlight@@SA?AVQString@@PBD0@Z @ 2470 NONAME ABSENT ; class QString HbItemHighlight::trUtf8(char const *, char const *)
	?setIcon@HbListWidget@@QAEXHABVHbIcon@@@Z @ 2471 NONAME ; void HbListWidget::setIcon(int, class HbIcon const &)
	??0HbListViewItemPrivate@@QAE@PAVHbListViewItem@@@Z @ 2472 NONAME ABSENT ; HbListViewItemPrivate::HbListViewItemPrivate(class HbListViewItem *)
	?downGesture@HbAbstractItemView@@MAEXH@Z @ 2473 NONAME ABSENT ; void HbAbstractItemView::downGesture(int)
	?getDouble@HbInputDialog@@SANABVQString@@NPA_NPAVQGraphicsScene@@PAVQGraphicsItem@@@Z @ 2474 NONAME ABSENT ; double HbInputDialog::getDouble(class QString const &, double, bool *, class QGraphicsScene *, class QGraphicsItem *)
	??0HbListViewItemPrivate@@QAE@ABV0@@Z @ 2475 NONAME ABSENT ; HbListViewItemPrivate::HbListViewItemPrivate(class HbListViewItemPrivate const &)
	??0HbDateTimeEdit@@QAE@ABVQDateTime@@PAVQGraphicsItem@@@Z @ 2476 NONAME ABSENT ; HbDateTimeEdit::HbDateTimeEdit(class QDateTime const &, class QGraphicsItem *)
	?columnCount@HbGridView@@QBEHXZ @ 2477 NONAME ; int HbGridView::columnCount(void) const
	?itemAtPosition@HbAbstractItemView@@QBEPAVHbAbstractViewItem@@ABVQPointF@@@Z @ 2478 NONAME ABSENT ; class HbAbstractViewItem * HbAbstractItemView::itemAtPosition(class QPointF const &) const
	?tr@HbListModel@@SA?AVQString@@PBD0H@Z @ 2479 NONAME ABSENT ; class QString HbListModel::tr(char const *, char const *, int)
	?setIndentation@HbTreeLayout@@QAEXM@Z @ 2480 NONAME ; void HbTreeLayout::setIndentation(float)
	?getStaticMetaObject@HbAbstractItemContainer@@SAABUQMetaObject@@XZ @ 2481 NONAME ; struct QMetaObject const & HbAbstractItemContainer::getStaticMetaObject(void)
	?initStyleOption@HbTreeViewItem@@IBEXPAVHbStyleOptionTreeViewItem@@@Z @ 2482 NONAME ABSENT ; void HbTreeViewItem::initStyleOption(class HbStyleOptionTreeViewItem *) const
	?trUtf8@HbTreeView@@SA?AVQString@@PBD0H@Z @ 2483 NONAME ; class QString HbTreeView::trUtf8(char const *, char const *, int)
	?tr@HbListViewItem@@SA?AVQString@@PBD0H@Z @ 2484 NONAME ; class QString HbListViewItem::tr(char const *, char const *, int)
	?dataChanged@HbTreeView@@MAEXABVQModelIndex@@0@Z @ 2485 NONAME ; void HbTreeView::dataChanged(class QModelIndex const &, class QModelIndex const &)
	?trUtf8@HbListModel@@SA?AVQString@@PBD0@Z @ 2486 NONAME ABSENT ; class QString HbListModel::trUtf8(char const *, char const *)
	?getStaticMetaObject@HbListModel@@SAABUQMetaObject@@XZ @ 2487 NONAME ; struct QMetaObject const & HbListModel::getStaticMetaObject(void)
	?metaObject@HbGridViewItem@@UBEPBUQMetaObject@@XZ @ 2488 NONAME ; struct QMetaObject const * HbGridViewItem::metaObject(void) const
	?setDecorationText@HbListWidgetItem@@QAEXABVQString@@@Z @ 2489 NONAME ABSENT ; void HbListWidgetItem::setDecorationText(class QString const &)
	?clearCurrentModel@HbAbstractItemViewPrivate@@QAEXXZ @ 2490 NONAME ABSENT ; void HbAbstractItemViewPrivate::clearCurrentModel(void)
	?d_func@HbListItemContainer@@AAEPAVHbListItemContainerPrivate@@XZ @ 2491 NONAME ABSENT ; class HbListItemContainerPrivate * HbListItemContainer::d_func(void)
	?setHighlightMode@HbItemHighlight@@QAEXW4HighlightMode@1@@Z @ 2492 NONAME ABSENT ; void HbItemHighlight::setHighlightMode(enum HbItemHighlight::HighlightMode)
	?icon@HbGridViewItemPrivate@@QAE?AVHbIcon@@ABVQVariant@@@Z @ 2493 NONAME ABSENT ; class HbIcon HbGridViewItemPrivate::icon(class QVariant const &)
	?qt_metacast@HbAbstractViewItem@@UAEPAXPBD@Z @ 2494 NONAME ; void * HbAbstractViewItem::qt_metacast(char const *)
	?removeAllConnection@HbDataForm@@QAEXXZ @ 2495 NONAME ; void HbDataForm::removeAllConnection(void)
	?getStaticMetaObject@HbTreeView@@SAABUQMetaObject@@XZ @ 2496 NONAME ; struct QMetaObject const & HbTreeView::getStaticMetaObject(void)
	??4HbAbstractViewItemPrivate@@QAEAAV0@ABV0@@Z @ 2497 NONAME ABSENT ; class HbAbstractViewItemPrivate & HbAbstractViewItemPrivate::operator=(class HbAbstractViewItemPrivate const &)
	??1HbListView@@UAE@XZ @ 2498 NONAME ; HbListView::~HbListView(void)
	?setScrollBarMetrics@HbAbstractItemViewPrivate@@UAEXW4Orientation@Qt@@@Z @ 2499 NONAME ABSENT ; void HbAbstractItemViewPrivate::setScrollBarMetrics(enum Qt::Orientation)
	?initStyleOption@HbGridViewItem@@IBEXPAVHbStyleOptionGridViewItem@@@Z @ 2500 NONAME ABSENT ; void HbGridViewItem::initStyleOption(class HbStyleOptionGridViewItem *) const
	?type@HbAbstractViewItem@@UBEHXZ @ 2501 NONAME ABSENT ; int HbAbstractViewItem::type(void) const
	??0HbGridViewItem@@IAE@ABV0@@Z @ 2502 NONAME ; HbGridViewItem::HbGridViewItem(class HbGridViewItem const &)
	?revealItem@HbAbstractItemViewPrivate@@QAEXPBVHbAbstractViewItem@@W4ScrollHint@QAbstractItemView@@@Z @ 2503 NONAME ABSENT ; void HbAbstractItemViewPrivate::revealItem(class HbAbstractViewItem const *, enum QAbstractItemView::ScrollHint)
	?currentItem@HbAbstractItemViewPrivate@@QBEPAVHbAbstractViewItem@@XZ @ 2504 NONAME ABSENT ; class HbAbstractViewItem * HbAbstractItemViewPrivate::currentItem(void) const
	?sizeHint@HbAbstractViewItem@@MBE?AVQSizeF@@W4SizeHint@Qt@@ABV2@@Z @ 2505 NONAME ; class QSizeF HbAbstractViewItem::sizeHint(enum Qt::SizeHint, class QSizeF const &) const
	??1HbTreeView@@UAE@XZ @ 2506 NONAME ; HbTreeView::~HbTreeView(void)
	?init@HbListViewPrivate@@QAEXXZ @ 2507 NONAME ABSENT ; void HbListViewPrivate::init(void)
	?event@HbItemHighlight@@UAE_NPAVQEvent@@@Z @ 2508 NONAME ABSENT ; bool HbItemHighlight::event(class QEvent *)
	?setGeometry@HbRatingSlider@@UAEXABVQRectF@@@Z @ 2509 NONAME ; void HbRatingSlider::setGeometry(class QRectF const &)
	?rowsInserted@HbTreeView@@MAEXABVQModelIndex@@HH@Z @ 2510 NONAME ; void HbTreeView::rowsInserted(class QModelIndex const &, int, int)
	?itemAt@HbGridView@@QBEPAVHbAbstractViewItem@@HH@Z @ 2511 NONAME ; class HbAbstractViewItem * HbGridView::itemAt(int, int) const
	?animateVisible@HbItemHighlight@@UAEXPAVQGraphicsWidget@@@Z @ 2512 NONAME ABSENT ; void HbItemHighlight::animateVisible(class QGraphicsWidget *)
	?itemView@HbAbstractItemContainer@@QBEPAVHbAbstractItemView@@XZ @ 2513 NONAME ; class HbAbstractItemView * HbAbstractItemContainer::itemView(void) const
	?getText@HbInputDialog@@SA?AVQString@@ABV2@0PA_NPAVQGraphicsScene@@PAVQGraphicsItem@@@Z @ 2514 NONAME ABSENT ; class QString HbInputDialog::getText(class QString const &, class QString const &, bool *, class QGraphicsScene *, class QGraphicsItem *)
	?updatePrimitives@HbGridViewItem@@UAEXXZ @ 2515 NONAME ; void HbGridViewItem::updatePrimitives(void)
	?staticMetaObject@HbProgressiveSlider@@2UQMetaObject@@B @ 2516 NONAME ABSENT ; struct QMetaObject const HbProgressiveSlider::staticMetaObject
	?textFormat@HbListViewItem@@QBE?AW4TextFormat@Qt@@XZ @ 2517 NONAME ; enum Qt::TextFormat HbListViewItem::textFormat(void) const
	?type@HbAbstractItemView@@UBEHXZ @ 2518 NONAME ABSENT ; int HbAbstractItemView::type(void) const
	?insertItem@HbComboBox@@QAEXHABVQString@@ABVQVariant@@@Z @ 2519 NONAME ; void HbComboBox::insertItem(int, class QString const &, class QVariant const &)
	?released@HbAbstractItemView@@IAEXABVQModelIndex@@@Z @ 2520 NONAME ; void HbAbstractItemView::released(class QModelIndex const &)
	?setItemView@HbAbstractItemContainer@@QAEXPAVHbAbstractItemView@@@Z @ 2521 NONAME ; void HbAbstractItemContainer::setItemView(class HbAbstractItemView *)
	?addItem@HbListWidget@@QAEXPAVHbListWidgetItem@@@Z @ 2522 NONAME ; void HbListWidget::addItem(class HbListWidgetItem *)
	?setExpanded@HbTreeView@@QAEXABVQModelIndex@@_N@Z @ 2523 NONAME ; void HbTreeView::setExpanded(class QModelIndex const &, bool)
	?trUtf8@HbTreeViewItem@@SA?AVQString@@PBD0H@Z @ 2524 NONAME ; class QString HbTreeViewItem::trUtf8(char const *, char const *, int)
	?isVisible@HbAbstractItemView@@QBE_NABVQModelIndex@@@Z @ 2525 NONAME ; bool HbAbstractItemView::isVisible(class QModelIndex const &) const
	?type@HbAbstractItemContainer@@UBEHXZ @ 2526 NONAME ABSENT ; int HbAbstractItemContainer::type(void) const
	?longPressGesture@HbAbstractItemView@@MAEXABVQPointF@@@Z @ 2527 NONAME ABSENT ; void HbAbstractItemView::longPressGesture(class QPointF const &)
	?trUtf8@HbListWidget@@SA?AVQString@@PBD0H@Z @ 2528 NONAME ; class QString HbListWidget::trUtf8(char const *, char const *, int)
	??0HbItemHighlight@@QAE@W4HighlightMode@0@PAVQGraphicsItem@@@Z @ 2529 NONAME ABSENT ; HbItemHighlight::HbItemHighlight(enum HbItemHighlight::HighlightMode, class QGraphicsItem *)
	?init@HbAbstractItemViewPrivate@@QAEXPAVHbAbstractItemContainer@@@Z @ 2530 NONAME ABSENT ; void HbAbstractItemViewPrivate::init(class HbAbstractItemContainer *)
	?setTextVisible@HbGridView@@QAEX_N@Z @ 2531 NONAME ; void HbGridView::setTextVisible(bool)
	?setStepCount@HbRatingSlider@@QAEXH@Z @ 2532 NONAME ; void HbRatingSlider::setStepCount(int)
	?setTimeFormat@HbDateTimeEdit@@QAEXABVQLocale@@@Z @ 2533 NONAME ABSENT ; void HbDateTimeEdit::setTimeFormat(class QLocale const &)
	?setUniformItemSizes@HbAbstractItemView@@QAEX_N@Z @ 2534 NONAME ; void HbAbstractItemView::setUniformItemSizes(bool)
	?resizeEvent@HbProgressiveSlider@@MAEXPAVQGraphicsSceneResizeEvent@@@Z @ 2535 NONAME ABSENT ; void HbProgressiveSlider::resizeEvent(class QGraphicsSceneResizeEvent *)
	?flags@HbListModel@@UBE?AV?$QFlags@W4ItemFlag@Qt@@@@ABVQModelIndex@@@Z @ 2536 NONAME ; class QFlags<enum Qt::ItemFlag> HbListModel::flags(class QModelIndex const &) const
	?itemRecycling@HbAbstractItemContainer@@QBE_NXZ @ 2537 NONAME ; bool HbAbstractItemContainer::itemRecycling(void) const
	?reset@HbAbstractItemContainer@@UAEXXZ @ 2538 NONAME ; void HbAbstractItemContainer::reset(void)
	?getStaticMetaObject@HbAbstractViewItem@@SAABUQMetaObject@@XZ @ 2539 NONAME ; struct QMetaObject const & HbAbstractViewItem::getStaticMetaObject(void)
	?visible@HbAbstractItemViewPrivate@@UBE_NPAVHbAbstractViewItem@@_N@Z @ 2540 NONAME ABSENT ; bool HbAbstractItemViewPrivate::visible(class HbAbstractViewItem *, bool) const
	?move@HbListWidget@@MAEXABVQModelIndex@@0@Z @ 2541 NONAME ; void HbListWidget::move(class QModelIndex const &, class QModelIndex const &)
	?qt_metacall@HbListModel@@UAEHW4Call@QMetaObject@@HPAPAX@Z @ 2542 NONAME ; int HbListModel::qt_metacall(enum QMetaObject::Call, int, void * *)
	??1HbAbstractViewItemPrivate@@UAE@XZ @ 2543 NONAME ABSENT ; HbAbstractViewItemPrivate::~HbAbstractViewItemPrivate(void)
	?itemAdded@HbListItemContainer@@MAEXHPAVHbAbstractViewItem@@@Z @ 2544 NONAME ABSENT ; void HbListItemContainer::itemAdded(int, class HbAbstractViewItem *)
	?longPressed@HbAbstractItemView@@IAEXPAVHbAbstractViewItem@@ABVQPointF@@@Z @ 2545 NONAME ; void HbAbstractItemView::longPressed(class HbAbstractViewItem *, class QPointF const &)
	?primitive@HbTreeViewItem@@UBEPAVQGraphicsItem@@W4Primitive@HbStyle@@@Z @ 2546 NONAME ABSENT ; class QGraphicsItem * HbTreeViewItem::primitive(enum HbStyle::Primitive) const
	?highlightMode@HbAbstractItemView@@QBE?AW4HighlightMode@HbItemHighlight@@XZ @ 2547 NONAME ABSENT ; enum HbItemHighlight::HighlightMode HbAbstractItemView::highlightMode(void) const
	?resetContiguousSettings@HbAbstractItemViewPrivate@@QAEXXZ @ 2548 NONAME ABSENT ; void HbAbstractItemViewPrivate::resetContiguousSettings(void)
	?updateItems@HbAbstractItemViewPrivate@@QAEXXZ @ 2549 NONAME ABSENT ; void HbAbstractItemViewPrivate::updateItems(void)
	?getStaticMetaObject@HbListView@@SAABUQMetaObject@@XZ @ 2550 NONAME ; struct QMetaObject const & HbListView::getStaticMetaObject(void)
	?scrolling@HbListView@@IAEXVQPointF@@@Z @ 2551 NONAME ; void HbListView::scrolling(class QPointF)
	?refreshContainerGeometry@HbAbstractItemViewPrivate@@QAEXXZ @ 2552 NONAME ABSENT ; void HbAbstractItemViewPrivate::refreshContainerGeometry(void)
	?rowsInserted@HbGridView@@MAEXABVQModelIndex@@HH@Z @ 2553 NONAME ; void HbGridView::rowsInserted(class QModelIndex const &, int, int)
	?selectAll@HbAbstractItemView@@UAEXXZ @ 2554 NONAME ; void HbAbstractItemView::selectAll(void)
	?setColumnCount@HbGridView@@QAEXH@Z @ 2555 NONAME ; void HbGridView::setColumnCount(int)
	??_EHbTreeLayout@@UAE@I@Z @ 2556 NONAME ; HbTreeLayout::~HbTreeLayout(unsigned int)
	?isEnabled@HbListWidgetItem@@QBE_NXZ @ 2557 NONAME ; bool HbListWidgetItem::isEnabled(void) const
	?trUtf8@HbAbstractItemContainer@@SA?AVQString@@PBD0H@Z @ 2558 NONAME ; class QString HbAbstractItemContainer::trUtf8(char const *, char const *, int)
	??0HbDateTimeEdit@@QAE@ABVQTime@@PAVQGraphicsItem@@@Z @ 2559 NONAME ABSENT ; HbDateTimeEdit::HbDateTimeEdit(class QTime const &, class QGraphicsItem *)
	?type@HbListWidgetItem@@QBEHXZ @ 2560 NONAME ; int HbListWidgetItem::type(void) const
	?initStyleOption@HbAbstractViewItem@@IBEXPAVHbStyleOptionAbstractViewItem@@@Z @ 2561 NONAME ABSENT ; void HbAbstractViewItem::initStyleOption(class HbStyleOptionAbstractViewItem *) const
	?updateChildItems@HbListViewItem@@UAEXXZ @ 2562 NONAME ; void HbListViewItem::updateChildItems(void)
	?rowsRemoved@HbAbstractItemView@@MAEXABVQModelIndex@@HH@Z @ 2563 NONAME ; void HbAbstractItemView::rowsRemoved(class QModelIndex const &, int, int)
	??0HbProgressiveSlider@@QAE@PAVQGraphicsItem@@@Z @ 2564 NONAME ABSENT ; HbProgressiveSlider::HbProgressiveSlider(class QGraphicsItem *)
	??_EHbGridViewItem@@UAE@I@Z @ 2565 NONAME ; HbGridViewItem::~HbGridViewItem(unsigned int)
	?recycleItems@HbListItemContainer@@MAE?AVQPointF@@ABV2@@Z @ 2566 NONAME ABSENT ; class QPointF HbListItemContainer::recycleItems(class QPointF const &)
	?rightGesture@HbAbstractItemView@@MAEXH@Z @ 2567 NONAME ABSENT ; void HbAbstractItemView::rightGesture(int)
	?viewItem@HbAbstractItemViewPrivate@@QBEPAVHbAbstractViewItem@@PAVQGraphicsItem@@@Z @ 2568 NONAME ABSENT ; class HbAbstractViewItem * HbAbstractItemViewPrivate::viewItem(class QGraphicsItem *) const
	?ratingDone@HbRatingSlider@@IAEXH@Z @ 2569 NONAME ; void HbRatingSlider::ratingDone(int)
	?setDateFormat@HbDateTimeEdit@@QAEXABVQLocale@@@Z @ 2570 NONAME ABSENT ; void HbDateTimeEdit::setDateFormat(class QLocale const &)
	?bufferSize@HbAbstractItemView@@QBEHXZ @ 2571 NONAME ABSENT ; int HbAbstractItemView::bufferSize(void) const
	?trUtf8@HbListView@@SA?AVQString@@PBD0H@Z @ 2572 NONAME ; class QString HbListView::trUtf8(char const *, char const *, int)
	??_EHbAbstractItemContainer@@UAE@I@Z @ 2573 NONAME ; HbAbstractItemContainer::~HbAbstractItemContainer(unsigned int)
	?d_func@HbItemHighlight@@ABEPBVHbItemHighlightPrivate@@XZ @ 2574 NONAME ABSENT ; class HbItemHighlightPrivate const * HbItemHighlight::d_func(void) const
	?stepCount@HbRatingSlider@@QBEHXZ @ 2575 NONAME ; int HbRatingSlider::stepCount(void) const
	?items@HbAbstractItemContainer@@QBE?AV?$QList@PAVHbAbstractViewItem@@@@XZ @ 2576 NONAME ; class QList<class HbAbstractViewItem *> HbAbstractItemContainer::items(void) const
	?count@HbListWidget@@QBEHXZ @ 2577 NONAME ; int HbListWidget::count(void) const
	?tr@HbAbstractItemView@@SA?AVQString@@PBD0H@Z @ 2578 NONAME ; class QString HbAbstractItemView::tr(char const *, char const *, int)
	?saveIndexMadeVisibleAfterMetricsChange@HbAbstractItemViewPrivate@@QAEXXZ @ 2579 NONAME ABSENT ; void HbAbstractItemViewPrivate::saveIndexMadeVisibleAfterMetricsChange(void)
	?qt_metacast@HbListView@@UAEPAXPBD@Z @ 2580 NONAME ; void * HbListView::qt_metacast(char const *)
	?activated@HbAbstractItemView@@IAEXABVQModelIndex@@@Z @ 2581 NONAME ; void HbAbstractItemView::activated(class QModelIndex const &)
	?insertItem@HbListWidget@@QAEXHPAVHbListWidgetItem@@@Z @ 2582 NONAME ; void HbListWidget::insertItem(int, class HbListWidgetItem *)
	?visibleItems@HbAbstractItemView@@QBE?AV?$QList@PAVHbAbstractViewItem@@@@XZ @ 2583 NONAME ; class QList<class HbAbstractViewItem *> HbAbstractItemView::visibleItems(void) const
	?updateTextItem@HbGridViewItemPrivate@@QAEXABVHbGridViewPrivate@@@Z @ 2584 NONAME ABSENT ; void HbGridViewItemPrivate::updateTextItem(class HbGridViewPrivate const &)
	?setDisplayRole@HbListViewItemPrivate@@QAEXVQString@@H@Z @ 2585 NONAME ABSENT ; void HbListViewItemPrivate::setDisplayRole(class QString, int)
	?staticMetaObject@HbGridViewItem@@2UQMetaObject@@B @ 2586 NONAME ; struct QMetaObject const HbGridViewItem::staticMetaObject
	?metaObject@HbTreeViewItem@@UBEPBUQMetaObject@@XZ @ 2587 NONAME ; struct QMetaObject const * HbTreeViewItem::metaObject(void) const
	?isExpanded@HbTreeViewItem@@QBE_NXZ @ 2588 NONAME ; bool HbTreeViewItem::isExpanded(void) const
	?setArrangeMode@HbListView@@UAE_N_N@Z @ 2589 NONAME ; bool HbListView::setArrangeMode(bool)
	?decorationIcon@HbListWidgetItem@@QBE?AVHbIcon@@XZ @ 2590 NONAME ABSENT ; class HbIcon HbListWidgetItem::decorationIcon(void) const
	?setSliderValue@HbProgressiveSlider@@QAEXH@Z @ 2591 NONAME ABSENT ; void HbProgressiveSlider::setSliderValue(int)
	?maxItemCount@HbListItemContainer@@MBEHXZ @ 2592 NONAME ABSENT ; int HbListItemContainer::maxItemCount(void) const
	?q_func@HbListViewPrivate@@ABEPBVHbListView@@XZ @ 2593 NONAME ABSENT ; class HbListView const * HbListViewPrivate::q_func(void) const
	?trUtf8@HbGridView@@SA?AVQString@@PBD0@Z @ 2594 NONAME ; class QString HbGridView::trUtf8(char const *, char const *)
	?init@HbGridViewItemPrivate@@QAEXXZ @ 2595 NONAME ABSENT ; void HbGridViewItemPrivate::init(void)
	?itemAt@HbTreeLayout@@UBEPAVQGraphicsLayoutItem@@H@Z @ 2596 NONAME ABSENT ; class QGraphicsLayoutItem * HbTreeLayout::itemAt(int) const
	?setItemPrototypes@HbAbstractItemContainer@@QAE_NABV?$QList@PAVHbAbstractViewItem@@@@@Z @ 2597 NONAME ; bool HbAbstractItemContainer::setItemPrototypes(class QList<class HbAbstractViewItem *> const &)
	?columnsRemoved@HbAbstractItemView@@MAEXABVQModelIndex@@HH@Z @ 2598 NONAME ; void HbAbstractItemView::columnsRemoved(class QModelIndex const &, int, int)
	?staticMetaObject@HbAbstractItemView@@2UQMetaObject@@B @ 2599 NONAME ; struct QMetaObject const HbAbstractItemView::staticMetaObject
	?qt_metacast@HbAbstractItemView@@UAEPAXPBD@Z @ 2600 NONAME ; void * HbAbstractItemView::qt_metacast(char const *)
	?clear@HbListWidget@@QAEXXZ @ 2601 NONAME ; void HbListWidget::clear(void)
	??0HbGridViewItemPrivate@@QAE@ABV0@@Z @ 2602 NONAME ABSENT ; HbGridViewItemPrivate::HbGridViewItemPrivate(class HbGridViewItemPrivate const &)
	?setRowCount@HbGridView@@QAEXH@Z @ 2603 NONAME ; void HbGridView::setRowCount(int)
	?panGesture@HbAbstractItemView@@MAEXABVQPointF@@@Z @ 2604 NONAME ABSENT ; void HbAbstractItemView::panGesture(class QPointF const &)
	?qt_metacall@HbGridView@@UAEHW4Call@QMetaObject@@HPAPAX@Z @ 2605 NONAME ; int HbGridView::qt_metacall(enum QMetaObject::Call, int, void * *)
	?tr@HbGridView@@SA?AVQString@@PBD0H@Z @ 2606 NONAME ; class QString HbGridView::tr(char const *, char const *, int)
	?echoMode@HbInputDialog@@QBE?AW4EchoMode@HbLineEdit@@H@Z @ 2607 NONAME ; enum HbLineEdit::EchoMode HbInputDialog::echoMode(int) const
	?qt_metacall@HbListViewItem@@UAEHW4Call@QMetaObject@@HPAPAX@Z @ 2608 NONAME ; int HbListViewItem::qt_metacall(enum QMetaObject::Call, int, void * *)
	?mouseMoveEvent@HbAbstractViewItem@@MAEXPAVQGraphicsSceneMouseEvent@@@Z @ 2609 NONAME ABSENT ; void HbAbstractViewItem::mouseMoveEvent(class QGraphicsSceneMouseEvent *)
	?d_func@HbGridView@@AAEPAVHbGridViewPrivate@@XZ @ 2610 NONAME ; class HbGridViewPrivate * HbGridView::d_func(void)
	?item@HbListWidget@@QBEPAVHbListWidgetItem@@H@Z @ 2611 NONAME ; class HbListWidgetItem * HbListWidget::item(int) const
	?setCheckState@HbAbstractViewItem@@QAEXW4CheckState@Qt@@@Z @ 2612 NONAME ; void HbAbstractViewItem::setCheckState(enum Qt::CheckState)
	?recycleItems@HbAbstractItemContainer@@MAE?AVQPointF@@ABV2@@Z @ 2613 NONAME ; class QPointF HbAbstractItemContainer::recycleItems(class QPointF const &)
	?clear@HbListModel@@QAEXXZ @ 2614 NONAME ; void HbListModel::clear(void)
	??0HbListWidget@@QAE@PAVQGraphicsItem@@@Z @ 2615 NONAME ; HbListWidget::HbListWidget(class QGraphicsItem *)
	?scrollTo@HbListView@@UAEXABVQModelIndex@@W4ScrollHint@QAbstractItemView@@@Z @ 2616 NONAME ABSENT ; void HbListView::scrollTo(class QModelIndex const &, enum QAbstractItemView::ScrollHint)
	?itemChange@HbAbstractItemContainer@@MAE?AVQVariant@@W4GraphicsItemChange@QGraphicsItem@@ABV2@@Z @ 2617 NONAME ; class QVariant HbAbstractItemContainer::itemChange(enum QGraphicsItem::GraphicsItemChange, class QVariant const &)
	?removeAt@HbTreeLayout@@UAEXH@Z @ 2618 NONAME ; void HbTreeLayout::removeAt(int)
	??_EHbProgressiveSlider@@UAE@I@Z @ 2619 NONAME ABSENT ; HbProgressiveSlider::~HbProgressiveSlider(unsigned int)
	?modelIndex@HbAbstractViewItem@@QBE?AVQModelIndex@@XZ @ 2620 NONAME ; class QModelIndex HbAbstractViewItem::modelIndex(void) const
	?pixelsToScroll@HbAbstractItemViewPrivate@@QAE?AVQPointF@@PBVHbAbstractViewItem@@W4ScrollHint@QAbstractItemView@@@Z @ 2621 NONAME ABSENT ; class QPointF HbAbstractItemViewPrivate::pixelsToScroll(class HbAbstractViewItem const *, enum QAbstractItemView::ScrollHint)
	??1HbListItemContainer@@UAE@XZ @ 2622 NONAME ABSENT ; HbListItemContainer::~HbListItemContainer(void)
	??0HbAbstractViewItem@@IAE@AAVHbAbstractViewItemPrivate@@PAVQGraphicsItem@@@Z @ 2623 NONAME ; HbAbstractViewItem::HbAbstractViewItem(class HbAbstractViewItemPrivate &, class QGraphicsItem *)
	?event@HbAbstractViewItem@@MAE_NPAVQEvent@@@Z @ 2624 NONAME ; bool HbAbstractViewItem::event(class QEvent *)
	?qt_metacast@HbGridViewItem@@UAEPAXPBD@Z @ 2625 NONAME ; void * HbGridViewItem::qt_metacast(char const *)
	?mousePressEvent@HbAbstractViewItem@@MAEXPAVQGraphicsSceneMouseEvent@@@Z @ 2626 NONAME ABSENT ; void HbAbstractViewItem::mousePressEvent(class QGraphicsSceneMouseEvent *)
	??0HbItemHighlight@@QAE@PAVQGraphicsItem@@@Z @ 2627 NONAME ABSENT ; HbItemHighlight::HbItemHighlight(class QGraphicsItem *)
	?qt_metacall@HbProgressiveSlider@@UAEHW4Call@QMetaObject@@HPAPAX@Z @ 2628 NONAME ABSENT ; int HbProgressiveSlider::qt_metacall(enum QMetaObject::Call, int, void * *)
	?emitActivated@HbAbstractItemView@@MAEXABVQModelIndex@@@Z @ 2629 NONAME ; void HbAbstractItemView::emitActivated(class QModelIndex const &)
	??_EHbListWidget@@UAE@I@Z @ 2630 NONAME ; HbListWidget::~HbListWidget(unsigned int)
	?checkState@HbAbstractViewItem@@QBE?AW4CheckState@Qt@@XZ @ 2631 NONAME ; enum Qt::CheckState HbAbstractViewItem::checkState(void) const
	?metaObject@HbListWidget@@UBEPBUQMetaObject@@XZ @ 2632 NONAME ; struct QMetaObject const * HbListWidget::metaObject(void) const
	?lastItemIndex@HbAbstractItemContainer@@QBE?AVQModelIndex@@XZ @ 2633 NONAME ABSENT ; class QModelIndex HbAbstractItemContainer::lastItemIndex(void) const
	?updatePrimitives@HbListViewItem@@UAEXXZ @ 2634 NONAME ; void HbListViewItem::updatePrimitives(void)
	??0HbListModel@@QAE@PAVQObject@@@Z @ 2635 NONAME ; HbListModel::HbListModel(class QObject *)
	?updateExpandItem@HbTreeViewItem@@MAEPAVHbWidgetBase@@XZ @ 2636 NONAME ABSENT ; class HbWidgetBase * HbTreeViewItem::updateExpandItem(void)
	?currentIndex@HbAbstractItemView@@QBE?AVQModelIndex@@XZ @ 2637 NONAME ; class QModelIndex HbAbstractItemView::currentIndex(void) const
	?updateScrollBarForUniformSizedItems@HbAbstractItemViewPrivate@@QAEXXZ @ 2638 NONAME ABSENT ; void HbAbstractItemViewPrivate::updateScrollBarForUniformSizedItems(void)
	?sizeHint@HbTreeLayout@@UBE?AVQSizeF@@W4SizeHint@Qt@@ABV2@@Z @ 2639 NONAME ABSENT ; class QSizeF HbTreeLayout::sizeHint(enum Qt::SizeHint, class QSizeF const &) const
	??1HbAbstractItemContainer@@UAE@XZ @ 2640 NONAME ; HbAbstractItemContainer::~HbAbstractItemContainer(void)
	?orientationChanged@HbAbstractItemView@@MAEXW4Orientation@Qt@@@Z @ 2641 NONAME ; void HbAbstractItemView::orientationChanged(enum Qt::Orientation)
	?setData@HbListModel@@UAE_NABVQModelIndex@@ABVQVariant@@H@Z @ 2642 NONAME ; bool HbListModel::setData(class QModelIndex const &, class QVariant const &, int)
	?staticMetaObject@HbListView@@2UQMetaObject@@B @ 2643 NONAME ; struct QMetaObject const HbListView::staticMetaObject
	??1HbTreeLayout@@UAE@XZ @ 2644 NONAME ; HbTreeLayout::~HbTreeLayout(void)
	?removeItem@HbAbstractItemContainer@@UAEXABVQModelIndex@@@Z @ 2645 NONAME ABSENT ; void HbAbstractItemContainer::removeItem(class QModelIndex const &)
	?showEvent@HbProgressiveSlider@@MAEXPAVQShowEvent@@@Z @ 2646 NONAME ABSENT ; void HbProgressiveSlider::showEvent(class QShowEvent *)
	?canSetModelIndex@HbAbstractViewItem@@UBE_NABVQModelIndex@@@Z @ 2647 NONAME ; bool HbAbstractViewItem::canSetModelIndex(class QModelIndex const &) const
	?qt_metacall@HbAbstractViewItem@@UAEHW4Call@QMetaObject@@HPAPAX@Z @ 2648 NONAME ; int HbAbstractViewItem::qt_metacall(enum QMetaObject::Call, int, void * *)
	?firstAndLastVisibleModelIndex@HbAbstractItemContainer@@QBEXAAVQModelIndex@@0_N@Z @ 2649 NONAME ; void HbAbstractItemContainer::firstAndLastVisibleModelIndex(class QModelIndex &, class QModelIndex &, bool) const
	?getStaticMetaObject@HbProgressiveSlider@@SAABUQMetaObject@@XZ @ 2650 NONAME ABSENT ; struct QMetaObject const & HbProgressiveSlider::getStaticMetaObject(void)
	?trUtf8@HbAbstractItemView@@SA?AVQString@@PBD0H@Z @ 2651 NONAME ; class QString HbAbstractItemView::trUtf8(char const *, char const *, int)
	??0HbInputDialog@@QAE@PAVQGraphicsItem@@@Z @ 2652 NONAME ; HbInputDialog::HbInputDialog(class QGraphicsItem *)
	?columnsRemoved@HbTreeView@@MAEXABVQModelIndex@@HH@Z @ 2653 NONAME ; void HbTreeView::columnsRemoved(class QModelIndex const &, int, int)
	?primitive@HbAbstractViewItem@@UBEPAVQGraphicsItem@@W4Primitive@HbStyle@@@Z @ 2654 NONAME ABSENT ; class QGraphicsItem * HbAbstractViewItem::primitive(enum HbStyle::Primitive) const
	?numberOfIcons@HbRatingSlider@@QBEHXZ @ 2655 NONAME ; int HbRatingSlider::numberOfIcons(void) const
	?getStaticMetaObject@HbListViewItem@@SAABUQMetaObject@@XZ @ 2656 NONAME ; struct QMetaObject const & HbListViewItem::getStaticMetaObject(void)
	?activated@HbListWidget@@IAEXPAVHbListWidgetItem@@@Z @ 2657 NONAME ; void HbListWidget::activated(class HbListWidgetItem *)
	?focusOutEvent@HbAbstractItemView@@MAEXPAVQFocusEvent@@@Z @ 2658 NONAME ABSENT ; void HbAbstractItemView::focusOutEvent(class QFocusEvent *)
	?setState@HbTreeViewItem@@UAEXABV?$QMap@HVQVariant@@@@@Z @ 2659 NONAME ABSENT ; void HbTreeViewItem::setState(class QMap<int, class QVariant> const &)
	??_EHbAbstractViewItemPrivate@@UAE@I@Z @ 2660 NONAME ABSENT ; HbAbstractViewItemPrivate::~HbAbstractViewItemPrivate(unsigned int)
	??4HbTreeViewItem@@IAEAAV0@ABV0@@Z @ 2661 NONAME ; class HbTreeViewItem & HbTreeViewItem::operator=(class HbTreeViewItem const &)
	?longPressed@HbListWidget@@IAEXPAVHbListWidgetItem@@ABVQPointF@@@Z @ 2662 NONAME ; void HbListWidget::longPressed(class HbListWidgetItem *, class QPointF const &)
	?count@HbTreeLayout@@UBEHXZ @ 2663 NONAME ; int HbTreeLayout::count(void) const
	?insertItem@HbComboBox@@QAEXHABVHbIcon@@ABVQString@@ABVQVariant@@@Z @ 2664 NONAME ; void HbComboBox::insertItem(int, class HbIcon const &, class QString const &, class QVariant const &)
	?orientationAboutToBeChanged@HbAbstractItemView@@MAEXXZ @ 2665 NONAME ; void HbAbstractItemView::orientationAboutToBeChanged(void)
	??_EHbAbstractItemViewPrivate@@UAE@I@Z @ 2666 NONAME ABSENT ; HbAbstractItemViewPrivate::~HbAbstractItemViewPrivate(unsigned int)
	??1HbGridViewItem@@UAE@XZ @ 2667 NONAME ; HbGridViewItem::~HbGridViewItem(void)
	?staticMetaObject@HbListModel@@2UQMetaObject@@B @ 2668 NONAME ; struct QMetaObject const HbListModel::staticMetaObject
	?isPressed@HbAbstractViewItem@@QBE_NXZ @ 2669 NONAME ABSENT ; bool HbAbstractViewItem::isPressed(void) const
	?insert@HbListModel@@QAEXHPAVHbListWidgetItem@@@Z @ 2670 NONAME ; void HbListModel::insert(int, class HbListWidgetItem *)
	?qt_metacast@HbListModel@@UAEPAXPBD@Z @ 2671 NONAME ; void * HbListModel::qt_metacast(char const *)
	??_EHbListItemContainer@@UAE@I@Z @ 2672 NONAME ABSENT ; HbListItemContainer::~HbListItemContainer(unsigned int)
	?setModel@HbListWidget@@UAEXPAVQAbstractItemModel@@PAVHbAbstractViewItem@@@Z @ 2673 NONAME ; void HbListWidget::setModel(class QAbstractItemModel *, class HbAbstractViewItem *)
	?type@HbTreeViewItem@@UBEHXZ @ 2674 NONAME ; int HbTreeViewItem::type(void) const
	?animateTransient@HbItemHighlight@@UAEXPAVQGraphicsWidget@@@Z @ 2675 NONAME ABSENT ; void HbItemHighlight::animateTransient(class QGraphicsWidget *)
	?scrollTo@HbTreeView@@UAEXABVQModelIndex@@W4ScrollHint@QAbstractItemView@@@Z @ 2676 NONAME ABSENT ; void HbTreeView::scrollTo(class QModelIndex const &, enum QAbstractItemView::ScrollHint)
	?shape@HbGridViewItem@@MBE?AVQPainterPath@@XZ @ 2677 NONAME ; class QPainterPath HbGridViewItem::shape(void) const
	??1HbListModel@@UAE@XZ @ 2678 NONAME ; HbListModel::~HbListModel(void)
	?qt_metacall@HbListWidget@@UAEHW4Call@QMetaObject@@HPAPAX@Z @ 2679 NONAME ; int HbListWidget::qt_metacall(enum QMetaObject::Call, int, void * *)
	??4HbAbstractViewItem@@IAEAAV0@ABV0@@Z @ 2680 NONAME ; class HbAbstractViewItem & HbAbstractViewItem::operator=(class HbAbstractViewItem const &)
	?d_func@HbAbstractItemContainer@@ABEPBVHbAbstractItemContainerPrivate@@XZ @ 2681 NONAME ; class HbAbstractItemContainerPrivate const * HbAbstractItemContainer::d_func(void) const
	?tr@HbItemHighlight@@SA?AVQString@@PBD0H@Z @ 2682 NONAME ABSENT ; class QString HbItemHighlight::tr(char const *, char const *, int)
	?setTextFormat@HbListViewItem@@QAEXW4TextFormat@Qt@@@Z @ 2683 NONAME ; void HbListViewItem::setTextFormat(enum Qt::TextFormat)
	??1HbItemHighlight@@UAE@XZ @ 2684 NONAME ABSENT ; HbItemHighlight::~HbItemHighlight(void)
	??0HbGridViewItem@@IAE@AAVHbGridViewItemPrivate@@PAVQGraphicsItem@@@Z @ 2685 NONAME ; HbGridViewItem::HbGridViewItem(class HbGridViewItemPrivate &, class QGraphicsItem *)
	?mouseMoveEvent@HbAbstractItemView@@MAEXPAVQGraphicsSceneMouseEvent@@@Z @ 2686 NONAME ABSENT ; void HbAbstractItemView::mouseMoveEvent(class QGraphicsSceneMouseEvent *)
	?setHtml@HbLabel@@QAEXABVQString@@@Z @ 2687 NONAME ; void HbLabel::setHtml(class QString const &)
	?tr@HbLabel@@SA?AVQString@@PBD0@Z @ 2688 NONAME ; class QString HbLabel::tr(char const *, char const *)
	?setTimeout@HbDeviceMessageBox@@QAEXW4DefaultTimeout@HbPopup@@@Z @ 2689 NONAME ; void HbDeviceMessageBox::setTimeout(enum HbPopup::DefaultTimeout)
	?textFormat@HbLabel@@QBE?AW4TextFormat@Qt@@XZ @ 2690 NONAME ABSENT ; enum Qt::TextFormat HbLabel::textFormat(void) const
	?tr@HbLabel@@SA?AVQString@@PBD0H@Z @ 2691 NONAME ; class QString HbLabel::tr(char const *, char const *, int)
	?insertItem@HbAbstractItemContainer@@IAEXHABVQModelIndex@@_N@Z @ 2692 NONAME ; void HbAbstractItemContainer::insertItem(int, class QModelIndex const &, bool)
	?plainText@HbLabel@@QBE?AVQString@@XZ @ 2693 NONAME ; class QString HbLabel::plainText(void) const
	?removeItem@HbAbstractItemContainer@@UAEXABVQModelIndex@@_N@Z @ 2694 NONAME ; void HbAbstractItemContainer::removeItem(class QModelIndex const &, bool)
	?type@HbLabel@@UBEHXZ @ 2695 NONAME ; int HbLabel::type(void) const
	?setProgressDialogType@HbProgressDialog@@QAEXW4ProgressDialogType@1@@Z @ 2696 NONAME ; void HbProgressDialog::setProgressDialogType(enum HbProgressDialog::ProgressDialogType)
	?setDismissPolicy@HbDeviceMessageBox@@QAEXW4DismissPolicy@HbPopup@@@Z @ 2697 NONAME ; void HbDeviceMessageBox::setDismissPolicy(enum HbPopup::DismissPolicy)
	?setNumber@HbLabel@@QAEXH@Z @ 2698 NONAME ; void HbLabel::setNumber(int)
	?text@HbLabel@@QBE?AVQString@@XZ @ 2699 NONAME ABSENT ; class QString HbLabel::text(void) const
	?setColor@HbLabel@@QAEXABVQColor@@@Z @ 2700 NONAME ABSENT ; void HbLabel::setColor(class QColor const &)
	??0HbProgressDialog@@QAE@PAVQGraphicsItem@@@Z @ 2701 NONAME ; HbProgressDialog::HbProgressDialog(class QGraphicsItem *)
	?setState@HbLabel@@QAEXW4State@QIcon@@@Z @ 2702 NONAME ABSENT ; void HbLabel::setState(enum QIcon::State)
	?trUtf8@HbLabel@@SA?AVQString@@PBD0H@Z @ 2703 NONAME ; class QString HbLabel::trUtf8(char const *, char const *, int)
	?scrollTo@HbListView@@UAEXABVQModelIndex@@W4ScrollHint@HbAbstractItemView@@@Z @ 2704 NONAME ; void HbListView::scrollTo(class QModelIndex const &, enum HbAbstractItemView::ScrollHint)
	?setRootIndex@HbTreeView@@UAEXABVQModelIndex@@@Z @ 2705 NONAME ; void HbTreeView::setRootIndex(class QModelIndex const &)
	?setMode@HbLabel@@QAEXW4Mode@QIcon@@@Z @ 2706 NONAME ABSENT ; void HbLabel::setMode(enum QIcon::Mode)
	?setMaximum@HbProgressDialog@@QAEXH@Z @ 2707 NONAME ; void HbProgressDialog::setMaximum(int)
	??0HbLabel@@QAE@ABVQString@@PAVQGraphicsItem@@@Z @ 2708 NONAME ; HbLabel::HbLabel(class QString const &, class QGraphicsItem *)
	?setElideMode@HbLabel@@QAEXW4TextElideMode@Qt@@@Z @ 2709 NONAME ; void HbLabel::setElideMode(enum Qt::TextElideMode)
	?staticMetaObject@HbProgressDialog@@2UQMetaObject@@B @ 2710 NONAME ; struct QMetaObject const HbProgressDialog::staticMetaObject
	?setLogicalFont@HbLabel@@QAEXW4LogicalFontName@Hb@@@Z @ 2711 NONAME ABSENT ; void HbLabel::setLogicalFont(enum Hb::LogicalFontName)
	?trUtf8@HbProgressDialog@@SA?AVQString@@PBD0@Z @ 2712 NONAME ; class QString HbProgressDialog::trUtf8(char const *, char const *)
	??0HbProgressDialog@@QAE@W4ProgressDialogType@0@PAVQGraphicsItem@@@Z @ 2713 NONAME ; HbProgressDialog::HbProgressDialog(enum HbProgressDialog::ProgressDialogType, class QGraphicsItem *)
	??1HbProgressDialog@@UAE@XZ @ 2714 NONAME ; HbProgressDialog::~HbProgressDialog(void)
	?listItemPrototype@HbListView@@QBEPAVHbListViewItem@@XZ @ 2715 NONAME ; class HbListViewItem * HbListView::listItemPrototype(void) const
	?d_func@HbLabel@@AAEPAVHbLabelPrivate@@XZ @ 2716 NONAME ; class HbLabelPrivate * HbLabel::d_func(void)
	?stretchingStyle@HbListViewItem@@QBE?AW4StretchingStyle@1@XZ @ 2717 NONAME ; enum HbListViewItem::StretchingStyle HbListViewItem::stretchingStyle(void) const
	?polish@HbListViewItem@@MAEXAAVHbStyleParameters@@@Z @ 2718 NONAME ; void HbListViewItem::polish(class HbStyleParameters &)
	?textAlignment@HbProgressDialog@@QBE?AV?$QFlags@W4AlignmentFlag@Qt@@@@XZ @ 2719 NONAME ABSENT ; class QFlags<enum Qt::AlignmentFlag> HbProgressDialog::textAlignment(void) const
	?cancelled@HbProgressDialog@@IAEXXZ @ 2720 NONAME ; void HbProgressDialog::cancelled(void)
	?setTextColor@HbLabel@@QAEXABVQColor@@@Z @ 2721 NONAME ; void HbLabel::setTextColor(class QColor const &)
	?setIconFlags@HbLabel@@QAEXV?$QFlags@W4Flag@HbIcon@@@@@Z @ 2722 NONAME ABSENT ; void HbLabel::setIconFlags(class QFlags<enum HbIcon::Flag>)
	?textWrapping@HbLabel@@QBE?AW4TextWrapping@Hb@@XZ @ 2723 NONAME ; enum Hb::TextWrapping HbLabel::textWrapping(void) const
	?secondaryTextRowCount@HbListViewItem@@QBEXAAH0@Z @ 2724 NONAME ABSENT ; void HbListViewItem::secondaryTextRowCount(int &, int &) const
	?reset@HbTreeView@@UAEXXZ @ 2725 NONAME ; void HbTreeView::reset(void)
	?aspectRatioMode@HbLabel@@QBE?AW4AspectRatioMode@Qt@@XZ @ 2726 NONAME ; enum Qt::AspectRatioMode HbLabel::aspectRatioMode(void) const
	??_EHbLabel@@UAE@I@Z @ 2727 NONAME ; HbLabel::~HbLabel(unsigned int)
	?setRange@HbProgressDialog@@QAEXHH@Z @ 2728 NONAME ; void HbProgressDialog::setRange(int, int)
	?qt_metacast@HbProgressDialog@@UAEPAXPBD@Z @ 2729 NONAME ; void * HbProgressDialog::qt_metacast(char const *)
	?setMinimum@HbProgressDialog@@QAEXH@Z @ 2730 NONAME ; void HbProgressDialog::setMinimum(int)
	?effectiveFont@HbLabel@@QBE?AVQFont@@XZ @ 2731 NONAME ABSENT ; class QFont HbLabel::effectiveFont(void) const
	?indentation@HbTreeView@@QBEMXZ @ 2732 NONAME ; float HbTreeView::indentation(void) const
	?showEvent@HbProgressDialog@@MAEXPAVQShowEvent@@@Z @ 2733 NONAME ; void HbProgressDialog::showEvent(class QShowEvent *)
	?setNum@HbLabel@@QAEXH@Z @ 2734 NONAME ABSENT ; void HbLabel::setNum(int)
	?setIndentation@HbTreeView@@QAEXM@Z @ 2735 NONAME ; void HbTreeView::setIndentation(float)
	?setTextWrapping@HbProgressDialog@@QAEX_N@Z @ 2736 NONAME ABSENT ; void HbProgressDialog::setTextWrapping(bool)
	?closeEvent@HbProgressDialog@@MAEXPAVQCloseEvent@@@Z @ 2737 NONAME ; void HbProgressDialog::closeEvent(class QCloseEvent *)
	?type@HbProgressDialog@@UBEHXZ @ 2738 NONAME ; int HbProgressDialog::type(void) const
	?html@HbLabel@@QBE?AVQString@@XZ @ 2739 NONAME ; class QString HbLabel::html(void) const
	?qt_metacall@HbProgressDialog@@UAEHW4Call@QMetaObject@@HPAPAX@Z @ 2740 NONAME ; int HbProgressDialog::qt_metacall(enum QMetaObject::Call, int, void * *)
	?textWrapping@HbProgressDialog@@QBE_NXZ @ 2741 NONAME ABSENT ; bool HbProgressDialog::textWrapping(void) const
	?rowsAboutToBeRemoved@HbListView@@MAEXABVQModelIndex@@HH@Z @ 2742 NONAME ; void HbListView::rowsAboutToBeRemoved(class QModelIndex const &, int, int)
	?setGeometry@HbLabel@@UAEXABVQRectF@@@Z @ 2743 NONAME ABSENT ; void HbLabel::setGeometry(class QRectF const &)
	?trUtf8@HbProgressDialog@@SA?AVQString@@PBD0H@Z @ 2744 NONAME ; class QString HbProgressDialog::trUtf8(char const *, char const *, int)
	?setIcon@HbLabel@@QAEXABVHbIcon@@@Z @ 2745 NONAME ; void HbLabel::setIcon(class HbIcon const &)
	?initStyleOption@HbLabel@@IBEXPAVHbStyleOptionLabel@@@Z @ 2746 NONAME ; void HbLabel::initStyleOption(class HbStyleOptionLabel *) const
	?cancel@HbProgressDialog@@QAEXXZ @ 2747 NONAME ; void HbProgressDialog::cancel(void)
	?color@HbLabel@@QBE?AVQColor@@XZ @ 2748 NONAME ABSENT ; class QColor HbLabel::color(void) const
	?setAutoClose@HbProgressDialog@@QAEX_N@Z @ 2749 NONAME ; void HbProgressDialog::setAutoClose(bool)
	??_EHbProgressDialog@@UAE@I@Z @ 2750 NONAME ; HbProgressDialog::~HbProgressDialog(unsigned int)
	?d_func@HbProgressDialog@@AAEPAVHbProgressDialogPrivate@@XZ @ 2751 NONAME ; class HbProgressDialogPrivate * HbProgressDialog::d_func(void)
	?addConnection@HbDataForm@@QAEXPAVHbDataFormModelItem@@PBDPAVQObject@@1@Z @ 2752 NONAME ; void HbDataForm::addConnection(class HbDataFormModelItem *, char const *, class QObject *, char const *)
	?addItem@HbAbstractItemContainer@@UAEXABVQModelIndex@@_N@Z @ 2753 NONAME ; void HbAbstractItemContainer::addItem(class QModelIndex const &, bool)
	?d_func@HbLabel@@ABEPBVHbLabelPrivate@@XZ @ 2754 NONAME ; class HbLabelPrivate const * HbLabel::d_func(void) const
	?mode@HbLabel@@QBE?AW4Mode@QIcon@@XZ @ 2755 NONAME ABSENT ; enum QIcon::Mode HbLabel::mode(void) const
	?state@HbLabel@@QBE?AW4State@QIcon@@XZ @ 2756 NONAME ABSENT ; enum QIcon::State HbLabel::state(void) const
	??0HbLabel@@IAE@AAVHbLabelPrivate@@PAVQGraphicsItem@@@Z @ 2757 NONAME ; HbLabel::HbLabel(class HbLabelPrivate &, class QGraphicsItem *)
	?toggleState@HbLabel@@QAEXXZ @ 2758 NONAME ABSENT ; void HbLabel::toggleState(void)
	?resizeEvent@HbLabel@@MAEXPAVQGraphicsSceneResizeEvent@@@Z @ 2759 NONAME ABSENT ; void HbLabel::resizeEvent(class QGraphicsSceneResizeEvent *)
	?setText@HbProgressDialog@@QAEXABVQString@@@Z @ 2760 NONAME ; void HbProgressDialog::setText(class QString const &)
	?setNumber@HbLabel@@QAEXM@Z @ 2761 NONAME ; void HbLabel::setNumber(float)
	?setMirroringMode@HbLabel@@QAEXW4MirroringMode@HbIcon@@@Z @ 2762 NONAME ABSENT ; void HbLabel::setMirroringMode(enum HbIcon::MirroringMode)
	??1HbLabel@@UAE@XZ @ 2763 NONAME ; HbLabel::~HbLabel(void)
	??0HbLabel@@QAE@PAVQGraphicsItem@@@Z @ 2764 NONAME ; HbLabel::HbLabel(class QGraphicsItem *)
	?autoClose@HbProgressDialog@@QBE_NXZ @ 2765 NONAME ; bool HbProgressDialog::autoClose(void) const
	?polishEvent@HbNotificationDialog@@MAEXXZ @ 2766 NONAME ABSENT ; void HbNotificationDialog::polishEvent(void)
	?elideMode@HbLabel@@QBE?AW4TextElideMode@Qt@@XZ @ 2767 NONAME ; enum Qt::TextElideMode HbLabel::elideMode(void) const
	?icon@HbProgressDialog@@QBE?AVHbIcon@@XZ @ 2768 NONAME ; class HbIcon HbProgressDialog::icon(void) const
	?text@HbProgressDialog@@QBE?AVQString@@XZ @ 2769 NONAME ; class QString HbProgressDialog::text(void) const
	?qt_metacall@HbLabel@@UAEHW4Call@QMetaObject@@HPAPAX@Z @ 2770 NONAME ; int HbLabel::qt_metacall(enum QMetaObject::Call, int, void * *)
	?modelItemType@HbAbstractViewItem@@QBE?AW4ModelItemType@Hb@@XZ @ 2771 NONAME ; enum Hb::ModelItemType HbAbstractViewItem::modelItemType(void) const
	?setProgressValue@HbProgressDialog@@QAEXH@Z @ 2772 NONAME ; void HbProgressDialog::setProgressValue(int)
	?setWrapMode@HbNotificationDialog@@QAEXH@Z @ 2773 NONAME ABSENT ; void HbNotificationDialog::setWrapMode(int)
	?trUtf8@HbLabel@@SA?AVQString@@PBD0@Z @ 2774 NONAME ; class QString HbLabel::trUtf8(char const *, char const *)
	?setTextWrapping@HbLabel@@QAEXW4TextWrapping@Hb@@@Z @ 2775 NONAME ; void HbLabel::setTextWrapping(enum Hb::TextWrapping)
	?setIcon@HbProgressDialog@@QAEXABVHbIcon@@@Z @ 2776 NONAME ; void HbProgressDialog::setIcon(class HbIcon const &)
	?scrollTo@HbSettingForm@@UAEXABVQModelIndex@@W4ScrollHint@HbAbstractItemView@@@Z @ 2777 NONAME ABSENT ; void HbSettingForm::scrollTo(class QModelIndex const &, enum HbAbstractItemView::ScrollHint)
	?setGraphicsSize@HbListViewItem@@QAEXW4GraphicsSize@1@@Z @ 2778 NONAME ; void HbListViewItem::setGraphicsSize(enum HbListViewItem::GraphicsSize)
	?progressDialogType@HbProgressDialog@@QBE?AW4ProgressDialogType@1@XZ @ 2779 NONAME ; enum HbProgressDialog::ProgressDialogType HbProgressDialog::progressDialogType(void) const
	?primitive@HbLabel@@UBEPAVQGraphicsItem@@W4Primitive@HbStyle@@@Z @ 2780 NONAME ; class QGraphicsItem * HbLabel::primitive(enum HbStyle::Primitive) const
	?setAlignment@HbLabel@@QAEXV?$QFlags@W4AlignmentFlag@Qt@@@@@Z @ 2781 NONAME ; void HbLabel::setAlignment(class QFlags<enum Qt::AlignmentFlag>)
	?alignment@HbLabel@@QBE?AV?$QFlags@W4AlignmentFlag@Qt@@@@XZ @ 2782 NONAME ; class QFlags<enum Qt::AlignmentFlag> HbLabel::alignment(void) const
	?logicalFont@HbLabel@@QBE?AW4LogicalFontName@Hb@@XZ @ 2783 NONAME ABSENT ; enum Hb::LogicalFontName HbLabel::logicalFont(void) const
	?graphicsSize@HbListViewItem@@QBE?AW4GraphicsSize@1@XZ @ 2784 NONAME ; enum HbListViewItem::GraphicsSize HbListViewItem::graphicsSize(void) const
	?updatePrimitives@HbLabel@@UAEXXZ @ 2785 NONAME ; void HbLabel::updatePrimitives(void)
	?setText@HbLabel@@QAEXABVQString@@@Z @ 2786 NONAME ABSENT ; void HbLabel::setText(class QString const &)
	?isNull@HbLabel@@QBE_NXZ @ 2787 NONAME ABSENT ; bool HbLabel::isNull(void) const
	?setPlainText@HbLabel@@QAEXABVQString@@@Z @ 2788 NONAME ; void HbLabel::setPlainText(class QString const &)
	?setNum@HbLabel@@QAEXM@Z @ 2789 NONAME ABSENT ; void HbLabel::setNum(float)
	?setAspectRatioMode@HbLabel@@QAEXW4AspectRatioMode@Qt@@@Z @ 2790 NONAME ; void HbLabel::setAspectRatioMode(enum Qt::AspectRatioMode)
	?removeConnection@HbDataForm@@QAEXPAVHbDataFormModelItem@@PBDPAVQObject@@1@Z @ 2791 NONAME ; void HbDataForm::removeConnection(class HbDataFormModelItem *, char const *, class QObject *, char const *)
	?rowsAboutToBeRemoved@HbDataForm@@MAEXABVQModelIndex@@HH@Z @ 2792 NONAME ; void HbDataForm::rowsAboutToBeRemoved(class QModelIndex const &, int, int)
	?setTextAlignment@HbProgressDialog@@QAEXV?$QFlags@W4AlignmentFlag@Qt@@@@@Z @ 2793 NONAME ABSENT ; void HbProgressDialog::setTextAlignment(class QFlags<enum Qt::AlignmentFlag>)
	?delayedShow@HbProgressDialog@@QAEXXZ @ 2794 NONAME ; void HbProgressDialog::delayedShow(void)
	?tr@HbProgressDialog@@SA?AVQString@@PBD0H@Z @ 2795 NONAME ; class QString HbProgressDialog::tr(char const *, char const *, int)
	?setIconAlignment@HbProgressDialog@@QAEXV?$QFlags@W4AlignmentFlag@Qt@@@@@Z @ 2796 NONAME ABSENT ; void HbProgressDialog::setIconAlignment(class QFlags<enum Qt::AlignmentFlag>)
	?wrapMode@HbNotificationDialog@@QBEHXZ @ 2797 NONAME ABSENT ; int HbNotificationDialog::wrapMode(void) const
	?textFlags@HbLabel@@QBEHXZ @ 2798 NONAME ABSENT ; int HbLabel::textFlags(void) const
	?dismissPolicy@HbDeviceMessageBox@@QBE?AW4DismissPolicy@HbPopup@@XZ @ 2799 NONAME ; enum HbPopup::DismissPolicy HbDeviceMessageBox::dismissPolicy(void) const
	?changeEvent@HbLabel@@MAEXPAVQEvent@@@Z @ 2800 NONAME ABSENT ; void HbLabel::changeEvent(class QEvent *)
	?tr@HbProgressDialog@@SA?AVQString@@PBD0@Z @ 2801 NONAME ; class QString HbProgressDialog::tr(char const *, char const *)
	?itemChange@HbCheckBox@@MAE?AVQVariant@@W4GraphicsItemChange@QGraphicsItem@@ABV2@@Z @ 2802 NONAME ; class QVariant HbCheckBox::itemChange(enum QGraphicsItem::GraphicsItemChange, class QVariant const &)
	?metaObject@HbLabel@@UBEPBUQMetaObject@@XZ @ 2803 NONAME ; struct QMetaObject const * HbLabel::metaObject(void) const
	?icon@HbLabel@@QBE?AVHbIcon@@XZ @ 2804 NONAME ; class HbIcon HbLabel::icon(void) const
	?clear@HbLabel@@QAEXXZ @ 2805 NONAME ; void HbLabel::clear(void)
	?scrollTo@HbGridView@@UAEXABVQModelIndex@@W4ScrollHint@HbAbstractItemView@@@Z @ 2806 NONAME ; void HbGridView::scrollTo(class QModelIndex const &, enum HbAbstractItemView::ScrollHint)
	?maximum@HbProgressDialog@@QBEHXZ @ 2807 NONAME ; int HbProgressDialog::maximum(void) const
	?setTextFlags@HbLabel@@QAEXH@Z @ 2808 NONAME ABSENT ; void HbLabel::setTextFlags(int)
	?staticMetaObject@HbLabel@@2UQMetaObject@@B @ 2809 NONAME ; struct QMetaObject const HbLabel::staticMetaObject
	?setSecondaryTextRowCount@HbListViewItem@@QAEXHH@Z @ 2810 NONAME ; void HbListViewItem::setSecondaryTextRowCount(int, int)
	?initStyleOption@HbProgressDialog@@IBEXPAVHbStyleOption@@@Z @ 2811 NONAME ABSENT ; void HbProgressDialog::initStyleOption(class HbStyleOption *) const
	?progressValue@HbProgressDialog@@QBEHXZ @ 2812 NONAME ; int HbProgressDialog::progressValue(void) const
	?setTextFormat@HbLabel@@QAEXW4TextFormat@Qt@@@Z @ 2813 NONAME ABSENT ; void HbLabel::setTextFormat(enum Qt::TextFormat)
	?scrollTo@HbDataForm@@UAEXABVQModelIndex@@W4ScrollHint@HbAbstractItemView@@@Z @ 2814 NONAME ; void HbDataForm::scrollTo(class QModelIndex const &, enum HbAbstractItemView::ScrollHint)
	?minimum@HbProgressDialog@@QBEHXZ @ 2815 NONAME ; int HbProgressDialog::minimum(void) const
	?setStretchingStyle@HbListViewItem@@QAEXW4StretchingStyle@1@@Z @ 2816 NONAME ; void HbListViewItem::setStretchingStyle(enum HbListViewItem::StretchingStyle)
	?metaObject@HbProgressDialog@@UBEPBUQMetaObject@@XZ @ 2817 NONAME ; struct QMetaObject const * HbProgressDialog::metaObject(void) const
	?getStaticMetaObject@HbProgressDialog@@SAABUQMetaObject@@XZ @ 2818 NONAME ; struct QMetaObject const & HbProgressDialog::getStaticMetaObject(void)
	?removeItem@HbAbstractItemContainer@@UAEXH_N@Z @ 2819 NONAME ; void HbAbstractItemContainer::removeItem(int, bool)
	?getStaticMetaObject@HbLabel@@SAABUQMetaObject@@XZ @ 2820 NONAME ; struct QMetaObject const & HbLabel::getStaticMetaObject(void)
	?primitive@HbProgressDialog@@UBEPAVQGraphicsItem@@W4Primitive@HbStyle@@@Z @ 2821 NONAME ABSENT ; class QGraphicsItem * HbProgressDialog::primitive(enum HbStyle::Primitive) const
	?d_func@HbProgressDialog@@ABEPBVHbProgressDialogPrivate@@XZ @ 2822 NONAME ; class HbProgressDialogPrivate const * HbProgressDialog::d_func(void) const
	?isEmpty@HbLabel@@QBE_NXZ @ 2823 NONAME ; bool HbLabel::isEmpty(void) const
	?rowsInserted@HbDataForm@@MAEXABVQModelIndex@@HH@Z @ 2824 NONAME ; void HbDataForm::rowsInserted(class QModelIndex const &, int, int)
	?iconAlignment@HbProgressDialog@@QBE?AV?$QFlags@W4AlignmentFlag@Qt@@@@XZ @ 2825 NONAME ABSENT ; class QFlags<enum Qt::AlignmentFlag> HbProgressDialog::iconAlignment(void) const
	?scrollTo@HbTreeView@@UAEXABVQModelIndex@@W4ScrollHint@HbAbstractItemView@@@Z @ 2826 NONAME ; void HbTreeView::scrollTo(class QModelIndex const &, enum HbAbstractItemView::ScrollHint)
	?textColor@HbLabel@@QBE?AVQColor@@XZ @ 2827 NONAME ; class QColor HbLabel::textColor(void) const
	?qt_metacast@HbLabel@@UAEPAXPBD@Z @ 2828 NONAME ; void * HbLabel::qt_metacast(char const *)
	??0HbSmileyEngine@@IAE@AAVHbSmileyEnginePrivate@@PAVQObject@@@Z @ 2829 NONAME ; HbSmileyEngine::HbSmileyEngine(class HbSmileyEnginePrivate &, class QObject *)
	?setDateTimeRange@HbDateTimePicker@@QAEXABVQDateTime@@0@Z @ 2830 NONAME ; void HbDateTimePicker::setDateTimeRange(class QDateTime const &, class QDateTime const &)
	?value@HbInputDialog@@QBE?AVQVariant@@H@Z @ 2831 NONAME ; class QVariant HbInputDialog::value(int) const
	?selectionAreaContains@HbGridViewItem@@UBE_NABVQPointF@@@Z @ 2832 NONAME ABSENT ; bool HbGridViewItem::selectionAreaContains(class QPointF const &) const
	?trUtf8@HbDateTimePicker@@SA?AVQString@@PBD0@Z @ 2833 NONAME ; class QString HbDateTimePicker::trUtf8(char const *, char const *)
	?load@HbSmileyTheme@@QAE_NABVQString@@@Z @ 2834 NONAME ABSENT ; bool HbSmileyTheme::load(class QString const &)
	?insertSmileys@HbSmileyEngine@@QAEXABVQTextCursor@@@Z @ 2835 NONAME ; void HbSmileyEngine::insertSmileys(class QTextCursor const &)
	?qt_metacall@HbDateTimePicker@@UAEHW4Call@QMetaObject@@HPAPAX@Z @ 2836 NONAME ; int HbDateTimePicker::qt_metacall(enum QMetaObject::Call, int, void * *)
	?maximumDateTime@HbDateTimePicker@@QBE?AVQDateTime@@XZ @ 2837 NONAME ; class QDateTime HbDateTimePicker::maximumDateTime(void) const
	?setMinimumDateTime@HbDateTimePicker@@QAEXABVQDateTime@@@Z @ 2838 NONAME ; void HbDateTimePicker::setMinimumDateTime(class QDateTime const &)
	?maximumDate@HbDateTimePicker@@QBE?AVQDate@@XZ @ 2839 NONAME ; class QDate HbDateTimePicker::maximumDate(void) const
	?setDateRange@HbDateTimePicker@@QAEXABVQDate@@0@Z @ 2840 NONAME ; void HbDateTimePicker::setDateRange(class QDate const &, class QDate const &)
	?trUtf8@HbDateTimePicker@@SA?AVQString@@PBD0H@Z @ 2841 NONAME ; class QString HbDateTimePicker::trUtf8(char const *, char const *, int)
	??0HbSmileyTheme@@QAE@ABV0@@Z @ 2842 NONAME ABSENT ; HbSmileyTheme::HbSmileyTheme(class HbSmileyTheme const &)
	?d_func@HbSmileyEngine@@AAEPAVHbSmileyEnginePrivate@@XZ @ 2843 NONAME ; class HbSmileyEnginePrivate * HbSmileyEngine::d_func(void)
	?minimumDate@HbDateTimePicker@@QBE?AVQDate@@XZ @ 2844 NONAME ; class QDate HbDateTimePicker::minimumDate(void) const
	?qt_metacast@HbSmileyEngine@@UAEPAXPBD@Z @ 2845 NONAME ; void * HbSmileyEngine::qt_metacast(char const *)
	??0HbDateTimePicker@@QAE@ABVQDate@@PAVQGraphicsItem@@@Z @ 2846 NONAME ; HbDateTimePicker::HbDateTimePicker(class QDate const &, class QGraphicsItem *)
	?getIp@HbInputDialog@@SA?AVQString@@ABV2@0PA_NPAVQGraphicsScene@@PAVQGraphicsItem@@@Z @ 2847 NONAME ABSENT ; class QString HbInputDialog::getIp(class QString const &, class QString const &, bool *, class QGraphicsScene *, class QGraphicsItem *)
	??0HbDateTimePicker@@QAE@PAVQGraphicsItem@@@Z @ 2848 NONAME ; HbDateTimePicker::HbDateTimePicker(class QGraphicsItem *)
	?setDisplayFormat@HbDateTimePicker@@QAEXABVQString@@@Z @ 2849 NONAME ; void HbDateTimePicker::setDisplayFormat(class QString const &)
	?displayFormat@HbDateTimePicker@@QBE?AVQString@@XZ @ 2850 NONAME ; class QString HbDateTimePicker::displayFormat(void) const
	?d_func@HbDateTimePicker@@ABEPBVHbDateTimePickerPrivate@@XZ @ 2851 NONAME ; class HbDateTimePickerPrivate const * HbDateTimePicker::d_func(void) const
	??BHbSmileyTheme@@QBE?AVQVariant@@XZ @ 2852 NONAME ABSENT ; HbSmileyTheme::operator class QVariant(void) const
	?insert@HbSmileyTheme@@QAEXABVQString@@ABVQStringList@@@Z @ 2853 NONAME ABSENT ; void HbSmileyTheme::insert(class QString const &, class QStringList const &)
	?removePattern@HbSmileyTheme@@QAEXABVQString@@@Z @ 2854 NONAME ABSENT ; void HbSmileyTheme::removePattern(class QString const &)
	?patterns@HbSmileyTheme@@QBE?AVQStringList@@XZ @ 2855 NONAME ABSENT ; class QStringList HbSmileyTheme::patterns(void) const
	??1HbDateTimePicker@@UAE@XZ @ 2856 NONAME ; HbDateTimePicker::~HbDateTimePicker(void)
	?toHtml@HbSmileyEngine@@QBE?AVQString@@XZ @ 2857 NONAME ; class QString HbSmileyEngine::toHtml(void) const
	?maximumTime@HbDateTimePicker@@QBE?AVQTime@@XZ @ 2858 NONAME ; class QTime HbDateTimePicker::maximumTime(void) const
	?mouseReleaseEvent@HbTreeView@@MAEXPAVQGraphicsSceneMouseEvent@@@Z @ 2859 NONAME ABSENT ; void HbTreeView::mouseReleaseEvent(class QGraphicsSceneMouseEvent *)
	?trUtf8@HbSmileyEngine@@SA?AVQString@@PBD0H@Z @ 2860 NONAME ABSENT ; class QString HbSmileyEngine::trUtf8(char const *, char const *, int)
	?qt_metacast@HbDateTimePicker@@UAEPAXPBD@Z @ 2861 NONAME ; void * HbDateTimePicker::qt_metacast(char const *)
	?setTheme@HbSmileyEngine@@QAEXABVHbSmileyTheme@@@Z @ 2862 NONAME ; void HbSmileyEngine::setTheme(class HbSmileyTheme const &)
	?minimumTime@HbDateTimePicker@@QBE?AVQTime@@XZ @ 2863 NONAME ; class QTime HbDateTimePicker::minimumTime(void) const
	?date@HbDateTimePicker@@QBE?AVQDate@@XZ @ 2864 NONAME ; class QDate HbDateTimePicker::date(void) const
	?insert@HbSmileyTheme@@QAEXABVQString@@0@Z @ 2865 NONAME ABSENT ; void HbSmileyTheme::insert(class QString const &, class QString const &)
	?setDocument@HbSmileyEngine@@QAEXPAVQTextDocument@@@Z @ 2866 NONAME ; void HbSmileyEngine::setDocument(class QTextDocument *)
	?metaObject@HbSmileyEngine@@UBEPBUQMetaObject@@XZ @ 2867 NONAME ; struct QMetaObject const * HbSmileyEngine::metaObject(void) const
	??1HbSmileyTheme@@QAE@XZ @ 2868 NONAME ABSENT ; HbSmileyTheme::~HbSmileyTheme(void)
	?insertSmiley@HbSmileyEngine@@QAEXABVQTextCursor@@@Z @ 2869 NONAME ; void HbSmileyEngine::insertSmiley(class QTextCursor const &)
	?type@HbDateTimePicker@@UBEHXZ @ 2870 NONAME ; int HbDateTimePicker::type(void) const
	?tr@HbDateTimePicker@@SA?AVQString@@PBD0H@Z @ 2871 NONAME ; class QString HbDateTimePicker::tr(char const *, char const *, int)
	??0HbDateTimePicker@@IAE@AAVHbDateTimePickerPrivate@@PAVQGraphicsItem@@@Z @ 2872 NONAME ; HbDateTimePicker::HbDateTimePicker(class HbDateTimePickerPrivate &, class QGraphicsItem *)
	?defaultSmileyTheme@HbAbstractEdit@@QBE?AVHbSmileyTheme@@XZ @ 2873 NONAME ; class HbSmileyTheme HbAbstractEdit::defaultSmileyTheme(void) const
	?replace@HbSmileyTheme@@QAEXABVQString@@ABVQStringList@@@Z @ 2874 NONAME ABSENT ; void HbSmileyTheme::replace(class QString const &, class QStringList const &)
	?setAdditionalRowVisible@HbInputDialog@@QAEX_N@Z @ 2875 NONAME ; void HbInputDialog::setAdditionalRowVisible(bool)
	?theme@HbSmileyEngine@@QBE?AVHbSmileyTheme@@XZ @ 2876 NONAME ; class HbSmileyTheme HbSmileyEngine::theme(void) const
	?dateTimeChanged@HbDateTimePicker@@IAEXABVQDateTime@@@Z @ 2877 NONAME ; void HbDateTimePicker::dateTimeChanged(class QDateTime const &)
	?toPlainText@HbSmileyEngine@@QBE?AVQString@@XZ @ 2878 NONAME ; class QString HbSmileyEngine::toPlainText(void) const
	?patterns@HbSmileyTheme@@QBE?AVQStringList@@ABVQString@@@Z @ 2879 NONAME ABSENT ; class QStringList HbSmileyTheme::patterns(class QString const &) const
	?timeChanged@HbDateTimePicker@@IAEXABVQTime@@@Z @ 2880 NONAME ; void HbDateTimePicker::timeChanged(class QTime const &)
	?isSmileysEnabled@HbAbstractEdit@@QBE_NXZ @ 2881 NONAME ; bool HbAbstractEdit::isSmileysEnabled(void) const
	?setValue@HbInputDialog@@QAEXABVQVariant@@H@Z @ 2882 NONAME ; void HbInputDialog::setValue(class QVariant const &, int)
	?d_func@HbSmileyEngine@@ABEPBVHbSmileyEnginePrivate@@XZ @ 2883 NONAME ; class HbSmileyEnginePrivate const * HbSmileyEngine::d_func(void) const
	?setMinMaxTextAlignment@HbProgressBar@@QAEXV?$QFlags@W4AlignmentFlag@Qt@@@@@Z @ 2884 NONAME ; void HbProgressBar::setMinMaxTextAlignment(class QFlags<enum Qt::AlignmentFlag>)
	?setMaximumDateTime@HbDateTimePicker@@QAEXABVQDateTime@@@Z @ 2885 NONAME ; void HbDateTimePicker::setMaximumDateTime(class QDateTime const &)
	?isNull@HbSmileyTheme@@QBE_NXZ @ 2886 NONAME ABSENT ; bool HbSmileyTheme::isNull(void) const
	??0HbDateTimePicker@@QAE@ABVQTime@@PAVQGraphicsItem@@@Z @ 2887 NONAME ; HbDateTimePicker::HbDateTimePicker(class QTime const &, class QGraphicsItem *)
	?isAdditionalRowVisible@HbInputDialog@@QAE_NXZ @ 2888 NONAME ; bool HbInputDialog::isAdditionalRowVisible(void)
	??0HbDateTimePicker@@QAE@ABVQDateTime@@PAVQGraphicsItem@@@Z @ 2889 NONAME ; HbDateTimePicker::HbDateTimePicker(class QDateTime const &, class QGraphicsItem *)
	?getStaticMetaObject@HbSmileyEngine@@SAABUQMetaObject@@XZ @ 2890 NONAME ; struct QMetaObject const & HbSmileyEngine::getStaticMetaObject(void)
	?staticMetaObject@HbDateTimePicker@@2UQMetaObject@@B @ 2891 NONAME ; struct QMetaObject const HbDateTimePicker::staticMetaObject
	?smiley@HbSmileyTheme@@QBE?AVQString@@ABV2@@Z @ 2892 NONAME ABSENT ; class QString HbSmileyTheme::smiley(class QString const &) const
	?clear@HbSmileyTheme@@QAEXXZ @ 2893 NONAME ABSENT ; void HbSmileyTheme::clear(void)
	?smileys@HbSmileyTheme@@QBE?AVQStringList@@XZ @ 2894 NONAME ABSENT ; class QStringList HbSmileyTheme::smileys(void) const
	?staticMetaObject@HbSmileyEngine@@2UQMetaObject@@B @ 2895 NONAME ; struct QMetaObject const HbSmileyEngine::staticMetaObject
	??0HbSmileyTheme@@QAE@XZ @ 2896 NONAME ABSENT ; HbSmileyTheme::HbSmileyTheme(void)
	?time@HbDateTimePicker@@QBE?AVQTime@@XZ @ 2897 NONAME ; class QTime HbDateTimePicker::time(void) const
	?metaObject@HbDateTimePicker@@UBEPBUQMetaObject@@XZ @ 2898 NONAME ; struct QMetaObject const * HbDateTimePicker::metaObject(void) const
	?remove@HbSmileyTheme@@QAEXABVQString@@@Z @ 2899 NONAME ABSENT ; void HbSmileyTheme::remove(class QString const &)
	?defaultTheme@HbSmileyEngine@@QBE?AVHbSmileyTheme@@XZ @ 2900 NONAME ; class HbSmileyTheme HbSmileyEngine::defaultTheme(void) const
	?d_func@HbDateTimePicker@@AAEPAVHbDateTimePickerPrivate@@XZ @ 2901 NONAME ; class HbDateTimePickerPrivate * HbDateTimePicker::d_func(void)
	?tr@HbDateTimePicker@@SA?AVQString@@PBD0@Z @ 2902 NONAME ; class QString HbDateTimePicker::tr(char const *, char const *)
	??_EHbDateTimePicker@@UAE@I@Z @ 2903 NONAME ; HbDateTimePicker::~HbDateTimePicker(unsigned int)
	??0HbSmileyEngine@@QAE@PAVQObject@@@Z @ 2904 NONAME ; HbSmileyEngine::HbSmileyEngine(class QObject *)
	?setSmileyTheme@HbAbstractEdit@@QAEXABVHbSmileyTheme@@@Z @ 2905 NONAME ; void HbAbstractEdit::setSmileyTheme(class HbSmileyTheme const &)
	?trUtf8@HbSmileyEngine@@SA?AVQString@@PBD0@Z @ 2906 NONAME ABSENT ; class QString HbSmileyEngine::trUtf8(char const *, char const *)
	?setTime@HbDateTimePicker@@QAEXABVQTime@@@Z @ 2907 NONAME ; void HbDateTimePicker::setTime(class QTime const &)
	?insertSmileys@HbSmileyEngine@@QAEXXZ @ 2908 NONAME ; void HbSmileyEngine::insertSmileys(void)
	?setMinimumTime@HbDateTimePicker@@QAEXABVQTime@@@Z @ 2909 NONAME ; void HbDateTimePicker::setMinimumTime(class QTime const &)
	?setSmileysEnabled@HbAbstractEdit@@QAEX_N@Z @ 2910 NONAME ; void HbAbstractEdit::setSmileysEnabled(bool)
	?resetSmileyTheme@HbAbstractEdit@@QAEXXZ @ 2911 NONAME ; void HbAbstractEdit::resetSmileyTheme(void)
	?qt_metacall@HbSmileyEngine@@UAEHW4Call@QMetaObject@@HPAPAX@Z @ 2912 NONAME ; int HbSmileyEngine::qt_metacall(enum QMetaObject::Call, int, void * *)
	?tr@HbSmileyEngine@@SA?AVQString@@PBD0@Z @ 2913 NONAME ABSENT ; class QString HbSmileyEngine::tr(char const *, char const *)
	?dateChanged@HbDateTimePicker@@IAEXABVQDate@@@Z @ 2914 NONAME ; void HbDateTimePicker::dateChanged(class QDate const &)
	??1HbSmileyEngine@@UAE@XZ @ 2915 NONAME ; HbSmileyEngine::~HbSmileyEngine(void)
	??4HbSmileyTheme@@QAEAAV0@ABV0@@Z @ 2916 NONAME ABSENT ; class HbSmileyTheme & HbSmileyTheme::operator=(class HbSmileyTheme const &)
	?setMaximumTime@HbDateTimePicker@@QAEXABVQTime@@@Z @ 2917 NONAME ; void HbDateTimePicker::setMaximumTime(class QTime const &)
	?minimumDateTime@HbDateTimePicker@@QBE?AVQDateTime@@XZ @ 2918 NONAME ; class QDateTime HbDateTimePicker::minimumDateTime(void) const
	?getStaticMetaObject@HbDateTimePicker@@SAABUQMetaObject@@XZ @ 2919 NONAME ; struct QMetaObject const & HbDateTimePicker::getStaticMetaObject(void)
	??0HbSmileyTheme@@QAE@ABVQString@@@Z @ 2920 NONAME ABSENT ; HbSmileyTheme::HbSmileyTheme(class QString const &)
	?selectionAreaContains@HbAbstractViewItem@@UBE_NABVQPointF@@@Z @ 2921 NONAME ABSENT ; bool HbAbstractViewItem::selectionAreaContains(class QPointF const &) const
	?setDateTime@HbDateTimePicker@@QAEXABVQDateTime@@@Z @ 2922 NONAME ; void HbDateTimePicker::setDateTime(class QDateTime const &)
	?setDate@HbDateTimePicker@@QAEXABVQDate@@@Z @ 2923 NONAME ; void HbDateTimePicker::setDate(class QDate const &)
	?minMaxTextAlignment@HbProgressBar@@QBE?AV?$QFlags@W4AlignmentFlag@Qt@@@@XZ @ 2924 NONAME ; class QFlags<enum Qt::AlignmentFlag> HbProgressBar::minMaxTextAlignment(void) const
	?smileyTheme@HbAbstractEdit@@QBE?AVHbSmileyTheme@@XZ @ 2925 NONAME ; class HbSmileyTheme HbAbstractEdit::smileyTheme(void) const
	?stopAnimation@HbSmileyEngine@@QAEXXZ @ 2926 NONAME ; void HbSmileyEngine::stopAnimation(void)
	?dateTime@HbDateTimePicker@@QBE?AVQDateTime@@XZ @ 2927 NONAME ; class QDateTime HbDateTimePicker::dateTime(void) const
	?setTimeRange@HbDateTimePicker@@QAEXABVQTime@@0@Z @ 2928 NONAME ; void HbDateTimePicker::setTimeRange(class QTime const &, class QTime const &)
	?setMinimumDate@HbDateTimePicker@@QAEXABVQDate@@@Z @ 2929 NONAME ; void HbDateTimePicker::setMinimumDate(class QDate const &)
	??_EHbSmileyEngine@@UAE@I@Z @ 2930 NONAME ABSENT ; HbSmileyEngine::~HbSmileyEngine(unsigned int)
	?startAnimation@HbSmileyEngine@@QAEXXZ @ 2931 NONAME ; void HbSmileyEngine::startAnimation(void)
	?replace@HbSmileyTheme@@QAEXABVQString@@0@Z @ 2932 NONAME ABSENT ; void HbSmileyTheme::replace(class QString const &, class QString const &)
	??7HbSmileyTheme@@QBE_NXZ @ 2933 NONAME ABSENT ; bool HbSmileyTheme::operator!(void) const
	?setMaximumDate@HbDateTimePicker@@QAEXABVQDate@@@Z @ 2934 NONAME ; void HbDateTimePicker::setMaximumDate(class QDate const &)
	?tr@HbSmileyEngine@@SA?AVQString@@PBD0H@Z @ 2935 NONAME ABSENT ; class QString HbSmileyEngine::tr(char const *, char const *, int)
	?scrollTo@HbAbstractItemView@@UAEXABVQModelIndex@@W4ScrollHint@1@@Z @ 2936 NONAME ; void HbAbstractItemView::scrollTo(class QModelIndex const &, enum HbAbstractItemView::ScrollHint)
	?setGeometry@HbDateTimePicker@@UAEXABVQRectF@@@Z @ 2937 NONAME ; void HbDateTimePicker::setGeometry(class QRectF const &)
	?appendDataFormItem@HbDataFormModel@@QAEPAVHbDataFormModelItem@@W4DataItemType@2@ABVQString@@PAV2@@Z @ 2938 NONAME ; class HbDataFormModelItem * HbDataFormModel::appendDataFormItem(enum HbDataFormModelItem::DataItemType, class QString const &, class HbDataFormModelItem *)
	?mergeCharFormat@HbFormatDialog@@QAEXABVQTextCharFormat@@@Z @ 2939 NONAME ; void HbFormatDialog::mergeCharFormat(class QTextCharFormat const &)
	?tr@HbDataFormModel@@SA?AVQString@@PBD0H@Z @ 2940 NONAME ; class QString HbDataFormModel::tr(char const *, char const *, int)
	?DismissPolicy@CHbDeviceMessageBoxSymbian@@QBEHXZ @ 2941 NONAME ; int CHbDeviceMessageBoxSymbian::DismissPolicy(void) const
	?Title@CHbDeviceNotificationDialogSymbian@@QBE?AVTPtrC16@@XZ @ 2942 NONAME ABSENT ; class TPtrC16 CHbDeviceNotificationDialogSymbian::Title(void) const
	?NotificationL@CHbDeviceNotificationDialogSymbian@@SAXABVTDesC16@@00@Z @ 2943 NONAME ; void CHbDeviceNotificationDialogSymbian::NotificationL(class TDesC16 const &, class TDesC16 const &, class TDesC16 const &)
	?qt_metacall@HbDataFormModel@@UAEHW4Call@QMetaObject@@HPAPAX@Z @ 2944 NONAME ; int HbDataFormModel::qt_metacall(enum QMetaObject::Call, int, void * *)
	?Type@CHbDeviceMessageBoxSymbian@@QBE?AW4TType@1@XZ @ 2945 NONAME ; enum CHbDeviceMessageBoxSymbian::TType CHbDeviceMessageBoxSymbian::Type(void) const
	?SetTextL@CHbDeviceNotificationDialogSymbian@@QAEXABVTDesC16@@@Z @ 2946 NONAME ; void CHbDeviceNotificationDialogSymbian::SetTextL(class TDesC16 const &)
	?insertDataFormGroup@HbDataFormModel@@QAEPAVHbDataFormModelItem@@HABVQString@@PAV2@@Z @ 2947 NONAME ; class HbDataFormModelItem * HbDataFormModel::insertDataFormGroup(int, class QString const &, class HbDataFormModelItem *)
	?IconName@CHbDeviceNotificationDialogSymbian@@QBE?AVTPtrC16@@XZ @ 2948 NONAME ABSENT ; class TPtrC16 CHbDeviceNotificationDialogSymbian::IconName(void) const
	?qt_metacast@HbFormatDialog@@UAEPAXPBD@Z @ 2949 NONAME ; void * HbFormatDialog::qt_metacast(char const *)
	?setTitleTextWrapping@HbNotificationDialog@@QAEXW4TextWrapping@Hb@@@Z @ 2950 NONAME ; void HbNotificationDialog::setTitleTextWrapping(enum Hb::TextWrapping)
	?setContent@HbFormatDialog@@MAEXVQTextCursor@@@Z @ 2951 NONAME ; void HbFormatDialog::setContent(class QTextCursor)
	?UpdateL@CHbDeviceMessageBoxSymbian@@QAEXXZ @ 2952 NONAME ; void CHbDeviceMessageBoxSymbian::UpdateL(void)
	?SetButtonL@CHbDeviceMessageBoxSymbian@@QAEXW4TButtonId@1@H@Z @ 2953 NONAME ABSENT ; void CHbDeviceMessageBoxSymbian::SetButtonL(enum CHbDeviceMessageBoxSymbian::TButtonId, int)
	?SetIconNameL@CHbDeviceNotificationDialogSymbian@@QAEXABVTDesC16@@@Z @ 2954 NONAME ; void CHbDeviceNotificationDialogSymbian::SetIconNameL(class TDesC16 const &)
	?appendDataFormGroup@HbDataFormModel@@QAEPAVHbDataFormModelItem@@ABVQString@@PAV2@@Z @ 2955 NONAME ; class HbDataFormModelItem * HbDataFormModel::appendDataFormGroup(class QString const &, class HbDataFormModelItem *)
	?updatePrimitives@HbDateTimePicker@@UAEXXZ @ 2956 NONAME ; void HbDateTimePicker::updatePrimitives(void)
	?primitive@HbDateTimePicker@@UBEPAVQGraphicsItem@@W4Primitive@HbStyle@@@Z @ 2957 NONAME ABSENT ; class QGraphicsItem * HbDateTimePicker::primitive(enum HbStyle::Primitive) const
	?SetTitleL@CHbDeviceNotificationDialogSymbian@@QAEXABVTDesC16@@@Z @ 2958 NONAME ; void CHbDeviceNotificationDialogSymbian::SetTitleL(class TDesC16 const &)
	?SetDismissPolicyL@CHbDeviceMessageBoxSymbian@@QAEXH@Z @ 2959 NONAME ABSENT ; void CHbDeviceMessageBoxSymbian::SetDismissPolicyL(int)
	?IsTouchActivating@CHbDeviceNotificationDialogSymbian@@QBEHXZ @ 2960 NONAME ; int CHbDeviceNotificationDialogSymbian::IsTouchActivating(void) const
	?setAlignmentRight@HbFormatDialog@@QAEX_N@Z @ 2961 NONAME ; void HbFormatDialog::setAlignmentRight(bool)
	?format@HbAbstractEdit@@QAEXXZ @ 2962 NONAME ; void HbAbstractEdit::format(void)
	?tr@HbFormatDialog@@SA?AVQString@@PBD0H@Z @ 2963 NONAME ; class QString HbFormatDialog::tr(char const *, char const *, int)
	?EnableTouchActivationL@CHbDeviceNotificationDialogSymbian@@QAEXH@Z @ 2964 NONAME ABSENT ; void CHbDeviceNotificationDialogSymbian::EnableTouchActivationL(int)
	?d_func@HbFormatDialog@@ABEPBVHbFormatDialogPrivate@@XZ @ 2965 NONAME ; class HbFormatDialogPrivate const * HbFormatDialog::d_func(void) const
	?SetIconAlignmentL@CHbDeviceMessageBoxSymbian@@QAEXH@Z @ 2966 NONAME ABSENT ; void CHbDeviceMessageBoxSymbian::SetIconAlignmentL(int)
	?TitleTextWrapping@CHbDeviceNotificationDialogSymbian@@QBE?AW4TextWrapping@1@XZ @ 2967 NONAME ; enum CHbDeviceNotificationDialogSymbian::TextWrapping CHbDeviceNotificationDialogSymbian::TitleTextWrapping(void) const
	?NewL@CHbDeviceNotificationDialogSymbian@@SAPAV1@PAVMHbDeviceNotificationDialogObserver@@@Z @ 2968 NONAME ; class CHbDeviceNotificationDialogSymbian * CHbDeviceNotificationDialogSymbian::NewL(class MHbDeviceNotificationDialogObserver *)
	?IconAlignment@CHbDeviceMessageBoxSymbian@@QBEHXZ @ 2969 NONAME ABSENT ; int CHbDeviceMessageBoxSymbian::IconAlignment(void) const
	?contentWidgetData@HbDataFormModelItem@@QBE?AV?$QHash@VQString@@VQVariant@@@@XZ @ 2970 NONAME ; class QHash<class QString, class QVariant> HbDataFormModelItem::contentWidgetData(void) const
	?setFormatDialog@HbAbstractEdit@@QAEXV?$QPointer@VHbFormatDialog@@@@@Z @ 2971 NONAME ; void HbAbstractEdit::setFormatDialog(class QPointer<class HbFormatDialog>)
	?appendDataFormGroupPage@HbDataFormModel@@QAEPAVHbDataFormModelItem@@ABVQString@@PAV2@@Z @ 2972 NONAME ; class HbDataFormModelItem * HbDataFormModel::appendDataFormGroupPage(class QString const &, class HbDataFormModelItem *)
	?ButtonText@CHbDeviceMessageBoxSymbian@@QBE?BVTPtrC16@@W4TButtonId@1@@Z @ 2973 NONAME ; class TPtrC16 const CHbDeviceMessageBoxSymbian::ButtonText(enum CHbDeviceMessageBoxSymbian::TButtonId) const
	?trUtf8@HbDataFormModel@@SA?AVQString@@PBD0H@Z @ 2974 NONAME ; class QString HbDataFormModel::trUtf8(char const *, char const *, int)
	?qt_metacast@HbDataFormModel@@UAEPAXPBD@Z @ 2975 NONAME ; void * HbDataFormModel::qt_metacast(char const *)
	?WarningL@CHbDeviceMessageBoxSymbian@@SAXABVTDesC16@@@Z @ 2976 NONAME ; void CHbDeviceMessageBoxSymbian::WarningL(class TDesC16 const &)
	?Close@CHbDeviceNotificationDialogSymbian@@QAEXXZ @ 2977 NONAME ; void CHbDeviceNotificationDialogSymbian::Close(void)
	??1HbFormatDialog@@UAE@XZ @ 2978 NONAME ; HbFormatDialog::~HbFormatDialog(void)
	?SetButtonTextL@CHbDeviceMessageBoxSymbian@@QAEXW4TButtonId@1@ABVTDesC16@@@Z @ 2979 NONAME ; void CHbDeviceMessageBoxSymbian::SetButtonTextL(enum CHbDeviceMessageBoxSymbian::TButtonId, class TDesC16 const &)
	??1CHbDeviceMessageBoxSymbian@@UAE@XZ @ 2980 NONAME ; CHbDeviceMessageBoxSymbian::~CHbDeviceMessageBoxSymbian(void)
	??0HbFormatDialog@@QAE@PAVQGraphicsItem@@@Z @ 2981 NONAME ; HbFormatDialog::HbFormatDialog(class QGraphicsItem *)
	?NewL@CHbDeviceMessageBoxSymbian@@SAPAV1@W4TType@1@PAVMHbDeviceMessageBoxObserver@@@Z @ 2982 NONAME ; class CHbDeviceMessageBoxSymbian * CHbDeviceMessageBoxSymbian::NewL(enum CHbDeviceMessageBoxSymbian::TType, class MHbDeviceMessageBoxObserver *)
	?insertDataFormGroupPage@HbDataFormModel@@QAEPAVHbDataFormModelItem@@HABVQString@@PAV2@@Z @ 2983 NONAME ; class HbDataFormModelItem * HbDataFormModel::insertDataFormGroupPage(int, class QString const &, class HbDataFormModelItem *)
	?HasButton@CHbDeviceMessageBoxSymbian@@QBEHW4TButtonId@1@@Z @ 2984 NONAME ; int CHbDeviceMessageBoxSymbian::HasButton(enum CHbDeviceMessageBoxSymbian::TButtonId) const
	?tr@HbDataFormModel@@SA?AVQString@@PBD0@Z @ 2985 NONAME ; class QString HbDataFormModel::tr(char const *, char const *)
	?setTitleTextWrapping@HbDeviceNotificationDialog@@QAEXW4TextWrapping@Hb@@@Z @ 2986 NONAME ; void HbDeviceNotificationDialog::setTitleTextWrapping(enum Hb::TextWrapping)
	?setStyleItalic@HbFormatDialog@@QAEX_N@Z @ 2987 NONAME ; void HbFormatDialog::setStyleItalic(bool)
	?getStaticMetaObject@HbFormatDialog@@SAABUQMetaObject@@XZ @ 2988 NONAME ; struct QMetaObject const & HbFormatDialog::getStaticMetaObject(void)
	?ExecL@CHbDeviceMessageBoxSymbian@@QAE?AW4TButtonId@1@XZ @ 2989 NONAME ; enum CHbDeviceMessageBoxSymbian::TButtonId CHbDeviceMessageBoxSymbian::ExecL(void)
	?hideEvent@HbNotificationDialog@@MAEXPAVQHideEvent@@@Z @ 2990 NONAME ; void HbNotificationDialog::hideEvent(class QHideEvent *)
	?SetTimeoutL@CHbDeviceMessageBoxSymbian@@QAEXH@Z @ 2991 NONAME ABSENT ; void CHbDeviceMessageBoxSymbian::SetTimeoutL(int)
	?setAlignmentCenter@HbFormatDialog@@QAEX_N@Z @ 2992 NONAME ; void HbFormatDialog::setAlignmentCenter(bool)
	?getStaticMetaObject@HbDataFormModel@@SAABUQMetaObject@@XZ @ 2993 NONAME ; struct QMetaObject const & HbDataFormModel::getStaticMetaObject(void)
	?Close@CHbDeviceMessageBoxSymbian@@QAEXXZ @ 2994 NONAME ; void CHbDeviceMessageBoxSymbian::Close(void)
	?SetTitleTextWrappingL@CHbDeviceNotificationDialogSymbian@@QAEXW4TextWrapping@1@@Z @ 2995 NONAME ABSENT ; void CHbDeviceNotificationDialogSymbian::SetTitleTextWrappingL(enum CHbDeviceNotificationDialogSymbian::TextWrapping)
	?SetTextL@CHbDeviceMessageBoxSymbian@@QAEXABVTDesC16@@@Z @ 2996 NONAME ; void CHbDeviceMessageBoxSymbian::SetTextL(class TDesC16 const &)
	?metaObject@HbDataFormModel@@UBEPBUQMetaObject@@XZ @ 2997 NONAME ; struct QMetaObject const * HbDataFormModel::metaObject(void) const
	?QuestionL@CHbDeviceMessageBoxSymbian@@SA?AW4TButtonId@1@ABVTDesC16@@00@Z @ 2998 NONAME ; enum CHbDeviceMessageBoxSymbian::TButtonId CHbDeviceMessageBoxSymbian::QuestionL(class TDesC16 const &, class TDesC16 const &, class TDesC16 const &)
	??1CHbDeviceNotificationDialogSymbian@@UAE@XZ @ 2999 NONAME ; CHbDeviceNotificationDialogSymbian::~CHbDeviceNotificationDialogSymbian(void)
	??_EHbFormatDialog@@UAE@I@Z @ 3000 NONAME ; HbFormatDialog::~HbFormatDialog(unsigned int)
	?trUtf8@HbFormatDialog@@SA?AVQString@@PBD0@Z @ 3001 NONAME ; class QString HbFormatDialog::trUtf8(char const *, char const *)
	?trUtf8@HbFormatDialog@@SA?AVQString@@PBD0H@Z @ 3002 NONAME ; class QString HbFormatDialog::trUtf8(char const *, char const *, int)
	?Timeout@CHbDeviceNotificationDialogSymbian@@QBEHXZ @ 3003 NONAME ; int CHbDeviceNotificationDialogSymbian::Timeout(void) const
	?ShowL@CHbDeviceMessageBoxSymbian@@QAEXXZ @ 3004 NONAME ; void CHbDeviceMessageBoxSymbian::ShowL(void)
	?setFontPointSize@HbFormatDialog@@QAEXABVQString@@@Z @ 3005 NONAME ; void HbFormatDialog::setFontPointSize(class QString const &)
	?launch@HbFormatDialog@@QAEXPAVHbAbstractEdit@@@Z @ 3006 NONAME ; void HbFormatDialog::launch(class HbAbstractEdit *)
	?InformationL@CHbDeviceMessageBoxSymbian@@SAXABVTDesC16@@@Z @ 3007 NONAME ; void CHbDeviceMessageBoxSymbian::InformationL(class TDesC16 const &)
	?NotificationL@CHbDeviceNotificationDialogSymbian@@SAXABVTDesC16@@0@Z @ 3008 NONAME ; void CHbDeviceNotificationDialogSymbian::NotificationL(class TDesC16 const &, class TDesC16 const &)
	?appendDataFormItem@HbDataFormModel@@QAEXPAVHbDataFormModelItem@@0@Z @ 3009 NONAME ; void HbDataFormModel::appendDataFormItem(class HbDataFormModelItem *, class HbDataFormModelItem *)
	?tr@HbFormatDialog@@SA?AVQString@@PBD0@Z @ 3010 NONAME ; class QString HbFormatDialog::tr(char const *, char const *)
	?setStyleBold@HbFormatDialog@@QAEX_N@Z @ 3011 NONAME ; void HbFormatDialog::setStyleBold(bool)
	?UpdateL@CHbDeviceNotificationDialogSymbian@@QAEXXZ @ 3012 NONAME ; void CHbDeviceNotificationDialogSymbian::UpdateL(void)
	?ShowL@CHbDeviceNotificationDialogSymbian@@QAEXXZ @ 3013 NONAME ; void CHbDeviceNotificationDialogSymbian::ShowL(void)
	?setAlignmentJustify@HbFormatDialog@@QAEX_N@Z @ 3014 NONAME ; void HbFormatDialog::setAlignmentJustify(bool)
	?insertDataFormItem@HbDataFormModel@@QAEPAVHbDataFormModelItem@@HW4DataItemType@2@ABVQString@@PAV2@@Z @ 3015 NONAME ; class HbDataFormModelItem * HbDataFormModel::insertDataFormItem(int, enum HbDataFormModelItem::DataItemType, class QString const &, class HbDataFormModelItem *)
	?insertDataFormItem@HbDataFormModel@@QAEXHPAVHbDataFormModelItem@@0@Z @ 3016 NONAME ; void HbDataFormModel::insertDataFormItem(int, class HbDataFormModelItem *, class HbDataFormModelItem *)
	?metaObject@HbFormatDialog@@UBEPBUQMetaObject@@XZ @ 3017 NONAME ; struct QMetaObject const * HbFormatDialog::metaObject(void) const
	?titleTextWrapping@HbNotificationDialog@@QBE?AW4TextWrapping@Hb@@XZ @ 3018 NONAME ; enum Hb::TextWrapping HbNotificationDialog::titleTextWrapping(void) const
	?orientationChanged@HbNotificationDialog@@AAEXW4Orientation@Qt@@@Z @ 3019 NONAME ; void HbNotificationDialog::orientationChanged(enum Qt::Orientation)
	?setAlignmentLeft@HbFormatDialog@@QAEX_N@Z @ 3020 NONAME ; void HbFormatDialog::setAlignmentLeft(bool)
	?showEvent@HbNotificationDialog@@MAEXPAVQShowEvent@@@Z @ 3021 NONAME ; void HbNotificationDialog::showEvent(class QShowEvent *)
	?SetObserver@CHbDeviceMessageBoxSymbian@@QAEXPAVMHbDeviceMessageBoxObserver@@@Z @ 3022 NONAME ; void CHbDeviceMessageBoxSymbian::SetObserver(class MHbDeviceMessageBoxObserver *)
	?SetTimeoutL@CHbDeviceNotificationDialogSymbian@@QAEXH@Z @ 3023 NONAME ABSENT ; void CHbDeviceNotificationDialogSymbian::SetTimeoutL(int)
	?titleTextWrapping@HbDeviceNotificationDialog@@QBE?AW4TextWrapping@Hb@@XZ @ 3024 NONAME ; enum Hb::TextWrapping HbDeviceNotificationDialog::titleTextWrapping(void) const
	?staticMetaObject@HbFormatDialog@@2UQMetaObject@@B @ 3025 NONAME ; struct QMetaObject const HbFormatDialog::staticMetaObject
	?event@HbDateTimePicker@@MAE_NPAVQEvent@@@Z @ 3026 NONAME ; bool HbDateTimePicker::event(class QEvent *)
	?pressStateChanged@HbAbstractViewItem@@MAEX_N0@Z @ 3027 NONAME ; void HbAbstractViewItem::pressStateChanged(bool, bool)
	?IconName@CHbDeviceMessageBoxSymbian@@QBE?BVTPtrC16@@XZ @ 3028 NONAME ; class TPtrC16 const CHbDeviceMessageBoxSymbian::IconName(void) const
	?trUtf8@HbDataFormModel@@SA?AVQString@@PBD0@Z @ 3029 NONAME ; class QString HbDataFormModel::trUtf8(char const *, char const *)
	?qt_metacall@HbFormatDialog@@UAEHW4Call@QMetaObject@@HPAPAX@Z @ 3030 NONAME ; int HbFormatDialog::qt_metacall(enum QMetaObject::Call, int, void * *)
	?Text@CHbDeviceMessageBoxSymbian@@QBE?BVTPtrC16@@XZ @ 3031 NONAME ; class TPtrC16 const CHbDeviceMessageBoxSymbian::Text(void) const
	?d_func@HbFormatDialog@@AAEPAVHbFormatDialogPrivate@@XZ @ 3032 NONAME ; class HbFormatDialogPrivate * HbFormatDialog::d_func(void)
	?SetIconNameL@CHbDeviceMessageBoxSymbian@@QAEXABVTDesC16@@@Z @ 3033 NONAME ; void CHbDeviceMessageBoxSymbian::SetIconNameL(class TDesC16 const &)
	?setStyleUnderline@HbFormatDialog@@QAEX_N@Z @ 3034 NONAME ; void HbFormatDialog::setStyleUnderline(bool)
	?SetTypeL@CHbDeviceMessageBoxSymbian@@QAEXW4TType@1@@Z @ 3035 NONAME ; void CHbDeviceMessageBoxSymbian::SetTypeL(enum CHbDeviceMessageBoxSymbian::TType)
	?setStyleBullet@HbFormatDialog@@QAEX_N@Z @ 3036 NONAME ; void HbFormatDialog::setStyleBullet(bool)
	?Timeout@CHbDeviceMessageBoxSymbian@@QBEHXZ @ 3037 NONAME ; int CHbDeviceMessageBoxSymbian::Timeout(void) const
	?itemShown@HbDataForm@@IAEXABVQModelIndex@@@Z @ 3038 NONAME ; void HbDataForm::itemShown(class QModelIndex const &)
	?setModel@HbTreeView@@UAEXPAVQAbstractItemModel@@PAVHbAbstractViewItem@@@Z @ 3039 NONAME ; void HbTreeView::setModel(class QAbstractItemModel *, class HbAbstractViewItem *)
	?staticMetaObject@HbDataFormModel@@2UQMetaObject@@B @ 3040 NONAME ; struct QMetaObject const HbDataFormModel::staticMetaObject
	?Text@CHbDeviceNotificationDialogSymbian@@QBE?AVTPtrC16@@XZ @ 3041 NONAME ABSENT ; class TPtrC16 CHbDeviceNotificationDialogSymbian::Text(void) const
	?orientationChanged@HbListView@@MAEXW4Orientation@Qt@@@Z @ 3042 NONAME ; void HbListView::orientationChanged(enum Qt::Orientation)
	?setStretched@HbPushButton@@QAEX_N@Z @ 3043 NONAME ; void HbPushButton::setStretched(bool)
	?polish@HbFormatDialog@@MAEXAAVHbStyleParameters@@@Z @ 3044 NONAME ; void HbFormatDialog::polish(class HbStyleParameters &)
	?tr@HbComboDropDown@@SA?AVQString@@PBD0H@Z @ 3045 NONAME ABSENT ; class QString HbComboDropDown::tr(char const *, char const *, int)
	?tr@HbComboDropDown@@SA?AVQString@@PBD0@Z @ 3046 NONAME ABSENT ; class QString HbComboDropDown::tr(char const *, char const *)
	?polish@HbTextEdit@@MAEXAAVHbStyleParameters@@@Z @ 3047 NONAME ; void HbTextEdit::polish(class HbStyleParameters &)
	?marqueeHeading@HbGroupBox@@QBE_NXZ @ 3048 NONAME ; bool HbGroupBox::marqueeHeading(void) const
	?getStaticMetaObject@HbComboDropDown@@SAABUQMetaObject@@XZ @ 3049 NONAME ABSENT ; struct QMetaObject const & HbComboDropDown::getStaticMetaObject(void)
	?qt_metacall@HbComboDropDown@@UAEHW4Call@QMetaObject@@HPAPAX@Z @ 3050 NONAME ABSENT ; int HbComboDropDown::qt_metacall(enum QMetaObject::Call, int, void * *)
	?setHeading@HbGroupBox@@QAEXABVQString@@@Z @ 3051 NONAME ; void HbGroupBox::setHeading(class QString const &)
	?polish@HbGridViewItem@@MAEXAAVHbStyleParameters@@@Z @ 3052 NONAME ; void HbGridViewItem::polish(class HbStyleParameters &)
	?information@HbMessageBox@@SAXABVQString@@PAVQGraphicsWidget@@PAVQGraphicsScene@@PAVQGraphicsItem@@@Z @ 3053 NONAME ABSENT ; void HbMessageBox::information(class QString const &, class QGraphicsWidget *, class QGraphicsScene *, class QGraphicsItem *)
	??0HbComboDropDown@@QAE@PAVQGraphicsItem@@@Z @ 3054 NONAME ABSENT ; HbComboDropDown::HbComboDropDown(class QGraphicsItem *)
	?textAlignment@HbPushButton@@QBE?AV?$QFlags@W4AlignmentFlag@Qt@@@@XZ @ 3055 NONAME ; class QFlags<enum Qt::AlignmentFlag> HbPushButton::textAlignment(void) const
	?polish@HbAbstractEdit@@MAEXAAVHbStyleParameters@@@Z @ 3056 NONAME ; void HbAbstractEdit::polish(class HbStyleParameters &)
	?save@HbDataFormViewItem@@UAEXXZ @ 3057 NONAME ; void HbDataFormViewItem::save(void)
	?pressStateChanged@HbDataFormViewItem@@MAEX_N0@Z @ 3058 NONAME ; void HbDataFormViewItem::pressStateChanged(bool, bool)
	?setMarqueeHeading@HbGroupBox@@QAEX_N@Z @ 3059 NONAME ; void HbGroupBox::setMarqueeHeading(bool)
	?isStretched@HbPushButton@@QBE_NXZ @ 3060 NONAME ; bool HbPushButton::isStretched(void) const
	?setTextAlignment@HbPushButton@@QAEXV?$QFlags@W4AlignmentFlag@Qt@@@@@Z @ 3061 NONAME ; void HbPushButton::setTextAlignment(class QFlags<enum Qt::AlignmentFlag>)
	?progressType@HbDeviceProgressDialog@@QBE?AW4ProgressDialogType@HbProgressDialog@@XZ @ 3062 NONAME ; enum HbProgressDialog::ProgressDialogType HbDeviceProgressDialog::progressType(void) const
	??1HbComboDropDown@@UAE@XZ @ 3063 NONAME ABSENT ; HbComboDropDown::~HbComboDropDown(void)
	?trUtf8@HbComboDropDown@@SA?AVQString@@PBD0H@Z @ 3064 NONAME ABSENT ; class QString HbComboDropDown::trUtf8(char const *, char const *, int)
	?trUtf8@HbComboDropDown@@SA?AVQString@@PBD0@Z @ 3065 NONAME ABSENT ; class QString HbComboDropDown::trUtf8(char const *, char const *)
	?eventFilter@HbComboDropDown@@MAE_NPAVQObject@@PAVQEvent@@@Z @ 3066 NONAME ABSENT ; bool HbComboDropDown::eventFilter(class QObject *, class QEvent *)
	??0HbDeviceProgressDialog@@QAE@W4ProgressDialogType@HbProgressDialog@@PAVQObject@@@Z @ 3067 NONAME ; HbDeviceProgressDialog::HbDeviceProgressDialog(enum HbProgressDialog::ProgressDialogType, class QObject *)
	?staticMetaObject@HbComboDropDown@@2UQMetaObject@@B @ 3068 NONAME ABSENT ; struct QMetaObject const HbComboDropDown::staticMetaObject
	?keypadOpened@HbComboDropDown@@QAEXXZ @ 3069 NONAME ABSENT ; void HbComboDropDown::keypadOpened(void)
	?keypadClosed@HbComboDropDown@@QAEXXZ @ 3070 NONAME ABSENT ; void HbComboDropDown::keypadClosed(void)
	?getSecondaryTextRowCount@HbListViewItem@@QBEXAAH0@Z @ 3071 NONAME ; void HbListViewItem::getSecondaryTextRowCount(int &, int &) const
	?qt_metacast@HbComboDropDown@@UAEPAXPBD@Z @ 3072 NONAME ABSENT ; void * HbComboDropDown::qt_metacast(char const *)
	?heading@HbGroupBox@@QBE?AVQString@@XZ @ 3073 NONAME ; class QString HbGroupBox::heading(void) const
	?warning@HbMessageBox@@SAXABVQString@@PAVQGraphicsWidget@@PAVQGraphicsScene@@PAVQGraphicsItem@@@Z @ 3074 NONAME ABSENT ; void HbMessageBox::warning(class QString const &, class QGraphicsWidget *, class QGraphicsScene *, class QGraphicsItem *)
	?metaObject@HbComboDropDown@@UBEPBUQMetaObject@@XZ @ 3075 NONAME ABSENT ; struct QMetaObject const * HbComboDropDown::metaObject(void) const
	?mousePressEvent@HbMessageBox@@MAEXPAVQGraphicsSceneMouseEvent@@@Z @ 3076 NONAME ABSENT ; void HbMessageBox::mousePressEvent(class QGraphicsSceneMouseEvent *)
	?restore@HbDataFormViewItem@@UAEXXZ @ 3077 NONAME ; void HbDataFormViewItem::restore(void)
	??_EHbComboDropDown@@UAE@I@Z @ 3078 NONAME ABSENT ; HbComboDropDown::~HbComboDropDown(unsigned int)
	?setProgressType@HbDeviceProgressDialog@@QAEXW4ProgressDialogType@HbProgressDialog@@@Z @ 3079 NONAME ; void HbDeviceProgressDialog::setProgressType(enum HbProgressDialog::ProgressDialogType)
	?mouseReleaseEvent@HbMessageBox@@MAEXPAVQGraphicsSceneMouseEvent@@@Z @ 3080 NONAME ABSENT ; void HbMessageBox::mouseReleaseEvent(class QGraphicsSceneMouseEvent *)
	?question@HbMessageBox@@SA_NABVQString@@00PAVQGraphicsWidget@@PAVQGraphicsScene@@PAVQGraphicsItem@@@Z @ 3081 NONAME ABSENT ; bool HbMessageBox::question(class QString const &, class QString const &, class QString const &, class QGraphicsWidget *, class QGraphicsScene *, class QGraphicsItem *)
	?IconName@CHbDeviceProgressDialogSymbian@@QBE?BVTPtrC16@@XZ @ 3082 NONAME ; class TPtrC16 const CHbDeviceProgressDialogSymbian::IconName(void) const
	?SetIconAlignment@CHbDeviceMessageBoxSymbian@@QAEXH@Z @ 3083 NONAME ABSENT ; void CHbDeviceMessageBoxSymbian::SetIconAlignment(int)
	?SetTitleTextWrapping@CHbDeviceNotificationDialogSymbian@@QAEXW4TextWrapping@1@@Z @ 3084 NONAME ; void CHbDeviceNotificationDialogSymbian::SetTitleTextWrapping(enum CHbDeviceNotificationDialogSymbian::TextWrapping)
	?type@HbSliderPopup@@UBEHXZ @ 3085 NONAME ; int HbSliderPopup::type(void) const
	?SetDismissPolicy@CHbDeviceMessageBoxSymbian@@QAEXH@Z @ 3086 NONAME ; void CHbDeviceMessageBoxSymbian::SetDismissPolicy(int)
	?ProgressValue@CHbDeviceProgressDialogSymbian@@QBEHXZ @ 3087 NONAME ; int CHbDeviceProgressDialogSymbian::ProgressValue(void) const
	?SetTextWrapping@CHbDeviceProgressDialogSymbian@@QAEXH@Z @ 3088 NONAME ABSENT ; void CHbDeviceProgressDialogSymbian::SetTextWrapping(int)
	?Text@CHbDeviceNotificationDialogSymbian@@QBE?BVTPtrC16@@XZ @ 3089 NONAME ; class TPtrC16 const CHbDeviceNotificationDialogSymbian::Text(void) const
	?setIconVisible@HbMessageBox@@QAEX_N@Z @ 3090 NONAME ; void HbMessageBox::setIconVisible(bool)
	?Cancel@CHbDeviceProgressDialogSymbian@@QAEXXZ @ 3091 NONAME ABSENT ; void CHbDeviceProgressDialogSymbian::Cancel(void)
	?Title@CHbDeviceNotificationDialogSymbian@@QBE?BVTPtrC16@@XZ @ 3092 NONAME ; class TPtrC16 const CHbDeviceNotificationDialogSymbian::Title(void) const
	?SetRange@CHbDeviceProgressDialogSymbian@@QAEXHH@Z @ 3093 NONAME ; void CHbDeviceProgressDialogSymbian::SetRange(int, int)
	?SetIconAlignment@CHbDeviceProgressDialogSymbian@@QAEXH@Z @ 3094 NONAME ABSENT ; void CHbDeviceProgressDialogSymbian::SetIconAlignment(int)
	?SetMaximum@CHbDeviceProgressDialogSymbian@@QAEXH@Z @ 3095 NONAME ; void CHbDeviceProgressDialogSymbian::SetMaximum(int)
	?Text@CHbDeviceProgressDialogSymbian@@QBE?BVTPtrC16@@XZ @ 3096 NONAME ; class TPtrC16 const CHbDeviceProgressDialogSymbian::Text(void) const
	?itemChange@HbVolumeSliderPopup@@MAE?AVQVariant@@W4GraphicsItemChange@QGraphicsItem@@ABV2@@Z @ 3097 NONAME ABSENT ; class QVariant HbVolumeSliderPopup::itemChange(enum QGraphicsItem::GraphicsItemChange, class QVariant const &)
	??1CHbDeviceProgressDialogSymbian@@UAE@XZ @ 3098 NONAME ; CHbDeviceProgressDialogSymbian::~CHbDeviceProgressDialogSymbian(void)
	?IconName@CHbDeviceNotificationDialogSymbian@@QBE?BVTPtrC16@@XZ @ 3099 NONAME ; class TPtrC16 const CHbDeviceNotificationDialogSymbian::IconName(void) const
	?polish@HbSlider@@MAEXAAVHbStyleParameters@@@Z @ 3100 NONAME ABSENT ; void HbSlider::polish(class HbStyleParameters &)
	?SetProgressValue@CHbDeviceProgressDialogSymbian@@QAEXH@Z @ 3101 NONAME ; void CHbDeviceProgressDialogSymbian::SetProgressValue(int)
	?icon@HbListWidgetItem@@QBE?AVHbIcon@@XZ @ 3102 NONAME ; class HbIcon HbListWidgetItem::icon(void) const
	?SetIconNameL@CHbDeviceProgressDialogSymbian@@QAEXABVTDesC16@@@Z @ 3103 NONAME ; void CHbDeviceProgressDialogSymbian::SetIconNameL(class TDesC16 const &)
	?SetTimeout@CHbDeviceMessageBoxSymbian@@QAEXH@Z @ 3104 NONAME ; void CHbDeviceMessageBoxSymbian::SetTimeout(int)
	?SetProgressType@CHbDeviceProgressDialogSymbian@@QAEXW4TType@1@@Z @ 3105 NONAME ; void CHbDeviceProgressDialogSymbian::SetProgressType(enum CHbDeviceProgressDialogSymbian::TType)
	?SetAutoClose@CHbDeviceProgressDialogSymbian@@QAEXH@Z @ 3106 NONAME ; void CHbDeviceProgressDialogSymbian::SetAutoClose(int)
	?secondaryIcon@HbListWidgetItem@@QBE?AVHbIcon@@XZ @ 3107 NONAME ; class HbIcon HbListWidgetItem::secondaryIcon(void) const
	?SetTextL@CHbDeviceProgressDialogSymbian@@QAEXABVTDesC16@@@Z @ 3108 NONAME ; void CHbDeviceProgressDialogSymbian::SetTextL(class TDesC16 const &)
	?SetButton@CHbDeviceMessageBoxSymbian@@QAEXW4TButtonId@1@H@Z @ 3109 NONAME ; void CHbDeviceMessageBoxSymbian::SetButton(enum CHbDeviceMessageBoxSymbian::TButtonId, int)
	?SetTextAlignment@CHbDeviceProgressDialogSymbian@@QAEXH@Z @ 3110 NONAME ABSENT ; void CHbDeviceProgressDialogSymbian::SetTextAlignment(int)
	?EnableTouchActivation@CHbDeviceNotificationDialogSymbian@@QAEXH@Z @ 3111 NONAME ; void CHbDeviceNotificationDialogSymbian::EnableTouchActivation(int)
	?SetMinimum@CHbDeviceProgressDialogSymbian@@QAEXH@Z @ 3112 NONAME ; void CHbDeviceProgressDialogSymbian::SetMinimum(int)
	?SetObserver@CHbDeviceProgressDialogSymbian@@QAEXPAVMHbDeviceProgressDialogObserver@@@Z @ 3113 NONAME ; void CHbDeviceProgressDialogSymbian::SetObserver(class MHbDeviceProgressDialogObserver *)
	?TextAlignment@CHbDeviceProgressDialogSymbian@@QBEHXZ @ 3114 NONAME ABSENT ; int CHbDeviceProgressDialogSymbian::TextAlignment(void) const
	?TextWrapping@CHbDeviceProgressDialogSymbian@@QBEHXZ @ 3115 NONAME ABSENT ; int CHbDeviceProgressDialogSymbian::TextWrapping(void) const
	?IconAlignment@CHbDeviceProgressDialogSymbian@@QBEHXZ @ 3116 NONAME ABSENT ; int CHbDeviceProgressDialogSymbian::IconAlignment(void) const
	?setIcon@HbListWidgetItem@@QAEXABVHbIcon@@@Z @ 3117 NONAME ; void HbListWidgetItem::setIcon(class HbIcon const &)
	?ShowL@CHbDeviceProgressDialogSymbian@@QAEXXZ @ 3118 NONAME ; void CHbDeviceProgressDialogSymbian::ShowL(void)
	?NewL@CHbDeviceProgressDialogSymbian@@SAPAV1@W4TType@1@PAVMHbDeviceProgressDialogObserver@@@Z @ 3119 NONAME ; class CHbDeviceProgressDialogSymbian * CHbDeviceProgressDialogSymbian::NewL(enum CHbDeviceProgressDialogSymbian::TType, class MHbDeviceProgressDialogObserver *)
	?UpdateL@CHbDeviceProgressDialogSymbian@@QAEXXZ @ 3120 NONAME ; void CHbDeviceProgressDialogSymbian::UpdateL(void)
	?ProgressType@CHbDeviceProgressDialogSymbian@@QBE?AW4TType@1@XZ @ 3121 NONAME ; enum CHbDeviceProgressDialogSymbian::TType CHbDeviceProgressDialogSymbian::ProgressType(void) const
	?itemChange@HbZoomSliderPopup@@MAE?AVQVariant@@W4GraphicsItemChange@QGraphicsItem@@ABV2@@Z @ 3122 NONAME ABSENT ; class QVariant HbZoomSliderPopup::itemChange(enum QGraphicsItem::GraphicsItemChange, class QVariant const &)
	?Minimum@CHbDeviceProgressDialogSymbian@@QBEHXZ @ 3123 NONAME ; int CHbDeviceProgressDialogSymbian::Minimum(void) const
	?Maximum@CHbDeviceProgressDialogSymbian@@QBEHXZ @ 3124 NONAME ; int CHbDeviceProgressDialogSymbian::Maximum(void) const
	?iconVisible@HbMessageBox@@QBE_NXZ @ 3125 NONAME ; bool HbMessageBox::iconVisible(void) const
	?AutoClose@CHbDeviceProgressDialogSymbian@@QBEHXZ @ 3126 NONAME ; int CHbDeviceProgressDialogSymbian::AutoClose(void) const
	?setSecondaryIcon@HbListWidgetItem@@QAEXABVHbIcon@@@Z @ 3127 NONAME ; void HbListWidgetItem::setSecondaryIcon(class HbIcon const &)
	?SetTimeout@CHbDeviceNotificationDialogSymbian@@QAEXH@Z @ 3128 NONAME ; void CHbDeviceNotificationDialogSymbian::SetTimeout(int)
	?type@HbIndexFeedback@@UBEHXZ @ 3129 NONAME ; int HbIndexFeedback::type(void) const
	?trUtf8@HbIndexFeedback@@SA?AVQString@@PBD0@Z @ 3130 NONAME ; class QString HbIndexFeedback::trUtf8(char const *, char const *)
	?setItemView@HbIndexFeedback@@QAEXPAVHbAbstractItemView@@@Z @ 3131 NONAME ; void HbIndexFeedback::setItemView(class HbAbstractItemView *)
	?orientationAboutToBeChanged@HbGridView@@MAEXXZ @ 3132 NONAME ; void HbGridView::orientationAboutToBeChanged(void)
	?trUtf8@HbIndexFeedback@@SA?AVQString@@PBD0H@Z @ 3133 NONAME ; class QString HbIndexFeedback::trUtf8(char const *, char const *, int)
	?primitive@HbIndexFeedback@@UBEPAVQGraphicsItem@@W4Primitive@HbStyle@@@Z @ 3134 NONAME ABSENT ; class QGraphicsItem * HbIndexFeedback::primitive(enum HbStyle::Primitive) const
	?staticMetaObject@HbIndexFeedback@@2UQMetaObject@@B @ 3135 NONAME ; struct QMetaObject const HbIndexFeedback::staticMetaObject
	?setIndexFeedbackPolicy@HbIndexFeedback@@QAEXW4IndexFeedbackPolicy@1@@Z @ 3136 NONAME ; void HbIndexFeedback::setIndexFeedbackPolicy(enum HbIndexFeedback::IndexFeedbackPolicy)
	?polish@HbIndexFeedback@@MAEXAAVHbStyleParameters@@@Z @ 3137 NONAME ; void HbIndexFeedback::polish(class HbStyleParameters &)
	?eventFilter@HbIndexFeedback@@MAE_NPAVQObject@@PAVQEvent@@@Z @ 3138 NONAME ; bool HbIndexFeedback::eventFilter(class QObject *, class QEvent *)
	?indexFeedbackPolicy@HbIndexFeedback@@QBE?AW4IndexFeedbackPolicy@1@XZ @ 3139 NONAME ; enum HbIndexFeedback::IndexFeedbackPolicy HbIndexFeedback::indexFeedbackPolicy(void) const
	?d_func@HbIndexFeedback@@AAEPAVHbIndexFeedbackPrivate@@XZ @ 3140 NONAME ; class HbIndexFeedbackPrivate * HbIndexFeedback::d_func(void)
	?metaObject@HbIndexFeedback@@UBEPBUQMetaObject@@XZ @ 3141 NONAME ; struct QMetaObject const * HbIndexFeedback::metaObject(void) const
	?qt_metacast@HbIndexFeedback@@UAEPAXPBD@Z @ 3142 NONAME ; void * HbIndexFeedback::qt_metacast(char const *)
	?initStyleOption@HbIndexFeedback@@IBEXPAVHbStyleOptionIndexFeedback@@@Z @ 3143 NONAME ABSENT ; void HbIndexFeedback::initStyleOption(class HbStyleOptionIndexFeedback *) const
	?qt_metacall@HbIndexFeedback@@UAEHW4Call@QMetaObject@@HPAPAX@Z @ 3144 NONAME ; int HbIndexFeedback::qt_metacall(enum QMetaObject::Call, int, void * *)
	?itemChange@HbAbstractEdit@@MAE?AVQVariant@@W4GraphicsItemChange@QGraphicsItem@@ABV2@@Z @ 3145 NONAME ; class QVariant HbAbstractEdit::itemChange(enum QGraphicsItem::GraphicsItemChange, class QVariant const &)
	?tr@HbIndexFeedback@@SA?AVQString@@PBD0@Z @ 3146 NONAME ; class QString HbIndexFeedback::tr(char const *, char const *)
	?d_func@HbIndexFeedback@@ABEPBVHbIndexFeedbackPrivate@@XZ @ 3147 NONAME ; class HbIndexFeedbackPrivate const * HbIndexFeedback::d_func(void) const
	?itemView@HbIndexFeedback@@QBEPAVHbAbstractItemView@@XZ @ 3148 NONAME ; class HbAbstractItemView * HbIndexFeedback::itemView(void) const
	?tr@HbIndexFeedback@@SA?AVQString@@PBD0H@Z @ 3149 NONAME ; class QString HbIndexFeedback::tr(char const *, char const *, int)
	?getStaticMetaObject@HbIndexFeedback@@SAABUQMetaObject@@XZ @ 3150 NONAME ; struct QMetaObject const & HbIndexFeedback::getStaticMetaObject(void)
	??0HbIndexFeedback@@QAE@PAVQGraphicsItem@@@Z @ 3151 NONAME ; HbIndexFeedback::HbIndexFeedback(class QGraphicsItem *)
	??_EHbIndexFeedback@@UAE@I@Z @ 3152 NONAME ; HbIndexFeedback::~HbIndexFeedback(unsigned int)
	?sceneEventFilter@HbIndexFeedback@@MAE_NPAVQGraphicsItem@@PAVQEvent@@@Z @ 3153 NONAME ; bool HbIndexFeedback::sceneEventFilter(class QGraphicsItem *, class QEvent *)
	??1HbIndexFeedback@@UAE@XZ @ 3154 NONAME ; HbIndexFeedback::~HbIndexFeedback(void)
	?initStyleOption@HbComboBox@@IBEXPAVHbStyleOptionComboBox@@@Z @ 3155 NONAME ; void HbComboBox::initStyleOption(class HbStyleOptionComboBox *) const
	?scrollDirectionChanged@HbGridView@@IAEXV?$QFlags@W4Orientation@Qt@@@@@Z @ 3156 NONAME ; void HbGridView::scrollDirectionChanged(class QFlags<enum Qt::Orientation>)
	?animationDefinition@HbDeviceProgressDialog@@QBE?AVQString@@XZ @ 3157 NONAME ; class QString HbDeviceProgressDialog::animationDefinition(void) const
	?question@HbMessageBox@@SAXABVQString@@PAVQObject@@PBD00PAVQGraphicsWidget@@PAVQGraphicsScene@@PAVQGraphicsItem@@@Z @ 3158 NONAME ; void HbMessageBox::question(class QString const &, class QObject *, char const *, class QString const &, class QString const &, class QGraphicsWidget *, class QGraphicsScene *, class QGraphicsItem *)
	?selectionCommand@HbRadioButtonList@@IAE?AV?$QFlags@W4SelectionFlag@QItemSelectionModel@@@@PBVHbAbstractViewItem@@PBVQEvent@@_N@Z @ 3159 NONAME ABSENT ; class QFlags<enum QItemSelectionModel::SelectionFlag> HbRadioButtonList::selectionCommand(class HbAbstractViewItem const *, class QEvent const *, bool)
	?getInteger@HbInputDialog@@SAXABVQString@@PAVQObject@@PBDHPAVQGraphicsScene@@PAVQGraphicsItem@@@Z @ 3160 NONAME ; void HbInputDialog::getInteger(class QString const &, class QObject *, char const *, int, class QGraphicsScene *, class QGraphicsItem *)
	?getIp@HbInputDialog@@SAXABVQString@@PAVQObject@@PBD0PAVQGraphicsScene@@PAVQGraphicsItem@@@Z @ 3161 NONAME ; void HbInputDialog::getIp(class QString const &, class QObject *, char const *, class QString const &, class QGraphicsScene *, class QGraphicsItem *)
	?characterAt@HbAbstractEdit@@QBE?AVQChar@@H@Z @ 3162 NONAME ; class QChar HbAbstractEdit::characterAt(int) const
	?sceneEventFilter@HbAbstractItemView@@MAE_NPAVQGraphicsItem@@PAVQEvent@@@Z @ 3163 NONAME ; bool HbAbstractItemView::sceneEventFilter(class QGraphicsItem *, class QEvent *)
	?finished@HbColorDialog@@IAEXVQColor@@_N@Z @ 3164 NONAME ; void HbColorDialog::finished(class QColor, bool)
	?setEnabledAnimations@HbAbstractItemView@@QAEXV?$QFlags@W4ItemAnimation@HbAbstractItemView@@@@@Z @ 3165 NONAME ; void HbAbstractItemView::setEnabledAnimations(class QFlags<enum HbAbstractItemView::ItemAnimation>)
	?draggedItem@HbListView@@QBEPAVHbAbstractViewItem@@XZ @ 3166 NONAME ; class HbAbstractViewItem * HbListView::draggedItem(void) const
	?showEvent@HbDataFormViewItem@@MAEXPAVQShowEvent@@@Z @ 3167 NONAME ; void HbDataFormViewItem::showEvent(class QShowEvent *)
	?setAnimationDefinition@HbDeviceMessageBox@@QAEXAAVQString@@@Z @ 3168 NONAME ; void HbDeviceMessageBox::setAnimationDefinition(class QString &)
	?getText@HbInputDialog@@SAXABVQString@@PAVQObject@@PBD0PAVQGraphicsScene@@PAVQGraphicsItem@@@Z @ 3169 NONAME ; void HbInputDialog::getText(class QString const &, class QObject *, char const *, class QString const &, class QGraphicsScene *, class QGraphicsItem *)
	?setSequentialShow@HbNotificationDialog@@QAEX_N@Z @ 3170 NONAME ; void HbNotificationDialog::setSequentialShow(bool)
	?warning@HbMessageBox@@SAXABVQString@@PAVQObject@@PBDPAVQGraphicsWidget@@PAVQGraphicsScene@@PAVQGraphicsItem@@@Z @ 3171 NONAME ; void HbMessageBox::warning(class QString const &, class QObject *, char const *, class QGraphicsWidget *, class QGraphicsScene *, class QGraphicsItem *)
	?itemChange@HbNotificationDialog@@MAE?AVQVariant@@W4GraphicsItemChange@QGraphicsItem@@ABV2@@Z @ 3172 NONAME ; class QVariant HbNotificationDialog::itemChange(enum QGraphicsItem::GraphicsItemChange, class QVariant const &)
	?mouseMoveEvent@HbPushButton@@MAEXPAVQGraphicsSceneMouseEvent@@@Z @ 3173 NONAME ABSENT ; void HbPushButton::mouseMoveEvent(class QGraphicsSceneMouseEvent *)
	?AnimationDefinition@CHbDeviceMessageBoxSymbian@@QBE?AVTPtrC16@@XZ @ 3174 NONAME ; class TPtrC16 CHbDeviceMessageBoxSymbian::AnimationDefinition(void) const
	?enabledAnimations@HbAbstractItemView@@QBE?AV?$QFlags@W4ItemAnimation@HbAbstractItemView@@@@XZ @ 3175 NONAME ; class QFlags<enum HbAbstractItemView::ItemAnimation> HbAbstractItemView::enabledAnimations(void) const
	?getStringItems@HbListDialog@@SAXABVQString@@ABVQStringList@@PAVQObject@@PBDHW4SelectionMode@HbAbstractItemView@@PAVQGraphicsScene@@PAVQGraphicsItem@@@Z @ 3176 NONAME ABSENT ; void HbListDialog::getStringItems(class QString const &, class QStringList const &, class QObject *, char const *, int, enum HbAbstractItemView::SelectionMode, class QGraphicsScene *, class QGraphicsItem *)
	?getWidgetItems@HbListDialog@@SAXABVQString@@AAV?$QList@PAVHbListWidgetItem@@@@PAVQObject@@PBDHW4SelectionMode@HbAbstractItemView@@PAVQGraphicsScene@@PAVQGraphicsItem@@@Z @ 3177 NONAME ABSENT ; void HbListDialog::getWidgetItems(class QString const &, class QList<class HbListWidgetItem *> &, class QObject *, char const *, int, enum HbAbstractItemView::SelectionMode, class QGraphicsScene *, class QGraphicsItem *)
	?animationDefinition@HbDeviceNotificationDialog@@QBE?AVQString@@XZ @ 3178 NONAME ; class QString HbDeviceNotificationDialog::animationDefinition(void) const
	?isSequentialShow@HbNotificationDialog@@QBE_NXZ @ 3179 NONAME ; bool HbNotificationDialog::isSequentialShow(void) const
	?mouseReleaseEvent@HbDataForm@@MAEXPAVQGraphicsSceneMouseEvent@@@Z @ 3180 NONAME ABSENT ; void HbDataForm::mouseReleaseEvent(class QGraphicsSceneMouseEvent *)
	?SetAnimationDefinitionL@CHbDeviceMessageBoxSymbian@@QAEXABVTDesC16@@@Z @ 3181 NONAME ; void CHbDeviceMessageBoxSymbian::SetAnimationDefinitionL(class TDesC16 const &)
	?handleState@HbProgressSlider@@QBE?AW4HandleState@1@XZ @ 3182 NONAME ABSENT ; enum HbProgressSlider::HandleState HbProgressSlider::handleState(void) const
	?AnimationDefinition@CHbDeviceProgressDialogSymbian@@QBE?AVTPtrC16@@XZ @ 3183 NONAME ; class TPtrC16 CHbDeviceProgressDialogSymbian::AnimationDefinition(void) const
	?setEnabled@HbDataFormModelItem@@QAEX_N@Z @ 3184 NONAME ; void HbDataFormModelItem::setEnabled(bool)
	?getModelIndexes@HbListDialog@@SAXABVQString@@PAVQAbstractItemModel@@PAVQObject@@PBDW4SelectionMode@HbAbstractItemView@@PAVQGraphicsScene@@PAVQGraphicsItem@@@Z @ 3185 NONAME ABSENT ; void HbListDialog::getModelIndexes(class QString const &, class QAbstractItemModel *, class QObject *, char const *, enum HbAbstractItemView::SelectionMode, class QGraphicsScene *, class QGraphicsItem *)
	?getDouble@HbInputDialog@@SAXABVQString@@PAVQObject@@PBDNPAVQGraphicsScene@@PAVQGraphicsItem@@@Z @ 3186 NONAME ; void HbInputDialog::getDouble(class QString const &, class QObject *, char const *, double, class QGraphicsScene *, class QGraphicsItem *)
	?isEnabled@HbDataFormModelItem@@QBE_NXZ @ 3187 NONAME ; bool HbDataFormModelItem::isEnabled(void) const
	?canSetModelIndex@HbDataFormViewItem@@UBE_NABVQModelIndex@@@Z @ 3188 NONAME ; bool HbDataFormViewItem::canSetModelIndex(class QModelIndex const &) const
	?flags@HbDataFormModel@@UBE?AV?$QFlags@W4ItemFlag@Qt@@@@ABVQModelIndex@@@Z @ 3189 NONAME ; class QFlags<enum Qt::ItemFlag> HbDataFormModel::flags(class QModelIndex const &) const
	?setAnimationDefinition@HbDeviceNotificationDialog@@QAEXAAVQString@@@Z @ 3190 NONAME ; void HbDeviceNotificationDialog::setAnimationDefinition(class QString &)
	?AnimationDefinition@CHbDeviceNotificationDialogSymbian@@QBE?AVTPtrC16@@XZ @ 3191 NONAME ; class TPtrC16 CHbDeviceNotificationDialogSymbian::AnimationDefinition(void) const
	?focusInEvent@HbLineEdit@@MAEXPAVQFocusEvent@@@Z @ 3192 NONAME ; void HbLineEdit::focusInEvent(class QFocusEvent *)
	?SetAnimationDefinitionL@CHbDeviceNotificationDialogSymbian@@QAEXABVTDesC16@@@Z @ 3193 NONAME ; void CHbDeviceNotificationDialogSymbian::SetAnimationDefinitionL(class TDesC16 const &)
	?flags@HbDataFormModelItem@@QBE?AV?$QFlags@W4ItemFlag@Qt@@@@XZ @ 3194 NONAME ; class QFlags<enum Qt::ItemFlag> HbDataFormModelItem::flags(void) const
	?animationDefinition@HbDeviceMessageBox@@QBE?AVQString@@XZ @ 3195 NONAME ; class QString HbDeviceMessageBox::animationDefinition(void) const
	?getColor@HbColorDialog@@SAXABV?$QList@VQColor@@@@ABVQColor@@PAVQObject@@PBD_NPAVQGraphicsScene@@PAVQGraphicsItem@@@Z @ 3196 NONAME ; void HbColorDialog::getColor(class QList<class QColor> const &, class QColor const &, class QObject *, char const *, bool, class QGraphicsScene *, class QGraphicsItem *)
	?setAnimationDefinition@HbDeviceProgressDialog@@QAEXAAVQString@@@Z @ 3197 NONAME ; void HbDeviceProgressDialog::setAnimationDefinition(class QString &)
	?setHandleState@HbProgressSlider@@QAEXW4HandleState@1@@Z @ 3198 NONAME ABSENT ; void HbProgressSlider::setHandleState(enum HbProgressSlider::HandleState)
	?SetAnimationDefinitionL@CHbDeviceProgressDialogSymbian@@QAEXABVTDesC16@@@Z @ 3199 NONAME ; void CHbDeviceProgressDialogSymbian::SetAnimationDefinitionL(class TDesC16 const &)
	?information@HbMessageBox@@SAXABVQString@@PAVQObject@@PBDPAVQGraphicsWidget@@PAVQGraphicsScene@@PAVQGraphicsItem@@@Z @ 3200 NONAME ; void HbMessageBox::information(class QString const &, class QObject *, char const *, class QGraphicsWidget *, class QGraphicsScene *, class QGraphicsItem *)
	?sceneEventFilter@HbProgressSlider@@MAE_NPAVQGraphicsItem@@PAVQEvent@@@Z @ 3201 NONAME ; bool HbProgressSlider::sceneEventFilter(class QGraphicsItem *, class QEvent *)
	?selectionCommand@HbAbstractItemView@@MAE?AV?$QFlags@W4SelectionFlag@QItemSelectionModel@@@@PBVHbAbstractViewItem@@PBVQEvent@@@Z @ 3202 NONAME ; class QFlags<enum QItemSelectionModel::SelectionFlag> HbAbstractItemView::selectionCommand(class HbAbstractViewItem const *, class QEvent const *)
	?initStyleOption@HbDataFormViewItem@@IBEXPAVHbStyleOptionDataFormViewItem@@@Z @ 3203 NONAME ; void HbDataFormViewItem::initStyleOption(class HbStyleOptionDataFormViewItem *) const
	?focusOutEvent@HbTextEdit@@MAEXPAVQFocusEvent@@@Z @ 3204 NONAME ABSENT ; void HbTextEdit::focusOutEvent(class QFocusEvent *)
	?focusInEvent@HbTextEdit@@MAEXPAVQFocusEvent@@@Z @ 3205 NONAME ABSENT ; void HbTextEdit::focusInEvent(class QFocusEvent *)
	?d_func@HbModelIterator@@ABEPBVHbModelIteratorPrivate@@XZ @ 3206 NONAME ; class HbModelIteratorPrivate const * HbModelIterator::d_func(void) const
	?setAdditionalTextAlignment@HbPushButton@@QAEXV?$QFlags@W4AlignmentFlag@Qt@@@@@Z @ 3207 NONAME ; void HbPushButton::setAdditionalTextAlignment(class QFlags<enum Qt::AlignmentFlag>)
	?itemChange@HbRatingSlider@@MAE?AVQVariant@@W4GraphicsItemChange@QGraphicsItem@@ABV2@@Z @ 3208 NONAME ; class QVariant HbRatingSlider::itemChange(enum QGraphicsItem::GraphicsItemChange, class QVariant const &)
	?setDescription@HbDataFormModelItem@@QAEXABVQString@@@Z @ 3209 NONAME ; void HbDataFormModelItem::setDescription(class QString const &)
	?tr@HbTumbleViewItem@@SA?AVQString@@PBD0@Z @ 3210 NONAME ; class QString HbTumbleViewItem::tr(char const *, char const *)
	?tr@HbTumbleView@@SA?AVQString@@PBD0@Z @ 3211 NONAME ; class QString HbTumbleView::tr(char const *, char const *)
	?setIconVisible@HbDeviceMessageBox@@QAEX_N@Z @ 3212 NONAME ; void HbDeviceMessageBox::setIconVisible(bool)
	?updateChildItems@HbTumbleViewItem@@UAEXXZ @ 3213 NONAME ; void HbTumbleViewItem::updateChildItems(void)
	?setTrackFilled@HbSlider@@QAEX_N@Z @ 3214 NONAME ; void HbSlider::setTrackFilled(bool)
	?setRootIndex@HbModelIterator@@EAEXVQModelIndex@@@Z @ 3215 NONAME ; void HbModelIterator::setRootIndex(class QModelIndex)
	?scrollTo@HbTumbleView@@MAEXABVQModelIndex@@W4ScrollHint@HbAbstractItemView@@@Z @ 3216 NONAME ; void HbTumbleView::scrollTo(class QModelIndex const &, enum HbAbstractItemView::ScrollHint)
	??0HbTumbleView@@QAE@PAVQGraphicsItem@@@Z @ 3217 NONAME ; HbTumbleView::HbTumbleView(class QGraphicsItem *)
	?tr@HbTumbleViewItem@@SA?AVQString@@PBD0H@Z @ 3218 NONAME ; class QString HbTumbleViewItem::tr(char const *, char const *, int)
	?setSelected@HbTumbleView@@QAEXH@Z @ 3219 NONAME ; void HbTumbleView::setSelected(int)
	?action@HbDeviceMessageBox@@QBEPAVQAction@@W4ActionRole@1@@Z @ 3220 NONAME ; class QAction * HbDeviceMessageBox::action(enum HbDeviceMessageBox::ActionRole) const
	?d_func@HbTumbleView@@ABEPBVHbTumbleViewPrivate@@XZ @ 3221 NONAME ; class HbTumbleViewPrivate const * HbTumbleView::d_func(void) const
	?elementIcon@HbSlider@@QBE?AVHbIcon@@W4SliderElement@1@@Z @ 3222 NONAME ; class HbIcon HbSlider::elementIcon(enum HbSlider::SliderElement) const
	?type@HbTumbleViewItem@@UBEHXZ @ 3223 NONAME ; int HbTumbleViewItem::type(void) const
	?IconVisible@CHbDeviceMessageBoxSymbian@@QBEHXZ @ 3224 NONAME ; int CHbDeviceMessageBoxSymbian::IconVisible(void) const
	?additionalTextAlignment@HbPushButton@@QBE?AV?$QFlags@W4AlignmentFlag@Qt@@@@XZ @ 3225 NONAME ; class QFlags<enum Qt::AlignmentFlag> HbPushButton::additionalTextAlignment(void) const
	?currentIndexChanged@HbTumbleView@@MAEXABVQModelIndex@@0@Z @ 3226 NONAME ; void HbTumbleView::currentIndexChanged(class QModelIndex const &, class QModelIndex const &)
	?triggeredAction@HbDeviceMessageBox@@QBEPBVQAction@@XZ @ 3227 NONAME ; class QAction const * HbDeviceMessageBox::triggeredAction(void) const
	?sliderState@HbProgressSlider@@QBE?AW4SliderState@1@XZ @ 3228 NONAME ABSENT ; enum HbProgressSlider::SliderState HbProgressSlider::sliderState(void) const
	?qt_metacall@HbTumbleView@@UAEHW4Call@QMetaObject@@HPAPAX@Z @ 3229 NONAME ; int HbTumbleView::qt_metacall(enum QMetaObject::Call, int, void * *)
	??1HbTumbleView@@UAE@XZ @ 3230 NONAME ; HbTumbleView::~HbTumbleView(void)
	?getStaticMetaObject@HbTumbleViewItem@@SAABUQMetaObject@@XZ @ 3231 NONAME ; struct QMetaObject const & HbTumbleViewItem::getStaticMetaObject(void)
	?elementIcons@HbSlider@@QBE?AV?$QMap@VQString@@VQVariant@@@@XZ @ 3232 NONAME ; class QMap<class QString, class QVariant> HbSlider::elementIcons(void) const
	?description@HbDataFormModelItem@@QBE?AVQString@@XZ @ 3233 NONAME ; class QString HbDataFormModelItem::description(void) const
	?rowsRemoved@HbTumbleView@@MAEXABVQModelIndex@@HH@Z @ 3234 NONAME ; void HbTumbleView::rowsRemoved(class QModelIndex const &, int, int)
	?close@HbDeviceProgressDialog@@QAEXXZ @ 3235 NONAME ; void HbDeviceProgressDialog::close(void)
	?elementIcon@HbSliderPopup@@QBE?AVHbIcon@@W4SliderElement@HbSlider@@@Z @ 3236 NONAME ; class HbIcon HbSliderPopup::elementIcon(enum HbSlider::SliderElement) const
	??0HbModelIterator@@IAE@AAVHbModelIteratorPrivate@@@Z @ 3237 NONAME ; HbModelIterator::HbModelIterator(class HbModelIteratorPrivate &)
	?rowsAboutToBeInserted@HbTumbleView@@MAEXABVQModelIndex@@HH@Z @ 3238 NONAME ; void HbTumbleView::rowsAboutToBeInserted(class QModelIndex const &, int, int)
	?createItem@HbTumbleViewItem@@UAEPAVHbAbstractViewItem@@XZ @ 3239 NONAME ; class HbAbstractViewItem * HbTumbleViewItem::createItem(void)
	?SetButtonTextL@CHbDeviceProgressDialogSymbian@@QAEXABVTDesC16@@@Z @ 3240 NONAME ; void CHbDeviceProgressDialogSymbian::SetButtonTextL(class TDesC16 const &)
	?primitive@HbProgressSlider@@UBEPAVQGraphicsItem@@W4Primitive@HbStyle@@@Z @ 3241 NONAME ABSENT ; class QGraphicsItem * HbProgressSlider::primitive(enum HbStyle::Primitive) const
	?metaObject@HbTumbleViewItem@@UBEPBUQMetaObject@@XZ @ 3242 NONAME ; struct QMetaObject const * HbTumbleViewItem::metaObject(void) const
	?rowsInserted@HbTumbleView@@MAEXABVQModelIndex@@HH@Z @ 3243 NONAME ; void HbTumbleView::rowsInserted(class QModelIndex const &, int, int)
	??0HbTumbleView@@IAE@AAVHbTumbleViewPrivate@@PAVQGraphicsItem@@@Z @ 3244 NONAME ; HbTumbleView::HbTumbleView(class HbTumbleViewPrivate &, class QGraphicsItem *)
	?selectionCommand@HbRadioButtonList@@MAE?AV?$QFlags@W4SelectionFlag@QItemSelectionModel@@@@PBVHbAbstractViewItem@@PBVQEvent@@@Z @ 3245 NONAME ; class QFlags<enum QItemSelectionModel::SelectionFlag> HbRadioButtonList::selectionCommand(class HbAbstractViewItem const *, class QEvent const *)
	?Close@CHbDeviceProgressDialogSymbian@@QAEXXZ @ 3246 NONAME ; void CHbDeviceProgressDialogSymbian::Close(void)
	?staticMetaObject@HbTumbleView@@2UQMetaObject@@B @ 3247 NONAME ; struct QMetaObject const HbTumbleView::staticMetaObject
	?setLoopingEnabled@HbTumbleView@@QAEX_N@Z @ 3248 NONAME ; void HbTumbleView::setLoopingEnabled(bool)
	?polish@HbPushButton@@MAEXAAVHbStyleParameters@@@Z @ 3249 NONAME ; void HbPushButton::polish(class HbStyleParameters &)
	??0HbProgressBar@@QAE@PAVQGraphicsItem@@@Z @ 3250 NONAME ; HbProgressBar::HbProgressBar(class QGraphicsItem *)
	?primitive@HbTumbleView@@UBEPAVQGraphicsItem@@W4Primitive@HbStyle@@@Z @ 3251 NONAME ABSENT ; class QGraphicsItem * HbTumbleView::primitive(enum HbStyle::Primitive) const
	?type@HbTumbleView@@UBEHXZ @ 3252 NONAME ; int HbTumbleView::type(void) const
	?itemChange@HbTumbleView@@MAE?AVQVariant@@W4GraphicsItemChange@QGraphicsItem@@ABV2@@Z @ 3253 NONAME ; class QVariant HbTumbleView::itemChange(enum QGraphicsItem::GraphicsItemChange, class QVariant const &)
	?setSliderElements@HbSlider@@QAEXABV?$QList@VQVariant@@@@@Z @ 3254 NONAME ; void HbSlider::setSliderElements(class QList<class QVariant> const &)
	??_EHbTumbleView@@UAE@I@Z @ 3255 NONAME ; HbTumbleView::~HbTumbleView(unsigned int)
	?triggeredAction@HbDeviceProgressDialog@@QBEPBVQAction@@XZ @ 3256 NONAME ; class QAction const * HbDeviceProgressDialog::triggeredAction(void) const
	?elementIcons@HbSliderPopup@@QBE?AV?$QMap@VQString@@VQVariant@@@@XZ @ 3257 NONAME ; class QMap<class QString, class QVariant> HbSliderPopup::elementIcons(void) const
	?indexCount@HbModelIterator@@UBEHABVQModelIndex@@@Z @ 3258 NONAME ; int HbModelIterator::indexCount(class QModelIndex const &) const
	?trUtf8@HbTumbleViewItem@@SA?AVQString@@PBD0@Z @ 3259 NONAME ; class QString HbTumbleViewItem::trUtf8(char const *, char const *)
	?tr@HbTumbleView@@SA?AVQString@@PBD0H@Z @ 3260 NONAME ; class QString HbTumbleView::tr(char const *, char const *, int)
	?mousePressEvent@HbTumbleView@@MAEXPAVQGraphicsSceneMouseEvent@@@Z @ 3261 NONAME ; void HbTumbleView::mousePressEvent(class QGraphicsSceneMouseEvent *)
	?isTrackFilled@HbSliderPopup@@QBE_NXZ @ 3262 NONAME ; bool HbSliderPopup::isTrackFilled(void) const
	??0HbProgressBar@@IAE@AAVHbProgressBarPrivate@@PAVQGraphicsItem@@@Z @ 3263 NONAME ; HbProgressBar::HbProgressBar(class HbProgressBarPrivate &, class QGraphicsItem *)
	??0HbTumbleViewItem@@QAE@ABV0@@Z @ 3264 NONAME ABSENT ; HbTumbleViewItem::HbTumbleViewItem(class HbTumbleViewItem const &)
	?setItems@HbTumbleView@@QAEXABVQStringList@@@Z @ 3265 NONAME ; void HbTumbleView::setItems(class QStringList const &)
	?SetButton@CHbDeviceProgressDialogSymbian@@QAEXH@Z @ 3266 NONAME ; void CHbDeviceProgressDialogSymbian::SetButton(int)
	?selected@HbTumbleView@@QBEHXZ @ 3267 NONAME ; int HbTumbleView::selected(void) const
	?SetIconVisible@CHbDeviceMessageBoxSymbian@@QAEXH@Z @ 3268 NONAME ; void CHbDeviceMessageBoxSymbian::SetIconVisible(int)
	?d_func@HbTumbleViewItem@@AAEPAVHbListViewItemPrivate@@XZ @ 3269 NONAME ; class HbListViewItemPrivate * HbTumbleViewItem::d_func(void)
	?isLoopingEnabled@HbTumbleView@@QBE_NXZ @ 3270 NONAME ; bool HbTumbleView::isLoopingEnabled(void) const
	?items@HbTumbleView@@QBE?AVQStringList@@XZ @ 3271 NONAME ; class QStringList HbTumbleView::items(void) const
	?updatePrimitives@HbInputDialog@@UAEXXZ @ 3272 NONAME ; void HbInputDialog::updatePrimitives(void)
	?mouseReleaseEvent@HbTumbleView@@MAEXPAVQGraphicsSceneMouseEvent@@@Z @ 3273 NONAME ; void HbTumbleView::mouseReleaseEvent(class QGraphicsSceneMouseEvent *)
	?rowsAboutToBeRemoved@HbGridView@@MAEXABVQModelIndex@@HH@Z @ 3274 NONAME ; void HbGridView::rowsAboutToBeRemoved(class QModelIndex const &, int, int)
	?modelIterator@HbAbstractItemView@@QBEPAVHbModelIterator@@XZ @ 3275 NONAME ; class HbModelIterator * HbAbstractItemView::modelIterator(void) const
	?isTrackFilled@HbSlider@@QBE_NXZ @ 3276 NONAME ; bool HbSlider::isTrackFilled(void) const
	?setTrackFilled@HbSliderPopup@@QAEX_N@Z @ 3277 NONAME ; void HbSliderPopup::setTrackFilled(bool)
	?staticMetaObject@HbTumbleViewItem@@2UQMetaObject@@B @ 3278 NONAME ; struct QMetaObject const HbTumbleViewItem::staticMetaObject
	?messageBoxType@HbDeviceMessageBox@@QBE?AW4MessageBoxType@HbMessageBox@@XZ @ 3279 NONAME ; enum HbMessageBox::MessageBoxType HbDeviceMessageBox::messageBoxType(void) const
	?action@HbDeviceProgressDialog@@QBEPAVQAction@@W4ActionRole@1@@Z @ 3280 NONAME ; class QAction * HbDeviceProgressDialog::action(enum HbDeviceProgressDialog::ActionRole) const
	?indexPosition@HbModelIterator@@UBEHABVQModelIndex@@@Z @ 3281 NONAME ; int HbModelIterator::indexPosition(class QModelIndex const &) const
	??_EHbModelIterator@@UAE@I@Z @ 3282 NONAME ; HbModelIterator::~HbModelIterator(unsigned int)
	??0HbAbstractItemView@@IAE@AAVHbAbstractItemViewPrivate@@PAVHbAbstractItemContainer@@PAVHbModelIterator@@PAVQGraphicsItem@@@Z @ 3283 NONAME ; HbAbstractItemView::HbAbstractItemView(class HbAbstractItemViewPrivate &, class HbAbstractItemContainer *, class HbModelIterator *, class QGraphicsItem *)
	?isAcceptAction@HbDeviceMessageBox@@QBE_NPBVQAction@@@Z @ 3284 NONAME ; bool HbDeviceMessageBox::isAcceptAction(class QAction const *) const
	??0HbModelIterator@@QAE@PAVQAbstractItemModel@@VQModelIndex@@@Z @ 3285 NONAME ; HbModelIterator::HbModelIterator(class QAbstractItemModel *, class QModelIndex)
	?setElementIcon@HbSliderPopup@@QAEXW4SliderElement@HbSlider@@ABVHbIcon@@@Z @ 3286 NONAME ; void HbSliderPopup::setElementIcon(enum HbSlider::SliderElement, class HbIcon const &)
	?sliderElements@HbSlider@@QBE?AV?$QList@VQVariant@@@@XZ @ 3287 NONAME ; class QList<class QVariant> HbSlider::sliderElements(void) const
	?event@HbTumbleView@@MAE_NPAVQEvent@@@Z @ 3288 NONAME ; bool HbTumbleView::event(class QEvent *)
	?getStaticMetaObject@HbTumbleView@@SAABUQMetaObject@@XZ @ 3289 NONAME ; struct QMetaObject const & HbTumbleView::getStaticMetaObject(void)
	?qt_metacast@HbTumbleViewItem@@UAEPAXPBD@Z @ 3290 NONAME ; void * HbTumbleViewItem::qt_metacast(char const *)
	?setAction@HbDeviceMessageBox@@QAEXPAVQAction@@W4ActionRole@1@@Z @ 3291 NONAME ; void HbDeviceMessageBox::setAction(class QAction *, enum HbDeviceMessageBox::ActionRole)
	?setMessageBoxType@HbDeviceMessageBox@@QAEXW4MessageBoxType@HbMessageBox@@@Z @ 3292 NONAME ; void HbDeviceMessageBox::setMessageBoxType(enum HbMessageBox::MessageBoxType)
	?d_func@HbModelIterator@@AAEPAVHbModelIteratorPrivate@@XZ @ 3293 NONAME ; class HbModelIteratorPrivate * HbModelIterator::d_func(void)
	?primitive@HbInputDialog@@UBEPAVQGraphicsItem@@W4Primitive@HbStyle@@@Z @ 3294 NONAME ABSENT ; class QGraphicsItem * HbInputDialog::primitive(enum HbStyle::Primitive) const
	?setElementIcons@HbSliderPopup@@QAEXABV?$QMap@VQString@@VQVariant@@@@@Z @ 3295 NONAME ; void HbSliderPopup::setElementIcons(class QMap<class QString, class QVariant> const &)
	?updatePrimitives@HbTumbleView@@UAEXXZ @ 3296 NONAME ; void HbTumbleView::updatePrimitives(void)
	?sliderElements@HbSliderPopup@@QBE?AV?$QList@VQVariant@@@@XZ @ 3297 NONAME ; class QList<class QVariant> HbSliderPopup::sliderElements(void) const
	?ButtonText@CHbDeviceProgressDialogSymbian@@QBE?BVTPtrC16@@XZ @ 3298 NONAME ; class TPtrC16 const CHbDeviceProgressDialogSymbian::ButtonText(void) const
	?nextIndex@HbModelIterator@@UBE?AVQModelIndex@@ABV2@@Z @ 3299 NONAME ; class QModelIndex HbModelIterator::nextIndex(class QModelIndex const &) const
	?setElementIcon@HbSlider@@QAEXW4SliderElement@1@ABVHbIcon@@@Z @ 3300 NONAME ; void HbSlider::setElementIcon(enum HbSlider::SliderElement, class HbIcon const &)
	?index@HbModelIterator@@UBE?AVQModelIndex@@HABV2@@Z @ 3301 NONAME ; class QModelIndex HbModelIterator::index(int, class QModelIndex const &) const
	?setSliderElements@HbSliderPopup@@QAEXABV?$QList@VQVariant@@@@@Z @ 3302 NONAME ; void HbSliderPopup::setSliderElements(class QList<class QVariant> const &)
	?model@HbModelIterator@@QBEPAVQAbstractItemModel@@XZ @ 3303 NONAME ; class QAbstractItemModel * HbModelIterator::model(void) const
	?qt_metacast@HbTumbleView@@UAEPAXPBD@Z @ 3304 NONAME ; void * HbTumbleView::qt_metacast(char const *)
	?initStyleOption@HbInputDialog@@IBEXPAVHbStyleOptionInputDialog@@@Z @ 3305 NONAME ; void HbInputDialog::initStyleOption(class HbStyleOptionInputDialog *) const
	?setSliderToolTip@HbProgressSlider@@QAEXABVQString@@@Z @ 3306 NONAME ; void HbProgressSlider::setSliderToolTip(class QString const &)
	?trUtf8@HbTumbleViewItem@@SA?AVQString@@PBD0H@Z @ 3307 NONAME ; class QString HbTumbleViewItem::trUtf8(char const *, char const *, int)
	?trUtf8@HbTumbleView@@SA?AVQString@@PBD0H@Z @ 3308 NONAME ; class QString HbTumbleView::trUtf8(char const *, char const *, int)
	?itemSelected@HbTumbleView@@IAEXH@Z @ 3309 NONAME ; void HbTumbleView::itemSelected(int)
	?iconVisible@HbDeviceMessageBox@@QBE_NXZ @ 3310 NONAME ; bool HbDeviceMessageBox::iconVisible(void) const
	?qt_metacall@HbTumbleViewItem@@UAEHW4Call@QMetaObject@@HPAPAX@Z @ 3311 NONAME ; int HbTumbleViewItem::qt_metacall(enum QMetaObject::Call, int, void * *)
	?update@HbDeviceProgressDialog@@QAEXXZ @ 3312 NONAME ; void HbDeviceProgressDialog::update(void)
	??_EHbTumbleViewItem@@UAE@I@Z @ 3313 NONAME ; HbTumbleViewItem::~HbTumbleViewItem(unsigned int)
	?exec@HbDeviceMessageBox@@QBEPBVQAction@@XZ @ 3314 NONAME ABSENT ; class QAction const * HbDeviceMessageBox::exec(void) const
	?polish@HbColorDialog@@MAEXAAVHbStyleParameters@@@Z @ 3315 NONAME ; void HbColorDialog::polish(class HbStyleParameters &)
	?update@HbDeviceMessageBox@@QAEXXZ @ 3316 NONAME ; void HbDeviceMessageBox::update(void)
	?setElementIcons@HbSlider@@QAEXABV?$QMap@VQString@@VQVariant@@@@@Z @ 3317 NONAME ; void HbSlider::setElementIcons(class QMap<class QString, class QVariant> const &)
	?d_func@HbTumbleView@@AAEPAVHbTumbleViewPrivate@@XZ @ 3318 NONAME ; class HbTumbleViewPrivate * HbTumbleView::d_func(void)
	?rowsAboutToBeRemoved@HbTumbleView@@MAEXABVQModelIndex@@HH@Z @ 3319 NONAME ; void HbTumbleView::rowsAboutToBeRemoved(class QModelIndex const &, int, int)
	?sliderToolTip@HbProgressSlider@@QBE?AVQString@@XZ @ 3320 NONAME ; class QString HbProgressSlider::sliderToolTip(void) const
	?setSliderState@HbProgressSlider@@QAEXW4SliderState@1@@Z @ 3321 NONAME ABSENT ; void HbProgressSlider::setSliderState(enum HbProgressSlider::SliderState)
	?trUtf8@HbTumbleView@@SA?AVQString@@PBD0@Z @ 3322 NONAME ; class QString HbTumbleView::trUtf8(char const *, char const *)
	?setGeometry@HbTumbleView@@UAEXABVQRectF@@@Z @ 3323 NONAME ; void HbTumbleView::setGeometry(class QRectF const &)
	??1HbModelIterator@@UAE@XZ @ 3324 NONAME ; HbModelIterator::~HbModelIterator(void)
	?d_func@HbTumbleViewItem@@ABEPBVHbListViewItemPrivate@@XZ @ 3325 NONAME ; class HbListViewItemPrivate const * HbTumbleViewItem::d_func(void) const
	?setAction@HbDeviceProgressDialog@@QAEXPAVQAction@@W4ActionRole@1@@Z @ 3326 NONAME ; void HbDeviceProgressDialog::setAction(class QAction *, enum HbDeviceProgressDialog::ActionRole)
	?lessThan@HbModelIterator@@UBE_NABVQModelIndex@@0@Z @ 3327 NONAME ; bool HbModelIterator::lessThan(class QModelIndex const &, class QModelIndex const &) const
	??0HbTumbleView@@QAE@ABVQStringList@@PAVQGraphicsItem@@@Z @ 3328 NONAME ; HbTumbleView::HbTumbleView(class QStringList const &, class QGraphicsItem *)
	?previousIndex@HbModelIterator@@UBE?AVQModelIndex@@ABV2@@Z @ 3329 NONAME ; class QModelIndex HbModelIterator::previousIndex(class QModelIndex const &) const
	?metaObject@HbTumbleView@@UBEPBUQMetaObject@@XZ @ 3330 NONAME ; struct QMetaObject const * HbTumbleView::metaObject(void) const
	?sizeHint@HbTumbleView@@MBE?AVQSizeF@@W4SizeHint@Qt@@ABV2@@Z @ 3331 NONAME ; class QSizeF HbTumbleView::sizeHint(enum Qt::SizeHint, class QSizeF const &) const
	?setSelectionMode@HbAbstractItemView@@QAEXW4SelectionMode@1@@Z @ 3332 NONAME ; void HbAbstractItemView::setSelectionMode(enum HbAbstractItemView::SelectionMode)
	?HasButton@CHbDeviceProgressDialogSymbian@@QBEHXZ @ 3333 NONAME ; int CHbDeviceProgressDialogSymbian::HasButton(void) const
	?setModel@HbModelIterator@@EAEXPAVQAbstractItemModel@@VQModelIndex@@@Z @ 3334 NONAME ; void HbModelIterator::setModel(class QAbstractItemModel *, class QModelIndex)
	??1HbTumbleViewItem@@UAE@XZ @ 3335 NONAME ; HbTumbleViewItem::~HbTumbleViewItem(void)
	?rootIndex@HbModelIterator@@QBE?AVQModelIndex@@XZ @ 3336 NONAME ; class QModelIndex HbModelIterator::rootIndex(void) const
	??0HbTumbleViewItem@@QAE@PAVQGraphicsItem@@@Z @ 3337 NONAME ; HbTumbleViewItem::HbTumbleViewItem(class QGraphicsItem *)
	?longPressed@HbAbstractViewItem@@IAEXABVQPointF@@@Z @ 3338 NONAME ; void HbAbstractViewItem::longPressed(class QPointF const &)
	?trUtf8@HbSelectionDialog@@SA?AVQString@@PBD0@Z @ 3339 NONAME ; class QString HbSelectionDialog::trUtf8(char const *, char const *)
	?itemCreated@HbAbstractItemView@@MAEXPAVHbAbstractViewItem@@@Z @ 3340 NONAME ; void HbAbstractItemView::itemCreated(class HbAbstractViewItem *)
	?currentCharColor@HbFormatDialog@@IBE?AVQColor@@XZ @ 3341 NONAME ; class QColor HbFormatDialog::currentCharColor(void) const
	?pressed@HbAbstractViewItem@@IAEXABVQPointF@@@Z @ 3342 NONAME ; void HbAbstractViewItem::pressed(class QPointF const &)
	?d_func@HbSelectionDialog@@ABEPBVHbSelectionDialogPrivate@@XZ @ 3343 NONAME ; class HbSelectionDialogPrivate const * HbSelectionDialog::d_func(void) const
	??_EHbSelectionDialog@@UAE@I@Z @ 3344 NONAME ; HbSelectionDialog::~HbSelectionDialog(unsigned int)
	?activated@HbAbstractViewItem@@IAEXABVQPointF@@@Z @ 3345 NONAME ; void HbAbstractViewItem::activated(class QPointF const &)
	?setUniformItemSizes@HbAbstractItemContainer@@UAEX_N@Z @ 3346 NONAME ; void HbAbstractItemContainer::setUniformItemSizes(bool)
	?selectedModelIndexes@HbSelectionDialog@@QBE?AV?$QList@VQModelIndex@@@@XZ @ 3347 NONAME ; class QList<class QModelIndex> HbSelectionDialog::selectedModelIndexes(void) const
	?itemLongPressed@HbAbstractItemView@@MAEXABVQPointF@@@Z @ 3348 NONAME ; void HbAbstractItemView::itemLongPressed(class QPointF const &)
	?metaObject@HbSelectionDialog@@UBEPBUQMetaObject@@XZ @ 3349 NONAME ; struct QMetaObject const * HbSelectionDialog::metaObject(void) const
	?placeholderText@HbSearchPanel@@QBE?AVQString@@XZ @ 3350 NONAME ; class QString HbSearchPanel::placeholderText(void) const
	?handleIcon@HbProgressSlider@@QBE?AVQString@@XZ @ 3351 NONAME ; class QString HbProgressSlider::handleIcon(void) const
	?interval@HbDateTimePicker@@QBEHW4Section@QDateTimeEdit@@@Z @ 3352 NONAME ; int HbDateTimePicker::interval(enum QDateTimeEdit::Section) const
	?setItemTransientState@HbAbstractItemContainer@@QAEXABVQModelIndex@@V?$QHash@VQString@@VQVariant@@@@@Z @ 3353 NONAME ; void HbAbstractItemContainer::setItemTransientState(class QModelIndex const &, class QHash<class QString, class QVariant>)
	??1HbSelectionDialog@@UAE@XZ @ 3354 NONAME ; HbSelectionDialog::~HbSelectionDialog(void)
	?setTransientState@HbTreeViewItem@@UAEXABV?$QHash@VQString@@VQVariant@@@@@Z @ 3355 NONAME ; void HbTreeViewItem::setTransientState(class QHash<class QString, class QVariant> const &)
	?isUserExpandable@HbTreeViewItem@@QBE_NXZ @ 3356 NONAME ; bool HbTreeViewItem::isUserExpandable(void) const
	?getStaticMetaObject@HbSelectionDialog@@SAABUQMetaObject@@XZ @ 3357 NONAME ; struct QMetaObject const & HbSelectionDialog::getStaticMetaObject(void)
	?setPlaceholderText@HbSearchPanel@@QAEXABVQString@@@Z @ 3358 NONAME ; void HbSearchPanel::setPlaceholderText(class QString const &)
	?setInterval@HbDateTimePicker@@QAEXW4Section@QDateTimeEdit@@H@Z @ 3359 NONAME ; void HbDateTimePicker::setInterval(enum QDateTimeEdit::Section, int)
	?released@HbAbstractViewItem@@IAEXABVQPointF@@@Z @ 3360 NONAME ; void HbAbstractViewItem::released(class QPointF const &)
	?showEvent@HbSelectionDialog@@MAEXPAVQShowEvent@@@Z @ 3361 NONAME ; void HbSelectionDialog::showEvent(class QShowEvent *)
	?setUserExpandable@HbTreeViewItem@@QAEX_N@Z @ 3362 NONAME ; void HbTreeViewItem::setUserExpandable(bool)
	?gestureEvent@HbAbstractViewItem@@MAEXPAVQGestureEvent@@@Z @ 3363 NONAME ; void HbAbstractViewItem::gestureEvent(class QGestureEvent *)
	?transientState@HbTreeViewItem@@UBE?AV?$QHash@VQString@@VQVariant@@@@XZ @ 3364 NONAME ; class QHash<class QString, class QVariant> HbTreeViewItem::transientState(void) const
	?gestureEvent@HbAbstractEdit@@MAEXPAVQGestureEvent@@@Z @ 3365 NONAME ; void HbAbstractEdit::gestureEvent(class QGestureEvent *)
	?tr@HbSelectionDialog@@SA?AVQString@@PBD0@Z @ 3366 NONAME ; class QString HbSelectionDialog::tr(char const *, char const *)
	?selectionMode@HbSelectionDialog@@QBE?AW4SelectionMode@HbAbstractItemView@@XZ @ 3367 NONAME ; enum HbAbstractItemView::SelectionMode HbSelectionDialog::selectionMode(void) const
	?removeItemTransientStates@HbAbstractItemContainer@@QAEXXZ @ 3368 NONAME ; void HbAbstractItemContainer::removeItemTransientStates(void)
	?itemPressed@HbAbstractItemView@@MAEXABVQPointF@@@Z @ 3369 NONAME ; void HbAbstractItemView::itemPressed(class QPointF const &)
	?qt_metacast@HbSelectionDialog@@UAEPAXPBD@Z @ 3370 NONAME ; void * HbSelectionDialog::qt_metacast(char const *)
	?setWidgetItems@HbSelectionDialog@@QAEXABV?$QList@PAVHbListWidgetItem@@@@_NH@Z @ 3371 NONAME ; void HbSelectionDialog::setWidgetItems(class QList<class HbListWidgetItem *> const &, bool, int)
	?setTransientState@HbAbstractViewItem@@UAEXABV?$QHash@VQString@@VQVariant@@@@@Z @ 3372 NONAME ; void HbAbstractViewItem::setTransientState(class QHash<class QString, class QVariant> const &)
	?placeholderText@HbAbstractEdit@@QBE?AVQString@@XZ @ 3373 NONAME ; class QString HbAbstractEdit::placeholderText(void) const
	?setCancelEnabled@HbSearchPanel@@QAEX_N@Z @ 3374 NONAME ; void HbSearchPanel::setCancelEnabled(bool)
	?longPressEnabled@HbAbstractItemView@@QBE_NXZ @ 3375 NONAME ; bool HbAbstractItemView::longPressEnabled(void) const
	?setLongPressEnabled@HbAbstractItemView@@QAEX_N@Z @ 3376 NONAME ; void HbAbstractItemView::setLongPressEnabled(bool)
	?d_func@HbSelectionDialog@@AAEPAVHbSelectionDialogPrivate@@XZ @ 3377 NONAME ; class HbSelectionDialogPrivate * HbSelectionDialog::d_func(void)
	?selectedItems@HbSelectionDialog@@QBE?AV?$QList@VQVariant@@@@XZ @ 3378 NONAME ; class QList<class QVariant> HbSelectionDialog::selectedItems(void) const
	?gestureEvent@HbPushButton@@MAEXPAVQGestureEvent@@@Z @ 3379 NONAME ; void HbPushButton::gestureEvent(class QGestureEvent *)
	?itemReleased@HbAbstractItemView@@MAEXABVQPointF@@@Z @ 3380 NONAME ; void HbAbstractItemView::itemReleased(class QPointF const &)
	?setSelectionMode@HbSelectionDialog@@QAEXW4SelectionMode@HbAbstractItemView@@@Z @ 3381 NONAME ; void HbSelectionDialog::setSelectionMode(enum HbAbstractItemView::SelectionMode)
	?transientState@HbAbstractViewItem@@UBE?AV?$QHash@VQString@@VQVariant@@@@XZ @ 3382 NONAME ; class QHash<class QString, class QVariant> HbAbstractViewItem::transientState(void) const
	?model@HbSelectionDialog@@QBEPAVQAbstractItemModel@@XZ @ 3383 NONAME ; class QAbstractItemModel * HbSelectionDialog::model(void) const
	?itemActivated@HbAbstractItemView@@MAEXABVQPointF@@@Z @ 3384 NONAME ; void HbAbstractItemView::itemActivated(class QPointF const &)
	?criteria@HbSearchPanel@@QBE?AVQString@@XZ @ 3385 NONAME ; class QString HbSearchPanel::criteria(void) const
	?initStyleOption@HbProgressBar@@IBEXPAVHbStyleOptionProgressBar@@@Z @ 3386 NONAME ; void HbProgressBar::initStyleOption(class HbStyleOptionProgressBar *) const
	?gestureEvent@HbAbstractItemView@@MAEXPAVQGestureEvent@@@Z @ 3387 NONAME ; void HbAbstractItemView::gestureEvent(class QGestureEvent *)
	?setStringItems@HbSelectionDialog@@QAEXABVQStringList@@H@Z @ 3388 NONAME ; void HbSelectionDialog::setStringItems(class QStringList const &, int)
	?setHandleIcon@HbProgressSlider@@QAEXABVQString@@@Z @ 3389 NONAME ; void HbProgressSlider::setHandleIcon(class QString const &)
	?setItemTransientStateValue@HbAbstractItemContainer@@QAEXABVQModelIndex@@ABVQString@@ABVQVariant@@@Z @ 3390 NONAME ; void HbAbstractItemContainer::setItemTransientStateValue(class QModelIndex const &, class QString const &, class QVariant const &)
	?gestureEvent@HbCheckBox@@MAEXPAVQGestureEvent@@@Z @ 3391 NONAME ; void HbCheckBox::gestureEvent(class QGestureEvent *)
	?stringItems@HbSelectionDialog@@QBE?AVQStringList@@XZ @ 3392 NONAME ; class QStringList HbSelectionDialog::stringItems(void) const
	?setPlaceholderText@HbAbstractEdit@@QAEXABVQString@@@Z @ 3393 NONAME ; void HbAbstractEdit::setPlaceholderText(class QString const &)
	?staticMetaObject@HbSelectionDialog@@2UQMetaObject@@B @ 3394 NONAME ; struct QMetaObject const HbSelectionDialog::staticMetaObject
	?isLined@HbTextEdit@@QBE_NXZ @ 3395 NONAME ; bool HbTextEdit::isLined(void) const
	?qt_metacall@HbSelectionDialog@@UAEHW4Call@QMetaObject@@HPAPAX@Z @ 3396 NONAME ; int HbSelectionDialog::qt_metacall(enum QMetaObject::Call, int, void * *)
	?initStyleOption@HbProgressSlider@@IBEXPAVHbStyleOptionProgressSlider@@@Z @ 3397 NONAME ; void HbProgressSlider::initStyleOption(class HbStyleOptionProgressSlider *) const
	?setCriteria@HbSearchPanel@@QAEXABVQString@@@Z @ 3398 NONAME ; void HbSearchPanel::setCriteria(class QString const &)
	?setSelectedItems@HbSelectionDialog@@QAEXV?$QList@VQVariant@@@@@Z @ 3399 NONAME ; void HbSelectionDialog::setSelectedItems(class QList<class QVariant>)
	?itemCreated@HbAbstractItemContainer@@IAEXPAVHbAbstractViewItem@@@Z @ 3400 NONAME ; void HbAbstractItemContainer::itemCreated(class HbAbstractViewItem *)
	?itemTransientState@HbAbstractItemContainer@@QBE?AV?$QHash@VQString@@VQVariant@@@@ABVQModelIndex@@@Z @ 3401 NONAME ; class QHash<class QString, class QVariant> HbAbstractItemContainer::itemTransientState(class QModelIndex const &) const
	?gestureEvent@HbNotificationDialog@@MAEXPAVQGestureEvent@@@Z @ 3402 NONAME ; void HbNotificationDialog::gestureEvent(class QGestureEvent *)
	?trUtf8@HbSelectionDialog@@SA?AVQString@@PBD0H@Z @ 3403 NONAME ; class QString HbSelectionDialog::trUtf8(char const *, char const *, int)
	?isCancelEnabled@HbSearchPanel@@QBE_NXZ @ 3404 NONAME ; bool HbSearchPanel::isCancelEnabled(void) const
	?gestureEvent@HbRatingSlider@@MAEXPAVQGestureEvent@@@Z @ 3405 NONAME ; void HbRatingSlider::gestureEvent(class QGestureEvent *)
	?tr@HbSelectionDialog@@SA?AVQString@@PBD0H@Z @ 3406 NONAME ; class QString HbSelectionDialog::tr(char const *, char const *, int)
	??0HbSelectionDialog@@QAE@PAVQGraphicsItem@@@Z @ 3407 NONAME ; HbSelectionDialog::HbSelectionDialog(class QGraphicsItem *)
	?setModel@HbSelectionDialog@@QAEXPAVQAbstractItemModel@@@Z @ 3408 NONAME ; void HbSelectionDialog::setModel(class QAbstractItemModel *)
	?setLined@HbTextEdit@@QAEX_N@Z @ 3409 NONAME ; void HbTextEdit::setLined(bool)
	?widgetItems@HbSelectionDialog@@QBE?AV?$QList@PAVHbListWidgetItem@@@@XZ @ 3410 NONAME ; class QList<class HbListWidgetItem *> HbSelectionDialog::widgetItems(void) const
	?type@HbSelectionDialog@@UBEHXZ @ 3411 NONAME ; int HbSelectionDialog::type(void) const
	?itemChange@HbAbstractViewItem@@MAE?AVQVariant@@W4GraphicsItemChange@QGraphicsItem@@ABV2@@Z @ 3412 NONAME ; class QVariant HbAbstractViewItem::itemChange(enum QGraphicsItem::GraphicsItemChange, class QVariant const &)
	?eventFilter@HbLineEdit@@MAE_NPAVQObject@@PAVQEvent@@@Z @ 3413 NONAME ; bool HbLineEdit::eventFilter(class QObject *, class QEvent *)
	?selectionAreaContains@HbGridViewItem@@UBE_NABVQPointF@@W4SelectionAreaType@HbAbstractViewItem@@@Z @ 3414 NONAME ; bool HbGridViewItem::selectionAreaContains(class QPointF const &, enum HbAbstractViewItem::SelectionAreaType) const
	?adjustFontSizeToFitHeight@HbLineEdit@@QBE_NXZ @ 3415 NONAME ; bool HbLineEdit::adjustFontSizeToFitHeight(void) const
	?selectionAreaContains@HbTreeViewItem@@UBE_NABVQPointF@@W4SelectionAreaType@HbAbstractViewItem@@@Z @ 3416 NONAME ; bool HbTreeViewItem::selectionAreaContains(class QPointF const &, enum HbAbstractViewItem::SelectionAreaType) const
	?modelLayoutChanged@HbAbstractItemView@@MAEXXZ @ 3417 NONAME ; void HbAbstractItemView::modelLayoutChanged(void)
	?selectionAreaContains@HbAbstractViewItem@@UBE_NABVQPointF@@W4SelectionAreaType@1@@Z @ 3418 NONAME ; bool HbAbstractViewItem::selectionAreaContains(class QPointF const &, enum HbAbstractViewItem::SelectionAreaType) const
	?primitive@HbTumbleView@@UBEPAVQGraphicsItem@@ABVQString@@@Z @ 3419 NONAME ; class QGraphicsItem * HbTumbleView::primitive(class QString const &) const
	?initStyleOption@HbProgressDialog@@IBEXPAVHbStyleOptionProgressDialog@@@Z @ 3420 NONAME ; void HbProgressDialog::initStyleOption(class HbStyleOptionProgressDialog *) const
	?setAdjustFontSizeToFitHeight@HbLineEdit@@QAEX_N@Z @ 3421 NONAME ; void HbLineEdit::setAdjustFontSizeToFitHeight(bool)
	?updatePlaceholderDocProperties@HbAbstractEditPrivate@@QAEXXZ @ 3422 NONAME ; void HbAbstractEditPrivate::updatePlaceholderDocProperties(void)
	??1HbRadioButtonListViewItem@@UAE@XZ @ 3423 NONAME ; HbRadioButtonListViewItem::~HbRadioButtonListViewItem(void)
	?_q_scrollEnded@HbAbstractEditPrivate@@QAEXXZ @ 3424 NONAME ; void HbAbstractEditPrivate::_q_scrollEnded(void)
	?itemAdded@HbTreeItemContainer@@MAEXHPAVHbAbstractViewItem@@_N@Z @ 3425 NONAME ; void HbTreeItemContainer::itemAdded(int, class HbAbstractViewItem *, bool)
	?changeEvent@HbSliderControl@@MAEXPAVQEvent@@@Z @ 3426 NONAME ; void HbSliderControl::changeEvent(class QEvent *)
	?releasedOutside@HbSliderControl@@IAEX_N@Z @ 3427 NONAME ; void HbSliderControl::releasedOutside(bool)
	?ensureCursorVisible@HbAbstractEditPrivate@@QAEXXZ @ 3428 NONAME ; void HbAbstractEditPrivate::ensureCursorVisible(void)
	?d_func@HbRadioButtonListViewItem@@ABEPBVHbListViewItemPrivate@@XZ @ 3429 NONAME ; class HbListViewItemPrivate const * HbRadioButtonListViewItem::d_func(void) const
	?minimum@HbProgressSliderPrivate@@UBEHXZ @ 3430 NONAME ; int HbProgressSliderPrivate::minimum(void) const
	?connectToNewDocument@HbAbstractEditPrivate@@QAEXPAVQTextDocument@@@Z @ 3431 NONAME ; void HbAbstractEditPrivate::connectToNewDocument(class QTextDocument *)
	?tr@HbGridLayout@@SA?AVQString@@PBD0@Z @ 3432 NONAME ; class QString HbGridLayout::tr(char const *, char const *)
	??0HbTreeItemContainer@@IAE@AAVHbTreeItemContainerPrivate@@PAVQGraphicsItem@@@Z @ 3433 NONAME ; HbTreeItemContainer::HbTreeItemContainer(class HbTreeItemContainerPrivate &, class QGraphicsItem *)
	?qt_metacast@HbListDialogContentWidget@@UAEPAXPBD@Z @ 3434 NONAME ABSENT ; void * HbListDialogContentWidget::qt_metacast(char const *)
	?updateCounter@HbSelectionDialogContentWidget@@QAEXXZ @ 3435 NONAME ; void HbSelectionDialogContentWidget::updateCounter(void)
	?_q_listWidgetItemSelected@HbListDialogContentWidget@@AAEXPAVHbListWidgetItem@@@Z @ 3436 NONAME ABSENT ; void HbListDialogContentWidget::_q_listWidgetItemSelected(class HbListWidgetItem *)
	?majorTickInterval@HbSliderControl@@QBEHXZ @ 3437 NONAME ; int HbSliderControl::majorTickInterval(void) const
	?qt_metacall@HbTreeModelIterator@@UAEHW4Call@QMetaObject@@HPAPAX@Z @ 3438 NONAME ; int HbTreeModelIterator::qt_metacall(enum QMetaObject::Call, int, void * *)
	?tapGesture@HbAbstractEditPrivate@@QAEXABVQPointF@@@Z @ 3439 NONAME ABSENT ; void HbAbstractEditPrivate::tapGesture(class QPointF const &)
	?staticMetaObject@HbGridItemContainer@@2UQMetaObject@@B @ 3440 NONAME ; struct QMetaObject const HbGridItemContainer::staticMetaObject
	??0HbTreeModelIterator@@QAE@PAVQAbstractItemModel@@VQModelIndex@@_N@Z @ 3441 NONAME ; HbTreeModelIterator::HbTreeModelIterator(class QAbstractItemModel *, class QModelIndex, bool)
	?d_func@HbProgressSliderControl@@AAEPAVHbProgressSliderControlPrivate@@XZ @ 3442 NONAME ABSENT ; class HbProgressSliderControlPrivate * HbProgressSliderControl::d_func(void)
	?init@HbProgressSliderPrivate@@QAEXXZ @ 3443 NONAME ; void HbProgressSliderPrivate::init(void)
	??1HbProgressiveSliderPrivate@@UAE@XZ @ 3444 NONAME ABSENT ; HbProgressiveSliderPrivate::~HbProgressiveSliderPrivate(void)
	?tr@HbGridLayout@@SA?AVQString@@PBD0H@Z @ 3445 NONAME ; class QString HbGridLayout::tr(char const *, char const *, int)
	?minorTickInterval@HbSliderControl@@QBEHXZ @ 3446 NONAME ; int HbSliderControl::minorTickInterval(void) const
	?itemChange@HbGroupBoxHeadingWidget@@MAE?AVQVariant@@W4GraphicsItemChange@QGraphicsItem@@ABV2@@Z @ 3447 NONAME ; class QVariant HbGroupBoxHeadingWidget::itemChange(enum QGraphicsItem::GraphicsItemChange, class QVariant const &)
	??_EHbGridItemContainer@@UAE@I@Z @ 3448 NONAME ; HbGridItemContainer::~HbGridItemContainer(unsigned int)
	?polish@HbSliderControl@@MAEXAAVHbStyleParameters@@@Z @ 3449 NONAME ; void HbSliderControl::polish(class HbStyleParameters &)
	?repaintOldAndNewSelection@HbAbstractEditPrivate@@QAEXABVQTextCursor@@@Z @ 3450 NONAME ; void HbAbstractEditPrivate::repaintOldAndNewSelection(class QTextCursor const &)
	?tr@HbListDialogContentWidget@@SA?AVQString@@PBD0@Z @ 3451 NONAME ABSENT ; class QString HbListDialogContentWidget::tr(char const *, char const *)
	?rowCount@HbGridLayout@@QBEHXZ @ 3452 NONAME ; int HbGridLayout::rowCount(void) const
	?isTrackFilled@HbSliderControl@@QBE_NXZ @ 3453 NONAME ; bool HbSliderControl::isTrackFilled(void) const
	?getStaticMetaObject@HbGridItemContainer@@SAABUQMetaObject@@XZ @ 3454 NONAME ; struct QMetaObject const & HbGridItemContainer::getStaticMetaObject(void)
	??0HbRadioButtonListViewItem@@QAE@PAVQGraphicsItem@@@Z @ 3455 NONAME ; HbRadioButtonListViewItem::HbRadioButtonListViewItem(class QGraphicsItem *)
	?setFocusToNextOrPreviousAnchor@HbAbstractEditPrivate@@QAE_N_N@Z @ 3456 NONAME ; bool HbAbstractEditPrivate::setFocusToNextOrPreviousAnchor(bool)
	??0HbSelectionDialogContentWidget@@QAE@PAVHbSelectionDialogPrivate@@@Z @ 3457 NONAME ; HbSelectionDialogContentWidget::HbSelectionDialogContentWidget(class HbSelectionDialogPrivate *)
	?style@HbProgressSliderPrivate@@UBEPAVHbStyle@@XZ @ 3458 NONAME ABSENT ; class HbStyle * HbProgressSliderPrivate::style(void) const
	?itemAdded@HbGridItemContainer@@MAEXHPAVHbAbstractViewItem@@_N@Z @ 3459 NONAME ; void HbGridItemContainer::itemAdded(int, class HbAbstractViewItem *, bool)
	??0HbAbstractEditPrivate@@QAE@XZ @ 3460 NONAME ; HbAbstractEditPrivate::HbAbstractEditPrivate(void)
	?setHandleItem@HbSliderControl@@QAEXPAVQGraphicsItem@@@Z @ 3461 NONAME ; void HbSliderControl::setHandleItem(class QGraphicsItem *)
	?orientation@HbProgressSliderPrivate@@UAE?AW4Orientation@Qt@@XZ @ 3462 NONAME ; enum Qt::Orientation HbProgressSliderPrivate::orientation(void)
	?getPaintContext@HbAbstractEditPrivate@@QBE?AUPaintContext@QAbstractTextDocumentLayout@@XZ @ 3463 NONAME ; struct QAbstractTextDocumentLayout::PaintContext HbAbstractEditPrivate::getPaintContext(void) const
	?trUtf8@HbSliderControl@@SA?AVQString@@PBD0H@Z @ 3464 NONAME ; class QString HbSliderControl::trUtf8(char const *, char const *, int)
	?metaObject@HbSliderTickmarksLabel@@UBEPBUQMetaObject@@XZ @ 3465 NONAME ; struct QMetaObject const * HbSliderTickmarksLabel::metaObject(void) const
	?setHandleItem@HbSliderHandle@@QAEXPAVQGraphicsItem@@@Z @ 3466 NONAME ; void HbSliderHandle::setHandleItem(class QGraphicsItem *)
	?_q_selectionChanged@HbAbstractEditPrivate@@QAEXXZ @ 3467 NONAME ABSENT ; void HbAbstractEditPrivate::_q_selectionChanged(void)
	?setSliderPosition@HbSliderControl@@QAEXH@Z @ 3468 NONAME ; void HbSliderControl::setSliderPosition(int)
	?smileyEngineInstance@HbAbstractEditPrivate@@QBEPAVHbSmileyEngine@@XZ @ 3469 NONAME ; class HbSmileyEngine * HbAbstractEditPrivate::smileyEngineInstance(void) const
	?validateContent@HbAbstractEditPrivate@@QAE?AW4State@QValidator@@HHH@Z @ 3470 NONAME ; enum QValidator::State HbAbstractEditPrivate::validateContent(int, int, int)
	??0HbSliderControl@@IAE@AAVHbSliderControlPrivate@@PAVQGraphicsItem@@@Z @ 3471 NONAME ; HbSliderControl::HbSliderControl(class HbSliderControlPrivate &, class QGraphicsItem *)
	?tr@HbGroupBoxContentWidget@@SA?AVQString@@PBD0H@Z @ 3472 NONAME ; class QString HbGroupBoxContentWidget::tr(char const *, char const *, int)
	?minimizeInputPanel@HbAbstractEditPrivate@@QAEXXZ @ 3473 NONAME ABSENT ; void HbAbstractEditPrivate::minimizeInputPanel(void)
	??0HbProgressSliderControl@@QAE@W4Orientation@Qt@@PAVQGraphicsItem@@@Z @ 3474 NONAME ABSENT ; HbProgressSliderControl::HbProgressSliderControl(enum Qt::Orientation, class QGraphicsItem *)
	??_EHbGroupBoxContentWidget@@UAE@I@Z @ 3475 NONAME ; HbGroupBoxContentWidget::~HbGroupBoxContentWidget(unsigned int)
	?trUtf8@HbDataGroupHeadingWidget@@SA?AVQString@@PBD0@Z @ 3476 NONAME ; class QString HbDataGroupHeadingWidget::trUtf8(char const *, char const *)
	??0HbGridLayout@@IAE@AAVHbGridLayoutPrivate@@PAVQGraphicsLayoutItem@@@Z @ 3477 NONAME ; HbGridLayout::HbGridLayout(class HbGridLayoutPrivate &, class QGraphicsLayoutItem *)
	??1HbDataGroup@@UAE@XZ @ 3478 NONAME ; HbDataGroup::~HbDataGroup(void)
	?initValidator@HbAbstractEditPrivate@@QAEXXZ @ 3479 NONAME ; void HbAbstractEditPrivate::initValidator(void)
	?_q_listItemSelected@HbListDialogContentWidget@@AAEXVQModelIndex@@@Z @ 3480 NONAME ABSENT ; void HbListDialogContentWidget::_q_listItemSelected(class QModelIndex)
	?sizeHint@HbDataGroup@@MBE?AVQSizeF@@W4SizeHint@Qt@@ABV2@@Z @ 3481 NONAME ; class QSizeF HbDataGroup::sizeHint(enum Qt::SizeHint, class QSizeF const &) const
	?itemAt@HbGridLayout@@UBEPAVQGraphicsLayoutItem@@H@Z @ 3482 NONAME ; class QGraphicsLayoutItem * HbGridLayout::itemAt(int) const
	?resizeEvent@HbSliderTickmarks@@UAEXPAVQGraphicsSceneResizeEvent@@@Z @ 3483 NONAME ; void HbSliderTickmarks::resizeEvent(class QGraphicsSceneResizeEvent *)
	?d_func@HbSliderTickmarks@@ABEPBVHbSliderTickmarksPrivate@@XZ @ 3484 NONAME ; class HbSliderTickmarksPrivate const * HbSliderTickmarks::d_func(void) const
	?prepDocForPaste@HbAbstractEditPrivate@@UAEXXZ @ 3485 NONAME ; void HbAbstractEditPrivate::prepDocForPaste(void)
	?canPaste@HbAbstractEditPrivate@@UBE_NXZ @ 3486 NONAME ; bool HbAbstractEditPrivate::canPaste(void) const
	?initStyleOption@HbDataGroup@@IAEXPAVHbStyleOptionDataGroup@@@Z @ 3487 NONAME ; void HbDataGroup::initStyleOption(class HbStyleOptionDataGroup *)
	?recycleItems@HbGridItemContainer@@MAE?AVQPointF@@ABV2@@Z @ 3488 NONAME ; class QPointF HbGridItemContainer::recycleItems(class QPointF const &)
	?setDescription@HbDataGroup@@QAEXABVQString@@@Z @ 3489 NONAME ; void HbDataGroup::setDescription(class QString const &)
	?itemChange@HbSliderControl@@MAE?AVQVariant@@W4GraphicsItemChange@QGraphicsItem@@ABV2@@Z @ 3490 NONAME ; class QVariant HbSliderControl::itemChange(enum QGraphicsItem::GraphicsItemChange, class QVariant const &)
	?maximum@HbProgressSliderPrivate@@UBEHXZ @ 3491 NONAME ; int HbProgressSliderPrivate::maximum(void) const
	?indentation@HbTreeItemContainer@@QBEMXZ @ 3492 NONAME ; float HbTreeItemContainer::indentation(void) const
	?itemRemoved@HbGridItemContainer@@MAEXPAVHbAbstractViewItem@@_N@Z @ 3493 NONAME ; void HbGridItemContainer::itemRemoved(class HbAbstractViewItem *, bool)
	?addItem@HbGridLayout@@QAEXPAVQGraphicsLayoutItem@@@Z @ 3494 NONAME ; void HbGridLayout::addItem(class QGraphicsLayoutItem *)
	?setTrackFilled@HbSliderControl@@QAEX_N@Z @ 3495 NONAME ; void HbSliderControl::setTrackFilled(bool)
	?repolishCloneItems@HbAbstractViewItemPrivate@@QAEXXZ @ 3496 NONAME ABSENT ; void HbAbstractViewItemPrivate::repolishCloneItems(void)
	?q_func@HbProgressSliderPrivate@@AAEPAVHbProgressSlider@@XZ @ 3497 NONAME ; class HbProgressSlider * HbProgressSliderPrivate::q_func(void)
	?findNextPrevAnchor@HbAbstractEditPrivate@@QAE_NABVQTextCursor@@_NAAV2@@Z @ 3498 NONAME ; bool HbAbstractEditPrivate::findNextPrevAnchor(class QTextCursor const &, bool, class QTextCursor &)
	?qt_metacast@HbGridItemContainer@@UAEPAXPBD@Z @ 3499 NONAME ; void * HbGridItemContainer::qt_metacast(char const *)
	?metaObject@HbDataGroup@@UBEPBUQMetaObject@@XZ @ 3500 NONAME ; struct QMetaObject const * HbDataGroup::metaObject(void) const
	?getStaticMetaObject@HbListDialogContentWidget@@SAABUQMetaObject@@XZ @ 3501 NONAME ABSENT ; struct QMetaObject const & HbListDialogContentWidget::getStaticMetaObject(void)
	?setToolTipVisible@HbSliderControl@@QAEX_N@Z @ 3502 NONAME ; void HbSliderControl::setToolTipVisible(bool)
	?clicked@HbGroupBoxHeadingWidget@@IAEX_N@Z @ 3503 NONAME ; void HbGroupBoxHeadingWidget::clicked(bool)
	?columnsInserted@HbTreeModelIterator@@AAEXABVQModelIndex@@HH@Z @ 3504 NONAME ; void HbTreeModelIterator::columnsInserted(class QModelIndex const &, int, int)
	?setColumnCount@HbGridItemContainer@@QAEXH@Z @ 3505 NONAME ; void HbGridItemContainer::setColumnCount(int)
	?setHandleIcon@HbSliderControl@@QAEXABVQString@@@Z @ 3506 NONAME ; void HbSliderControl::setHandleIcon(class QString const &)
	?gestureEvent@HbSliderHandle@@MAEXPAVQGestureEvent@@@Z @ 3507 NONAME ; void HbSliderHandle::gestureEvent(class QGestureEvent *)
	?updateGroupPageName@HbDataGroup@@QAEXHABVQString@@@Z @ 3508 NONAME ; void HbDataGroup::updateGroupPageName(int, class QString const &)
	?tr@HbSliderControl@@SA?AVQString@@PBD0@Z @ 3509 NONAME ; class QString HbSliderControl::tr(char const *, char const *)
	?rectForPositionInCanvasCoords@HbAbstractEditPrivate@@QBE?AVQRectF@@HW4Edge@QTextLine@@@Z @ 3510 NONAME ; class QRectF HbAbstractEditPrivate::rectForPositionInCanvasCoords(int, enum QTextLine::Edge) const
	?setToolTipAlignment@HbSliderControl@@QAEXV?$QFlags@W4AlignmentFlag@Qt@@@@@Z @ 3511 NONAME ; void HbSliderControl::setToolTipAlignment(class QFlags<enum Qt::AlignmentFlag>)
	?removeItem@HbTreeLayout@@QAEXPAVQGraphicsLayoutItem@@_N@Z @ 3512 NONAME ; void HbTreeLayout::removeItem(class QGraphicsLayoutItem *, bool)
	?hasAcceptableInput@HbAbstractEditPrivate@@QBE_NXZ @ 3513 NONAME ; bool HbAbstractEditPrivate::hasAcceptableInput(void) const
	?setHandleVisible@HbSliderControl@@QAEX_N@Z @ 3514 NONAME ; void HbSliderControl::setHandleVisible(bool)
	?setItemModelIndex@HbGridItemContainer@@MAEXPAVHbAbstractViewItem@@ABVQModelIndex@@@Z @ 3515 NONAME ; void HbGridItemContainer::setItemModelIndex(class HbAbstractViewItem *, class QModelIndex const &)
	?itemExpansionChanged@HbTreeModelIterator@@QAEXABVQModelIndex@@@Z @ 3516 NONAME ; void HbTreeModelIterator::itemExpansionChanged(class QModelIndex const &)
	?setRowCount@HbGridLayout@@QAEXH@Z @ 3517 NONAME ; void HbGridLayout::setRowCount(int)
	?textVisible@HbProgressSliderPrivate@@UBE_NXZ @ 3518 NONAME ; bool HbProgressSliderPrivate::textVisible(void) const
	?staticMetaObject@HbTreeItemContainer@@2UQMetaObject@@B @ 3519 NONAME ; struct QMetaObject const HbTreeItemContainer::staticMetaObject
	?metaObject@HbGroupBoxHeadingWidget@@UBEPBUQMetaObject@@XZ @ 3520 NONAME ; struct QMetaObject const * HbGroupBoxHeadingWidget::metaObject(void) const
	?invalidate@HbListLayout@@UAEXXZ @ 3521 NONAME ; void HbListLayout::invalidate(void)
	?trUtf8@HbSliderHandle@@SA?AVQString@@PBD0H@Z @ 3522 NONAME ; class QString HbSliderHandle::trUtf8(char const *, char const *, int)
	?invalidate@HbGridLayout@@UAEXXZ @ 3523 NONAME ; void HbGridLayout::invalidate(void)
	?d_func@HbDataGroup@@AAEPAVHbDataGroupPrivate@@XZ @ 3524 NONAME ; class HbDataGroupPrivate * HbDataGroup::d_func(void)
	?releasedOutside@HbSliderControl@@IAEXXZ @ 3525 NONAME ; void HbSliderControl::releasedOutside(void)
	?q_func@HbSliderPopupPrivate@@AAEPAVHbSliderPopup@@XZ @ 3526 NONAME ; class HbSliderPopup * HbSliderPopupPrivate::q_func(void)
	?mousePressEvent@HbSliderControl@@MAEXPAVQGraphicsSceneMouseEvent@@@Z @ 3527 NONAME ; void HbSliderControl::mousePressEvent(class QGraphicsSceneMouseEvent *)
	?maxItemCount@HbGridItemContainer@@UBEHXZ @ 3528 NONAME ; int HbGridItemContainer::maxItemCount(void) const
	?updateTicks@HbSliderTickmarks@@QAEXXZ @ 3529 NONAME ; void HbSliderTickmarks::updateTicks(void)
	?columnsRemoved@HbTreeModelIterator@@AAEXABVQModelIndex@@HH@Z @ 3530 NONAME ; void HbTreeModelIterator::columnsRemoved(class QModelIndex const &, int, int)
	?setGeometry@HbListLayout@@UAEXABVQRectF@@@Z @ 3531 NONAME ; void HbListLayout::setGeometry(class QRectF const &)
	?trUtf8@HbGridItemContainer@@SA?AVQString@@PBD0H@Z @ 3532 NONAME ; class QString HbGridItemContainer::trUtf8(char const *, char const *, int)
	?trUtf8@HbGroupBoxContentWidget@@SA?AVQString@@PBD0@Z @ 3533 NONAME ; class QString HbGroupBoxContentWidget::trUtf8(char const *, char const *)
	?gestureEvent@HbGroupBoxHeadingWidget@@MAEXPAVQGestureEvent@@@Z @ 3534 NONAME ; void HbGroupBoxHeadingWidget::gestureEvent(class QGestureEvent *)
	?qt_metacast@HbProgressSliderControl@@UAEPAXPBD@Z @ 3535 NONAME ABSENT ; void * HbProgressSliderControl::qt_metacast(char const *)
	?setContentWidget@HbGroupBoxContentWidget@@QAEXPAVHbWidget@@@Z @ 3536 NONAME ; void HbGroupBoxContentWidget::setContentWidget(class HbWidget *)
	?d_func@HbMeshLayout@@AAEPAVHbMeshLayoutPrivate@@XZ @ 3537 NONAME ABSENT ; class HbMeshLayoutPrivate * HbMeshLayout::d_func(void)
	??0HbDataGroup@@QAE@PAVQGraphicsItem@@@Z @ 3538 NONAME ; HbDataGroup::HbDataGroup(class QGraphicsItem *)
	?setMinorTickInterval@HbSliderControl@@QAEXH@Z @ 3539 NONAME ; void HbSliderControl::setMinorTickInterval(int)
	?createIcons@HbSliderTickmarks@@QAEX_N@Z @ 3540 NONAME ABSENT ; void HbSliderTickmarks::createIcons(bool)
	?heading@HbDataGroupPrivate@@QBE?AVQString@@XZ @ 3541 NONAME ; class QString HbDataGroupPrivate::heading(void) const
	?metaObject@HbDataGroupHeadingWidget@@UBEPBUQMetaObject@@XZ @ 3542 NONAME ; struct QMetaObject const * HbDataGroupHeadingWidget::metaObject(void) const
	?trUtf8@HbDataGroup@@SA?AVQString@@PBD0H@Z @ 3543 NONAME ; class QString HbDataGroup::trUtf8(char const *, char const *, int)
	?hitTest@HbAbstractEditPrivate@@QBEHABVQPointF@@W4HitTestAccuracy@Qt@@@Z @ 3544 NONAME ; int HbAbstractEditPrivate::hitTest(class QPointF const &, enum Qt::HitTestAccuracy) const
	??_EHbSelectionDialogContentWidget@@UAE@I@Z @ 3545 NONAME ; HbSelectionDialogContentWidget::~HbSelectionDialogContentWidget(unsigned int)
	??0HbGridItemContainer@@QAE@PAVQGraphicsItem@@@Z @ 3546 NONAME ; HbGridItemContainer::HbGridItemContainer(class QGraphicsItem *)
	??_EHbTreeItemContainer@@UAE@I@Z @ 3547 NONAME ; HbTreeItemContainer::~HbTreeItemContainer(unsigned int)
	?trUtf8@HbGroupBoxContentWidget@@SA?AVQString@@PBD0H@Z @ 3548 NONAME ; class QString HbGroupBoxContentWidget::trUtf8(char const *, char const *, int)
	?_q_updateBlock@HbAbstractEditPrivate@@QAEXVQTextBlock@@@Z @ 3549 NONAME ; void HbAbstractEditPrivate::_q_updateBlock(class QTextBlock)
	?event@HbTreeItemContainer@@MAE_NPAVQEvent@@@Z @ 3550 NONAME ; bool HbTreeItemContainer::event(class QEvent *)
	??_EHbRadioButtonListViewItem@@UAE@I@Z @ 3551 NONAME ; HbRadioButtonListViewItem::~HbRadioButtonListViewItem(unsigned int)
	?tr@HbSliderTickmarksLabel@@SA?AVQString@@PBD0H@Z @ 3552 NONAME ; class QString HbSliderTickmarksLabel::tr(char const *, char const *, int)
	?getStaticMetaObject@HbSliderHandle@@SAABUQMetaObject@@XZ @ 3553 NONAME ; struct QMetaObject const & HbSliderHandle::getStaticMetaObject(void)
	?metaObject@HbProgressSliderControl@@UBEPBUQMetaObject@@XZ @ 3554 NONAME ABSENT ; struct QMetaObject const * HbProgressSliderControl::metaObject(void) const
	??0HbListDialogContentWidget@@QAE@PAVHbListDialogPrivate@@@Z @ 3555 NONAME ABSENT ; HbListDialogContentWidget::HbListDialogContentWidget(class HbListDialogPrivate *)
	?createDefaultPrototype@HbGridItemContainer@@MBEPAVHbAbstractViewItem@@XZ @ 3556 NONAME ; class HbAbstractViewItem * HbGridItemContainer::createDefaultPrototype(void) const
	?type@HbSliderHandle@@UBEHXZ @ 3557 NONAME ; int HbSliderHandle::type(void) const
	?tr@HbDataGroup@@SA?AVQString@@PBD0@Z @ 3558 NONAME ; class QString HbDataGroup::tr(char const *, char const *)
	?longPress@HbGroupBoxContentWidget@@IAEXVQPointF@@@Z @ 3559 NONAME ; void HbGroupBoxContentWidget::longPress(class QPointF)
	?qt_metacall@HbGroupBoxContentWidget@@UAEHW4Call@QMetaObject@@HPAPAX@Z @ 3560 NONAME ; int HbGroupBoxContentWidget::qt_metacall(enum QMetaObject::Call, int, void * *)
	?animationFinished@HbGridLayout@@IAEXPAVQGraphicsLayoutItem@@W4AnimationType@1@@Z @ 3561 NONAME ; void HbGridLayout::animationFinished(class QGraphicsLayoutItem *, enum HbGridLayout::AnimationType)
	?cursorRect@HbAbstractEditPrivate@@QBE?AVQRectF@@ABVQTextCursor@@@Z @ 3562 NONAME ; class QRectF HbAbstractEditPrivate::cursorRect(class QTextCursor const &) const
	?trUtf8@HbTreeItemContainer@@SA?AVQString@@PBD0H@Z @ 3563 NONAME ; class QString HbTreeItemContainer::trUtf8(char const *, char const *, int)
	??0HbListLayout@@QAE@PAVQGraphicsLayoutItem@@@Z @ 3564 NONAME ; HbListLayout::HbListLayout(class QGraphicsLayoutItem *)
	?animationFinished@HbTreeItemContainer@@IAEXABUEffectStatus@HbEffect@@@Z @ 3565 NONAME ; void HbTreeItemContainer::animationFinished(struct HbEffect::EffectStatus const &)
	?gestureReceived@HbAbstractEditPrivate@@QAEXXZ @ 3566 NONAME ; void HbAbstractEditPrivate::gestureReceived(void)
	?openInputPanel@HbAbstractEditPrivate@@QAEXXZ @ 3567 NONAME ; void HbAbstractEditPrivate::openInputPanel(void)
	?updatePrimitives@HbGroupBoxHeadingWidget@@UAEXXZ @ 3568 NONAME ; void HbGroupBoxHeadingWidget::updatePrimitives(void)
	??0HbGridItemContainer@@IAE@AAVHbGridItemContainerPrivate@@PAVQGraphicsItem@@@Z @ 3569 NONAME ; HbGridItemContainer::HbGridItemContainer(class HbGridItemContainerPrivate &, class QGraphicsItem *)
	?getStaticMetaObject@HbDataGroupHeadingWidget@@SAABUQMetaObject@@XZ @ 3570 NONAME ; struct QMetaObject const & HbDataGroupHeadingWidget::getStaticMetaObject(void)
	?viewLayout@HbGridItemContainer@@QBEPAVHbGridLayout@@XZ @ 3571 NONAME ; class HbGridLayout * HbGridItemContainer::viewLayout(void) const
	?closeInputPanel@HbAbstractEditPrivate@@QAEXXZ @ 3572 NONAME ; void HbAbstractEditPrivate::closeInputPanel(void)
	?setSpacing@HbGridLayout@@QAEXM@Z @ 3573 NONAME ; void HbGridLayout::setSpacing(float)
	?getStaticMetaObject@HbSliderControl@@SAABUQMetaObject@@XZ @ 3574 NONAME ; struct QMetaObject const & HbSliderControl::getStaticMetaObject(void)
	?longTapGesture@HbAbstractEditPrivate@@QAEXABVQPointF@@@Z @ 3575 NONAME ABSENT ; void HbAbstractEditPrivate::longTapGesture(class QPointF const &)
	?getStaticMetaObject@HbGroupBoxHeadingWidget@@SAABUQMetaObject@@XZ @ 3576 NONAME ; struct QMetaObject const & HbGroupBoxHeadingWidget::getStaticMetaObject(void)
	?getStaticMetaObject@HbProgressSliderControl@@SAABUQMetaObject@@XZ @ 3577 NONAME ABSENT ; struct QMetaObject const & HbProgressSliderControl::getStaticMetaObject(void)
	?qt_metacall@HbSliderControl@@UAEHW4Call@QMetaObject@@HPAPAX@Z @ 3578 NONAME ; int HbSliderControl::qt_metacall(enum QMetaObject::Call, int, void * *)
	?tr@HbSelectionDialogContentWidget@@SA?AVQString@@PBD0H@Z @ 3579 NONAME ; class QString HbSelectionDialogContentWidget::tr(char const *, char const *, int)
	?getStaticMetaObject@HbTreeItemContainer@@SAABUQMetaObject@@XZ @ 3580 NONAME ; struct QMetaObject const & HbTreeItemContainer::getStaticMetaObject(void)
	??0HbAbstractViewItemPrivate@@QAE@PAVHbAbstractViewItem@@PAVHbAbstractViewItemShared@@@Z @ 3581 NONAME ABSENT ; HbAbstractViewItemPrivate::HbAbstractViewItemPrivate(class HbAbstractViewItem *, class HbAbstractViewItemShared *)
	?emitSliderMoved@HbProgressSliderPrivate@@UAEXH@Z @ 3582 NONAME ; void HbProgressSliderPrivate::emitSliderMoved(int)
	??_EHbDataGroupHeadingWidget@@UAE@I@Z @ 3583 NONAME ; HbDataGroupHeadingWidget::~HbDataGroupHeadingWidget(unsigned int)
	?createConnection@HbGroupBoxHeadingWidget@@QAEXXZ @ 3584 NONAME ; void HbGroupBoxHeadingWidget::createConnection(void)
	?showToolTip@HbSliderControl@@QAEXXZ @ 3585 NONAME ; void HbSliderControl::showToolTip(void)
	?init@HbProgressiveSliderPrivate@@QAEXXZ @ 3586 NONAME ABSENT ; void HbProgressiveSliderPrivate::init(void)
	?metaObject@HbSliderHandle@@UBEPBUQMetaObject@@XZ @ 3587 NONAME ; struct QMetaObject const * HbSliderHandle::metaObject(void) const
	?tr@HbListDialogContentWidget@@SA?AVQString@@PBD0H@Z @ 3588 NONAME ABSENT ; class QString HbListDialogContentWidget::tr(char const *, char const *, int)
	?_q_valueChanged@HbSliderPopupPrivate@@QAEXH@Z @ 3589 NONAME ; void HbSliderPopupPrivate::_q_valueChanged(int)
	??_EHbListLayout@@UAE@I@Z @ 3590 NONAME ; HbListLayout::~HbListLayout(unsigned int)
	?qt_metacall@HbSelectionDialogContentWidget@@UAEHW4Call@QMetaObject@@HPAPAX@Z @ 3591 NONAME ; int HbSelectionDialogContentWidget::qt_metacall(enum QMetaObject::Call, int, void * *)
	?q_func@HbProgressSliderPrivate@@ABEPBVHbProgressSlider@@XZ @ 3592 NONAME ; class HbProgressSlider const * HbProgressSliderPrivate::q_func(void) const
	?drawSelectionEdges@HbAbstractEditPrivate@@QAEXPAVQPainter@@UPaintContext@QAbstractTextDocumentLayout@@@Z @ 3593 NONAME ABSENT ; void HbAbstractEditPrivate::drawSelectionEdges(class QPainter *, struct QAbstractTextDocumentLayout::PaintContext)
	??1HbGridItemContainer@@UAE@XZ @ 3594 NONAME ; HbGridItemContainer::~HbGridItemContainer(void)
	?scrollTo@HbGridItemContainer@@QAEXABVQModelIndex@@W4ScrollHint@HbAbstractItemView@@@Z @ 3595 NONAME ; void HbGridItemContainer::scrollTo(class QModelIndex const &, enum HbAbstractItemView::ScrollHint)
	??0HbDataGroupPrivate@@QAE@ABV0@@Z @ 3596 NONAME ; HbDataGroupPrivate::HbDataGroupPrivate(class HbDataGroupPrivate const &)
	?indexPosition@HbTreeModelIterator@@UBEHABVQModelIndex@@@Z @ 3597 NONAME ; int HbTreeModelIterator::indexPosition(class QModelIndex const &) const
	?type@HbGroupBoxHeadingWidget@@UBEHXZ @ 3598 NONAME ; int HbGroupBoxHeadingWidget::type(void) const
	?tapTriggered@HbAbstractViewItemPrivate@@UAEXPAVQGestureEvent@@@Z @ 3599 NONAME ABSENT ; void HbAbstractViewItemPrivate::tapTriggered(class QGestureEvent *)
	?recycleItems@HbTreeItemContainer@@UAE?AVQPointF@@ABV2@@Z @ 3600 NONAME ; class QPointF HbTreeItemContainer::recycleItems(class QPointF const &)
	?pageChanged@HbDataGroup@@QAEXH@Z @ 3601 NONAME ; void HbDataGroup::pageChanged(int)
	?animationFinished@HbGridItemContainer@@IAEXABUEffectStatus@HbEffect@@@Z @ 3602 NONAME ; void HbGridItemContainer::animationFinished(struct HbEffect::EffectStatus const &)
	?q_func@HbProgressiveSliderPrivate@@AAEPAVHbProgressiveSlider@@XZ @ 3603 NONAME ABSENT ; class HbProgressiveSlider * HbProgressiveSliderPrivate::q_func(void)
	?emitSliderReleased@HbProgressSliderPrivate@@UAEXXZ @ 3604 NONAME ; void HbProgressSliderPrivate::emitSliderReleased(void)
	?staticMetaObject@HbSliderControl@@2UQMetaObject@@B @ 3605 NONAME ; struct QMetaObject const HbSliderControl::staticMetaObject
	?tr@HbSelectionDialogContentWidget@@SA?AVQString@@PBD0@Z @ 3606 NONAME ; class QString HbSelectionDialogContentWidget::tr(char const *, char const *)
	?qt_metacall@HbDataGroup@@UAEHW4Call@QMetaObject@@HPAPAX@Z @ 3607 NONAME ; int HbDataGroup::qt_metacall(enum QMetaObject::Call, int, void * *)
	?sizeHint@HbGridLayout@@UBE?AVQSizeF@@W4SizeHint@Qt@@ABV2@@Z @ 3608 NONAME ; class QSizeF HbGridLayout::sizeHint(enum Qt::SizeHint, class QSizeF const &) const
	?metaObject@HbSliderControl@@UBEPBUQMetaObject@@XZ @ 3609 NONAME ; struct QMetaObject const * HbSliderControl::metaObject(void) const
	?setGroupPage@HbDataGroupPrivate@@QAEXABVQString@@@Z @ 3610 NONAME ; void HbDataGroupPrivate::setGroupPage(class QString const &)
	?mouseReleaseEvent@HbSliderHandle@@MAEXPAVQGraphicsSceneMouseEvent@@@Z @ 3611 NONAME ; void HbSliderHandle::mouseReleaseEvent(class QGraphicsSceneMouseEvent *)
	?recycleItems@HbGridLayout@@QAEXPAVQGraphicsLayoutItem@@0@Z @ 3612 NONAME ; void HbGridLayout::recycleItems(class QGraphicsLayoutItem *, class QGraphicsLayoutItem *)
	?initStyleOption@HbGroupBoxHeadingWidget@@IBEXPAVHbStyleOptionGroupBox@@@Z @ 3613 NONAME ; void HbGroupBoxHeadingWidget::initStyleOption(class HbStyleOptionGroupBox *) const
	?revealItem@HbAbstractViewItemPrivate@@QAEXXZ @ 3614 NONAME ABSENT ; void HbAbstractViewItemPrivate::revealItem(void)
	?qt_metacall@HbSliderHandle@@UAEHW4Call@QMetaObject@@HPAPAX@Z @ 3615 NONAME ; int HbSliderHandle::qt_metacall(enum QMetaObject::Call, int, void * *)
	?setActivePage@HbDataGroupPrivate@@QAEXH@Z @ 3616 NONAME ABSENT ; void HbDataGroupPrivate::setActivePage(int)
	?createDefaultPrototype@HbTreeItemContainer@@MBEPAVHbAbstractViewItem@@XZ @ 3617 NONAME ; class HbAbstractViewItem * HbTreeItemContainer::createDefaultPrototype(void) const
	?getStaticMetaObject@HbTreeModelIterator@@SAABUQMetaObject@@XZ @ 3618 NONAME ; struct QMetaObject const & HbTreeModelIterator::getStaticMetaObject(void)
	?d_func@HbDataGroup@@ABEPBVHbDataGroupPrivate@@XZ @ 3619 NONAME ; class HbDataGroupPrivate const * HbDataGroup::d_func(void) const
	??_EHbSliderTickmarks@@UAE@I@Z @ 3620 NONAME ; HbSliderTickmarks::~HbSliderTickmarks(unsigned int)
	?addItem@HbTreeItemContainer@@UAEXABVQModelIndex@@_N@Z @ 3621 NONAME ; void HbTreeItemContainer::addItem(class QModelIndex const &, bool)
	?updateCurrentCharFormat@HbAbstractEditPrivate@@QAEXXZ @ 3622 NONAME ; void HbAbstractEditPrivate::updateCurrentCharFormat(void)
	?metaObject@HbListDialogContentWidget@@UBEPBUQMetaObject@@XZ @ 3623 NONAME ABSENT ; struct QMetaObject const * HbListDialogContentWidget::metaObject(void) const
	?qt_metacast@HbGroupBoxContentWidget@@UAEPAXPBD@Z @ 3624 NONAME ; void * HbGroupBoxContentWidget::qt_metacast(char const *)
	?polish@HbSliderTickmarks@@MAEXAAVHbStyleParameters@@@Z @ 3625 NONAME ; void HbSliderTickmarks::polish(class HbStyleParameters &)
	?d_func@HbGridLayout@@AAEPAVHbGridLayoutPrivate@@XZ @ 3626 NONAME ; class HbGridLayoutPrivate * HbGridLayout::d_func(void)
	?staticMetaObject@HbListDialogContentWidget@@2UQMetaObject@@B @ 3627 NONAME ABSENT ; struct QMetaObject const HbListDialogContentWidget::staticMetaObject
	?d_func@HbSliderTickmarksLabel@@AAEPAVHbSliderTickmarksLabelPrivate@@XZ @ 3628 NONAME ; class HbSliderTickmarksLabelPrivate * HbSliderTickmarksLabel::d_func(void)
	?updateChildItems@HbDataGroup@@UAEXXZ @ 3629 NONAME ; void HbDataGroup::updateChildItems(void)
	?trUtf8@HbSliderHandle@@SA?AVQString@@PBD0@Z @ 3630 NONAME ; class QString HbSliderHandle::trUtf8(char const *, char const *)
	?type@HbDataGroupHeadingWidget@@UBEHXZ @ 3631 NONAME ; int HbDataGroupHeadingWidget::type(void) const
	?selectionChanged@HbAbstractEditPrivate@@QAEX_N@Z @ 3632 NONAME ; void HbAbstractEditPrivate::selectionChanged(bool)
	?tr@HbGridItemContainer@@SA?AVQString@@PBD0@Z @ 3633 NONAME ; class QString HbGridItemContainer::tr(char const *, char const *)
	?toolTipText@HbProgressSliderPrivate@@UBE?AVQString@@XZ @ 3634 NONAME ; class QString HbProgressSliderPrivate::toolTipText(void) const
	?q_func@HbCheckBoxPrivate@@ABEPBVHbCheckBox@@XZ @ 3635 NONAME ; class HbCheckBox const * HbCheckBoxPrivate::q_func(void) const
	?insertItem@HbGridLayout@@QAEXHPAVQGraphicsLayoutItem@@_N@Z @ 3636 NONAME ; void HbGridLayout::insertItem(int, class QGraphicsLayoutItem *, bool)
	?qt_metacall@HbGridLayout@@UAEHW4Call@QMetaObject@@HPAPAX@Z @ 3637 NONAME ; int HbGridLayout::qt_metacall(enum QMetaObject::Call, int, void * *)
	?updatePrimitives@HbDataGroup@@UAEXXZ @ 3638 NONAME ; void HbDataGroup::updatePrimitives(void)
	?mousePressEvent@HbGroupBoxContentWidget@@MAEXPAVQGraphicsSceneMouseEvent@@@Z @ 3639 NONAME ; void HbGroupBoxContentWidget::mousePressEvent(class QGraphicsSceneMouseEvent *)
	?setModel@HbTreeModelIterator@@EAEXPAVQAbstractItemModel@@VQModelIndex@@@Z @ 3640 NONAME ; void HbTreeModelIterator::setModel(class QAbstractItemModel *, class QModelIndex)
	?setRecycling@HbGridLayout@@QAEX_N@Z @ 3641 NONAME ; void HbGridLayout::setRecycling(bool)
	?sceneEventFilter@HbSliderControl@@MAE_NPAVQGraphicsItem@@PAVQEvent@@@Z @ 3642 NONAME ; bool HbSliderControl::sceneEventFilter(class QGraphicsItem *, class QEvent *)
	?setTickPosition@HbSliderTickmarks@@QAEXV?$QFlags@W4SliderTickPosition@Hb@@@@@Z @ 3643 NONAME ; void HbSliderTickmarks::setTickPosition(class QFlags<enum Hb::SliderTickPosition>)
	?groupPage@HbDataGroupPrivate@@QBE?AVQString@@XZ @ 3644 NONAME ABSENT ; class QString HbDataGroupPrivate::groupPage(void) const
	?trUtf8@HbGridLayout@@SA?AVQString@@PBD0H@Z @ 3645 NONAME ; class QString HbGridLayout::trUtf8(char const *, char const *, int)
	?qt_metacall@HbTreeItemContainer@@UAEHW4Call@QMetaObject@@HPAPAX@Z @ 3646 NONAME ; int HbTreeItemContainer::qt_metacall(enum QMetaObject::Call, int, void * *)
	?mouseReleaseEvent@HbSliderControl@@MAEXPAVQGraphicsSceneMouseEvent@@@Z @ 3647 NONAME ; void HbSliderControl::mouseReleaseEvent(class QGraphicsSceneMouseEvent *)
	?tr@HbGridItemContainer@@SA?AVQString@@PBD0H@Z @ 3648 NONAME ; class QString HbGridItemContainer::tr(char const *, char const *, int)
	?removeCurrentDocument@HbAbstractEditPrivate@@QAEXXZ @ 3649 NONAME ; void HbAbstractEditPrivate::removeCurrentDocument(void)
	?staticMetaObject@HbGroupBoxContentWidget@@2UQMetaObject@@B @ 3650 NONAME ; struct QMetaObject const HbGroupBoxContentWidget::staticMetaObject
	?alignmentFromString@HbAbstractEditPrivate@@SA?AV?$QFlags@W4AlignmentFlag@Qt@@@@ABVQString@@@Z @ 3651 NONAME ; class QFlags<enum Qt::AlignmentFlag> HbAbstractEditPrivate::alignmentFromString(class QString const &)
	?itemChange@HbGridItemContainer@@MAE?AVQVariant@@W4GraphicsItemChange@QGraphicsItem@@ABV2@@Z @ 3652 NONAME ; class QVariant HbGridItemContainer::itemChange(enum QGraphicsItem::GraphicsItemChange, class QVariant const &)
	?polish@HbDataGroup@@UAEXAAVHbStyleParameters@@@Z @ 3653 NONAME ; void HbDataGroup::polish(class HbStyleParameters &)
	?cursorRectPlusUnicodeDirectionMarkers@HbAbstractEditPrivate@@QBE?AVQRectF@@H@Z @ 3654 NONAME ; class QRectF HbAbstractEditPrivate::cursorRectPlusUnicodeDirectionMarkers(int) const
	?removeAt@HbListLayout@@UAEXH@Z @ 3655 NONAME ; void HbListLayout::removeAt(int)
	?selectionRect@HbAbstractEditPrivate@@QBE?AVQRectF@@ABVQTextCursor@@@Z @ 3656 NONAME ; class QRectF HbAbstractEditPrivate::selectionRect(class QTextCursor const &) const
	??_EHbTreeModelIterator@@UAE@I@Z @ 3657 NONAME ; HbTreeModelIterator::~HbTreeModelIterator(unsigned int)
	?polish@HbSliderTickmarksLabel@@MAEXAAVHbStyleParameters@@@Z @ 3658 NONAME ; void HbSliderTickmarksLabel::polish(class HbStyleParameters &)
	??_EHbDataGroup@@UAE@I@Z @ 3659 NONAME ; HbDataGroup::~HbDataGroup(unsigned int)
	?showMarkWidget@HbSelectionDialogContentWidget@@QAEX_N@Z @ 3660 NONAME ; void HbSelectionDialogContentWidget::showMarkWidget(bool)
	??_EHbGridLayout@@UAE@I@Z @ 3661 NONAME ; HbGridLayout::~HbGridLayout(unsigned int)
	?type@HbProgressSliderControl@@UBEHXZ @ 3662 NONAME ABSENT ; int HbProgressSliderControl::type(void) const
	?tr@HbSliderHandle@@SA?AVQString@@PBD0@Z @ 3663 NONAME ; class QString HbSliderHandle::tr(char const *, char const *)
	??0HbGroupBoxContentWidget@@QAE@PAVQGraphicsItem@@@Z @ 3664 NONAME ; HbGroupBoxContentWidget::HbGroupBoxContentWidget(class QGraphicsItem *)
	?gestureEvent@HbDataGroupHeadingWidget@@UAEXPAVQGestureEvent@@@Z @ 3665 NONAME ; void HbDataGroupHeadingWidget::gestureEvent(class QGestureEvent *)
	?minorTickLabels@HbSliderControl@@QBE?AVQStringList@@XZ @ 3666 NONAME ; class QStringList HbSliderControl::minorTickLabels(void) const
	??0HbSliderTickmarks@@QAE@PAVQGraphicsItem@@@Z @ 3667 NONAME ABSENT ; HbSliderTickmarks::HbSliderTickmarks(class QGraphicsItem *)
	?setLabelSize@HbSliderTickmarksLabel@@QAEXXZ @ 3668 NONAME ABSENT ; void HbSliderTickmarksLabel::setLabelSize(void)
	?boundingRect@HbProgressSliderPrivate@@UBE?AVQRectF@@XZ @ 3669 NONAME ; class QRectF HbProgressSliderPrivate::boundingRect(void) const
	?init@HbDataGroupPrivate@@QAEXXZ @ 3670 NONAME ; void HbDataGroupPrivate::init(void)
	?mouseReleaseEvent@HbGroupBoxContentWidget@@MAEXPAVQGraphicsSceneMouseEvent@@@Z @ 3671 NONAME ; void HbGroupBoxContentWidget::mouseReleaseEvent(class QGraphicsSceneMouseEvent *)
	?metaObject@HbTreeModelIterator@@UBEPBUQMetaObject@@XZ @ 3672 NONAME ; struct QMetaObject const * HbTreeModelIterator::metaObject(void) const
	?mousePressEvent@HbSliderHandle@@MAEXPAVQGraphicsSceneMouseEvent@@@Z @ 3673 NONAME ; void HbSliderHandle::mousePressEvent(class QGraphicsSceneMouseEvent *)
	??_EHbCheckBoxPrivate@@UAE@I@Z @ 3674 NONAME ; HbCheckBoxPrivate::~HbCheckBoxPrivate(unsigned int)
	?q_func@HbDataGroupPrivate@@AAEPAVHbDataGroup@@XZ @ 3675 NONAME ; class HbDataGroup * HbDataGroupPrivate::q_func(void)
	?d_func@HbTreeItemContainer@@ABEPBVHbTreeItemContainerPrivate@@XZ @ 3676 NONAME ; class HbTreeItemContainerPrivate const * HbTreeItemContainer::d_func(void) const
	?qt_metacast@HbSliderControl@@UAEPAXPBD@Z @ 3677 NONAME ; void * HbSliderControl::qt_metacast(char const *)
	?canSetModelIndex@HbDataGroup@@UBE_NABVQModelIndex@@@Z @ 3678 NONAME ; bool HbDataGroup::canSetModelIndex(class QModelIndex const &) const
	??_EHbProgressSliderPrivate@@UAE@I@Z @ 3679 NONAME ; HbProgressSliderPrivate::~HbProgressSliderPrivate(unsigned int)
	?staticMetaObject@HbDataGroupHeadingWidget@@2UQMetaObject@@B @ 3680 NONAME ; struct QMetaObject const HbDataGroupHeadingWidget::staticMetaObject
