EXPORTS
	_ZN16HbDocumentLoader12createObjectERK7QStringS2_ @ 1 NONAME
	_ZN16HbDocumentLoader13setObjectTreeE5QListIP7QObjectE @ 2 NONAME
	_ZN16HbDocumentLoader4loadEP9QIODevicePb @ 3 NONAME
	_ZN16HbDocumentLoader4loadEP9QIODeviceRK7QStringPb @ 4 NONAME
	_ZN16HbDocumentLoader4loadERK7QStringPb @ 5 NONAME
	_ZN16HbDocumentLoader4loadERK7QStringS2_Pb @ 6 NONAME
	_ZN16HbDocumentLoader5resetEv @ 7 NONAME
	_ZN16HbDocumentLoader7versionEv @ 8 NONAME
	_ZN16HbDocumentLoaderC1Ev @ 9 NONAME
	_ZN16HbDocumentLoaderC2Ev @ 10 NONAME
	_ZN16HbDocumentLoaderD0Ev @ 11 NONAME
	_ZN16HbDocumentLoaderD1Ev @ 12 NONAME
	_ZN16HbDocumentLoaderD2Ev @ 13 NONAME
	_ZN22HbDocumentLoaderPlugin11qt_metacallEN11QMetaObject4CallEiPPv @ 14 NONAME
	_ZN22HbDocumentLoaderPlugin11qt_metacastEPKc @ 15 NONAME
	_ZN22HbDocumentLoaderPlugin16staticMetaObjectE @ 16 NONAME DATA 16
	_ZN22HbDocumentLoaderPlugin19getStaticMetaObjectEv @ 17 NONAME
	_ZNK16HbDocumentLoader10findObjectERK7QString @ 18 NONAME
	_ZNK16HbDocumentLoader10findWidgetERK7QString @ 19 NONAME
	_ZNK22HbDocumentLoaderPlugin10metaObjectEv @ 20 NONAME
	_ZTI16HbDocumentLoader @ 21 NONAME
	_ZTI22HbDocumentLoaderPlugin @ 22 NONAME
	_ZTV16HbDocumentLoader @ 23 NONAME
	_ZTV22HbDocumentLoaderPlugin @ 24 NONAME
	_ZN16HbDocumentLoaderC1EPK12HbMainWindow @ 25 NONAME
	_ZN16HbDocumentLoaderC2EPK12HbMainWindow @ 26 NONAME
	_ZN16HbDocumentLoader12createBinaryEP9QIODeviceS1_ @ 27 NONAME
	_ZN15HbThemeServices8setThemeERK7QString @ 28 NONAME
	_ZN15HbThemeServices9themePathEv @ 29 NONAME
	_ZN15HbThemeServices15availableThemesEv @ 30 NONAME

