EXPORTS
	_ZN10HbCheckBox11qt_metacallEN11QMetaObject4CallEiPPv @ 1 NONAME
	_ZN10HbCheckBox11qt_metacastEPKc @ 2 NONAME
	_ZN10HbCheckBox11resizeEventEP25QGraphicsSceneResizeEvent @ 3 NONAME
	_ZN10HbCheckBox11setTristateEb @ 4 NONAME
	_ZN10HbCheckBox12stateChangedEi @ 5 NONAME
	_ZN10HbCheckBox13checkStateSetEv @ 6 NONAME
	_ZN10HbCheckBox13keyPressEventEP9QKeyEvent @ 7 NONAME
	_ZN10HbCheckBox13setCheckStateEN2Qt10CheckStateE @ 8 NONAME
	_ZN10HbCheckBox14mouseMoveEventEP24QGraphicsSceneMouseEvent @ 9 NONAME ABSENT
	_ZN10HbCheckBox14nextCheckStateEv @ 10 NONAME
	_ZN10HbCheckBox16staticMetaObjectE @ 11 NONAME DATA 16
	_ZN10HbCheckBox16updatePrimitivesEv @ 12 NONAME
	_ZN10HbCheckBox17mouseReleaseEventEP24QGraphicsSceneMouseEvent @ 13 NONAME ABSENT
	_ZN10HbCheckBox19getStaticMetaObjectEv @ 14 NONAME
	_ZN10HbCheckBox7setTextERK7QString @ 15 NONAME
	_ZN10HbCheckBoxC1EP13QGraphicsItem @ 16 NONAME
	_ZN10HbCheckBoxC1ERK7QStringP13QGraphicsItem @ 17 NONAME
	_ZN10HbCheckBoxC2EP13QGraphicsItem @ 18 NONAME
	_ZN10HbCheckBoxC2ERK7QStringP13QGraphicsItem @ 19 NONAME
	_ZN10HbCheckBoxD0Ev @ 20 NONAME
	_ZN10HbCheckBoxD1Ev @ 21 NONAME
	_ZN10HbCheckBoxD2Ev @ 22 NONAME
	_ZN10HbComboBox10insertItemEiRK6HbIconRK7QString @ 23 NONAME ABSENT
	_ZN10HbComboBox10insertItemEiRK7QString @ 24 NONAME ABSENT
	_ZN10HbComboBox10removeItemEi @ 25 NONAME
	_ZN10HbComboBox11changeEventEP6QEvent @ 26 NONAME
	_ZN10HbComboBox11eventFilterEP7QObjectP6QEvent @ 27 NONAME
	_ZN10HbComboBox11insertItemsEiRK11QStringList @ 28 NONAME
	_ZN10HbComboBox11qt_metacallEN11QMetaObject4CallEiPPv @ 29 NONAME
	_ZN10HbComboBox11qt_metacastEPKc @ 30 NONAME
	_ZN10HbComboBox11resizeEventEP25QGraphicsSceneResizeEvent @ 31 NONAME
	_ZN10HbComboBox11setEditTextERK7QString @ 32 NONAME
	_ZN10HbComboBox11setEditableEb @ 33 NONAME
	_ZN10HbComboBox11setItemDataEiRK8QVarianti @ 34 NONAME
	_ZN10HbComboBox11setItemIconEiRK6HbIcon @ 35 NONAME
	_ZN10HbComboBox11setItemTextEiRK7QString @ 36 NONAME
	_ZN10HbComboBox12focusInEventEP11QFocusEvent @ 37 NONAME ABSENT
	_ZN10HbComboBox12setValidatorEP11HbValidator @ 38 NONAME
	_ZN10HbComboBox13clearEditTextEv @ 39 NONAME
	_ZN10HbComboBox13focusOutEventEP11QFocusEvent @ 40 NONAME ABSENT
	_ZN10HbComboBox13keyPressEventEP9QKeyEvent @ 41 NONAME
	_ZN10HbComboBox15editTextChangedERK7QString @ 42 NONAME
	_ZN10HbComboBox15keyReleaseEventEP9QKeyEvent @ 43 NONAME
	_ZN10HbComboBox15mousePressEventEP24QGraphicsSceneMouseEvent @ 44 NONAME ABSENT
	_ZN10HbComboBox15setCurrentIndexEi @ 45 NONAME
	_ZN10HbComboBox15setInsertPolicyENS_12InsertPolicyE @ 46 NONAME ABSENT
	_ZN10HbComboBox16staticMetaObjectE @ 47 NONAME DATA 16
	_ZN10HbComboBox16updatePrimitivesEv @ 48 NONAME
	_ZN10HbComboBox17mouseReleaseEventEP24QGraphicsSceneMouseEvent @ 49 NONAME ABSENT
	_ZN10HbComboBox19currentIndexChangedERK7QString @ 50 NONAME
	_ZN10HbComboBox19currentIndexChangedEi @ 51 NONAME
	_ZN10HbComboBox19getStaticMetaObjectEv @ 52 NONAME
	_ZN10HbComboBox5clearEv @ 53 NONAME
	_ZN10HbComboBox8setItemsERK11QStringList @ 54 NONAME
	_ZN10HbComboBox8setModelEP18QAbstractItemModel @ 55 NONAME
	_ZN10HbComboBoxC1EP13QGraphicsItem @ 56 NONAME
	_ZN10HbComboBoxC1ER17HbComboBoxPrivateP13QGraphicsItem @ 57 NONAME
	_ZN10HbComboBoxC2EP13QGraphicsItem @ 58 NONAME
	_ZN10HbComboBoxC2ER17HbComboBoxPrivateP13QGraphicsItem @ 59 NONAME
	_ZN10HbComboBoxD0Ev @ 60 NONAME
	_ZN10HbComboBoxD1Ev @ 61 NONAME
	_ZN10HbComboBoxD2Ev @ 62 NONAME
	_ZN10HbDataForm10setHeadingERK7QString @ 63 NONAME
	_ZN10HbDataForm11qt_metacallEN11QMetaObject4CallEiPPv @ 64 NONAME
	_ZN10HbDataForm11qt_metacastEPKc @ 65 NONAME
	_ZN10HbDataForm11rowsRemovedERK11QModelIndexii @ 66 NONAME ABSENT
	_ZN10HbDataForm11setExpandedERK11QModelIndexb @ 67 NONAME
	_ZN10HbDataForm12loadSettingsEv @ 68 NONAME ABSENT
	_ZN10HbDataForm12rowsInsertedERK11QModelIndexii @ 69 NONAME
	_ZN10HbDataForm13storeSettingsEv @ 70 NONAME ABSENT
	_ZN10HbDataForm14setDescriptionERK7QString @ 71 NONAME
	_ZN10HbDataForm15initStyleOptionEP21HbStyleOptionDataForm @ 72 NONAME
	_ZN10HbDataForm16staticMetaObjectE @ 73 NONAME DATA 16
	_ZN10HbDataForm19getStaticMetaObjectEv @ 74 NONAME
	_ZN10HbDataForm8scrollToERK11QModelIndex @ 75 NONAME ABSENT
	_ZN10HbDataForm8setModelEP18QAbstractItemModelP18HbAbstractViewItem @ 76 NONAME
	_ZN10HbDataFormC1EP13QGraphicsItem @ 77 NONAME
	_ZN10HbDataFormC1ER17HbDataFormPrivateP23HbAbstractItemContainerP13QGraphicsItem @ 78 NONAME
	_ZN10HbDataFormC2EP13QGraphicsItem @ 79 NONAME
	_ZN10HbDataFormC2ER17HbDataFormPrivateP23HbAbstractItemContainerP13QGraphicsItem @ 80 NONAME
	_ZN10HbDataFormD0Ev @ 81 NONAME
	_ZN10HbDataFormD1Ev @ 82 NONAME
	_ZN10HbDataFormD2Ev @ 83 NONAME
	_ZN10HbFormItem11qt_metacallEN11QMetaObject4CallEiPPv @ 84 NONAME ABSENT
	_ZN10HbFormItem11qt_metacastEPKc @ 85 NONAME ABSENT
	_ZN10HbFormItem11setModifiedEv @ 86 NONAME ABSENT
	_ZN10HbFormItem11setReadOnlyEb @ 87 NONAME ABSENT
	_ZN10HbFormItem12setRemovableEb @ 88 NONAME ABSENT
	_ZN10HbFormItem16setTitleModifiedEv @ 89 NONAME ABSENT
	_ZN10HbFormItem16setTitleReadOnlyEb @ 90 NONAME ABSENT
	_ZN10HbFormItem16staticMetaObjectE @ 91 NONAME DATA 16 ABSENT
	_ZN10HbFormItem19getStaticMetaObjectEv @ 92 NONAME ABSENT
	_ZN10HbFormItem19setEditorWidgetTypeEN2Hb16GraphicsItemTypeE @ 93 NONAME ABSENT
	_ZN10HbFormItem7setDataERK8QVariantRK7QString @ 94 NONAME ABSENT
	_ZN10HbFormItem8setTitleERK7QString @ 95 NONAME ABSENT
	_ZN10HbFormItemC1EN2Hb16GraphicsItemTypeEP7QObject @ 96 NONAME ABSENT
	_ZN10HbFormItemC1EN2Hb16GraphicsItemTypeER17HbFormItemPrivateP7QObject @ 97 NONAME ABSENT
	_ZN10HbFormItemC1EP7QObject @ 98 NONAME ABSENT
	_ZN10HbFormItemC1ER17HbFormItemPrivateP7QObject @ 99 NONAME ABSENT
	_ZN10HbFormItemC2EN2Hb16GraphicsItemTypeEP7QObject @ 100 NONAME ABSENT
	_ZN10HbFormItemC2EN2Hb16GraphicsItemTypeER17HbFormItemPrivateP7QObject @ 101 NONAME ABSENT
	_ZN10HbFormItemC2EP7QObject @ 102 NONAME ABSENT
	_ZN10HbFormItemC2ER17HbFormItemPrivateP7QObject @ 103 NONAME ABSENT
	_ZN10HbFormItemD0Ev @ 104 NONAME ABSENT
	_ZN10HbFormItemD1Ev @ 105 NONAME ABSENT
	_ZN10HbFormItemD2Ev @ 106 NONAME ABSENT
	_ZN10HbFormView10insertItemEiP10HbFormItem @ 107 NONAME ABSENT
	_ZN10HbFormView10removeItemEP10HbFormItem @ 108 NONAME ABSENT
	_ZN10HbFormView11itemPressedEP10HbFormItem @ 109 NONAME ABSENT
	_ZN10HbFormView11itemRemovedEP10HbFormItem @ 110 NONAME ABSENT
	_ZN10HbFormView11qt_metacallEN11QMetaObject4CallEiPPv @ 111 NONAME ABSENT
	_ZN10HbFormView11qt_metacastEPKc @ 112 NONAME ABSENT
	_ZN10HbFormView11resizeEventEP25QGraphicsSceneResizeEvent @ 113 NONAME ABSENT
	_ZN10HbFormView12aboutToCloseEv @ 114 NONAME ABSENT
	_ZN10HbFormView12itemInsertedEP10HbFormItem @ 115 NONAME ABSENT
	_ZN10HbFormView12itemModifiedEP10HbFormItem @ 116 NONAME ABSENT
	_ZN10HbFormView12stateChangedENS_5StateE @ 117 NONAME ABSENT
	_ZN10HbFormView13itemActivatedEP10HbFormItem @ 118 NONAME ABSENT
	_ZN10HbFormView13setLayoutNameERK7QString @ 119 NONAME ABSENT
	_ZN10HbFormView13undoCompletedEv @ 120 NONAME ABSENT
	_ZN10HbFormView14setCurrentItemEP10HbFormItem @ 121 NONAME ABSENT
	_ZN10HbFormView16setItemPrototypeEP14HbFormViewItem @ 122 NONAME ABSENT
	_ZN10HbFormView16staticMetaObjectE @ 123 NONAME DATA 16 ABSENT
	_ZN10HbFormView17setItemPrototypesERK5QListIP14HbFormViewItemE @ 124 NONAME ABSENT
	_ZN10HbFormView19getStaticMetaObjectEv @ 125 NONAME ABSENT
	_ZN10HbFormView20contextMenuRequestedEP10HbFormItemRK7QPointF @ 126 NONAME ABSENT
	_ZN10HbFormView27disableContextMenuRequestedEv @ 127 NONAME ABSENT
	_ZN10HbFormView4exitEv @ 128 NONAME ABSENT
	_ZN10HbFormView4undoEv @ 129 NONAME ABSENT
	_ZN10HbFormView5clearEv @ 130 NONAME ABSENT
	_ZN10HbFormView5paintEP8QPainterPK24QStyleOptionGraphicsItemP7QWidget @ 131 NONAME ABSENT
	_ZN10HbFormView7addItemEP10HbFormItem @ 132 NONAME ABSENT
	_ZN10HbFormView7setModeENS_4ModeE @ 133 NONAME ABSENT
	_ZN10HbFormView8takeItemEi @ 134 NONAME ABSENT
	_ZN10HbFormView9editTitleEP10HbFormItem @ 135 NONAME ABSENT
	_ZN10HbFormViewC1ENS_4ModeEP13QGraphicsItem @ 136 NONAME ABSENT
	_ZN10HbFormViewC1EP13QGraphicsItem @ 137 NONAME ABSENT
	_ZN10HbFormViewC1ER17HbFormViewPrivateNS_4ModeEP13QGraphicsItem @ 138 NONAME ABSENT
	_ZN10HbFormViewC1ER17HbFormViewPrivateP13QGraphicsItem @ 139 NONAME ABSENT
	_ZN10HbFormViewC2ENS_4ModeEP13QGraphicsItem @ 140 NONAME ABSENT
	_ZN10HbFormViewC2EP13QGraphicsItem @ 141 NONAME ABSENT
	_ZN10HbFormViewC2ER17HbFormViewPrivateNS_4ModeEP13QGraphicsItem @ 142 NONAME ABSENT
	_ZN10HbFormViewC2ER17HbFormViewPrivateP13QGraphicsItem @ 143 NONAME ABSENT
	_ZN10HbFormViewD0Ev @ 144 NONAME ABSENT
	_ZN10HbFormViewD1Ev @ 145 NONAME ABSENT
	_ZN10HbFormViewD2Ev @ 146 NONAME ABSENT
	_ZN10HbLineEdit10setMaxRowsEi @ 147 NONAME
	_ZN10HbLineEdit10setMinRowsEi @ 148 NONAME
	_ZN10HbLineEdit11qt_metacallEN11QMetaObject4CallEiPPv @ 149 NONAME
	_ZN10HbLineEdit11qt_metacastEPKc @ 150 NONAME
	_ZN10HbLineEdit11resizeEventEP25QGraphicsSceneResizeEvent @ 151 NONAME ABSENT
	_ZN10HbLineEdit11textChangedERK7QString @ 152 NONAME
	_ZN10HbLineEdit12setMaxLengthEi @ 153 NONAME
	_ZN10HbLineEdit12setSelectionEii @ 154 NONAME
	_ZN10HbLineEdit13keyPressEventEP9QKeyEvent @ 155 NONAME
	_ZN10HbLineEdit14setMaximumRowsEi @ 156 NONAME ABSENT
	_ZN10HbLineEdit14setMinimumRowsEi @ 157 NONAME ABSENT
	_ZN10HbLineEdit15editingFinishedEv @ 158 NONAME
	_ZN10HbLineEdit15keyReleaseEventEP9QKeyEvent @ 159 NONAME
	_ZN10HbLineEdit16inputMethodEventEP17QInputMethodEvent @ 160 NONAME
	_ZN10HbLineEdit16selectionChangedEv @ 161 NONAME
	_ZN10HbLineEdit16staticMetaObjectE @ 162 NONAME DATA 16
	_ZN10HbLineEdit17setCursorPositionEi @ 163 NONAME
	_ZN10HbLineEdit18insertFromMimeDataEPK9QMimeData @ 164 NONAME
	_ZN10HbLineEdit19getStaticMetaObjectEv @ 165 NONAME
	_ZN10HbLineEdit7setTextERK7QString @ 166 NONAME
	_ZN10HbLineEditC1EP13QGraphicsItem @ 167 NONAME
	_ZN10HbLineEditC1ER17HbLineEditPrivateP13QGraphicsItem @ 168 NONAME
	_ZN10HbLineEditC1ERK7QStringP13QGraphicsItem @ 169 NONAME
	_ZN10HbLineEditC2EP13QGraphicsItem @ 170 NONAME
	_ZN10HbLineEditC2ER17HbLineEditPrivateP13QGraphicsItem @ 171 NONAME
	_ZN10HbLineEditC2ERK7QStringP13QGraphicsItem @ 172 NONAME
	_ZN10HbLineEditD0Ev @ 173 NONAME
	_ZN10HbLineEditD1Ev @ 174 NONAME
	_ZN10HbLineEditD2Ev @ 175 NONAME
	_ZN10HbTextEdit11qt_metacallEN11QMetaObject4CallEiPPv @ 176 NONAME
	_ZN10HbTextEdit11qt_metacastEPKc @ 177 NONAME
	_ZN10HbTextEdit11resizeEventEP25QGraphicsSceneResizeEvent @ 178 NONAME
	_ZN10HbTextEdit11setDocumentEP13QTextDocument @ 179 NONAME
	_ZN10HbTextEdit12setPlainTextERK7QString @ 180 NONAME
	_ZN10HbTextEdit13setTextCursorERK11QTextCursor @ 181 NONAME
	_ZN10HbTextEdit16staticMetaObjectE @ 182 NONAME DATA 16
	_ZN10HbTextEdit19getStaticMetaObjectEv @ 183 NONAME
	_ZN10HbTextEdit7setHtmlERK7QString @ 184 NONAME
	_ZN10HbTextEditC1EP13QGraphicsItem @ 185 NONAME
	_ZN10HbTextEditC1ER17HbTextEditPrivateP13QGraphicsItem @ 186 NONAME
	_ZN10HbTextEditC1ERK7QStringP13QGraphicsItem @ 187 NONAME
	_ZN10HbTextEditC2EP13QGraphicsItem @ 188 NONAME
	_ZN10HbTextEditC2ER17HbTextEditPrivateP13QGraphicsItem @ 189 NONAME
	_ZN10HbTextEditC2ERK7QStringP13QGraphicsItem @ 190 NONAME
	_ZN10HbTextEditD0Ev @ 191 NONAME
	_ZN10HbTextEditD1Ev @ 192 NONAME
	_ZN10HbTextEditD2Ev @ 193 NONAME
	_ZN11HbDataQuery10getIntegerERK7QStringiPbP14QGraphicsSceneP15QGraphicsWidget @ 194 NONAME ABSENT
	_ZN11HbDataQuery11qt_metacallEN11QMetaObject4CallEiPPv @ 195 NONAME ABSENT
	_ZN11HbDataQuery11qt_metacastEPKc @ 196 NONAME ABSENT
	_ZN11HbDataQuery12setInputModeENS_9InputModeE @ 197 NONAME ABSENT
	_ZN11HbDataQuery12setTextValueERK8QVariant @ 198 NONAME ABSENT
	_ZN11HbDataQuery13setPromptTextERK7QString @ 199 NONAME ABSENT
	_ZN11HbDataQuery16staticMetaObjectE @ 200 NONAME DATA 16 ABSENT
	_ZN11HbDataQuery19getStaticMetaObjectEv @ 201 NONAME ABSENT
	_ZN11HbDataQuery7getRealERK7QStringdPbP14QGraphicsSceneP15QGraphicsWidget @ 202 NONAME ABSENT
	_ZN11HbDataQuery7getTextERK7QStringS2_PbP14QGraphicsSceneP15QGraphicsWidget @ 203 NONAME ABSENT
	_ZN11HbDataQuery9showEventEP10QShowEvent @ 204 NONAME ABSENT
	_ZN11HbDataQueryC1EP15QGraphicsWidget @ 205 NONAME ABSENT
	_ZN11HbDataQueryC1ER14HbPopupPrivateP13QGraphicsItem @ 206 NONAME ABSENT
	_ZN11HbDataQueryC2EP15QGraphicsWidget @ 207 NONAME ABSENT
	_ZN11HbDataQueryC2ER14HbPopupPrivateP13QGraphicsItem @ 208 NONAME ABSENT
	_ZN11HbDataQueryD0Ev @ 209 NONAME ABSENT
	_ZN11HbDataQueryD1Ev @ 210 NONAME ABSENT
	_ZN11HbDataQueryD2Ev @ 211 NONAME ABSENT
	_ZN11HbHighlight11qt_metacallEN11QMetaObject4CallEiPPv @ 212 NONAME ABSENT
	_ZN11HbHighlight11qt_metacastEPKc @ 213 NONAME ABSENT
	_ZN11HbHighlight16staticMetaObjectE @ 214 NONAME DATA 16 ABSENT
	_ZN11HbHighlight19getStaticMetaObjectEv @ 215 NONAME ABSENT
	_ZN11HbHighlight5paintEP8QPainterPK24QStyleOptionGraphicsItemP7QWidget @ 216 NONAME ABSENT
	_ZN11HbHighlightC1EP13QGraphicsItem @ 217 NONAME ABSENT
	_ZN11HbHighlightC2EP13QGraphicsItem @ 218 NONAME ABSENT
	_ZN11HbHighlightD0Ev @ 219 NONAME ABSENT
	_ZN11HbHighlightD1Ev @ 220 NONAME ABSENT
	_ZN11HbHighlightD2Ev @ 221 NONAME ABSENT
	_ZN11HbListQuery10currentRowEv @ 222 NONAME ABSENT
	_ZN11HbListQuery11qt_metacallEN11QMetaObject4CallEiPPv @ 223 NONAME ABSENT
	_ZN11HbListQuery11qt_metacastEPKc @ 224 NONAME ABSENT
	_ZN11HbListQuery13setCurrentRowEi @ 225 NONAME ABSENT
	_ZN11HbListQuery14getStringItemsERK7QStringRK11QStringListiPbN18HbAbstractItemView13SelectionModeEP14QGraphicsSceneP13QGraphicsItem @ 226 NONAME ABSENT
	_ZN11HbListQuery14getWidgetItemsERK7QStringR5QListIP16HbListWidgetItemEiPbN18HbAbstractItemView13SelectionModeEP14QGraphicsSceneP13QGraphicsItem @ 227 NONAME ABSENT
	_ZN11HbListQuery14setStringItemsERK11QStringListi @ 228 NONAME ABSENT
	_ZN11HbListQuery14setWidgetItemsER5QListIP16HbListWidgetItemEbi @ 229 NONAME ABSENT
	_ZN11HbListQuery15getModelIndexesERK7QStringP18QAbstractItemModelPbN18HbAbstractItemView13SelectionModeEP14QGraphicsSceneP13QGraphicsItem @ 230 NONAME ABSENT
	_ZN11HbListQuery16setSelectionModeEN18HbAbstractItemView13SelectionModeE @ 231 NONAME ABSENT
	_ZN11HbListQuery16staticMetaObjectE @ 232 NONAME DATA 16 ABSENT
	_ZN11HbListQuery19getStaticMetaObjectEv @ 233 NONAME ABSENT
	_ZN11HbListQuery21_q_orientationChangedEN2Qt11OrientationE @ 234 NONAME ABSENT
	_ZN11HbListQuery27_q_orientationAboutToChangeEv @ 235 NONAME ABSENT
	_ZN11HbListQuery8setModelEP18QAbstractItemModel @ 236 NONAME ABSENT
	_ZN11HbListQuery9showEventEP10QShowEvent @ 237 NONAME ABSENT
	_ZN11HbListQueryC1EP13QGraphicsItem @ 238 NONAME ABSENT
	_ZN11HbListQueryC2EP13QGraphicsItem @ 239 NONAME ABSENT
	_ZN11HbListQueryD0Ev @ 240 NONAME ABSENT
	_ZN11HbListQueryD1Ev @ 241 NONAME ABSENT
	_ZN11HbListQueryD2Ev @ 242 NONAME ABSENT
	_ZN11HbValidator11separatorAtEi @ 243 NONAME
	_ZN11HbValidator12addSeparatorERK7QString @ 244 NONAME ABSENT
	_ZN11HbValidator12defaultValueEv @ 245 NONAME
	_ZN11HbValidator15validateContentER11QTextCursoriii @ 246 NONAME
	_ZN11HbValidator16defaultSeparatorEv @ 247 NONAME
	_ZN11HbValidator16updateTextCursorER11QTextCursor @ 248 NONAME
	_ZN11HbValidator18setMasterValidatorEP10QValidator @ 249 NONAME ABSENT
	_ZN11HbValidator19setDefaultSeparatorERK7QString @ 250 NONAME
	_ZN11HbValidator22validateCursorPositionERK11QTextCursorRS0_NS_12ChangeSourceE @ 251 NONAME
	_ZN11HbValidator8addFieldEP10QValidatorRK7QString @ 252 NONAME
	_ZN11HbValidator8addFieldERK7QStringP10QValidatorS2_ @ 253 NONAME
	_ZN11HbValidatorC1EP7QObject @ 254 NONAME
	_ZN11HbValidatorC1ER18HbValidatorPrivateP7QObject @ 255 NONAME
	_ZN11HbValidatorC2EP7QObject @ 256 NONAME
	_ZN11HbValidatorC2ER18HbValidatorPrivateP7QObject @ 257 NONAME
	_ZN11HbValidatorD0Ev @ 258 NONAME
	_ZN11HbValidatorD1Ev @ 259 NONAME
	_ZN11HbValidatorD2Ev @ 260 NONAME
	_ZN12HbCommonNote11qt_metacallEN11QMetaObject4CallEiPPv @ 261 NONAME ABSENT
	_ZN12HbCommonNote11qt_metacastEPKc @ 262 NONAME ABSENT
	_ZN12HbCommonNote11setNoteTypeENS_8NoteTypeE @ 263 NONAME ABSENT
	_ZN12HbCommonNote16staticMetaObjectE @ 264 NONAME DATA 16 ABSENT
	_ZN12HbCommonNote16updatePrimitivesEv @ 265 NONAME ABSENT
	_ZN12HbCommonNote19getStaticMetaObjectEv @ 266 NONAME ABSENT
	_ZN12HbCommonNoteC1ENS_8NoteTypeEP15QGraphicsWidget @ 267 NONAME ABSENT
	_ZN12HbCommonNoteC1ERK7QStringNS_8NoteTypeEP15QGraphicsWidget @ 268 NONAME ABSENT
	_ZN12HbCommonNoteC2ENS_8NoteTypeEP15QGraphicsWidget @ 269 NONAME ABSENT
	_ZN12HbCommonNoteC2ERK7QStringNS_8NoteTypeEP15QGraphicsWidget @ 270 NONAME ABSENT
	_ZN12HbCommonNoteD0Ev @ 271 NONAME ABSENT
	_ZN12HbCommonNoteD1Ev @ 272 NONAME ABSENT
	_ZN12HbCommonNoteD2Ev @ 273 NONAME ABSENT
	_ZN12HbFileDialog10selectDirsEb @ 274 NONAME ABSENT
	_ZN12HbFileDialog11getFileNameERK7QString @ 275 NONAME ABSENT
	_ZN12HbFileDialog11qt_metacallEN11QMetaObject4CallEiPPv @ 276 NONAME ABSENT
	_ZN12HbFileDialog11qt_metacastEPKc @ 277 NONAME ABSENT
	_ZN12HbFileDialog12fileSelectedERK7QString @ 278 NONAME ABSENT
	_ZN12HbFileDialog12setDirectoryERK7QString @ 279 NONAME ABSENT
	_ZN12HbFileDialog16directoryChangedERK7QString @ 280 NONAME ABSENT
	_ZN12HbFileDialog16staticMetaObjectE @ 281 NONAME DATA 16 ABSENT
	_ZN12HbFileDialog17setContentFiltersE6QFlagsIN4QDir6FilterEE @ 282 NONAME ABSENT
	_ZN12HbFileDialog18setFileNameFiltersERK11QStringList @ 283 NONAME ABSENT
	_ZN12HbFileDialog19getStaticMetaObjectEv @ 284 NONAME ABSENT
	_ZN12HbFileDialog20setPrimaryActionTextERK7QString @ 285 NONAME ABSENT
	_ZN12HbFileDialog22setSecondaryActionTextERK7QString @ 286 NONAME ABSENT
	_ZN12HbFileDialog33setPrimaryAndSecondaryActionTextsERK7QStringS2_ @ 287 NONAME ABSENT
	_ZN12HbFileDialog8setTitleERK7QString @ 288 NONAME ABSENT
	_ZN12HbFileDialogC1EP13QGraphicsItem @ 289 NONAME ABSENT
	_ZN12HbFileDialogC2EP13QGraphicsItem @ 290 NONAME ABSENT
	_ZN12HbListDialog10currentRowEv @ 291 NONAME ABSENT
	_ZN12HbListDialog11qt_metacallEN11QMetaObject4CallEiPPv @ 292 NONAME ABSENT
	_ZN12HbListDialog11qt_metacastEPKc @ 293 NONAME ABSENT
	_ZN12HbListDialog13setCurrentRowEi @ 294 NONAME ABSENT
	_ZN12HbListDialog14getStringItemsERK7QStringRK11QStringListiPbN18HbAbstractItemView13SelectionModeEP14QGraphicsSceneP13QGraphicsItem @ 295 NONAME ABSENT
	_ZN12HbListDialog14getWidgetItemsERK7QStringR5QListIP16HbListWidgetItemEiPbN18HbAbstractItemView13SelectionModeEP14QGraphicsSceneP13QGraphicsItem @ 296 NONAME ABSENT
	_ZN12HbListDialog14setStringItemsERK11QStringListi @ 297 NONAME ABSENT
	_ZN12HbListDialog14setWidgetItemsER5QListIP16HbListWidgetItemEbi @ 298 NONAME ABSENT
	_ZN12HbListDialog15getModelIndexesERK7QStringP18QAbstractItemModelPbN18HbAbstractItemView13SelectionModeEP14QGraphicsSceneP13QGraphicsItem @ 299 NONAME ABSENT
	_ZN12HbListDialog16setSelectedItemsE5QListIiE @ 300 NONAME ABSENT
	_ZN12HbListDialog16setSelectionModeEN18HbAbstractItemView13SelectionModeE @ 301 NONAME ABSENT
	_ZN12HbListDialog16staticMetaObjectE @ 302 NONAME DATA 16 ABSENT
	_ZN12HbListDialog19getStaticMetaObjectEv @ 303 NONAME ABSENT
	_ZN12HbListDialog21_q_orientationChangedEN2Qt11OrientationE @ 304 NONAME ABSENT
	_ZN12HbListDialog27_q_orientationAboutToChangeEv @ 305 NONAME ABSENT
	_ZN12HbListDialog8setModelEP18QAbstractItemModel @ 306 NONAME ABSENT
	_ZN12HbListDialog9showEventEP10QShowEvent @ 307 NONAME ABSENT
	_ZN12HbListDialogC1EP13QGraphicsItem @ 308 NONAME ABSENT
	_ZN12HbListDialogC2EP13QGraphicsItem @ 309 NONAME ABSENT
	_ZN12HbListDialogD0Ev @ 310 NONAME ABSENT
	_ZN12HbListDialogD1Ev @ 311 NONAME ABSENT
	_ZN12HbListDialogD2Ev @ 312 NONAME ABSENT
	_ZN12HbMessageBox11qt_metacallEN11QMetaObject4CallEiPPv @ 313 NONAME
	_ZN12HbMessageBox11qt_metacastEPKc @ 314 NONAME
	_ZN12HbMessageBox13keyPressEventEP9QKeyEvent @ 315 NONAME ABSENT
	_ZN12HbMessageBox16setIconAlignmentE6QFlagsIN2Qt13AlignmentFlagEE @ 316 NONAME ABSENT
	_ZN12HbMessageBox16staticMetaObjectE @ 317 NONAME DATA 16
	_ZN12HbMessageBox16updatePrimitivesEv @ 318 NONAME
	_ZN12HbMessageBox19getStaticMetaObjectEv @ 319 NONAME
	_ZN12HbMessageBox23launchWarningMessageBoxERK7QStringP15QGraphicsWidgetP14QGraphicsSceneP13QGraphicsItem @ 320 NONAME ABSENT
	_ZN12HbMessageBox24launchQuestionMessageBoxERK7QStringS2_S2_P15QGraphicsWidgetP14QGraphicsSceneP13QGraphicsItem @ 321 NONAME ABSENT
	_ZN12HbMessageBox27launchInformationMessageBoxERK7QStringP15QGraphicsWidgetP14QGraphicsSceneP13QGraphicsItem @ 322 NONAME ABSENT
	_ZN12HbMessageBox7setIconERK6HbIcon @ 323 NONAME
	_ZN12HbMessageBox7setTextERK7QString @ 324 NONAME
	_ZN12HbMessageBoxC1ENS_14MessageBoxTypeEP13QGraphicsItem @ 325 NONAME
	_ZN12HbMessageBoxC1ER19HbMessageBoxPrivateP13QGraphicsItem @ 326 NONAME
	_ZN12HbMessageBoxC1ERK7QStringNS_14MessageBoxTypeEP13QGraphicsItem @ 327 NONAME
	_ZN12HbMessageBoxC2ENS_14MessageBoxTypeEP13QGraphicsItem @ 328 NONAME
	_ZN12HbMessageBoxC2ER19HbMessageBoxPrivateP13QGraphicsItem @ 329 NONAME
	_ZN12HbMessageBoxC2ERK7QStringNS_14MessageBoxTypeEP13QGraphicsItem @ 330 NONAME
	_ZN12HbMessageBoxD0Ev @ 331 NONAME
	_ZN12HbMessageBoxD1Ev @ 332 NONAME
	_ZN12HbMessageBoxD2Ev @ 333 NONAME
	_ZN12HbPushButton10itemChangeEN13QGraphicsItem18GraphicsItemChangeERK8QVariant @ 334 NONAME
	_ZN12HbPushButton11qt_metacallEN11QMetaObject4CallEiPPv @ 335 NONAME
	_ZN12HbPushButton11qt_metacastEPKc @ 336 NONAME
	_ZN12HbPushButton11resizeEventEP25QGraphicsSceneResizeEvent @ 337 NONAME
	_ZN12HbPushButton12focusInEventEP11QFocusEvent @ 338 NONAME
	_ZN12HbPushButton13focusOutEventEP11QFocusEvent @ 339 NONAME
	_ZN12HbPushButton13keyPressEventEP9QKeyEvent @ 340 NONAME
	_ZN12HbPushButton13setBackgroundERK6HbIcon @ 341 NONAME
	_ZN12HbPushButton14setOrientationEN2Qt11OrientationE @ 342 NONAME ABSENT
	_ZN12HbPushButton15keyReleaseEventEP9QKeyEvent @ 343 NONAME
	_ZN12HbPushButton15mousePressEventEP24QGraphicsSceneMouseEvent @ 344 NONAME
	_ZN12HbPushButton16staticMetaObjectE @ 345 NONAME DATA 16
	_ZN12HbPushButton16updatePrimitivesEv @ 346 NONAME
	_ZN12HbPushButton17mouseReleaseEventEP24QGraphicsSceneMouseEvent @ 347 NONAME ABSENT
	_ZN12HbPushButton17setAdditionalTextERK7QString @ 348 NONAME
	_ZN12HbPushButton18setFrameBackgroundEP13HbFrameDrawer @ 349 NONAME
	_ZN12HbPushButton19getStaticMetaObjectEv @ 350 NONAME
	_ZN12HbPushButton7setIconERK6HbIcon @ 351 NONAME
	_ZN12HbPushButton7setTextERK7QString @ 352 NONAME
	_ZN12HbPushButton9longPressE7QPointF @ 353 NONAME
	_ZN12HbPushButtonC1EP13QGraphicsItem @ 354 NONAME
	_ZN12HbPushButtonC1ER19HbPushButtonPrivateP13QGraphicsItem @ 355 NONAME
	_ZN12HbPushButtonC1ERK6HbIconRK7QStringN2Qt11OrientationEP13QGraphicsItem @ 356 NONAME ABSENT
	_ZN12HbPushButtonC1ERK6HbIconRK7QStringP13QGraphicsItem @ 357 NONAME
	_ZN12HbPushButtonC1ERK7QStringP13QGraphicsItem @ 358 NONAME
	_ZN12HbPushButtonC2EP13QGraphicsItem @ 359 NONAME
	_ZN12HbPushButtonC2ER19HbPushButtonPrivateP13QGraphicsItem @ 360 NONAME
	_ZN12HbPushButtonC2ERK6HbIconRK7QStringN2Qt11OrientationEP13QGraphicsItem @ 361 NONAME ABSENT
	_ZN12HbPushButtonC2ERK6HbIconRK7QStringP13QGraphicsItem @ 362 NONAME
	_ZN12HbPushButtonC2ERK7QStringP13QGraphicsItem @ 363 NONAME
	_ZN12HbPushButtonD0Ev @ 364 NONAME
	_ZN12HbPushButtonD1Ev @ 365 NONAME
	_ZN12HbPushButtonD2Ev @ 366 NONAME
	_ZN12HbTrajectory10appendLineEfRK7QPointF @ 367 NONAME ABSENT
	_ZN12HbTrajectory10appendLineEfRK7QPointFf @ 368 NONAME ABSENT
	_ZN12HbTrajectory12startCurveAtERK7QPointFf @ 369 NONAME ABSENT
	_ZN12HbTrajectory9setOffsetEf @ 370 NONAME ABSENT
	_ZN12HbTrajectoryC1ERKS_ @ 371 NONAME ABSENT
	_ZN12HbTrajectoryC1Ev @ 372 NONAME ABSENT
	_ZN12HbTrajectoryC2ERKS_ @ 373 NONAME ABSENT
	_ZN12HbTrajectoryC2Ev @ 374 NONAME ABSENT
	_ZN12HbTrajectoryD0Ev @ 375 NONAME ABSENT
	_ZN12HbTrajectoryD1Ev @ 376 NONAME ABSENT
	_ZN12HbTrajectoryD2Ev @ 377 NONAME ABSENT
	_ZN12HbTrajectoryaSERKS_ @ 378 NONAME ABSENT
	_ZN12HbZoomSlider10itemChangeEN13QGraphicsItem18GraphicsItemChangeERK8QVariant @ 379 NONAME
	_ZN12HbZoomSlider11qt_metacallEN11QMetaObject4CallEiPPv @ 380 NONAME
	_ZN12HbZoomSlider11qt_metacastEPKc @ 381 NONAME
	_ZN12HbZoomSlider12focusInEventEP11QFocusEvent @ 382 NONAME
	_ZN12HbZoomSlider15mousePressEventEP24QGraphicsSceneMouseEvent @ 383 NONAME
	_ZN12HbZoomSlider16staticMetaObjectE @ 384 NONAME DATA 16
	_ZN12HbZoomSlider17mouseReleaseEventEP24QGraphicsSceneMouseEvent @ 385 NONAME
	_ZN12HbZoomSlider17setToolTipVisibleEb @ 386 NONAME
	_ZN12HbZoomSlider19getStaticMetaObjectEv @ 387 NONAME
	_ZN12HbZoomSlider19setDefaultZoomLevelEi @ 388 NONAME
	_ZN12HbZoomSliderC1EP13QGraphicsItem @ 389 NONAME
	_ZN12HbZoomSliderC2EP13QGraphicsItem @ 390 NONAME
	_ZN12HbZoomSliderD0Ev @ 391 NONAME
	_ZN12HbZoomSliderD1Ev @ 392 NONAME
	_ZN12HbZoomSliderD2Ev @ 393 NONAME
	_ZN13HbColorDialog11qt_metacallEN11QMetaObject4CallEiPPv @ 394 NONAME
	_ZN13HbColorDialog11qt_metacastEPKc @ 395 NONAME
	_ZN13HbColorDialog12noneSelectedEv @ 396 NONAME
	_ZN13HbColorDialog13colorSelectedERK6QColor @ 397 NONAME
	_ZN13HbColorDialog15setInitialColorERK6QColor @ 398 NONAME
	_ZN13HbColorDialog16staticMetaObjectE @ 399 NONAME DATA 16
	_ZN13HbColorDialog19getStaticMetaObjectEv @ 400 NONAME
	_ZN13HbColorDialog19setNoneBlockVisibleEb @ 401 NONAME
	_ZN13HbColorDialog8addColorERK6QColor @ 402 NONAME
	_ZN13HbColorDialog8getColorERK5QListI6QColorERKS1_bPbP14QGraphicsSceneP13QGraphicsItem @ 403 NONAME ABSENT
	_ZN13HbColorDialog8getColorEbPbP14QGraphicsSceneP13QGraphicsItem @ 404 NONAME ABSENT
	_ZN13HbColorDialog9addColorsERK5QListI6QColorE @ 405 NONAME
	_ZN13HbColorDialog9showEventEP10QShowEvent @ 406 NONAME
	_ZN13HbColorDialogC1EP13QGraphicsItem @ 407 NONAME
	_ZN13HbColorDialogC1ER20HbColorDialogPrivateP13QGraphicsItem @ 408 NONAME
	_ZN13HbColorDialogC2EP13QGraphicsItem @ 409 NONAME
	_ZN13HbColorDialogC2ER20HbColorDialogPrivateP13QGraphicsItem @ 410 NONAME
	_ZN13HbInputDialog10getIntegerERK7QStringiPbP14QGraphicsSceneP15QGraphicsWidget @ 411 NONAME ABSENT
	_ZN13HbInputDialog11qt_metacallEN11QMetaObject4CallEiPPv @ 412 NONAME
	_ZN13HbInputDialog11qt_metacastEPKc @ 413 NONAME
	_ZN13HbInputDialog12setInputModeENS_9InputModeEi @ 414 NONAME
	_ZN13HbInputDialog12setTextValueERK8QVarianti @ 415 NONAME ABSENT
	_ZN13HbInputDialog12setValidatorEP11HbValidatori @ 416 NONAME
	_ZN13HbInputDialog13setPromptTextERK7QStringi @ 417 NONAME
	_ZN13HbInputDialog15mousePressEventEP24QGraphicsSceneMouseEvent @ 418 NONAME ABSENT
	_ZN13HbInputDialog16staticMetaObjectE @ 419 NONAME DATA 16
	_ZN13HbInputDialog18isSecondRowVisibleEv @ 420 NONAME ABSENT
	_ZN13HbInputDialog19getStaticMetaObjectEv @ 421 NONAME
	_ZN13HbInputDialog19setSecondRowVisibleEb @ 422 NONAME ABSENT
	_ZN13HbInputDialog7getRealERK7QStringdPbP14QGraphicsSceneP15QGraphicsWidget @ 423 NONAME ABSENT
	_ZN13HbInputDialog7getTextERK7QStringS2_PbP14QGraphicsSceneP15QGraphicsWidget @ 424 NONAME ABSENT
	_ZN13HbInputDialog9showEventEP10QShowEvent @ 425 NONAME ABSENT
	_ZN13HbInputDialogC1EP15QGraphicsWidget @ 426 NONAME ABSENT
	_ZN13HbInputDialogC1ER14HbPopupPrivateP13QGraphicsItem @ 427 NONAME ABSENT
	_ZN13HbInputDialogC2EP15QGraphicsWidget @ 428 NONAME ABSENT
	_ZN13HbInputDialogC2ER14HbPopupPrivateP13QGraphicsItem @ 429 NONAME ABSENT
	_ZN13HbInputDialogD0Ev @ 430 NONAME
	_ZN13HbInputDialogD1Ev @ 431 NONAME
	_ZN13HbInputDialogD2Ev @ 432 NONAME
	_ZN13HbProgressBar10closeEventEP11QCloseEvent @ 433 NONAME
	_ZN13HbProgressBar10itemChangeEN13QGraphicsItem18GraphicsItemChangeERK8QVariant @ 434 NONAME
	_ZN13HbProgressBar10setMaxTextERK7QString @ 435 NONAME
	_ZN13HbProgressBar10setMaximumEi @ 436 NONAME
	_ZN13HbProgressBar10setMinTextERK7QString @ 437 NONAME
	_ZN13HbProgressBar10setMinimumEi @ 438 NONAME
	_ZN13HbProgressBar11changeEventEP6QEvent @ 439 NONAME
	_ZN13HbProgressBar11qt_metacallEN11QMetaObject4CallEiPPv @ 440 NONAME
	_ZN13HbProgressBar11qt_metacastEPKc @ 441 NONAME
	_ZN13HbProgressBar11resizeEventEP25QGraphicsSceneResizeEvent @ 442 NONAME ABSENT
	_ZN13HbProgressBar12valueChangedEi @ 443 NONAME
	_ZN13HbProgressBar14setOrientationEN2Qt11OrientationE @ 444 NONAME
	_ZN13HbProgressBar14setTextVisibleEb @ 445 NONAME ABSENT
	_ZN13HbProgressBar16setProgressValueEi @ 446 NONAME
	_ZN13HbProgressBar16setTextAlignmentE6QFlagsIN2Qt13AlignmentFlagEE @ 447 NONAME ABSENT
	_ZN13HbProgressBar16staticMetaObjectE @ 448 NONAME DATA 16
	_ZN13HbProgressBar16updatePrimitivesEv @ 449 NONAME
	_ZN13HbProgressBar19getStaticMetaObjectEv @ 450 NONAME
	_ZN13HbProgressBar20setMinMaxTextVisibleEb @ 451 NONAME
	_ZN13HbProgressBar21setInvertedAppearanceEb @ 452 NONAME
	_ZN13HbProgressBar6polishER17HbStyleParameters @ 453 NONAME ABSENT
	_ZN13HbProgressBar7setTextERK7QString @ 454 NONAME ABSENT
	_ZN13HbProgressBar8setRangeEii @ 455 NONAME
	_ZN13HbProgressBarC1ENS_15ProgressBarTypeEP13QGraphicsItem @ 456 NONAME ABSENT
	_ZN13HbProgressBarC1ER20HbProgressBarPrivateNS_15ProgressBarTypeEP13QGraphicsItem @ 457 NONAME ABSENT
	_ZN13HbProgressBarC2ENS_15ProgressBarTypeEP13QGraphicsItem @ 458 NONAME ABSENT
	_ZN13HbProgressBarC2ER20HbProgressBarPrivateNS_15ProgressBarTypeEP13QGraphicsItem @ 459 NONAME ABSENT
	_ZN13HbProgressBarD0Ev @ 460 NONAME
	_ZN13HbProgressBarD1Ev @ 461 NONAME
	_ZN13HbProgressBarD2Ev @ 462 NONAME
	_ZN13HbSettingForm10setHeadingERK7QString @ 463 NONAME ABSENT
	_ZN13HbSettingForm11qt_metacallEN11QMetaObject4CallEiPPv @ 464 NONAME ABSENT
	_ZN13HbSettingForm11qt_metacastEPKc @ 465 NONAME ABSENT
	_ZN13HbSettingForm11rowsRemovedERK11QModelIndexii @ 466 NONAME ABSENT
	_ZN13HbSettingForm11setExpandedERK11QModelIndexb @ 467 NONAME ABSENT
	_ZN13HbSettingForm12loadSettingsEv @ 468 NONAME ABSENT
	_ZN13HbSettingForm12rowsInsertedERK11QModelIndexii @ 469 NONAME ABSENT
	_ZN13HbSettingForm13storeSettingsEv @ 470 NONAME ABSENT
	_ZN13HbSettingForm14setDescriptionERK7QString @ 471 NONAME ABSENT
	_ZN13HbSettingForm15initStyleOptionEP24HbStyleOptionSettingForm @ 472 NONAME ABSENT
	_ZN13HbSettingForm16staticMetaObjectE @ 473 NONAME DATA 16 ABSENT
	_ZN13HbSettingForm19getStaticMetaObjectEv @ 474 NONAME ABSENT
	_ZN13HbSettingForm8scrollToERK11QModelIndex @ 475 NONAME ABSENT
	_ZN13HbSettingForm8setModelEP18QAbstractItemModelP18HbAbstractViewItem @ 476 NONAME ABSENT
	_ZN13HbSettingFormC1EP13QGraphicsItem @ 477 NONAME ABSENT
	_ZN13HbSettingFormC1ER20HbSettingFormPrivateP23HbAbstractItemContainerP13QGraphicsItem @ 478 NONAME ABSENT
	_ZN13HbSettingFormC2EP13QGraphicsItem @ 479 NONAME ABSENT
	_ZN13HbSettingFormC2ER20HbSettingFormPrivateP23HbAbstractItemContainerP13QGraphicsItem @ 480 NONAME ABSENT
	_ZN13HbSettingFormD0Ev @ 481 NONAME ABSENT
	_ZN13HbSettingFormD1Ev @ 482 NONAME ABSENT
	_ZN13HbSettingFormD2Ev @ 483 NONAME ABSENT
	_ZN13HbSliderPopup10itemChangeEN13QGraphicsItem18GraphicsItemChangeERK8QVariant @ 484 NONAME ABSENT
	_ZN13HbSliderPopup10setMaximumEi @ 485 NONAME
	_ZN13HbSliderPopup10setMinimumEi @ 486 NONAME
	_ZN13HbSliderPopup11iconClickedEv @ 487 NONAME
	_ZN13HbSliderPopup11iconPressedEv @ 488 NONAME
	_ZN13HbSliderPopup11qt_metacallEN11QMetaObject4CallEiPPv @ 489 NONAME
	_ZN13HbSliderPopup11qt_metacastEPKc @ 490 NONAME
	_ZN13HbSliderPopup11setElementsERK5QListIN8HbSlider13SliderElementEE @ 491 NONAME ABSENT
	_ZN13HbSliderPopup11setPageStepEi @ 492 NONAME
	_ZN13HbSliderPopup11setTrackingEb @ 493 NONAME
	_ZN13HbSliderPopup11sliderMovedEi @ 494 NONAME
	_ZN13HbSliderPopup11textClickedEv @ 495 NONAME
	_ZN13HbSliderPopup12iconReleasedEv @ 496 NONAME
	_ZN13HbSliderPopup12rangeChangedEii @ 497 NONAME
	_ZN13HbSliderPopup12valueChangedEi @ 498 NONAME
	_ZN13HbSliderPopup13setSingleStepEi @ 499 NONAME
	_ZN13HbSliderPopup13sliderPressedEv @ 500 NONAME
	_ZN13HbSliderPopup14setOrientationEN2Qt11OrientationE @ 501 NONAME
	_ZN13HbSliderPopup14sliderReleasedEv @ 502 NONAME
	_ZN13HbSliderPopup15setSnappingModeEN8HbSlider12SnappingModeE @ 503 NONAME
	_ZN13HbSliderPopup15setTickPositionE6QFlagsIN2Hb18SliderTickPositionEE @ 504 NONAME
	_ZN13HbSliderPopup16isToolTipVisibleEv @ 505 NONAME
	_ZN13HbSliderPopup16staticMetaObjectE @ 506 NONAME DATA 16
	_ZN13HbSliderPopup16updatePrimitivesEv @ 507 NONAME
	_ZN13HbSliderPopup17setSliderPositionEi @ 508 NONAME
	_ZN13HbSliderPopup17setToolTipVisibleEb @ 509 NONAME
	_ZN13HbSliderPopup18setMajorTickLabelsERK11QStringList @ 510 NONAME
	_ZN13HbSliderPopup18setMinorTickLabelsERK11QStringList @ 511 NONAME
	_ZN13HbSliderPopup19getStaticMetaObjectEv @ 512 NONAME
	_ZN13HbSliderPopup19setToolTipAlignmentE6QFlagsIN2Qt13AlignmentFlagEE @ 513 NONAME
	_ZN13HbSliderPopup20setMajorTickIntervalEi @ 514 NONAME
	_ZN13HbSliderPopup20setMinorTickIntervalEi @ 515 NONAME
	_ZN13HbSliderPopup21setInvertedAppearanceEb @ 516 NONAME
	_ZN13HbSliderPopup7setIconEN8HbSlider13SliderElementERK6HbIcon @ 517 NONAME ABSENT
	_ZN13HbSliderPopup7setTextERK7QString @ 518 NONAME
	_ZN13HbSliderPopup8setRangeEii @ 519 NONAME
	_ZN13HbSliderPopup8setValueEi @ 520 NONAME
	_ZN13HbSliderPopupC1EN2Qt11OrientationEP13QGraphicsItem @ 521 NONAME
	_ZN13HbSliderPopupC1EP13QGraphicsItem @ 522 NONAME
	_ZN13HbSliderPopupC1ER20HbSliderPopupPrivateP13QGraphicsItem @ 523 NONAME
	_ZN13HbSliderPopupC2EN2Qt11OrientationEP13QGraphicsItem @ 524 NONAME
	_ZN13HbSliderPopupC2EP13QGraphicsItem @ 525 NONAME
	_ZN13HbSliderPopupC2ER20HbSliderPopupPrivateP13QGraphicsItem @ 526 NONAME
	_ZN13HbSliderPopupD0Ev @ 527 NONAME
	_ZN13HbSliderPopupD1Ev @ 528 NONAME
	_ZN13HbSliderPopupD2Ev @ 529 NONAME
	_ZN14HbAbstractEdit10moveCursorEN11QTextCursor13MoveOperationENS0_8MoveModeE @ 530 NONAME
	_ZN14HbAbstractEdit10timerEventEP11QTimerEvent @ 531 NONAME
	_ZN14HbAbstractEdit11changeEventEP6QEvent @ 532 NONAME
	_ZN14HbAbstractEdit11eventFilterEP7QObjectP6QEvent @ 533 NONAME ABSENT
	_ZN14HbAbstractEdit11qt_metacallEN11QMetaObject4CallEiPPv @ 534 NONAME
	_ZN14HbAbstractEdit11qt_metacastEPKc @ 535 NONAME
	_ZN14HbAbstractEdit11resizeEventEP25QGraphicsSceneResizeEvent @ 536 NONAME
	_ZN14HbAbstractEdit11setDocumentEP13QTextDocument @ 537 NONAME
	_ZN14HbAbstractEdit11setReadOnlyEb @ 538 NONAME
	_ZN14HbAbstractEdit12drawContentsEP8QPainterRK24QStyleOptionGraphicsItem @ 539 NONAME
	_ZN14HbAbstractEdit12focusInEventEP11QFocusEvent @ 540 NONAME
	_ZN14HbAbstractEdit12setAlignmentE6QFlagsIN2Qt13AlignmentFlagEE @ 541 NONAME
	_ZN14HbAbstractEdit12setPlainTextERK7QString @ 542 NONAME
	_ZN14HbAbstractEdit12setValidatorEP11HbValidator @ 543 NONAME
	_ZN14HbAbstractEdit13focusOutEventEP11QFocusEvent @ 544 NONAME
	_ZN14HbAbstractEdit13keyPressEventEP9QKeyEvent @ 545 NONAME
	_ZN14HbAbstractEdit13setScrollableEb @ 546 NONAME
	_ZN14HbAbstractEdit13setTextCursorERK11QTextCursor @ 547 NONAME
	_ZN14HbAbstractEdit14mouseMoveEventEP24QGraphicsSceneMouseEvent @ 548 NONAME ABSENT
	_ZN14HbAbstractEdit14updateGeometryEv @ 549 NONAME
	_ZN14HbAbstractEdit15contentsChangedEv @ 550 NONAME
	_ZN14HbAbstractEdit15keyReleaseEventEP9QKeyEvent @ 551 NONAME
	_ZN14HbAbstractEdit15mousePressEventEP24QGraphicsSceneMouseEvent @ 552 NONAME ABSENT
	_ZN14HbAbstractEdit15showContextMenuE7QPointF @ 553 NONAME
	_ZN14HbAbstractEdit16inputMethodEventEP17QInputMethodEvent @ 554 NONAME
	_ZN14HbAbstractEdit16selectionChangedERK11QTextCursorS2_ @ 555 NONAME
	_ZN14HbAbstractEdit16staticMetaObjectE @ 556 NONAME DATA 16
	_ZN14HbAbstractEdit16updatePrimitivesEv @ 557 NONAME
	_ZN14HbAbstractEdit17blockCountChangedEi @ 558 NONAME
	_ZN14HbAbstractEdit17createContextMenuEv @ 559 NONAME
	_ZN14HbAbstractEdit17mouseReleaseEventEP24QGraphicsSceneMouseEvent @ 560 NONAME ABSENT
	_ZN14HbAbstractEdit17selectClickedWordEv @ 561 NONAME
	_ZN14HbAbstractEdit17setCursorPositionEiN11QTextCursor8MoveModeE @ 562 NONAME
	_ZN14HbAbstractEdit18insertFromMimeDataEPK9QMimeData @ 563 NONAME
	_ZN14HbAbstractEdit19documentSizeChangedERK6QSizeF @ 564 NONAME
	_ZN14HbAbstractEdit19getStaticMetaObjectEv @ 565 NONAME
	_ZN14HbAbstractEdit19setCursorVisibilityEN2Hb20TextCursorVisibilityE @ 566 NONAME
	_ZN14HbAbstractEdit21cursorPositionChangedEii @ 567 NONAME
	_ZN14HbAbstractEdit21documentLayoutChangedEv @ 568 NONAME
	_ZN14HbAbstractEdit3cutEv @ 569 NONAME
	_ZN14HbAbstractEdit4copyEv @ 570 NONAME
	_ZN14HbAbstractEdit5eventEP6QEvent @ 571 NONAME
	_ZN14HbAbstractEdit5pasteEv @ 572 NONAME
	_ZN14HbAbstractEdit7setHtmlERK7QString @ 573 NONAME
	_ZN14HbAbstractEdit8deselectEv @ 574 NONAME
	_ZN14HbAbstractEdit9hideEventEP10QHideEvent @ 575 NONAME
	_ZN14HbAbstractEdit9selectAllEv @ 576 NONAME
	_ZN14HbAbstractEditC1EP13QGraphicsItem @ 577 NONAME
	_ZN14HbAbstractEditC1ER21HbAbstractEditPrivateP13QGraphicsItem @ 578 NONAME
	_ZN14HbAbstractEditC2EP13QGraphicsItem @ 579 NONAME
	_ZN14HbAbstractEditC2ER21HbAbstractEditPrivateP13QGraphicsItem @ 580 NONAME
	_ZN14HbAbstractEditD0Ev @ 581 NONAME
	_ZN14HbAbstractEditD1Ev @ 582 NONAME
	_ZN14HbAbstractEditD2Ev @ 583 NONAME
	_ZN14HbCarouselView10itemChangeEN13QGraphicsItem18GraphicsItemChangeERK8QVariant @ 584 NONAME ABSENT
	_ZN14HbCarouselView11longPressedERK11QModelIndex @ 585 NONAME ABSENT
	_ZN14HbCarouselView11qt_metacallEN11QMetaObject4CallEiPPv @ 586 NONAME ABSENT
	_ZN14HbCarouselView11qt_metacastEPKc @ 587 NONAME ABSENT
	_ZN14HbCarouselView11resizeEventEP25QGraphicsSceneResizeEvent @ 588 NONAME ABSENT
	_ZN14HbCarouselView11setItemSizeERK6QSizeF @ 589 NONAME ABSENT
	_ZN14HbCarouselView15mousePressEventEP24QGraphicsSceneMouseEvent @ 590 NONAME ABSENT
	_ZN14HbCarouselView16staticMetaObjectE @ 591 NONAME DATA 16 ABSENT
	_ZN14HbCarouselView17mouseReleaseEventEP24QGraphicsSceneMouseEvent @ 592 NONAME ABSENT
	_ZN14HbCarouselView19currentIndexChangedERK11QModelIndexS2_ @ 593 NONAME ABSENT
	_ZN14HbCarouselView19getStaticMetaObjectEv @ 594 NONAME ABSENT
	_ZN14HbCarouselView7pressedERK11QModelIndex @ 595 NONAME ABSENT
	_ZN14HbCarouselView8itemSizeEv @ 596 NONAME ABSENT
	_ZN14HbCarouselView8releasedERK11QModelIndex @ 597 NONAME ABSENT
	_ZN14HbCarouselView8scrollToERK11QModelIndex @ 598 NONAME ABSENT
	_ZN14HbCarouselView8setModelEP18QAbstractItemModel @ 599 NONAME ABSENT
	_ZN14HbCarouselView9activatedERK11QModelIndex @ 600 NONAME ABSENT
	_ZN14HbCarouselViewC1EP13QGraphicsItem @ 601 NONAME ABSENT
	_ZN14HbCarouselViewC1ER21HbCarouselViewPrivateP13QGraphicsItem @ 602 NONAME ABSENT
	_ZN14HbCarouselViewC2EP13QGraphicsItem @ 603 NONAME ABSENT
	_ZN14HbCarouselViewC2ER21HbCarouselViewPrivateP13QGraphicsItem @ 604 NONAME ABSENT
	_ZN14HbCarouselViewD0Ev @ 605 NONAME ABSENT
	_ZN14HbCarouselViewD1Ev @ 606 NONAME ABSENT
	_ZN14HbCarouselViewD2Ev @ 607 NONAME ABSENT
	_ZN14HbDateTimeEdit11qt_metacallEN11QMetaObject4CallEiPPv @ 608 NONAME ABSENT
	_ZN14HbDateTimeEdit11qt_metacastEPKc @ 609 NONAME ABSENT
	_ZN14HbDateTimeEdit11setDateTimeERK9QDateTime @ 610 NONAME ABSENT
	_ZN14HbDateTimeEdit12setMaxLengthEi @ 611 NONAME ABSENT
	_ZN14HbDateTimeEdit13focusOutEventEP11QFocusEvent @ 612 NONAME ABSENT
	_ZN14HbDateTimeEdit16setDisplayFormatERK7QString @ 613 NONAME ABSENT
	_ZN14HbDateTimeEdit16staticMetaObjectE @ 614 NONAME DATA 16 ABSENT
	_ZN14HbDateTimeEdit19getStaticMetaObjectEv @ 615 NONAME ABSENT
	_ZN14HbDateTimeEdit7setTextERK7QString @ 616 NONAME ABSENT
	_ZN14HbDateTimeEditC1EP13QGraphicsItem @ 617 NONAME ABSENT
	_ZN14HbDateTimeEditC1ER21HbDateTimeEditPrivateP13QGraphicsItem @ 618 NONAME ABSENT
	_ZN14HbDateTimeEditC2EP13QGraphicsItem @ 619 NONAME ABSENT
	_ZN14HbDateTimeEditC2ER21HbDateTimeEditPrivateP13QGraphicsItem @ 620 NONAME ABSENT
	_ZN14HbDateTimeEditD0Ev @ 621 NONAME ABSENT
	_ZN14HbDateTimeEditD1Ev @ 622 NONAME ABSENT
	_ZN14HbDateTimeEditD2Ev @ 623 NONAME ABSENT
	_ZN14HbFormViewItem10createItemEv @ 624 NONAME ABSENT
	_ZN14HbFormViewItem11qt_metacallEN11QMetaObject4CallEiPPv @ 625 NONAME ABSENT
	_ZN14HbFormViewItem11qt_metacastEPKc @ 626 NONAME ABSENT
	_ZN14HbFormViewItem11setExpandedEb @ 627 NONAME ABSENT
	_ZN14HbFormViewItem11setItemDataEP7QObjectPKcRK8QVariant @ 628 NONAME ABSENT
	_ZN14HbFormViewItem12createWidgetERKNS_10WidgetSpecE @ 629 NONAME ABSENT
	_ZN14HbFormViewItem12deleteWidgetEP15QGraphicsWidget @ 630 NONAME ABSENT
	_ZN14HbFormViewItem12setStretchedEb @ 631 NONAME ABSENT
	_ZN14HbFormViewItem12updateWidgetEP15QGraphicsWidgetRKNS_10WidgetSpecE @ 632 NONAME ABSENT
	_ZN14HbFormViewItem13itemActivatedEv @ 633 NONAME ABSENT
	_ZN14HbFormViewItem13receivedFocusEv @ 634 NONAME ABSENT
	_ZN14HbFormViewItem15expandAnimationEf @ 635 NONAME ABSENT
	_ZN14HbFormViewItem15mousePressEventEP24QGraphicsSceneMouseEvent @ 636 NONAME ABSENT
	_ZN14HbFormViewItem16sceneEventFilterEP13QGraphicsItemP6QEvent @ 637 NONAME ABSENT
	_ZN14HbFormViewItem16staticMetaObjectE @ 638 NONAME DATA 16 ABSENT
	_ZN14HbFormViewItem16updateChildItemsEv @ 639 NONAME ABSENT
	_ZN14HbFormViewItem19getStaticMetaObjectEv @ 640 NONAME ABSENT
	_ZN14HbFormViewItem22expandAnimationTimeOutEf @ 641 NONAME ABSENT
	_ZN14HbFormViewItem22initialiseEditorWidgetEP15QGraphicsWidgetN10HbFormItem9FieldTypeE @ 642 NONAME ABSENT
	_ZN14HbFormViewItem23expandAnimationFinishedEv @ 643 NONAME ABSENT
	_ZN14HbFormViewItem25aboutToDeleteEditorWidgetEN10HbFormItem9FieldTypeE @ 644 NONAME ABSENT
	_ZN14HbFormViewItem25aboutToDeleteEditorWidgetEPS_N10HbFormItem9FieldTypeE @ 645 NONAME ABSENT
	_ZN14HbFormViewItem8setStateERK4QMapIi8QVariantE @ 646 NONAME ABSENT
	_ZN14HbFormViewItem9lostFocusEv @ 647 NONAME ABSENT
	_ZN14HbFormViewItemC1EP13QGraphicsItem @ 648 NONAME ABSENT
	_ZN14HbFormViewItemC1ERKS_ @ 649 NONAME ABSENT
	_ZN14HbFormViewItemC2EP13QGraphicsItem @ 650 NONAME ABSENT
	_ZN14HbFormViewItemC2ERKS_ @ 651 NONAME ABSENT
	_ZN14HbFormViewItemD0Ev @ 652 NONAME ABSENT
	_ZN14HbFormViewItemD1Ev @ 653 NONAME ABSENT
	_ZN14HbFormViewItemD2Ev @ 654 NONAME ABSENT
	_ZN14HbMessageQuery11linkHoveredERK7QString @ 655 NONAME ABSENT
	_ZN14HbMessageQuery11qt_metacallEN11QMetaObject4CallEiPPv @ 656 NONAME ABSENT
	_ZN14HbMessageQuery11qt_metacastEPKc @ 657 NONAME ABSENT
	_ZN14HbMessageQuery13linkActivatedERK7QString @ 658 NONAME ABSENT
	_ZN14HbMessageQuery16staticMetaObjectE @ 659 NONAME DATA 16 ABSENT
	_ZN14HbMessageQuery19getStaticMetaObjectEv @ 660 NONAME ABSENT
	_ZN14HbMessageQuery7setTextERK7QString @ 661 NONAME ABSENT
	_ZN14HbMessageQueryC1EP13QGraphicsItem @ 662 NONAME ABSENT
	_ZN14HbMessageQueryC1ERK7QStringS2_P13QGraphicsItem @ 663 NONAME ABSENT
	_ZN14HbMessageQueryC2EP13QGraphicsItem @ 664 NONAME ABSENT
	_ZN14HbMessageQueryC2ERK7QStringS2_P13QGraphicsItem @ 665 NONAME ABSENT
	_ZN14HbProgressNote10closeEventEP11QCloseEvent @ 666 NONAME ABSENT
	_ZN14HbProgressNote10setMaximumEi @ 667 NONAME ABSENT
	_ZN14HbProgressNote10setMinimumEi @ 668 NONAME ABSENT
	_ZN14HbProgressNote11delayedShowEv @ 669 NONAME ABSENT
	_ZN14HbProgressNote11qt_metacallEN11QMetaObject4CallEiPPv @ 670 NONAME ABSENT
	_ZN14HbProgressNote11qt_metacastEPKc @ 671 NONAME ABSENT
	_ZN14HbProgressNote12setAutoCloseEb @ 672 NONAME ABSENT
	_ZN14HbProgressNote15setTextWrappingEb @ 673 NONAME ABSENT
	_ZN14HbProgressNote16setIconAlignmentE6QFlagsIN2Qt13AlignmentFlagEE @ 674 NONAME ABSENT
	_ZN14HbProgressNote16setProgressValueEi @ 675 NONAME ABSENT
	_ZN14HbProgressNote16setTextAlignmentE6QFlagsIN2Qt13AlignmentFlagEE @ 676 NONAME ABSENT
	_ZN14HbProgressNote16staticMetaObjectE @ 677 NONAME DATA 16 ABSENT
	_ZN14HbProgressNote19getStaticMetaObjectEv @ 678 NONAME ABSENT
	_ZN14HbProgressNote19setProgressNoteTypeENS_16ProgressNoteTypeE @ 679 NONAME ABSENT
	_ZN14HbProgressNote6cancelEv @ 680 NONAME ABSENT
	_ZN14HbProgressNote7setIconERK6HbIcon @ 681 NONAME ABSENT
	_ZN14HbProgressNote7setTextERK7QString @ 682 NONAME ABSENT
	_ZN14HbProgressNote8setRangeEii @ 683 NONAME ABSENT
	_ZN14HbProgressNote9cancelledEv @ 684 NONAME ABSENT
	_ZN14HbProgressNote9showEventEP10QShowEvent @ 685 NONAME ABSENT
	_ZN14HbProgressNoteC1ENS_16ProgressNoteTypeEP13QGraphicsItem @ 686 NONAME ABSENT
	_ZN14HbProgressNoteC1EP13QGraphicsItem @ 687 NONAME ABSENT
	_ZN14HbProgressNoteC2ENS_16ProgressNoteTypeEP13QGraphicsItem @ 688 NONAME ABSENT
	_ZN14HbProgressNoteC2EP13QGraphicsItem @ 689 NONAME ABSENT
	_ZN14HbRatingSlider11qt_metacallEN11QMetaObject4CallEiPPv @ 690 NONAME
	_ZN14HbRatingSlider11qt_metacastEPKc @ 691 NONAME
	_ZN14HbRatingSlider11setGeometryERK6QRectF @ 692 NONAME
	_ZN14HbRatingSlider11setReadOnlyEb @ 693 NONAME
	_ZN14HbRatingSlider13ratingChangedEi @ 694 NONAME
	_ZN14HbRatingSlider14mouseMoveEventEP24QGraphicsSceneMouseEvent @ 695 NONAME ABSENT
	_ZN14HbRatingSlider14setToolTipTextERK7QString @ 696 NONAME ABSENT
	_ZN14HbRatingSlider15mousePressEventEP24QGraphicsSceneMouseEvent @ 697 NONAME
	_ZN14HbRatingSlider16staticMetaObjectE @ 698 NONAME DATA 16
	_ZN14HbRatingSlider17mouseReleaseEventEP24QGraphicsSceneMouseEvent @ 699 NONAME ABSENT
	_ZN14HbRatingSlider17setToolTipVisibleEb @ 700 NONAME ABSENT
	_ZN14HbRatingSlider19getStaticMetaObjectEv @ 701 NONAME
	_ZN14HbRatingSliderC1EP13QGraphicsItem @ 702 NONAME
	_ZN14HbRatingSliderC1ER21HbRatingSliderPrivateP13QGraphicsItem @ 703 NONAME
	_ZN14HbRatingSliderC2EP13QGraphicsItem @ 704 NONAME
	_ZN14HbRatingSliderC2ER21HbRatingSliderPrivateP13QGraphicsItem @ 705 NONAME
	_ZN14HbRatingSliderD0Ev @ 706 NONAME
	_ZN14HbRatingSliderD1Ev @ 707 NONAME
	_ZN14HbRatingSliderD2Ev @ 708 NONAME
	_ZN14HbVolumeSlider10itemChangeEN13QGraphicsItem18GraphicsItemChangeERK8QVariant @ 709 NONAME
	_ZN14HbVolumeSlider11qt_metacallEN11QMetaObject4CallEiPPv @ 710 NONAME
	_ZN14HbVolumeSlider11qt_metacastEPKc @ 711 NONAME
	_ZN14HbVolumeSlider12focusInEventEP11QFocusEvent @ 712 NONAME
	_ZN14HbVolumeSlider15mousePressEventEP24QGraphicsSceneMouseEvent @ 713 NONAME
	_ZN14HbVolumeSlider16staticMetaObjectE @ 714 NONAME DATA 16
	_ZN14HbVolumeSlider17mouseReleaseEventEP24QGraphicsSceneMouseEvent @ 715 NONAME
	_ZN14HbVolumeSlider17setToolTipVisibleEb @ 716 NONAME
	_ZN14HbVolumeSlider19getStaticMetaObjectEv @ 717 NONAME
	_ZN14HbVolumeSlider22setCurrentValueVisibleEb @ 718 NONAME
	_ZN14HbVolumeSliderC1EbP13QGraphicsItem @ 719 NONAME
	_ZN14HbVolumeSliderC2EbP13QGraphicsItem @ 720 NONAME
	_ZN14HbVolumeSliderD0Ev @ 721 NONAME
	_ZN14HbVolumeSliderD1Ev @ 722 NONAME
	_ZN14HbVolumeSliderD2Ev @ 723 NONAME
	_ZN15HbCombinedQuery11linkHoveredERK7QString @ 724 NONAME ABSENT
	_ZN15HbCombinedQuery11qt_metacallEN11QMetaObject4CallEiPPv @ 725 NONAME ABSENT
	_ZN15HbCombinedQuery11qt_metacastEPKc @ 726 NONAME ABSENT
	_ZN15HbCombinedQuery12setListItemsERK4QMapI7QStringS1_Ei @ 727 NONAME ABSENT
	_ZN15HbCombinedQuery12setQueryModeENS_9QueryModeE @ 728 NONAME ABSENT
	_ZN15HbCombinedQuery13linkActivatedERK7QString @ 729 NONAME ABSENT
	_ZN15HbCombinedQuery16staticMetaObjectE @ 730 NONAME DATA 16 ABSENT
	_ZN15HbCombinedQuery18setCurrentListItemEi @ 731 NONAME ABSENT
	_ZN15HbCombinedQuery19getStaticMetaObjectEv @ 732 NONAME ABSENT
	_ZN15HbCombinedQuery7getItemERK7QStringRK4QMapIS0_S0_ENS_9QueryModeEiPbPS0_P14QGraphicsSceneP15QGraphicsWidget @ 733 NONAME ABSENT
	_ZN15HbCombinedQuery9queryTextEv @ 734 NONAME ABSENT
	_ZN15HbCombinedQueryC1EP13QGraphicsItem @ 735 NONAME ABSENT
	_ZN15HbCombinedQueryC2EP13QGraphicsItem @ 736 NONAME ABSENT
	_ZN15HbCombinedQueryD0Ev @ 737 NONAME ABSENT
	_ZN15HbCombinedQueryD1Ev @ 738 NONAME ABSENT
	_ZN15HbCombinedQueryD2Ev @ 739 NONAME ABSENT
	_ZN15HbDataFormModel10insertRowsEiiRK11QModelIndex @ 740 NONAME ABSENT
	_ZN15HbDataFormModel10removeItemEP19HbDataFormModelItem @ 741 NONAME
	_ZN15HbDataFormModel10removeItemERK11QModelIndex @ 742 NONAME
	_ZN15HbDataFormModel10removeRowsEiiRK11QModelIndex @ 743 NONAME
	_ZN15HbDataFormModel18appendDataFormItemEN19HbDataFormModelItem12DataItemTypeERK7QStringPKS0_ @ 744 NONAME ABSENT
	_ZN15HbDataFormModel18appendDataFormItemEPK19HbDataFormModelItemPS0_ @ 745 NONAME ABSENT
	_ZN15HbDataFormModel18appendDataFormPageERK7QString @ 746 NONAME
	_ZN15HbDataFormModel18insertDataFormItemEiN19HbDataFormModelItem12DataItemTypeERK7QStringPKS0_ @ 747 NONAME ABSENT
	_ZN15HbDataFormModel18insertDataFormItemEiPK19HbDataFormModelItemPS0_ @ 748 NONAME ABSENT
	_ZN15HbDataFormModel18insertDataFormPageEiRK7QString @ 749 NONAME
	_ZN15HbDataFormModel19appendDataFormGroupERK7QStringPK19HbDataFormModelItem @ 750 NONAME ABSENT
	_ZN15HbDataFormModel19insertDataFormGroupEiRK7QStringPK19HbDataFormModelItem @ 751 NONAME ABSENT
	_ZN15HbDataFormModel23appendDataFormGroupPageERK7QStringPK19HbDataFormModelItem @ 752 NONAME ABSENT
	_ZN15HbDataFormModel23insertDataFormGroupPageEiRK7QStringPK19HbDataFormModelItem @ 753 NONAME ABSENT
	_ZN15HbDataFormModel5clearEv @ 754 NONAME
	_ZN15HbDataFormModel7setDataERK11QModelIndexRK8QVarianti @ 755 NONAME
	_ZN15HbDataFormModelC1EP7QObject @ 756 NONAME
	_ZN15HbDataFormModelC2EP7QObject @ 757 NONAME
	_ZN15HbDataFormModelD0Ev @ 758 NONAME
	_ZN15HbDataFormModelD1Ev @ 759 NONAME
	_ZN15HbDataFormModelD2Ev @ 760 NONAME
	_ZN15HbDiscreetPopup11launchPopupERK6HbIconP14QGraphicsScene @ 761 NONAME ABSENT
	_ZN15HbDiscreetPopup11launchPopupERK6HbIconRK7QStringS5_P14QGraphicsScene @ 762 NONAME ABSENT
	_ZN15HbDiscreetPopup11launchPopupERK7QStringP14QGraphicsScene @ 763 NONAME ABSENT
	_ZN15HbDiscreetPopup11launchPopupERK7QStringS2_P14QGraphicsScene @ 764 NONAME ABSENT
	_ZN15HbDiscreetPopup11qt_metacallEN11QMetaObject4CallEiPPv @ 765 NONAME ABSENT
	_ZN15HbDiscreetPopup11qt_metacastEPKc @ 766 NONAME ABSENT
	_ZN15HbDiscreetPopup15mousePressEventEP24QGraphicsSceneMouseEvent @ 767 NONAME ABSENT
	_ZN15HbDiscreetPopup16staticMetaObjectE @ 768 NONAME DATA 16 ABSENT
	_ZN15HbDiscreetPopup17isTouchActivatingEv @ 769 NONAME ABSENT
	_ZN15HbDiscreetPopup17mouseReleaseEventEP24QGraphicsSceneMouseEvent @ 770 NONAME ABSENT
	_ZN15HbDiscreetPopup19getStaticMetaObjectEv @ 771 NONAME ABSENT
	_ZN15HbDiscreetPopup21enableTouchActivationEb @ 772 NONAME ABSENT
	_ZN15HbDiscreetPopup7setIconERK6HbIcon @ 773 NONAME ABSENT
	_ZN15HbDiscreetPopup7setTextERK7QString @ 774 NONAME ABSENT
	_ZN15HbDiscreetPopup8setTitleERK7QString @ 775 NONAME ABSENT
	_ZN15HbDiscreetPopup9activatedEv @ 776 NONAME ABSENT
	_ZN15HbDiscreetPopupC1ER22HbDiscreetPopupPrivateP13QGraphicsItem @ 777 NONAME ABSENT
	_ZN15HbDiscreetPopupC1Ev @ 778 NONAME ABSENT
	_ZN15HbDiscreetPopupC2ER22HbDiscreetPopupPrivateP13QGraphicsItem @ 779 NONAME ABSENT
	_ZN15HbDiscreetPopupC2Ev @ 780 NONAME ABSENT
	_ZN15HbDiscreetPopupD0Ev @ 781 NONAME ABSENT
	_ZN15HbDiscreetPopupD1Ev @ 782 NONAME ABSENT
	_ZN15HbDiscreetPopupD2Ev @ 783 NONAME ABSENT
	_ZN15HbDualDataQuery11qt_metacallEN11QMetaObject4CallEiPPv @ 784 NONAME ABSENT
	_ZN15HbDualDataQuery11qt_metacastEPKc @ 785 NONAME ABSENT
	_ZN15HbDualDataQuery15setPrimaryValueERK8QVariant @ 786 NONAME ABSENT
	_ZN15HbDualDataQuery16staticMetaObjectE @ 787 NONAME DATA 16 ABSENT
	_ZN15HbDualDataQuery17setSecondaryValueERK8QVariant @ 788 NONAME ABSENT
	_ZN15HbDualDataQuery18isSecondaryVisibleEv @ 789 NONAME ABSENT
	_ZN15HbDualDataQuery19getStaticMetaObjectEv @ 790 NONAME ABSENT
	_ZN15HbDualDataQuery19setPrimaryInputModeEN11HbDataQuery9InputModeE @ 791 NONAME ABSENT
	_ZN15HbDualDataQuery19setSecondaryVisibleEb @ 792 NONAME ABSENT
	_ZN15HbDualDataQuery20setPrimaryPromptTextERK7QString @ 793 NONAME ABSENT
	_ZN15HbDualDataQuery21setSecondaryInputModeEN11HbDataQuery9InputModeE @ 794 NONAME ABSENT
	_ZN15HbDualDataQuery22setSecondaryPromptTextERK7QString @ 795 NONAME ABSENT
	_ZN15HbDualDataQuery9showEventEP10QShowEvent @ 796 NONAME ABSENT
	_ZN15HbDualDataQueryC1EP15QGraphicsWidget @ 797 NONAME ABSENT
	_ZN15HbDualDataQueryC2EP15QGraphicsWidget @ 798 NONAME ABSENT
	_ZN15HbDualDataQueryD0Ev @ 799 NONAME ABSENT
	_ZN15HbDualDataQueryD1Ev @ 800 NONAME ABSENT
	_ZN15HbDualDataQueryD2Ev @ 801 NONAME ABSENT
	_ZN16HbProgressSlider10itemChangeEN13QGraphicsItem18GraphicsItemChangeERK8QVariant @ 802 NONAME
	_ZN16HbProgressSlider11qt_metacallEN11QMetaObject4CallEiPPv @ 803 NONAME
	_ZN16HbProgressSlider11qt_metacastEPKc @ 804 NONAME
	_ZN16HbProgressSlider11resizeEventEP25QGraphicsSceneResizeEvent @ 805 NONAME ABSENT
	_ZN16HbProgressSlider11setGeometryERK6QRectF @ 806 NONAME
	_ZN16HbProgressSlider11sliderMovedEi @ 807 NONAME
	_ZN16HbProgressSlider12setThumbIconERK6HbIcon @ 808 NONAME ABSENT
	_ZN16HbProgressSlider12setThumbItemEP15QGraphicsWidget @ 809 NONAME ABSENT
	_ZN16HbProgressSlider13sliderPressedEv @ 810 NONAME
	_ZN16HbProgressSlider14setSliderValueEi @ 811 NONAME
	_ZN16HbProgressSlider14sliderReleasedEv @ 812 NONAME
	_ZN16HbProgressSlider15mousePressEventEP24QGraphicsSceneMouseEvent @ 813 NONAME
	_ZN16HbProgressSlider16setHandleToolTipERK7QString @ 814 NONAME ABSENT
	_ZN16HbProgressSlider16staticMetaObjectE @ 815 NONAME DATA 16
	_ZN16HbProgressSlider16updatePrimitivesEv @ 816 NONAME
	_ZN16HbProgressSlider17mouseReleaseEventEP24QGraphicsSceneMouseEvent @ 817 NONAME
	_ZN16HbProgressSlider19getStaticMetaObjectEv @ 818 NONAME
	_ZN16HbProgressSlider21setInvertedAppearanceEb @ 819 NONAME
	_ZN16HbProgressSlider9showEventEP10QShowEvent @ 820 NONAME
	_ZN16HbProgressSliderC1EP13QGraphicsItem @ 821 NONAME
	_ZN16HbProgressSliderC1ER23HbProgressSliderPrivateP13QGraphicsItem @ 822 NONAME
	_ZN16HbProgressSliderC2EP13QGraphicsItem @ 823 NONAME
	_ZN16HbProgressSliderC2ER23HbProgressSliderPrivateP13QGraphicsItem @ 824 NONAME
	_ZN16HbProgressSliderD0Ev @ 825 NONAME
	_ZN16HbProgressSliderD1Ev @ 826 NONAME
	_ZN16HbProgressSliderD2Ev @ 827 NONAME
	_ZN17HbRadioButtonList11qt_metacallEN11QMetaObject4CallEiPPv @ 828 NONAME
	_ZN17HbRadioButtonList11qt_metacastEPKc @ 829 NONAME
	_ZN17HbRadioButtonList11rowsRemovedERK11QModelIndexii @ 830 NONAME
	_ZN17HbRadioButtonList11setSelectedEi @ 831 NONAME
	_ZN17HbRadioButtonList12itemSelectedEi @ 832 NONAME
	_ZN17HbRadioButtonList12rowsInsertedERK11QModelIndexii @ 833 NONAME
	_ZN17HbRadioButtonList12startPreviewEi @ 834 NONAME
	_ZN17HbRadioButtonList13emitActivatedERK11QModelIndex @ 835 NONAME
	_ZN17HbRadioButtonList14setPreviewModeENS_11PreviewModeE @ 836 NONAME
	_ZN17HbRadioButtonList16selectionCommandEPK18HbAbstractViewItemPK6QEventb @ 837 NONAME ABSENT
	_ZN17HbRadioButtonList16staticMetaObjectE @ 838 NONAME DATA 16
	_ZN17HbRadioButtonList17mouseReleaseEventEP24QGraphicsSceneMouseEvent @ 839 NONAME ABSENT
	_ZN17HbRadioButtonList19getStaticMetaObjectEv @ 840 NONAME
	_ZN17HbRadioButtonList5eventEP6QEvent @ 841 NONAME
	_ZN17HbRadioButtonList5resetEv @ 842 NONAME
	_ZN17HbRadioButtonList8setItemsERK11QStringList @ 843 NONAME
	_ZN17HbRadioButtonListC1EP13QGraphicsItem @ 844 NONAME
	_ZN17HbRadioButtonListC1ER24HbRadioButtonListPrivateP23HbAbstractItemContainerP13QGraphicsItem @ 845 NONAME
	_ZN17HbRadioButtonListC1ERK11QStringListiNS_11PreviewModeEP13QGraphicsItem @ 846 NONAME
	_ZN17HbRadioButtonListC2EP13QGraphicsItem @ 847 NONAME
	_ZN17HbRadioButtonListC2ER24HbRadioButtonListPrivateP23HbAbstractItemContainerP13QGraphicsItem @ 848 NONAME
	_ZN17HbRadioButtonListC2ERK11QStringListiNS_11PreviewModeEP13QGraphicsItem @ 849 NONAME
	_ZN17HbRadioButtonListD0Ev @ 850 NONAME
	_ZN17HbRadioButtonListD1Ev @ 851 NONAME
	_ZN17HbRadioButtonListD2Ev @ 852 NONAME
	_ZN17HbSettingFormItem10createItemEv @ 853 NONAME ABSENT
	_ZN17HbSettingFormItem11qt_metacallEN11QMetaObject4CallEiPPv @ 854 NONAME ABSENT
	_ZN17HbSettingFormItem11qt_metacastEPKc @ 855 NONAME ABSENT
	_ZN17HbSettingFormItem11setExpandedEb @ 856 NONAME ABSENT
	_ZN17HbSettingFormItem12itemModifiedE21QPersistentModelIndex8QVariant @ 857 NONAME ABSENT
	_ZN17HbSettingFormItem13itemDestroyedE21QPersistentModelIndex @ 858 NONAME ABSENT
	_ZN17HbSettingFormItem16staticMetaObjectE @ 859 NONAME DATA 16 ABSENT
	_ZN17HbSettingFormItem16updateChildItemsEv @ 860 NONAME ABSENT
	_ZN17HbSettingFormItem18createCustomWidgetEv @ 861 NONAME ABSENT
	_ZN17HbSettingFormItem19getStaticMetaObjectEv @ 862 NONAME ABSENT
	_ZN17HbSettingFormItem4loadEv @ 863 NONAME ABSENT
	_ZN17HbSettingFormItem5storeEv @ 864 NONAME ABSENT
	_ZN17HbSettingFormItem8setStateERK4QMapIi8QVariantE @ 865 NONAME ABSENT
	_ZN17HbSettingFormItem9itemShownERK11QModelIndex @ 866 NONAME ABSENT
	_ZN17HbSettingFormItemC1EP13QGraphicsItem @ 867 NONAME ABSENT
	_ZN17HbSettingFormItemC1ER24HbSettingFormItemPrivateP13QGraphicsItem @ 868 NONAME ABSENT
	_ZN17HbSettingFormItemC1ERKS_ @ 869 NONAME ABSENT
	_ZN17HbSettingFormItemC2EP13QGraphicsItem @ 870 NONAME ABSENT
	_ZN17HbSettingFormItemC2ER24HbSettingFormItemPrivateP13QGraphicsItem @ 871 NONAME ABSENT
	_ZN17HbSettingFormItemC2ERKS_ @ 872 NONAME ABSENT
	_ZN17HbSettingFormItemD0Ev @ 873 NONAME ABSENT
	_ZN17HbSettingFormItemD1Ev @ 874 NONAME ABSENT
	_ZN17HbSettingFormItemD2Ev @ 875 NONAME ABSENT
	_ZN17HbSettingFormItemaSERKS_ @ 876 NONAME ABSENT
	_ZN17HbZoomSliderPopup11qt_metacallEN11QMetaObject4CallEiPPv @ 877 NONAME
	_ZN17HbZoomSliderPopup11qt_metacastEPKc @ 878 NONAME
	_ZN17HbZoomSliderPopup11resizeEventEP25QGraphicsSceneResizeEvent @ 879 NONAME ABSENT
	_ZN17HbZoomSliderPopup13keyPressEventEP9QKeyEvent @ 880 NONAME
	_ZN17HbZoomSliderPopup15keyReleaseEventEP9QKeyEvent @ 881 NONAME
	_ZN17HbZoomSliderPopup16staticMetaObjectE @ 882 NONAME DATA 16
	_ZN17HbZoomSliderPopup19getStaticMetaObjectEv @ 883 NONAME
	_ZN17HbZoomSliderPopup19setDefaultZoomLevelEi @ 884 NONAME
	_ZN17HbZoomSliderPopupC1ER24HbZoomSliderPopupPrivateP13QGraphicsItem @ 885 NONAME
	_ZN17HbZoomSliderPopupC1Ev @ 886 NONAME
	_ZN17HbZoomSliderPopupC2ER24HbZoomSliderPopupPrivateP13QGraphicsItem @ 887 NONAME
	_ZN17HbZoomSliderPopupC2Ev @ 888 NONAME
	_ZN17HbZoomSliderPopupD0Ev @ 889 NONAME
	_ZN17HbZoomSliderPopupD1Ev @ 890 NONAME
	_ZN17HbZoomSliderPopupD2Ev @ 891 NONAME
	_ZN18HbDataFormViewItem10createItemEv @ 892 NONAME
	_ZN18HbDataFormViewItem11qt_metacallEN11QMetaObject4CallEiPPv @ 893 NONAME
	_ZN18HbDataFormViewItem11qt_metacastEPKc @ 894 NONAME
	_ZN18HbDataFormViewItem11setExpandedEb @ 895 NONAME
	_ZN18HbDataFormViewItem12itemModifiedE21QPersistentModelIndex8QVariant @ 896 NONAME ABSENT
	_ZN18HbDataFormViewItem13itemDestroyedE21QPersistentModelIndex @ 897 NONAME ABSENT
	_ZN18HbDataFormViewItem16staticMetaObjectE @ 898 NONAME DATA 16
	_ZN18HbDataFormViewItem16updateChildItemsEv @ 899 NONAME
	_ZN18HbDataFormViewItem18createCustomWidgetEv @ 900 NONAME
	_ZN18HbDataFormViewItem19getStaticMetaObjectEv @ 901 NONAME
	_ZN18HbDataFormViewItem4loadEv @ 902 NONAME ABSENT
	_ZN18HbDataFormViewItem5storeEv @ 903 NONAME ABSENT
	_ZN18HbDataFormViewItem8setStateERK4QMapIi8QVariantE @ 904 NONAME ABSENT
	_ZN18HbDataFormViewItem9itemShownERK11QModelIndex @ 905 NONAME
	_ZN18HbDataFormViewItemC1EP13QGraphicsItem @ 906 NONAME
	_ZN18HbDataFormViewItemC1ER25HbDataFormViewItemPrivateP13QGraphicsItem @ 907 NONAME
	_ZN18HbDataFormViewItemC1ERKS_ @ 908 NONAME
	_ZN18HbDataFormViewItemC2EP13QGraphicsItem @ 909 NONAME
	_ZN18HbDataFormViewItemC2ER25HbDataFormViewItemPrivateP13QGraphicsItem @ 910 NONAME
	_ZN18HbDataFormViewItemC2ERKS_ @ 911 NONAME
	_ZN18HbDataFormViewItemD0Ev @ 912 NONAME
	_ZN18HbDataFormViewItemD1Ev @ 913 NONAME
	_ZN18HbDataFormViewItemD2Ev @ 914 NONAME
	_ZN18HbDataFormViewItemaSERKS_ @ 915 NONAME
	_ZN18HbGlobalCommonNote10setTimeoutEN11HbPopupBase14DefaultTimeoutE @ 916 NONAME ABSENT
	_ZN18HbGlobalCommonNote10setTimeoutEi @ 917 NONAME ABSENT
	_ZN18HbGlobalCommonNote11qt_metacallEN11QMetaObject4CallEiPPv @ 918 NONAME ABSENT
	_ZN18HbGlobalCommonNote11qt_metacastEPKc @ 919 NONAME ABSENT
	_ZN18HbGlobalCommonNote11setIconNameERK7QString @ 920 NONAME ABSENT
	_ZN18HbGlobalCommonNote11setNoteTypeEN12HbCommonNote8NoteTypeE @ 921 NONAME ABSENT
	_ZN18HbGlobalCommonNote12aboutToCloseEv @ 922 NONAME ABSENT
	_ZN18HbGlobalCommonNote15setTextWrappingEb @ 923 NONAME ABSENT
	_ZN18HbGlobalCommonNote16setIconAlignmentE6QFlagsIN2Qt13AlignmentFlagEE @ 924 NONAME ABSENT
	_ZN18HbGlobalCommonNote16setTextAlignmentE6QFlagsIN2Qt13AlignmentFlagEE @ 925 NONAME ABSENT
	_ZN18HbGlobalCommonNote16staticMetaObjectE @ 926 NONAME DATA 16 ABSENT
	_ZN18HbGlobalCommonNote19getStaticMetaObjectEv @ 927 NONAME ABSENT
	_ZN18HbGlobalCommonNote4execEv @ 928 NONAME ABSENT
	_ZN18HbGlobalCommonNote4showEv @ 929 NONAME ABSENT
	_ZN18HbGlobalCommonNote5closeEv @ 930 NONAME ABSENT
	_ZN18HbGlobalCommonNote7setTextERK7QString @ 931 NONAME ABSENT
	_ZN18HbGlobalCommonNoteC1EN12HbCommonNote8NoteTypeEP7QObject @ 932 NONAME ABSENT
	_ZN18HbGlobalCommonNoteC1ERK7QStringN12HbCommonNote8NoteTypeEP7QObject @ 933 NONAME ABSENT
	_ZN18HbGlobalCommonNoteC2EN12HbCommonNote8NoteTypeEP7QObject @ 934 NONAME ABSENT
	_ZN18HbGlobalCommonNoteC2ERK7QStringN12HbCommonNote8NoteTypeEP7QObject @ 935 NONAME ABSENT
	_ZN18HbGlobalCommonNoteD0Ev @ 936 NONAME ABSENT
	_ZN18HbGlobalCommonNoteD1Ev @ 937 NONAME ABSENT
	_ZN18HbGlobalCommonNoteD2Ev @ 938 NONAME ABSENT
	_ZN18HbSettingFormModel10insertRowsEiiRK11QModelIndex @ 939 NONAME ABSENT
	_ZN18HbSettingFormModel10removeItemEP21HbSettingFormDataItem @ 940 NONAME ABSENT
	_ZN18HbSettingFormModel10removeItemERK11QModelIndex @ 941 NONAME ABSENT
	_ZN18HbSettingFormModel10removeRowsEiiRK11QModelIndex @ 942 NONAME ABSENT
	_ZN18HbSettingFormModel21appendSettingFormItemEN21HbSettingFormDataItem15SettingItemTypeERK7QStringPKS0_ @ 943 NONAME ABSENT
	_ZN18HbSettingFormModel21appendSettingFormItemEPK21HbSettingFormDataItemPS0_ @ 944 NONAME ABSENT
	_ZN18HbSettingFormModel21appendSettingFormPageERK7QString @ 945 NONAME ABSENT
	_ZN18HbSettingFormModel21insertSettingFormItemEiN21HbSettingFormDataItem15SettingItemTypeERK7QStringPKS0_ @ 946 NONAME ABSENT
	_ZN18HbSettingFormModel21insertSettingFormItemEiPK21HbSettingFormDataItemPS0_ @ 947 NONAME ABSENT
	_ZN18HbSettingFormModel21insertSettingFormPageEiRK7QString @ 948 NONAME ABSENT
	_ZN18HbSettingFormModel22appendSettingFormGroupERK7QStringPK21HbSettingFormDataItem @ 949 NONAME ABSENT
	_ZN18HbSettingFormModel22insertSettingFormGroupEiRK7QStringPK21HbSettingFormDataItem @ 950 NONAME ABSENT
	_ZN18HbSettingFormModel26appendSettingFormGroupPageERK7QStringPK21HbSettingFormDataItem @ 951 NONAME ABSENT
	_ZN18HbSettingFormModel26insertSettingFormGroupPageEiRK7QStringPK21HbSettingFormDataItem @ 952 NONAME ABSENT
	_ZN18HbSettingFormModel5clearEv @ 953 NONAME ABSENT
	_ZN18HbSettingFormModel7setDataERK11QModelIndexRK8QVarianti @ 954 NONAME ABSENT
	_ZN18HbSettingFormModelC1EP7QObject @ 955 NONAME ABSENT
	_ZN18HbSettingFormModelC2EP7QObject @ 956 NONAME ABSENT
	_ZN18HbSettingFormModelD0Ev @ 957 NONAME ABSENT
	_ZN18HbSettingFormModelD1Ev @ 958 NONAME ABSENT
	_ZN18HbSettingFormModelD2Ev @ 959 NONAME ABSENT
	_ZN19HbConfirmationQuery11qt_metacallEN11QMetaObject4CallEiPPv @ 960 NONAME ABSENT
	_ZN19HbConfirmationQuery11qt_metacastEPKc @ 961 NONAME ABSENT
	_ZN19HbConfirmationQuery16staticMetaObjectE @ 962 NONAME DATA 16 ABSENT
	_ZN19HbConfirmationQuery16updatePrimitivesEv @ 963 NONAME ABSENT
	_ZN19HbConfirmationQuery19getStaticMetaObjectEv @ 964 NONAME ABSENT
	_ZN19HbConfirmationQuery24launchConfirmationDialogERK7QStringS2_S2_bP15QGraphicsWidgetP14QGraphicsSceneP13QGraphicsItem @ 965 NONAME ABSENT
	_ZN19HbConfirmationQuery24launchConfirmationDialogERK7QStringbP15QGraphicsWidgetP14QGraphicsSceneP13QGraphicsItem @ 966 NONAME ABSENT
	_ZN19HbConfirmationQueryC1EP13QGraphicsItem @ 967 NONAME ABSENT
	_ZN19HbConfirmationQueryC1ERK7QStringP13QGraphicsItem @ 968 NONAME ABSENT
	_ZN19HbConfirmationQueryC2EP13QGraphicsItem @ 969 NONAME ABSENT
	_ZN19HbConfirmationQueryC2ERK7QStringP13QGraphicsItem @ 970 NONAME ABSENT
	_ZN19HbConfirmationQueryD0Ev @ 971 NONAME ABSENT
	_ZN19HbConfirmationQueryD1Ev @ 972 NONAME ABSENT
	_ZN19HbConfirmationQueryD2Ev @ 973 NONAME ABSENT
	_ZN19HbDataFormModelItem11appendChildEPS_ @ 974 NONAME
	_ZN19HbDataFormModelItem11insertChildEiPS_ @ 975 NONAME
	_ZN19HbDataFormModelItem11removeChildEi @ 976 NONAME
	_ZN19HbDataFormModelItem14insertChildrenEii5QListIPS_E @ 977 NONAME
	_ZN19HbDataFormModelItem14removeChildrenEii @ 978 NONAME
	_ZN19HbDataFormModelItem20setContentWidgetDataERK7QStringRK8QVariant @ 979 NONAME
	_ZN19HbDataFormModelItem7setDataEiRK8QVariant @ 980 NONAME
	_ZN19HbDataFormModelItem7setTypeENS_12DataItemTypeE @ 981 NONAME
	_ZN19HbDataFormModelItem8setLabelERK7QString @ 982 NONAME
	_ZN19HbDataFormModelItem8setModelEPK18QAbstractItemModel @ 983 NONAME ABSENT
	_ZN19HbDataFormModelItem9setParentEPS_ @ 984 NONAME
	_ZN19HbDataFormModelItemC1ENS_12DataItemTypeERK7QStringPKS_ @ 985 NONAME
	_ZN19HbDataFormModelItemC1EPKS_ @ 986 NONAME
	_ZN19HbDataFormModelItemC2ENS_12DataItemTypeERK7QStringPKS_ @ 987 NONAME
	_ZN19HbDataFormModelItemC2EPKS_ @ 988 NONAME
	_ZN19HbDataFormModelItemD0Ev @ 989 NONAME
	_ZN19HbDataFormModelItemD1Ev @ 990 NONAME
	_ZN19HbDataFormModelItemD2Ev @ 991 NONAME
	_ZN19HbTransparentWindow11qt_metacallEN11QMetaObject4CallEiPPv @ 992 NONAME
	_ZN19HbTransparentWindow11qt_metacastEPKc @ 993 NONAME
	_ZN19HbTransparentWindow16staticMetaObjectE @ 994 NONAME DATA 16
	_ZN19HbTransparentWindow19getStaticMetaObjectEv @ 995 NONAME
	_ZN19HbTransparentWindow5paintEP8QPainterPK24QStyleOptionGraphicsItemP7QWidget @ 996 NONAME
	_ZN19HbTransparentWindowC1EP13QGraphicsItem @ 997 NONAME
	_ZN19HbTransparentWindowC2EP13QGraphicsItem @ 998 NONAME
	_ZN19HbTransparentWindowD0Ev @ 999 NONAME
	_ZN19HbTransparentWindowD1Ev @ 1000 NONAME
	_ZN19HbTransparentWindowD2Ev @ 1001 NONAME
	_ZN19HbVolumeSliderPopup11iconToggledEb @ 1002 NONAME
	_ZN19HbVolumeSliderPopup11qt_metacallEN11QMetaObject4CallEiPPv @ 1003 NONAME
	_ZN19HbVolumeSliderPopup11qt_metacastEPKc @ 1004 NONAME
	_ZN19HbVolumeSliderPopup11resizeEventEP25QGraphicsSceneResizeEvent @ 1005 NONAME ABSENT
	_ZN19HbVolumeSliderPopup13keyPressEventEP9QKeyEvent @ 1006 NONAME
	_ZN19HbVolumeSliderPopup15keyReleaseEventEP9QKeyEvent @ 1007 NONAME
	_ZN19HbVolumeSliderPopup16staticMetaObjectE @ 1008 NONAME DATA 16
	_ZN19HbVolumeSliderPopup19getStaticMetaObjectEv @ 1009 NONAME
	_ZN19HbVolumeSliderPopup22setCurrentValueVisibleEb @ 1010 NONAME
	_ZN19HbVolumeSliderPopupC1ER26HbVolumeSliderPopupPrivateP13QGraphicsItem @ 1011 NONAME
	_ZN19HbVolumeSliderPopupC1Ev @ 1012 NONAME
	_ZN19HbVolumeSliderPopupC2ER26HbVolumeSliderPopupPrivateP13QGraphicsItem @ 1013 NONAME
	_ZN19HbVolumeSliderPopupC2Ev @ 1014 NONAME
	_ZN19HbVolumeSliderPopupD0Ev @ 1015 NONAME
	_ZN19HbVolumeSliderPopupD1Ev @ 1016 NONAME
	_ZN19HbVolumeSliderPopupD2Ev @ 1017 NONAME
	_ZN20HbGlobalProgressNote10setMaximumEi @ 1018 NONAME ABSENT
	_ZN20HbGlobalProgressNote10setMinimumEi @ 1019 NONAME ABSENT
	_ZN20HbGlobalProgressNote11qt_metacallEN11QMetaObject4CallEiPPv @ 1020 NONAME ABSENT
	_ZN20HbGlobalProgressNote11qt_metacastEPKc @ 1021 NONAME ABSENT
	_ZN20HbGlobalProgressNote11setIconNameERK7QString @ 1022 NONAME ABSENT
	_ZN20HbGlobalProgressNote12aboutToCloseEv @ 1023 NONAME ABSENT
	_ZN20HbGlobalProgressNote12setAutoCloseEb @ 1024 NONAME ABSENT
	_ZN20HbGlobalProgressNote15setTextWrappingEb @ 1025 NONAME ABSENT
	_ZN20HbGlobalProgressNote16setIconAlignmentE6QFlagsIN2Qt13AlignmentFlagEE @ 1026 NONAME ABSENT
	_ZN20HbGlobalProgressNote16setProgressValueEi @ 1027 NONAME ABSENT
	_ZN20HbGlobalProgressNote16setTextAlignmentE6QFlagsIN2Qt13AlignmentFlagEE @ 1028 NONAME ABSENT
	_ZN20HbGlobalProgressNote16staticMetaObjectE @ 1029 NONAME DATA 16 ABSENT
	_ZN20HbGlobalProgressNote19getStaticMetaObjectEv @ 1030 NONAME ABSENT
	_ZN20HbGlobalProgressNote19setProgressNoteTypeEN14HbProgressNote16ProgressNoteTypeE @ 1031 NONAME ABSENT
	_ZN20HbGlobalProgressNote4showEv @ 1032 NONAME ABSENT
	_ZN20HbGlobalProgressNote6cancelEv @ 1033 NONAME ABSENT
	_ZN20HbGlobalProgressNote7setTextERK7QString @ 1034 NONAME ABSENT
	_ZN20HbGlobalProgressNote8setRangeEii @ 1035 NONAME ABSENT
	_ZN20HbGlobalProgressNote9cancelledEv @ 1036 NONAME ABSENT
	_ZN20HbGlobalProgressNoteC1EN14HbProgressNote16ProgressNoteTypeEP7QObject @ 1037 NONAME ABSENT
	_ZN20HbGlobalProgressNoteC1EP7QObject @ 1038 NONAME ABSENT
	_ZN20HbGlobalProgressNoteC2EN14HbProgressNote16ProgressNoteTypeEP7QObject @ 1039 NONAME ABSENT
	_ZN20HbGlobalProgressNoteC2EP7QObject @ 1040 NONAME ABSENT
	_ZN20HbGlobalProgressNoteD0Ev @ 1041 NONAME ABSENT
	_ZN20HbGlobalProgressNoteD1Ev @ 1042 NONAME ABSENT
	_ZN20HbGlobalProgressNoteD2Ev @ 1043 NONAME ABSENT
	_ZN20HbNotificationDialog11qt_metacallEN11QMetaObject4CallEiPPv @ 1044 NONAME
	_ZN20HbNotificationDialog11qt_metacastEPKc @ 1045 NONAME
	_ZN20HbNotificationDialog12launchDialogERK6HbIconP14QGraphicsScene @ 1046 NONAME ABSENT
	_ZN20HbNotificationDialog12launchDialogERK6HbIconRK7QStringS5_P14QGraphicsScene @ 1047 NONAME
	_ZN20HbNotificationDialog12launchDialogERK7QStringP14QGraphicsScene @ 1048 NONAME
	_ZN20HbNotificationDialog12launchDialogERK7QStringS2_P14QGraphicsScene @ 1049 NONAME
	_ZN20HbNotificationDialog15mousePressEventEP24QGraphicsSceneMouseEvent @ 1050 NONAME ABSENT
	_ZN20HbNotificationDialog16staticMetaObjectE @ 1051 NONAME DATA 16
	_ZN20HbNotificationDialog17isTouchActivatingEv @ 1052 NONAME ABSENT
	_ZN20HbNotificationDialog17mouseReleaseEventEP24QGraphicsSceneMouseEvent @ 1053 NONAME ABSENT
	_ZN20HbNotificationDialog19getStaticMetaObjectEv @ 1054 NONAME
	_ZN20HbNotificationDialog21enableTouchActivationEb @ 1055 NONAME
	_ZN20HbNotificationDialog7setIconERK6HbIcon @ 1056 NONAME
	_ZN20HbNotificationDialog7setTextERK7QString @ 1057 NONAME
	_ZN20HbNotificationDialog8setTitleERK7QString @ 1058 NONAME
	_ZN20HbNotificationDialog9activatedEv @ 1059 NONAME
	_ZN20HbNotificationDialogC1ER27HbNotificationDialogPrivateP13QGraphicsItem @ 1060 NONAME
	_ZN20HbNotificationDialogC1Ev @ 1061 NONAME
	_ZN20HbNotificationDialogC2ER27HbNotificationDialogPrivateP13QGraphicsItem @ 1062 NONAME
	_ZN20HbNotificationDialogC2Ev @ 1063 NONAME
	_ZN20HbNotificationDialogD0Ev @ 1064 NONAME
	_ZN20HbNotificationDialogD1Ev @ 1065 NONAME
	_ZN20HbNotificationDialogD2Ev @ 1066 NONAME
	_ZN21HbGlobalDiscreetPopup10setTimeoutEN11HbPopupBase14DefaultTimeoutE @ 1067 NONAME ABSENT
	_ZN21HbGlobalDiscreetPopup11launchPopupERK6HbIcon @ 1068 NONAME ABSENT
	_ZN21HbGlobalDiscreetPopup11launchPopupERK6HbIconRK7QStringS5_ @ 1069 NONAME ABSENT
	_ZN21HbGlobalDiscreetPopup11launchPopupERK7QString @ 1070 NONAME ABSENT
	_ZN21HbGlobalDiscreetPopup11launchPopupERK7QStringS2_ @ 1071 NONAME ABSENT
	_ZN21HbGlobalDiscreetPopup11qt_metacallEN11QMetaObject4CallEiPPv @ 1072 NONAME ABSENT
	_ZN21HbGlobalDiscreetPopup11qt_metacastEPKc @ 1073 NONAME ABSENT
	_ZN21HbGlobalDiscreetPopup12aboutToCloseEv @ 1074 NONAME ABSENT
	_ZN21HbGlobalDiscreetPopup16staticMetaObjectE @ 1075 NONAME DATA 16 ABSENT
	_ZN21HbGlobalDiscreetPopup19getStaticMetaObjectEv @ 1076 NONAME ABSENT
	_ZN21HbGlobalDiscreetPopup21enableTouchActivationEb @ 1077 NONAME ABSENT
	_ZN21HbGlobalDiscreetPopup4showEv @ 1078 NONAME ABSENT
	_ZN21HbGlobalDiscreetPopup5closeEv @ 1079 NONAME ABSENT
	_ZN21HbGlobalDiscreetPopup6updateEv @ 1080 NONAME ABSENT
	_ZN21HbGlobalDiscreetPopup7setIconERK6HbIcon @ 1081 NONAME ABSENT
	_ZN21HbGlobalDiscreetPopup7setTextERK7QString @ 1082 NONAME ABSENT
	_ZN21HbGlobalDiscreetPopup8setTitleERK7QString @ 1083 NONAME ABSENT
	_ZN21HbGlobalDiscreetPopup9activatedEv @ 1084 NONAME ABSENT
	_ZN21HbGlobalDiscreetPopupC1EP7QObject @ 1085 NONAME ABSENT
	_ZN21HbGlobalDiscreetPopupC2EP7QObject @ 1086 NONAME ABSENT
	_ZN21HbGlobalDiscreetPopupD0Ev @ 1087 NONAME ABSENT
	_ZN21HbGlobalDiscreetPopupD1Ev @ 1088 NONAME ABSENT
	_ZN21HbGlobalDiscreetPopupD2Ev @ 1089 NONAME ABSENT
	_ZN21HbSettingFormDataItem11appendChildEPS_ @ 1090 NONAME ABSENT
	_ZN21HbSettingFormDataItem11insertChildEiPS_ @ 1091 NONAME ABSENT
	_ZN21HbSettingFormDataItem11removeChildEi @ 1092 NONAME ABSENT
	_ZN21HbSettingFormDataItem14insertChildrenEii5QListIPS_E @ 1093 NONAME ABSENT
	_ZN21HbSettingFormDataItem14removeChildrenEii @ 1094 NONAME ABSENT
	_ZN21HbSettingFormDataItem20setContentWidgetDataERK7QStringRK8QVariant @ 1095 NONAME ABSENT
	_ZN21HbSettingFormDataItem7setDataEiRK8QVariant @ 1096 NONAME ABSENT
	_ZN21HbSettingFormDataItem7setTypeENS_15SettingItemTypeE @ 1097 NONAME ABSENT
	_ZN21HbSettingFormDataItem8setLabelERK7QString @ 1098 NONAME ABSENT
	_ZN21HbSettingFormDataItem8setModelEPK18QAbstractItemModel @ 1099 NONAME ABSENT
	_ZN21HbSettingFormDataItem9setParentEPS_ @ 1100 NONAME ABSENT
	_ZN21HbSettingFormDataItemC1ENS_15SettingItemTypeERK7QStringPKS_ @ 1101 NONAME ABSENT
	_ZN21HbSettingFormDataItemC1EPKS_ @ 1102 NONAME ABSENT
	_ZN21HbSettingFormDataItemC2ENS_15SettingItemTypeERK7QStringPKS_ @ 1103 NONAME ABSENT
	_ZN21HbSettingFormDataItemC2EPKS_ @ 1104 NONAME ABSENT
	_ZN21HbSettingFormDataItemD0Ev @ 1105 NONAME ABSENT
	_ZN21HbSettingFormDataItemD1Ev @ 1106 NONAME ABSENT
	_ZN21HbSettingFormDataItemD2Ev @ 1107 NONAME ABSENT
	_ZN22HbDeviceProgressDialog10setMaximumEi @ 1108 NONAME
	_ZN22HbDeviceProgressDialog10setMinimumEi @ 1109 NONAME
	_ZN22HbDeviceProgressDialog11qt_metacallEN11QMetaObject4CallEiPPv @ 1110 NONAME
	_ZN22HbDeviceProgressDialog11qt_metacastEPKc @ 1111 NONAME
	_ZN22HbDeviceProgressDialog11setIconNameERK7QString @ 1112 NONAME
	_ZN22HbDeviceProgressDialog12aboutToCloseEv @ 1113 NONAME
	_ZN22HbDeviceProgressDialog12setAutoCloseEb @ 1114 NONAME
	_ZN22HbDeviceProgressDialog15setTextWrappingEb @ 1115 NONAME ABSENT
	_ZN22HbDeviceProgressDialog16setIconAlignmentE6QFlagsIN2Qt13AlignmentFlagEE @ 1116 NONAME ABSENT
	_ZN22HbDeviceProgressDialog16setProgressValueEi @ 1117 NONAME
	_ZN22HbDeviceProgressDialog16setTextAlignmentE6QFlagsIN2Qt13AlignmentFlagEE @ 1118 NONAME ABSENT
	_ZN22HbDeviceProgressDialog16staticMetaObjectE @ 1119 NONAME DATA 16
	_ZN22HbDeviceProgressDialog19getStaticMetaObjectEv @ 1120 NONAME
	_ZN22HbDeviceProgressDialog21setProgressDialogTypeEN14HbProgressNote16ProgressNoteTypeE @ 1121 NONAME ABSENT
	_ZN22HbDeviceProgressDialog4showEv @ 1122 NONAME
	_ZN22HbDeviceProgressDialog6cancelEv @ 1123 NONAME ABSENT
	_ZN22HbDeviceProgressDialog7setTextERK7QString @ 1124 NONAME
	_ZN22HbDeviceProgressDialog8setRangeEii @ 1125 NONAME
	_ZN22HbDeviceProgressDialog9cancelledEv @ 1126 NONAME
	_ZN22HbDeviceProgressDialogC1EN14HbProgressNote16ProgressNoteTypeEP7QObject @ 1127 NONAME ABSENT
	_ZN22HbDeviceProgressDialogC1EP7QObject @ 1128 NONAME
	_ZN22HbDeviceProgressDialogC2EN14HbProgressNote16ProgressNoteTypeEP7QObject @ 1129 NONAME ABSENT
	_ZN22HbDeviceProgressDialogC2EP7QObject @ 1130 NONAME
	_ZN22HbDeviceProgressDialogD0Ev @ 1131 NONAME
	_ZN22HbDeviceProgressDialogD1Ev @ 1132 NONAME
	_ZN22HbDeviceProgressDialogD2Ev @ 1133 NONAME
	_ZN23HbAbstractSliderControl10setMaximumEi @ 1134 NONAME
	_ZN23HbAbstractSliderControl10setMinimumEi @ 1135 NONAME
	_ZN23HbAbstractSliderControl10timerEventEP11QTimerEvent @ 1136 NONAME
	_ZN23HbAbstractSliderControl11changeEventEP6QEvent @ 1137 NONAME
	_ZN23HbAbstractSliderControl11qt_metacallEN11QMetaObject4CallEiPPv @ 1138 NONAME
	_ZN23HbAbstractSliderControl11qt_metacastEPKc @ 1139 NONAME
	_ZN23HbAbstractSliderControl11setPageStepEi @ 1140 NONAME
	_ZN23HbAbstractSliderControl11setTrackingEb @ 1141 NONAME
	_ZN23HbAbstractSliderControl11sliderMovedEi @ 1142 NONAME
	_ZN23HbAbstractSliderControl12focusInEventEP11QFocusEvent @ 1143 NONAME
	_ZN23HbAbstractSliderControl12rangeChangedEii @ 1144 NONAME
	_ZN23HbAbstractSliderControl12sliderChangeENS_12SliderChangeE @ 1145 NONAME
	_ZN23HbAbstractSliderControl12valueChangedEi @ 1146 NONAME
	_ZN23HbAbstractSliderControl13keyPressEventEP9QKeyEvent @ 1147 NONAME
	_ZN23HbAbstractSliderControl13setSingleStepEi @ 1148 NONAME
	_ZN23HbAbstractSliderControl13setSliderDownEb @ 1149 NONAME
	_ZN23HbAbstractSliderControl13sliderPressedEv @ 1150 NONAME
	_ZN23HbAbstractSliderControl13triggerActionENS_12SliderActionE @ 1151 NONAME
	_ZN23HbAbstractSliderControl14setOrientationEN2Qt11OrientationE @ 1152 NONAME
	_ZN23HbAbstractSliderControl14sliderReleasedEv @ 1153 NONAME
	_ZN23HbAbstractSliderControl15actionTriggeredEi @ 1154 NONAME
	_ZN23HbAbstractSliderControl15setRepeatActionENS_12SliderActionEiii @ 1155 NONAME
	_ZN23HbAbstractSliderControl16staticMetaObjectE @ 1156 NONAME DATA 16
	_ZN23HbAbstractSliderControl17setSliderPositionEi @ 1157 NONAME
	_ZN23HbAbstractSliderControl19getStaticMetaObjectEv @ 1158 NONAME
	_ZN23HbAbstractSliderControl19setInvertedControlsEb @ 1159 NONAME
	_ZN23HbAbstractSliderControl21setInvertedAppearanceEb @ 1160 NONAME
	_ZN23HbAbstractSliderControl8setRangeEii @ 1161 NONAME
	_ZN23HbAbstractSliderControl8setValueEi @ 1162 NONAME
	_ZN23HbAbstractSliderControlC1EN2Qt11OrientationEP13QGraphicsItem @ 1163 NONAME
	_ZN23HbAbstractSliderControlC1EP13QGraphicsItem @ 1164 NONAME
	_ZN23HbAbstractSliderControlC1ER30HbAbstractSliderControlPrivateP13QGraphicsItem @ 1165 NONAME
	_ZN23HbAbstractSliderControlC2EN2Qt11OrientationEP13QGraphicsItem @ 1166 NONAME
	_ZN23HbAbstractSliderControlC2EP13QGraphicsItem @ 1167 NONAME
	_ZN23HbAbstractSliderControlC2ER30HbAbstractSliderControlPrivateP13QGraphicsItem @ 1168 NONAME
	_ZN23HbAbstractSliderControlD0Ev @ 1169 NONAME
	_ZN23HbAbstractSliderControlD1Ev @ 1170 NONAME
	_ZN23HbAbstractSliderControlD2Ev @ 1171 NONAME
	_ZN25HbGlobalConfirmationQuery11qt_metacallEN11QMetaObject4CallEiPPv @ 1172 NONAME ABSENT
	_ZN25HbGlobalConfirmationQuery11qt_metacastEPKc @ 1173 NONAME ABSENT
	_ZN25HbGlobalConfirmationQuery11setIconNameERK7QString @ 1174 NONAME ABSENT
	_ZN25HbGlobalConfirmationQuery12aboutToCloseEv @ 1175 NONAME ABSENT
	_ZN25HbGlobalConfirmationQuery15setTextWrappingEb @ 1176 NONAME ABSENT
	_ZN25HbGlobalConfirmationQuery16setIconAlignmentE6QFlagsIN2Qt13AlignmentFlagEE @ 1177 NONAME ABSENT
	_ZN25HbGlobalConfirmationQuery16setPrimaryActionEP8HbAction @ 1178 NONAME ABSENT
	_ZN25HbGlobalConfirmationQuery16setTextAlignmentE6QFlagsIN2Qt13AlignmentFlagEE @ 1179 NONAME ABSENT
	_ZN25HbGlobalConfirmationQuery16staticMetaObjectE @ 1180 NONAME DATA 16 ABSENT
	_ZN25HbGlobalConfirmationQuery18setSecondaryActionEP8HbAction @ 1181 NONAME ABSENT
	_ZN25HbGlobalConfirmationQuery19getStaticMetaObjectEv @ 1182 NONAME ABSENT
	_ZN25HbGlobalConfirmationQuery24launchConfirmationDialogERK7QStringS2_S2_bP7QObject @ 1183 NONAME ABSENT
	_ZN25HbGlobalConfirmationQuery24launchConfirmationDialogERK7QStringbP7QObject @ 1184 NONAME ABSENT
	_ZN25HbGlobalConfirmationQuery4execEv @ 1185 NONAME ABSENT
	_ZN25HbGlobalConfirmationQuery4showEv @ 1186 NONAME ABSENT
	_ZN25HbGlobalConfirmationQuery5closeEv @ 1187 NONAME ABSENT
	_ZN25HbGlobalConfirmationQuery7setTextERK7QString @ 1188 NONAME ABSENT
	_ZN25HbGlobalConfirmationQueryC1EP7QObject @ 1189 NONAME ABSENT
	_ZN25HbGlobalConfirmationQueryC1ERK7QStringP7QObject @ 1190 NONAME ABSENT
	_ZN25HbGlobalConfirmationQueryC2EP7QObject @ 1191 NONAME ABSENT
	_ZN25HbGlobalConfirmationQueryC2ERK7QStringP7QObject @ 1192 NONAME ABSENT
	_ZN25HbGlobalConfirmationQueryD0Ev @ 1193 NONAME ABSENT
	_ZN25HbGlobalConfirmationQueryD1Ev @ 1194 NONAME ABSENT
	_ZN25HbGlobalConfirmationQueryD2Ev @ 1195 NONAME ABSENT
	_ZN26HbDeviceNotificationDialog10setTimeoutEN11HbPopupBase14DefaultTimeoutE @ 1196 NONAME ABSENT
	_ZN26HbDeviceNotificationDialog11qt_metacallEN11QMetaObject4CallEiPPv @ 1197 NONAME
	_ZN26HbDeviceNotificationDialog11qt_metacastEPKc @ 1198 NONAME
	_ZN26HbDeviceNotificationDialog12aboutToCloseEv @ 1199 NONAME
	_ZN26HbDeviceNotificationDialog12launchDialogERK6HbIcon @ 1200 NONAME ABSENT
	_ZN26HbDeviceNotificationDialog12launchDialogERK6HbIconRK7QStringS5_ @ 1201 NONAME ABSENT
	_ZN26HbDeviceNotificationDialog12launchDialogERK7QString @ 1202 NONAME ABSENT
	_ZN26HbDeviceNotificationDialog12launchDialogERK7QStringS2_ @ 1203 NONAME ABSENT
	_ZN26HbDeviceNotificationDialog16staticMetaObjectE @ 1204 NONAME DATA 16
	_ZN26HbDeviceNotificationDialog19getStaticMetaObjectEv @ 1205 NONAME
	_ZN26HbDeviceNotificationDialog21enableTouchActivationEb @ 1206 NONAME
	_ZN26HbDeviceNotificationDialog4showEv @ 1207 NONAME
	_ZN26HbDeviceNotificationDialog5closeEv @ 1208 NONAME
	_ZN26HbDeviceNotificationDialog6updateEv @ 1209 NONAME
	_ZN26HbDeviceNotificationDialog7setIconERK6HbIcon @ 1210 NONAME ABSENT
	_ZN26HbDeviceNotificationDialog7setTextERK7QString @ 1211 NONAME
	_ZN26HbDeviceNotificationDialog8setTitleERK7QString @ 1212 NONAME
	_ZN26HbDeviceNotificationDialog9activatedEv @ 1213 NONAME
	_ZN26HbDeviceNotificationDialogC1EP7QObject @ 1214 NONAME
	_ZN26HbDeviceNotificationDialogC2EP7QObject @ 1215 NONAME
	_ZN26HbDeviceNotificationDialogD0Ev @ 1216 NONAME
	_ZN26HbDeviceNotificationDialogD1Ev @ 1217 NONAME
	_ZN26HbDeviceNotificationDialogD2Ev @ 1218 NONAME
	_ZN6HbNote10itemChangeEN13QGraphicsItem18GraphicsItemChangeERK8QVariant @ 1219 NONAME ABSENT
	_ZN6HbNote11qt_metacallEN11QMetaObject4CallEiPPv @ 1220 NONAME ABSENT
	_ZN6HbNote11qt_metacastEPKc @ 1221 NONAME ABSENT
	_ZN6HbNote13keyPressEventEP9QKeyEvent @ 1222 NONAME ABSENT
	_ZN6HbNote15mousePressEventEP24QGraphicsSceneMouseEvent @ 1223 NONAME ABSENT
	_ZN6HbNote15setTextWrappingEb @ 1224 NONAME ABSENT
	_ZN6HbNote16setIconAlignmentE6QFlagsIN2Qt13AlignmentFlagEE @ 1225 NONAME ABSENT
	_ZN6HbNote16setTextAlignmentE6QFlagsIN2Qt13AlignmentFlagEE @ 1226 NONAME ABSENT
	_ZN6HbNote16staticMetaObjectE @ 1227 NONAME DATA 16 ABSENT
	_ZN6HbNote16updatePrimitivesEv @ 1228 NONAME ABSENT
	_ZN6HbNote17mouseReleaseEventEP24QGraphicsSceneMouseEvent @ 1229 NONAME ABSENT
	_ZN6HbNote19getStaticMetaObjectEv @ 1230 NONAME ABSENT
	_ZN6HbNote7setIconERK6HbIcon @ 1231 NONAME ABSENT
	_ZN6HbNote7setTextERK7QString @ 1232 NONAME ABSENT
	_ZN6HbNote9showEventEP10QShowEvent @ 1233 NONAME ABSENT
	_ZN6HbNoteC1EP13QGraphicsItem @ 1234 NONAME ABSENT
	_ZN6HbNoteC1ER13HbNotePrivateP13QGraphicsItem @ 1235 NONAME ABSENT
	_ZN6HbNoteC1ERK7QStringP13QGraphicsItem @ 1236 NONAME ABSENT
	_ZN6HbNoteC1ERK7QStringRK6HbIconP13QGraphicsItem @ 1237 NONAME ABSENT
	_ZN6HbNoteC2EP13QGraphicsItem @ 1238 NONAME ABSENT
	_ZN6HbNoteC2ER13HbNotePrivateP13QGraphicsItem @ 1239 NONAME ABSENT
	_ZN6HbNoteC2ERK7QStringP13QGraphicsItem @ 1240 NONAME ABSENT
	_ZN6HbNoteC2ERK7QStringRK6HbIconP13QGraphicsItem @ 1241 NONAME ABSENT
	_ZN6HbNoteD0Ev @ 1242 NONAME ABSENT
	_ZN6HbNoteD1Ev @ 1243 NONAME ABSENT
	_ZN6HbNoteD2Ev @ 1244 NONAME ABSENT
	_ZN8HbSlider10itemChangeEN13QGraphicsItem18GraphicsItemChangeERK8QVariant @ 1245 NONAME
	_ZN8HbSlider10setMaximumEi @ 1246 NONAME
	_ZN8HbSlider10setMinimumEi @ 1247 NONAME
	_ZN8HbSlider11iconClickedEv @ 1248 NONAME
	_ZN8HbSlider11iconPressedEv @ 1249 NONAME
	_ZN8HbSlider11iconToggledEb @ 1250 NONAME
	_ZN8HbSlider11qt_metacallEN11QMetaObject4CallEiPPv @ 1251 NONAME
	_ZN8HbSlider11qt_metacastEPKc @ 1252 NONAME
	_ZN8HbSlider11setElementsERK5QListINS_13SliderElementEE @ 1253 NONAME ABSENT
	_ZN8HbSlider11setPageStepEi @ 1254 NONAME
	_ZN8HbSlider11setTrackingEb @ 1255 NONAME
	_ZN8HbSlider11sliderMovedEi @ 1256 NONAME
	_ZN8HbSlider11textClickedEv @ 1257 NONAME
	_ZN8HbSlider12focusInEventEP11QFocusEvent @ 1258 NONAME
	_ZN8HbSlider12iconReleasedEv @ 1259 NONAME
	_ZN8HbSlider12rangeChangedEii @ 1260 NONAME
	_ZN8HbSlider12valueChangedEi @ 1261 NONAME
	_ZN8HbSlider13setHandleIconERK7QString @ 1262 NONAME
	_ZN8HbSlider13setSingleStepEi @ 1263 NONAME
	_ZN8HbSlider13sliderPressedEv @ 1264 NONAME
	_ZN8HbSlider14setIconCheckedEb @ 1265 NONAME
	_ZN8HbSlider14setIconEnabledEb @ 1266 NONAME
	_ZN8HbSlider14setOrientationEN2Qt11OrientationE @ 1267 NONAME
	_ZN8HbSlider14sliderReleasedEv @ 1268 NONAME
	_ZN8HbSlider15mousePressEventEP24QGraphicsSceneMouseEvent @ 1269 NONAME
	_ZN8HbSlider15setSnappingModeENS_12SnappingModeE @ 1270 NONAME
	_ZN8HbSlider15setTickPositionE6QFlagsIN2Hb18SliderTickPositionEE @ 1271 NONAME
	_ZN8HbSlider16setIconCheckableEb @ 1272 NONAME
	_ZN8HbSlider16staticMetaObjectE @ 1273 NONAME DATA 16
	_ZN8HbSlider16updatePrimitivesEv @ 1274 NONAME
	_ZN8HbSlider17mouseReleaseEventEP24QGraphicsSceneMouseEvent @ 1275 NONAME
	_ZN8HbSlider17setSliderPositionEi @ 1276 NONAME
	_ZN8HbSlider17setToolTipVisibleEb @ 1277 NONAME
	_ZN8HbSlider18setMajorTickLabelsERK11QStringList @ 1278 NONAME
	_ZN8HbSlider18setMinorTickLabelsERK11QStringList @ 1279 NONAME
	_ZN8HbSlider19getStaticMetaObjectEv @ 1280 NONAME
	_ZN8HbSlider19setToolTipAlignmentE6QFlagsIN2Qt13AlignmentFlagEE @ 1281 NONAME
	_ZN8HbSlider20setMajorTickIntervalEi @ 1282 NONAME
	_ZN8HbSlider20setMinorTickIntervalEi @ 1283 NONAME
	_ZN8HbSlider21setInvertedAppearanceEb @ 1284 NONAME
	_ZN8HbSlider7setIconENS_13SliderElementERK6HbIcon @ 1285 NONAME ABSENT
	_ZN8HbSlider7setTextERK7QString @ 1286 NONAME
	_ZN8HbSlider8setRangeEii @ 1287 NONAME
	_ZN8HbSlider8setValueEi @ 1288 NONAME
	_ZN8HbSliderC1EN2Qt11OrientationEP13QGraphicsItem @ 1289 NONAME
	_ZN8HbSliderC1EP13QGraphicsItem @ 1290 NONAME
	_ZN8HbSliderC1ER15HbSliderPrivateP13QGraphicsItem @ 1291 NONAME
	_ZN8HbSliderC2EN2Qt11OrientationEP13QGraphicsItem @ 1292 NONAME
	_ZN8HbSliderC2EP13QGraphicsItem @ 1293 NONAME
	_ZN8HbSliderC2ER15HbSliderPrivateP13QGraphicsItem @ 1294 NONAME
	_ZN8HbSliderD0Ev @ 1295 NONAME
	_ZN8HbSliderD1Ev @ 1296 NONAME
	_ZN8HbSliderD2Ev @ 1297 NONAME
	_ZNK10HbCheckBox10checkStateEv @ 1298 NONAME
	_ZNK10HbCheckBox10isTristateEv @ 1299 NONAME
	_ZNK10HbCheckBox10metaObjectEv @ 1300 NONAME
	_ZNK10HbCheckBox15initStyleOptionEP21HbStyleOptionCheckBox @ 1301 NONAME
	_ZNK10HbCheckBox4textEv @ 1302 NONAME
	_ZNK10HbCheckBox9hitButtonERK7QPointF @ 1303 NONAME
	_ZNK10HbCheckBox9primitiveEN7HbStyle9PrimitiveE @ 1304 NONAME
	_ZNK10HbComboBox10isEditableEv @ 1305 NONAME
	_ZNK10HbComboBox10metaObjectEv @ 1306 NONAME
	_ZNK10HbComboBox11currentTextEv @ 1307 NONAME
	_ZNK10HbComboBox12currentIndexEv @ 1308 NONAME
	_ZNK10HbComboBox12insertPolicyEv @ 1309 NONAME ABSENT
	_ZNK10HbComboBox5countEv @ 1310 NONAME
	_ZNK10HbComboBox5itemsEv @ 1311 NONAME
	_ZNK10HbComboBox5modelEv @ 1312 NONAME
	_ZNK10HbComboBox8findDataERK8QVarianti6QFlagsIN2Qt9MatchFlagEE @ 1313 NONAME
	_ZNK10HbComboBox8itemDataEii @ 1314 NONAME
	_ZNK10HbComboBox8itemIconEi @ 1315 NONAME
	_ZNK10HbComboBox8itemTextEi @ 1316 NONAME
	_ZNK10HbComboBox9primitiveEN7HbStyle9PrimitiveE @ 1317 NONAME
	_ZNK10HbComboBox9validatorEv @ 1318 NONAME
	_ZNK10HbDataForm10indexCountEv @ 1319 NONAME ABSENT
	_ZNK10HbDataForm10isExpandedERK11QModelIndex @ 1320 NONAME
	_ZNK10HbDataForm10metaObjectEv @ 1321 NONAME
	_ZNK10HbDataForm11descriptionEv @ 1322 NONAME
	_ZNK10HbDataForm13previousIndexERK11QModelIndex @ 1323 NONAME ABSENT
	_ZNK10HbDataForm16dataFormViewItemERK11QModelIndex @ 1324 NONAME ABSENT
	_ZNK10HbDataForm7headingEv @ 1325 NONAME
	_ZNK10HbDataForm9nextIndexERK11QModelIndex @ 1326 NONAME ABSENT
	_ZNK10HbDataForm9primitiveEN7HbStyle9PrimitiveE @ 1327 NONAME
	_ZNK10HbFormItem10isModifiedEv @ 1328 NONAME ABSENT
	_ZNK10HbFormItem10isReadOnlyEv @ 1329 NONAME ABSENT
	_ZNK10HbFormItem10metaObjectEv @ 1330 NONAME ABSENT
	_ZNK10HbFormItem11isRemovableEv @ 1331 NONAME ABSENT
	_ZNK10HbFormItem15isTitleModifiedEv @ 1332 NONAME ABSENT
	_ZNK10HbFormItem15isTitleReadOnlyEv @ 1333 NONAME ABSENT
	_ZNK10HbFormItem16editorWidgetTypeEv @ 1334 NONAME ABSENT
	_ZNK10HbFormItem4dataERK7QString @ 1335 NONAME ABSENT
	_ZNK10HbFormItem5indexEv @ 1336 NONAME ABSENT
	_ZNK10HbFormItem5titleEv @ 1337 NONAME ABSENT
	_ZNK10HbFormItem7isEmptyEv @ 1338 NONAME ABSENT
	_ZNK10HbFormView10isModifiedEv @ 1339 NONAME ABSENT
	_ZNK10HbFormView10layoutNameEv @ 1340 NONAME ABSENT
	_ZNK10HbFormView10metaObjectEv @ 1341 NONAME ABSENT
	_ZNK10HbFormView11currentItemEv @ 1342 NONAME ABSENT
	_ZNK10HbFormView12visibleItemsEv @ 1343 NONAME ABSENT
	_ZNK10HbFormView14itemPrototypesEv @ 1344 NONAME ABSENT
	_ZNK10HbFormView4modeEv @ 1345 NONAME ABSENT
	_ZNK10HbFormView4typeEv @ 1346 NONAME ABSENT
	_ZNK10HbFormView5itemsEv @ 1347 NONAME ABSENT
	_ZNK10HbFormView5stateEv @ 1348 NONAME ABSENT
	_ZNK10HbFormView8formItemEi @ 1349 NONAME ABSENT
	_ZNK10HbFormView8viewItemEPK10HbFormItem @ 1350 NONAME ABSENT
	_ZNK10HbLineEdit10metaObjectEv @ 1351 NONAME
	_ZNK10HbLineEdit11maximumRowsEv @ 1352 NONAME ABSENT
	_ZNK10HbLineEdit11minimumRowsEv @ 1353 NONAME ABSENT
	_ZNK10HbLineEdit12isExpandableEv @ 1354 NONAME
	_ZNK10HbLineEdit12selectedTextEv @ 1355 NONAME
	_ZNK10HbLineEdit14selectionStartEv @ 1356 NONAME
	_ZNK10HbLineEdit15hasSelectedTextEv @ 1357 NONAME
	_ZNK10HbLineEdit21canInsertFromMimeDataEPK9QMimeData @ 1358 NONAME
	_ZNK10HbLineEdit4textEv @ 1359 NONAME
	_ZNK10HbLineEdit4typeEv @ 1360 NONAME
	_ZNK10HbLineEdit7maxRowsEv @ 1361 NONAME
	_ZNK10HbLineEdit7minRowsEv @ 1362 NONAME
	_ZNK10HbLineEdit9maxLengthEv @ 1363 NONAME
	_ZNK10HbTextEdit10metaObjectEv @ 1364 NONAME
	_ZNK10HbTextEdit10textCursorEv @ 1365 NONAME
	_ZNK10HbTextEdit11toPlainTextEv @ 1366 NONAME
	_ZNK10HbTextEdit4typeEv @ 1367 NONAME
	_ZNK10HbTextEdit6toHtmlEv @ 1368 NONAME
	_ZNK10HbTextEdit8documentEv @ 1369 NONAME
	_ZNK11HbDataQuery10metaObjectEv @ 1370 NONAME ABSENT
	_ZNK11HbDataQuery10promptTextEv @ 1371 NONAME ABSENT
	_ZNK11HbDataQuery9inputModeEv @ 1372 NONAME ABSENT
	_ZNK11HbDataQuery9textValueEv @ 1373 NONAME ABSENT
	_ZNK11HbHighlight10metaObjectEv @ 1374 NONAME ABSENT
	_ZNK11HbHighlight4typeEv @ 1375 NONAME ABSENT
	_ZNK11HbListQuery10metaObjectEv @ 1376 NONAME ABSENT
	_ZNK11HbListQuery11stringItemsEv @ 1377 NONAME ABSENT
	_ZNK11HbListQuery11widgetItemsEv @ 1378 NONAME ABSENT
	_ZNK11HbListQuery13selectedItemsEv @ 1379 NONAME ABSENT
	_ZNK11HbListQuery13selectionModeEv @ 1380 NONAME ABSENT
	_ZNK11HbListQuery20selectedModelIndexesEv @ 1381 NONAME ABSENT
	_ZNK11HbListQuery5modelEv @ 1382 NONAME ABSENT
	_ZNK11HbValidator15masterValidatorEv @ 1383 NONAME ABSENT
	_ZNK12HbCommonNote10metaObjectEv @ 1384 NONAME ABSENT
	_ZNK12HbCommonNote15initStyleOptionEP23HbStyleOptionCommonNote @ 1385 NONAME ABSENT
	_ZNK12HbCommonNote8noteTypeEv @ 1386 NONAME ABSENT
	_ZNK12HbFileDialog10metaObjectEv @ 1387 NONAME ABSENT
	_ZNK12HbFileDialog13contentFilterEv @ 1388 NONAME ABSENT
	_ZNK12HbFileDialog15fileNameFiltersEv @ 1389 NONAME ABSENT
	_ZNK12HbFileDialog15isSelectDirsSetEv @ 1390 NONAME ABSENT
	_ZNK12HbFileDialog17primaryActionTextEv @ 1391 NONAME ABSENT
	_ZNK12HbFileDialog19secondaryActionTextEv @ 1392 NONAME ABSENT
	_ZNK12HbFileDialog5titleEv @ 1393 NONAME ABSENT
	_ZNK12HbFileDialog9directoryEv @ 1394 NONAME ABSENT
	_ZNK12HbListDialog10metaObjectEv @ 1395 NONAME ABSENT
	_ZNK12HbListDialog11stringItemsEv @ 1396 NONAME ABSENT
	_ZNK12HbListDialog11widgetItemsEv @ 1397 NONAME ABSENT
	_ZNK12HbListDialog13selectedItemsEv @ 1398 NONAME ABSENT
	_ZNK12HbListDialog13selectionModeEv @ 1399 NONAME ABSENT
	_ZNK12HbListDialog20selectedModelIndexesEv @ 1400 NONAME ABSENT
	_ZNK12HbListDialog5modelEv @ 1401 NONAME ABSENT
	_ZNK12HbMessageBox10metaObjectEv @ 1402 NONAME
	_ZNK12HbMessageBox13iconAlignmentEv @ 1403 NONAME ABSENT
	_ZNK12HbMessageBox15initStyleOptionEP23HbStyleOptionMessageBox @ 1404 NONAME
	_ZNK12HbMessageBox4iconEv @ 1405 NONAME
	_ZNK12HbMessageBox4textEv @ 1406 NONAME
	_ZNK12HbMessageBox9primitiveEN7HbStyle9PrimitiveE @ 1407 NONAME ABSENT
	_ZNK12HbPushButton10backgroundEv @ 1408 NONAME
	_ZNK12HbPushButton10metaObjectEv @ 1409 NONAME
	_ZNK12HbPushButton11orientationEv @ 1410 NONAME ABSENT
	_ZNK12HbPushButton14additionalTextEv @ 1411 NONAME
	_ZNK12HbPushButton15frameBackgroundEv @ 1412 NONAME
	_ZNK12HbPushButton15initStyleOptionEP23HbStyleOptionPushButton @ 1413 NONAME
	_ZNK12HbPushButton4iconEv @ 1414 NONAME
	_ZNK12HbPushButton4textEv @ 1415 NONAME
	_ZNK12HbPushButton9hitButtonERK7QPointF @ 1416 NONAME
	_ZNK12HbPushButton9primitiveEN7HbStyle9PrimitiveE @ 1417 NONAME
	_ZNK12HbTrajectory10firstPointEv @ 1418 NONAME ABSENT
	_ZNK12HbTrajectory3mapEfR7QPointF @ 1419 NONAME ABSENT
	_ZNK12HbTrajectory3mapEfR7QPointFRf @ 1420 NONAME ABSENT
	_ZNK12HbTrajectory5lastZEv @ 1421 NONAME ABSENT
	_ZNK12HbTrajectory6firstZEv @ 1422 NONAME ABSENT
	_ZNK12HbTrajectory6lengthEv @ 1423 NONAME ABSENT
	_ZNK12HbTrajectory6offsetEv @ 1424 NONAME ABSENT
	_ZNK12HbTrajectory7isValidEv @ 1425 NONAME ABSENT
	_ZNK12HbTrajectory9lastPointEv @ 1426 NONAME ABSENT
	_ZNK12HbZoomSlider10metaObjectEv @ 1427 NONAME
	_ZNK12HbZoomSlider15initStyleOptionEP19HbStyleOptionSlider @ 1428 NONAME
	_ZNK12HbZoomSlider16defaultZoomLevelEv @ 1429 NONAME
	_ZNK13HbColorDialog10metaObjectEv @ 1430 NONAME
	_ZNK13HbColorDialog12currentColorEv @ 1431 NONAME
	_ZNK13HbColorDialog12initialColorEv @ 1432 NONAME
	_ZNK13HbColorDialog14isNoneSelectedEv @ 1433 NONAME
	_ZNK13HbColorDialog18isNoneBlockVisibleEv @ 1434 NONAME
	_ZNK13HbInputDialog10metaObjectEv @ 1435 NONAME
	_ZNK13HbInputDialog10promptTextEi @ 1436 NONAME
	_ZNK13HbInputDialog8lineEditEi @ 1437 NONAME
	_ZNK13HbInputDialog9inputModeEi @ 1438 NONAME
	_ZNK13HbInputDialog9textValueEi @ 1439 NONAME ABSENT
	_ZNK13HbInputDialog9validatorEi @ 1440 NONAME
	_ZNK13HbProgressBar10metaObjectEv @ 1441 NONAME
	_ZNK13HbProgressBar11orientationEv @ 1442 NONAME
	_ZNK13HbProgressBar13isTextVisibleEv @ 1443 NONAME ABSENT
	_ZNK13HbProgressBar13progressValueEv @ 1444 NONAME
	_ZNK13HbProgressBar13textAlignmentEv @ 1445 NONAME ABSENT
	_ZNK13HbProgressBar15initStyleOptionEP13HbStyleOption @ 1446 NONAME ABSENT
	_ZNK13HbProgressBar18invertedAppearanceEv @ 1447 NONAME
	_ZNK13HbProgressBar19isMinMaxTextVisibleEv @ 1448 NONAME
	_ZNK13HbProgressBar4textEv @ 1449 NONAME ABSENT
	_ZNK13HbProgressBar7maxTextEv @ 1450 NONAME
	_ZNK13HbProgressBar7maximumEv @ 1451 NONAME
	_ZNK13HbProgressBar7minTextEv @ 1452 NONAME
	_ZNK13HbProgressBar7minimumEv @ 1453 NONAME
	_ZNK13HbProgressBar9primitiveEN7HbStyle9PrimitiveE @ 1454 NONAME ABSENT
	_ZNK13HbSettingForm10indexCountEv @ 1455 NONAME ABSENT
	_ZNK13HbSettingForm10isExpandedERK11QModelIndex @ 1456 NONAME ABSENT
	_ZNK13HbSettingForm10metaObjectEv @ 1457 NONAME ABSENT
	_ZNK13HbSettingForm11descriptionEv @ 1458 NONAME ABSENT
	_ZNK13HbSettingForm13previousIndexERK11QModelIndex @ 1459 NONAME ABSENT
	_ZNK13HbSettingForm15settingFormItemERK11QModelIndex @ 1460 NONAME ABSENT
	_ZNK13HbSettingForm7headingEv @ 1461 NONAME ABSENT
	_ZNK13HbSettingForm9nextIndexERK11QModelIndex @ 1462 NONAME ABSENT
	_ZNK13HbSettingForm9primitiveEN7HbStyle9PrimitiveE @ 1463 NONAME ABSENT
	_ZNK13HbSliderPopup10metaObjectEv @ 1464 NONAME
	_ZNK13HbSliderPopup10singleStepEv @ 1465 NONAME
	_ZNK13HbSliderPopup11hasTrackingEv @ 1466 NONAME
	_ZNK13HbSliderPopup11orientationEv @ 1467 NONAME
	_ZNK13HbSliderPopup12snappingModeEv @ 1468 NONAME
	_ZNK13HbSliderPopup12tickPositionEv @ 1469 NONAME
	_ZNK13HbSliderPopup14sliderPositionEv @ 1470 NONAME
	_ZNK13HbSliderPopup15majorTickLabelsEv @ 1471 NONAME
	_ZNK13HbSliderPopup15minorTickLabelsEv @ 1472 NONAME
	_ZNK13HbSliderPopup16toolTipAlignmentEv @ 1473 NONAME
	_ZNK13HbSliderPopup17majorTickIntervalEv @ 1474 NONAME
	_ZNK13HbSliderPopup17minorTickIntervalEv @ 1475 NONAME
	_ZNK13HbSliderPopup18invertedAppearanceEv @ 1476 NONAME
	_ZNK13HbSliderPopup4iconEN8HbSlider13SliderElementE @ 1477 NONAME ABSENT
	_ZNK13HbSliderPopup4textEv @ 1478 NONAME
	_ZNK13HbSliderPopup5valueEv @ 1479 NONAME
	_ZNK13HbSliderPopup7maximumEv @ 1480 NONAME
	_ZNK13HbSliderPopup7minimumEv @ 1481 NONAME
	_ZNK13HbSliderPopup8elementsEv @ 1482 NONAME ABSENT
	_ZNK13HbSliderPopup8pageStepEv @ 1483 NONAME
	_ZNK13HbSliderPopup9primitiveEN7HbStyle9PrimitiveE @ 1484 NONAME
	_ZNK14HbAbstractEdit10isReadOnlyEv @ 1485 NONAME
	_ZNK14HbAbstractEdit10metaObjectEv @ 1486 NONAME
	_ZNK14HbAbstractEdit10scrollAreaEv @ 1487 NONAME
	_ZNK14HbAbstractEdit10textCursorEv @ 1488 NONAME
	_ZNK14HbAbstractEdit11toPlainTextEv @ 1489 NONAME
	_ZNK14HbAbstractEdit12isScrollableEv @ 1490 NONAME
	_ZNK14HbAbstractEdit14cursorPositionEv @ 1491 NONAME
	_ZNK14HbAbstractEdit16cursorVisibilityEv @ 1492 NONAME
	_ZNK14HbAbstractEdit16inputMethodQueryEN2Qt16InputMethodQueryE @ 1493 NONAME
	_ZNK14HbAbstractEdit17blockBoundingRectERK10QTextBlock @ 1494 NONAME
	_ZNK14HbAbstractEdit18hasAcceptableInputEv @ 1495 NONAME
	_ZNK14HbAbstractEdit19charRectForPositionEi @ 1496 NONAME ABSENT
	_ZNK14HbAbstractEdit21canInsertFromMimeDataEPK9QMimeData @ 1497 NONAME
	_ZNK14HbAbstractEdit27createMimeDataFromSelectionEv @ 1498 NONAME
	_ZNK14HbAbstractEdit4typeEv @ 1499 NONAME
	_ZNK14HbAbstractEdit6toHtmlEv @ 1500 NONAME
	_ZNK14HbAbstractEdit8documentEv @ 1501 NONAME
	_ZNK14HbAbstractEdit9alignmentEv @ 1502 NONAME
	_ZNK14HbAbstractEdit9primitiveEN7HbStyle9PrimitiveE @ 1503 NONAME
	_ZNK14HbAbstractEdit9validatorEv @ 1504 NONAME
	_ZNK14HbCarouselView10metaObjectEv @ 1505 NONAME ABSENT
	_ZNK14HbCarouselView12currentIndexEv @ 1506 NONAME ABSENT
	_ZNK14HbCarouselView5modelEv @ 1507 NONAME ABSENT
	_ZNK14HbDateTimeEdit10metaObjectEv @ 1508 NONAME ABSENT
	_ZNK14HbDateTimeEdit13displayFormatEv @ 1509 NONAME ABSENT
	_ZNK14HbDateTimeEdit4typeEv @ 1510 NONAME ABSENT
	_ZNK14HbDateTimeEdit8dateTimeEv @ 1511 NONAME ABSENT
	_ZNK14HbFormViewItem10isExpandedEv @ 1512 NONAME ABSENT
	_ZNK14HbFormViewItem10metaObjectEv @ 1513 NONAME ABSENT
	_ZNK14HbFormViewItem11isStretchedEv @ 1514 NONAME ABSENT
	_ZNK14HbFormViewItem11setItemDataEP7QObjectPKc @ 1515 NONAME ABSENT
	_ZNK14HbFormViewItem12editorWidgetEN10HbFormItem9FieldTypeE @ 1516 NONAME ABSENT
	_ZNK14HbFormViewItem12isExpandableEPK10HbFormItem @ 1517 NONAME ABSENT
	_ZNK14HbFormViewItem12titleWidgetsEv @ 1518 NONAME ABSENT
	_ZNK14HbFormViewItem12valueWidgetsEv @ 1519 NONAME ABSENT
	_ZNK14HbFormViewItem13setWidgetDataEN10HbFormItem9FieldTypeE @ 1520 NONAME ABSENT
	_ZNK14HbFormViewItem14setAllItemDataEP7QObject @ 1521 NONAME ABSENT
	_ZNK14HbFormViewItem14viewWidgetTypeEv @ 1522 NONAME ABSENT
	_ZNK14HbFormViewItem16canSetModelIndexERK11QModelIndex @ 1523 NONAME ABSENT
	_ZNK14HbFormViewItem16isReadOnlyWidgetEPK15QGraphicsWidget @ 1524 NONAME ABSENT
	_ZNK14HbFormViewItem16userPropertyNameEPK7QObject @ 1525 NONAME ABSENT
	_ZNK14HbFormViewItem17userPropertyValueEPK7QObject @ 1526 NONAME ABSENT
	_ZNK14HbFormViewItem4typeEv @ 1527 NONAME ABSENT
	_ZNK14HbFormViewItem7isEmptyEPK10HbFormItem @ 1528 NONAME ABSENT
	_ZNK14HbFormViewItem8formItemEv @ 1529 NONAME ABSENT
	_ZNK14HbFormViewItem8formViewEv @ 1530 NONAME ABSENT
	_ZNK14HbFormViewItem8sizeHintEN2Qt8SizeHintERK6QSizeF @ 1531 NONAME ABSENT
	_ZNK14HbMessageQuery10metaObjectEv @ 1532 NONAME ABSENT
	_ZNK14HbMessageQuery4textEv @ 1533 NONAME ABSENT
	_ZNK14HbProgressNote10metaObjectEv @ 1534 NONAME ABSENT
	_ZNK14HbProgressNote12textWrappingEv @ 1535 NONAME ABSENT
	_ZNK14HbProgressNote13iconAlignmentEv @ 1536 NONAME ABSENT
	_ZNK14HbProgressNote13progressValueEv @ 1537 NONAME ABSENT
	_ZNK14HbProgressNote13textAlignmentEv @ 1538 NONAME ABSENT
	_ZNK14HbProgressNote15initStyleOptionEP13HbStyleOption @ 1539 NONAME ABSENT
	_ZNK14HbProgressNote16progressNoteTypeEv @ 1540 NONAME ABSENT
	_ZNK14HbProgressNote4iconEv @ 1541 NONAME ABSENT
	_ZNK14HbProgressNote4textEv @ 1542 NONAME ABSENT
	_ZNK14HbProgressNote7maximumEv @ 1543 NONAME ABSENT
	_ZNK14HbProgressNote7minimumEv @ 1544 NONAME ABSENT
	_ZNK14HbProgressNote9autoCloseEv @ 1545 NONAME ABSENT
	_ZNK14HbProgressNote9primitiveEN7HbStyle9PrimitiveE @ 1546 NONAME ABSENT
	_ZNK14HbRatingSlider10isReadOnlyEv @ 1547 NONAME
	_ZNK14HbRatingSlider10metaObjectEv @ 1548 NONAME
	_ZNK14HbRatingSlider11toolTipTextEv @ 1549 NONAME ABSENT
	_ZNK14HbRatingSlider16isToolTipVisibleEv @ 1550 NONAME ABSENT
	_ZNK14HbVolumeSlider10metaObjectEv @ 1551 NONAME
	_ZNK14HbVolumeSlider15initStyleOptionEP19HbStyleOptionSlider @ 1552 NONAME
	_ZNK14HbVolumeSlider21isCurrentValueVisibleEv @ 1553 NONAME
	_ZNK15HbCombinedQuery10metaObjectEv @ 1554 NONAME ABSENT
	_ZNK15HbCombinedQuery13selectedItemsEv @ 1555 NONAME ABSENT
	_ZNK15HbCombinedQuery9listItemsEv @ 1556 NONAME ABSENT
	_ZNK15HbDataFormModel10childCountERK11QModelIndex @ 1557 NONAME
	_ZNK15HbDataFormModel11columnCountERK11QModelIndex @ 1558 NONAME
	_ZNK15HbDataFormModel11hasChildrenERK11QModelIndex @ 1559 NONAME
	_ZNK15HbDataFormModel13indexFromItemEPK19HbDataFormModelItem @ 1560 NONAME
	_ZNK15HbDataFormModel13itemFromIndexERK11QModelIndex @ 1561 NONAME
	_ZNK15HbDataFormModel17invisibleRootItemEv @ 1562 NONAME
	_ZNK15HbDataFormModel4dataERK11QModelIndexi @ 1563 NONAME
	_ZNK15HbDataFormModel4itemEiRK11QModelIndex @ 1564 NONAME
	_ZNK15HbDataFormModel5indexEiiRK11QModelIndex @ 1565 NONAME
	_ZNK15HbDataFormModel6parentERK11QModelIndex @ 1566 NONAME
	_ZNK15HbDataFormModel8rowCountERK11QModelIndex @ 1567 NONAME
	_ZNK15HbDiscreetPopup10metaObjectEv @ 1568 NONAME ABSENT
	_ZNK15HbDiscreetPopup4iconEv @ 1569 NONAME ABSENT
	_ZNK15HbDiscreetPopup4textEv @ 1570 NONAME ABSENT
	_ZNK15HbDiscreetPopup5titleEv @ 1571 NONAME ABSENT
	_ZNK15HbDualDataQuery10metaObjectEv @ 1572 NONAME ABSENT
	_ZNK15HbDualDataQuery12primaryValueEv @ 1573 NONAME ABSENT
	_ZNK15HbDualDataQuery14secondaryValueEv @ 1574 NONAME ABSENT
	_ZNK15HbDualDataQuery16primaryInputModeEv @ 1575 NONAME ABSENT
	_ZNK15HbDualDataQuery17primaryPromptTextEv @ 1576 NONAME ABSENT
	_ZNK15HbDualDataQuery18secondaryInputModeEv @ 1577 NONAME ABSENT
	_ZNK15HbDualDataQuery19secondaryPromptTextEv @ 1578 NONAME ABSENT
	_ZNK16HbProgressSlider10metaObjectEv @ 1579 NONAME
	_ZNK16HbProgressSlider11sliderValueEv @ 1580 NONAME
	_ZNK16HbProgressSlider12isSliderDownEv @ 1581 NONAME
	_ZNK16HbProgressSlider13handleToolTipEv @ 1582 NONAME ABSENT
	_ZNK16HbProgressSlider15initStyleOptionEP13HbStyleOption @ 1583 NONAME ABSENT
	_ZNK16HbProgressSlider9thumbIconEv @ 1584 NONAME ABSENT
	_ZNK16HbProgressSlider9thumbItemEv @ 1585 NONAME ABSENT
	_ZNK17HbRadioButtonList10metaObjectEv @ 1586 NONAME
	_ZNK17HbRadioButtonList11previewModeEv @ 1587 NONAME
	_ZNK17HbRadioButtonList4typeEv @ 1588 NONAME
	_ZNK17HbRadioButtonList5itemsEv @ 1589 NONAME
	_ZNK17HbRadioButtonList8selectedEv @ 1590 NONAME
	_ZNK17HbRadioButtonList8sizeHintEN2Qt8SizeHintERK6QSizeF @ 1591 NONAME
	_ZNK17HbSettingFormItem10isExpandedEv @ 1592 NONAME ABSENT
	_ZNK17HbSettingFormItem10metaObjectEv @ 1593 NONAME ABSENT
	_ZNK17HbSettingFormItem13contentWidgetEv @ 1594 NONAME ABSENT
	_ZNK17HbSettingFormItem24settingItemContentWidgetEv @ 1595 NONAME ABSENT
	_ZNK17HbSettingFormItem5stateEv @ 1596 NONAME ABSENT
	_ZNK17HbSettingFormItem8sizeHintEN2Qt8SizeHintERK6QSizeF @ 1597 NONAME ABSENT
	_ZNK17HbZoomSliderPopup10metaObjectEv @ 1598 NONAME
	_ZNK17HbZoomSliderPopup16defaultZoomLevelEv @ 1599 NONAME
	_ZNK18HbDataFormViewItem10isExpandedEv @ 1600 NONAME
	_ZNK18HbDataFormViewItem10metaObjectEv @ 1601 NONAME
	_ZNK18HbDataFormViewItem13contentWidgetEv @ 1602 NONAME ABSENT
	_ZNK18HbDataFormViewItem21dataItemContentWidgetEv @ 1603 NONAME
	_ZNK18HbDataFormViewItem5stateEv @ 1604 NONAME ABSENT
	_ZNK18HbDataFormViewItem8sizeHintEN2Qt8SizeHintERK6QSizeF @ 1605 NONAME ABSENT
	_ZNK18HbGlobalCommonNote10metaObjectEv @ 1606 NONAME ABSENT
	_ZNK18HbGlobalCommonNote12textWrappingEv @ 1607 NONAME ABSENT
	_ZNK18HbGlobalCommonNote13iconAlignmentEv @ 1608 NONAME ABSENT
	_ZNK18HbGlobalCommonNote13textAlignmentEv @ 1609 NONAME ABSENT
	_ZNK18HbGlobalCommonNote4textEv @ 1610 NONAME ABSENT
	_ZNK18HbGlobalCommonNote7timeoutEv @ 1611 NONAME ABSENT
	_ZNK18HbGlobalCommonNote8iconNameEv @ 1612 NONAME ABSENT
	_ZNK18HbGlobalCommonNote8noteTypeEv @ 1613 NONAME ABSENT
	_ZNK18HbSettingFormModel10childCountERK11QModelIndex @ 1614 NONAME ABSENT
	_ZNK18HbSettingFormModel11columnCountERK11QModelIndex @ 1615 NONAME ABSENT
	_ZNK18HbSettingFormModel11hasChildrenERK11QModelIndex @ 1616 NONAME ABSENT
	_ZNK18HbSettingFormModel13indexFromItemEPK21HbSettingFormDataItem @ 1617 NONAME ABSENT
	_ZNK18HbSettingFormModel13itemFromIndexERK11QModelIndex @ 1618 NONAME ABSENT
	_ZNK18HbSettingFormModel17invisibleRootItemEv @ 1619 NONAME ABSENT
	_ZNK18HbSettingFormModel4dataERK11QModelIndexi @ 1620 NONAME ABSENT
	_ZNK18HbSettingFormModel4itemEiRK11QModelIndex @ 1621 NONAME ABSENT
	_ZNK18HbSettingFormModel5indexEiiRK11QModelIndex @ 1622 NONAME ABSENT
	_ZNK18HbSettingFormModel6parentERK11QModelIndex @ 1623 NONAME ABSENT
	_ZNK18HbSettingFormModel8rowCountERK11QModelIndex @ 1624 NONAME ABSENT
	_ZNK19HbConfirmationQuery10metaObjectEv @ 1625 NONAME ABSENT
	_ZNK19HbDataFormModelItem10childCountEv @ 1626 NONAME
	_ZNK19HbDataFormModelItem17contentWidgetDataERK7QString @ 1627 NONAME
	_ZNK19HbDataFormModelItem4dataEi @ 1628 NONAME
	_ZNK19HbDataFormModelItem4typeEv @ 1629 NONAME
	_ZNK19HbDataFormModelItem5labelEv @ 1630 NONAME
	_ZNK19HbDataFormModelItem5modelEv @ 1631 NONAME ABSENT
	_ZNK19HbDataFormModelItem6parentEv @ 1632 NONAME
	_ZNK19HbDataFormModelItem7childAtEi @ 1633 NONAME
	_ZNK19HbDataFormModelItem7indexOfEPKS_ @ 1634 NONAME
	_ZNK19HbTransparentWindow10metaObjectEv @ 1635 NONAME
	_ZNK19HbVolumeSliderPopup10metaObjectEv @ 1636 NONAME
	_ZNK19HbVolumeSliderPopup21isCurrentValueVisibleEv @ 1637 NONAME
	_ZNK20HbGlobalProgressNote10metaObjectEv @ 1638 NONAME ABSENT
	_ZNK20HbGlobalProgressNote12textWrappingEv @ 1639 NONAME ABSENT
	_ZNK20HbGlobalProgressNote13iconAlignmentEv @ 1640 NONAME ABSENT
	_ZNK20HbGlobalProgressNote13progressValueEv @ 1641 NONAME ABSENT
	_ZNK20HbGlobalProgressNote13textAlignmentEv @ 1642 NONAME ABSENT
	_ZNK20HbGlobalProgressNote16progressNoteTypeEv @ 1643 NONAME ABSENT
	_ZNK20HbGlobalProgressNote4textEv @ 1644 NONAME ABSENT
	_ZNK20HbGlobalProgressNote7maximumEv @ 1645 NONAME ABSENT
	_ZNK20HbGlobalProgressNote7minimumEv @ 1646 NONAME ABSENT
	_ZNK20HbGlobalProgressNote8iconNameEv @ 1647 NONAME ABSENT
	_ZNK20HbGlobalProgressNote9autoCloseEv @ 1648 NONAME ABSENT
	_ZNK20HbNotificationDialog10metaObjectEv @ 1649 NONAME
	_ZNK20HbNotificationDialog4iconEv @ 1650 NONAME
	_ZNK20HbNotificationDialog4textEv @ 1651 NONAME
	_ZNK20HbNotificationDialog5titleEv @ 1652 NONAME
	_ZNK21HbGlobalDiscreetPopup10metaObjectEv @ 1653 NONAME ABSENT
	_ZNK21HbGlobalDiscreetPopup17isTouchActivatingEv @ 1654 NONAME ABSENT
	_ZNK21HbGlobalDiscreetPopup4iconEv @ 1655 NONAME ABSENT
	_ZNK21HbGlobalDiscreetPopup4textEv @ 1656 NONAME ABSENT
	_ZNK21HbGlobalDiscreetPopup5titleEv @ 1657 NONAME ABSENT
	_ZNK21HbGlobalDiscreetPopup7timeoutEv @ 1658 NONAME ABSENT
	_ZNK21HbSettingFormDataItem10childCountEv @ 1659 NONAME ABSENT
	_ZNK21HbSettingFormDataItem17contentWidgetDataERK7QString @ 1660 NONAME ABSENT
	_ZNK21HbSettingFormDataItem4dataEi @ 1661 NONAME ABSENT
	_ZNK21HbSettingFormDataItem4typeEv @ 1662 NONAME ABSENT
	_ZNK21HbSettingFormDataItem5labelEv @ 1663 NONAME ABSENT
	_ZNK21HbSettingFormDataItem5modelEv @ 1664 NONAME ABSENT
	_ZNK21HbSettingFormDataItem6parentEv @ 1665 NONAME ABSENT
	_ZNK21HbSettingFormDataItem7childAtEi @ 1666 NONAME ABSENT
	_ZNK21HbSettingFormDataItem7indexOfEPKS_ @ 1667 NONAME ABSENT
	_ZNK22HbDeviceProgressDialog10metaObjectEv @ 1668 NONAME
	_ZNK22HbDeviceProgressDialog12textWrappingEv @ 1669 NONAME ABSENT
	_ZNK22HbDeviceProgressDialog13iconAlignmentEv @ 1670 NONAME ABSENT
	_ZNK22HbDeviceProgressDialog13progressValueEv @ 1671 NONAME
	_ZNK22HbDeviceProgressDialog13textAlignmentEv @ 1672 NONAME ABSENT
	_ZNK22HbDeviceProgressDialog18progressDialogTypeEv @ 1673 NONAME ABSENT
	_ZNK22HbDeviceProgressDialog4textEv @ 1674 NONAME
	_ZNK22HbDeviceProgressDialog7maximumEv @ 1675 NONAME
	_ZNK22HbDeviceProgressDialog7minimumEv @ 1676 NONAME
	_ZNK22HbDeviceProgressDialog8iconNameEv @ 1677 NONAME
	_ZNK22HbDeviceProgressDialog9autoCloseEv @ 1678 NONAME
	_ZNK23HbAbstractSliderControl10metaObjectEv @ 1679 NONAME
	_ZNK23HbAbstractSliderControl10singleStepEv @ 1680 NONAME
	_ZNK23HbAbstractSliderControl11hasTrackingEv @ 1681 NONAME
	_ZNK23HbAbstractSliderControl11orientationEv @ 1682 NONAME
	_ZNK23HbAbstractSliderControl12isSliderDownEv @ 1683 NONAME
	_ZNK23HbAbstractSliderControl12repeatActionEv @ 1684 NONAME
	_ZNK23HbAbstractSliderControl14sliderPositionEv @ 1685 NONAME
	_ZNK23HbAbstractSliderControl16invertedControlsEv @ 1686 NONAME
	_ZNK23HbAbstractSliderControl18invertedAppearanceEv @ 1687 NONAME
	_ZNK23HbAbstractSliderControl5valueEv @ 1688 NONAME
	_ZNK23HbAbstractSliderControl7maximumEv @ 1689 NONAME
	_ZNK23HbAbstractSliderControl7minimumEv @ 1690 NONAME
	_ZNK23HbAbstractSliderControl8pageStepEv @ 1691 NONAME
	_ZNK25HbGlobalConfirmationQuery10metaObjectEv @ 1692 NONAME ABSENT
	_ZNK25HbGlobalConfirmationQuery12textWrappingEv @ 1693 NONAME ABSENT
	_ZNK25HbGlobalConfirmationQuery13iconAlignmentEv @ 1694 NONAME ABSENT
	_ZNK25HbGlobalConfirmationQuery13primaryActionEv @ 1695 NONAME ABSENT
	_ZNK25HbGlobalConfirmationQuery13textAlignmentEv @ 1696 NONAME ABSENT
	_ZNK25HbGlobalConfirmationQuery15secondaryActionEv @ 1697 NONAME ABSENT
	_ZNK25HbGlobalConfirmationQuery4textEv @ 1698 NONAME ABSENT
	_ZNK25HbGlobalConfirmationQuery8iconNameEv @ 1699 NONAME ABSENT
	_ZNK26HbDeviceNotificationDialog10metaObjectEv @ 1700 NONAME
	_ZNK26HbDeviceNotificationDialog17isTouchActivatingEv @ 1701 NONAME
	_ZNK26HbDeviceNotificationDialog4iconEv @ 1702 NONAME ABSENT
	_ZNK26HbDeviceNotificationDialog4textEv @ 1703 NONAME
	_ZNK26HbDeviceNotificationDialog5titleEv @ 1704 NONAME
	_ZNK26HbDeviceNotificationDialog7timeoutEv @ 1705 NONAME
	_ZNK6HbNote10metaObjectEv @ 1706 NONAME ABSENT
	_ZNK6HbNote12textWrappingEv @ 1707 NONAME ABSENT
	_ZNK6HbNote13iconAlignmentEv @ 1708 NONAME ABSENT
	_ZNK6HbNote13textAlignmentEv @ 1709 NONAME ABSENT
	_ZNK6HbNote15initStyleOptionEP17HbStyleOptionNote @ 1710 NONAME ABSENT
	_ZNK6HbNote4iconEv @ 1711 NONAME ABSENT
	_ZNK6HbNote4textEv @ 1712 NONAME ABSENT
	_ZNK6HbNote9primitiveEN7HbStyle9PrimitiveE @ 1713 NONAME ABSENT
	_ZNK8HbSlider10handleIconEv @ 1714 NONAME
	_ZNK8HbSlider10metaObjectEv @ 1715 NONAME
	_ZNK8HbSlider10singleStepEv @ 1716 NONAME
	_ZNK8HbSlider11hasTrackingEv @ 1717 NONAME
	_ZNK8HbSlider11orientationEv @ 1718 NONAME
	_ZNK8HbSlider12snappingModeEv @ 1719 NONAME
	_ZNK8HbSlider12tickPositionEv @ 1720 NONAME
	_ZNK8HbSlider13isIconCheckedEv @ 1721 NONAME
	_ZNK8HbSlider13isIconEnabledEv @ 1722 NONAME
	_ZNK8HbSlider14sliderPositionEv @ 1723 NONAME
	_ZNK8HbSlider15isIconCheckableEv @ 1724 NONAME
	_ZNK8HbSlider15majorTickLabelsEv @ 1725 NONAME
	_ZNK8HbSlider15minorTickLabelsEv @ 1726 NONAME
	_ZNK8HbSlider16isToolTipVisibleEv @ 1727 NONAME
	_ZNK8HbSlider16toolTipAlignmentEv @ 1728 NONAME
	_ZNK8HbSlider17majorTickIntervalEv @ 1729 NONAME
	_ZNK8HbSlider17minorTickIntervalEv @ 1730 NONAME
	_ZNK8HbSlider18invertedAppearanceEv @ 1731 NONAME
	_ZNK8HbSlider4iconENS_13SliderElementE @ 1732 NONAME ABSENT
	_ZNK8HbSlider4textEv @ 1733 NONAME
	_ZNK8HbSlider5valueEv @ 1734 NONAME
	_ZNK8HbSlider7maximumEv @ 1735 NONAME
	_ZNK8HbSlider7minimumEv @ 1736 NONAME
	_ZNK8HbSlider8elementsEv @ 1737 NONAME ABSENT
	_ZNK8HbSlider8pageStepEv @ 1738 NONAME
	_ZNK8HbSlider9primitiveEN7HbStyle9PrimitiveE @ 1739 NONAME
	_ZTI10HbCheckBox @ 1740 NONAME
	_ZTI10HbComboBox @ 1741 NONAME
	_ZTI10HbDataForm @ 1742 NONAME
	_ZTI10HbFormItem @ 1743 NONAME ABSENT
	_ZTI10HbFormView @ 1744 NONAME ABSENT
	_ZTI10HbLineEdit @ 1745 NONAME
	_ZTI10HbTextEdit @ 1746 NONAME
	_ZTI11HbDataQuery @ 1747 NONAME ABSENT
	_ZTI11HbHighlight @ 1748 NONAME ABSENT
	_ZTI11HbListQuery @ 1749 NONAME ABSENT
	_ZTI11HbValidator @ 1750 NONAME
	_ZTI12HbCommonNote @ 1751 NONAME ABSENT
	_ZTI12HbFileDialog @ 1752 NONAME ABSENT
	_ZTI12HbListDialog @ 1753 NONAME ABSENT
	_ZTI12HbMessageBox @ 1754 NONAME
	_ZTI12HbPushButton @ 1755 NONAME
	_ZTI12HbTrajectory @ 1756 NONAME ABSENT
	_ZTI12HbZoomSlider @ 1757 NONAME
	_ZTI13HbColorDialog @ 1758 NONAME
	_ZTI13HbInputDialog @ 1759 NONAME
	_ZTI13HbProgressBar @ 1760 NONAME
	_ZTI13HbSettingForm @ 1761 NONAME ABSENT
	_ZTI13HbSliderPopup @ 1762 NONAME
	_ZTI14HbAbstractEdit @ 1763 NONAME
	_ZTI14HbCarouselView @ 1764 NONAME ABSENT
	_ZTI14HbDateTimeEdit @ 1765 NONAME ABSENT
	_ZTI14HbFormViewItem @ 1766 NONAME ABSENT
	_ZTI14HbMessageQuery @ 1767 NONAME ABSENT
	_ZTI14HbProgressNote @ 1768 NONAME ABSENT
	_ZTI14HbRatingSlider @ 1769 NONAME
	_ZTI14HbVolumeSlider @ 1770 NONAME
	_ZTI15HbCombinedQuery @ 1771 NONAME ABSENT
	_ZTI15HbDataFormModel @ 1772 NONAME
	_ZTI15HbDiscreetPopup @ 1773 NONAME ABSENT
	_ZTI15HbDualDataQuery @ 1774 NONAME ABSENT
	_ZTI16HbProgressSlider @ 1775 NONAME
	_ZTI17HbRadioButtonList @ 1776 NONAME
	_ZTI17HbSettingFormItem @ 1777 NONAME ABSENT
	_ZTI17HbZoomSliderPopup @ 1778 NONAME
	_ZTI18HbDataFormViewItem @ 1779 NONAME
	_ZTI18HbGlobalCommonNote @ 1780 NONAME ABSENT
	_ZTI18HbSettingFormModel @ 1781 NONAME ABSENT
	_ZTI19HbConfirmationQuery @ 1782 NONAME ABSENT
	_ZTI19HbDataFormModelItem @ 1783 NONAME
	_ZTI19HbTransparentWindow @ 1784 NONAME
	_ZTI19HbVolumeSliderPopup @ 1785 NONAME
	_ZTI20HbGlobalProgressNote @ 1786 NONAME ABSENT
	_ZTI20HbNotificationDialog @ 1787 NONAME
	_ZTI21HbGlobalDiscreetPopup @ 1788 NONAME ABSENT
	_ZTI21HbSettingFormDataItem @ 1789 NONAME ABSENT
	_ZTI22HbDeviceProgressDialog @ 1790 NONAME
	_ZTI23HbAbstractSliderControl @ 1791 NONAME
	_ZTI25HbGlobalConfirmationQuery @ 1792 NONAME ABSENT
	_ZTI26HbDeviceNotificationDialog @ 1793 NONAME
	_ZTI6HbNote @ 1794 NONAME ABSENT
	_ZTI8HbSlider @ 1795 NONAME
	_ZTV10HbCheckBox @ 1796 NONAME
	_ZTV10HbComboBox @ 1797 NONAME
	_ZTV10HbDataForm @ 1798 NONAME
	_ZTV10HbFormItem @ 1799 NONAME ABSENT
	_ZTV10HbFormView @ 1800 NONAME ABSENT
	_ZTV10HbLineEdit @ 1801 NONAME
	_ZTV10HbTextEdit @ 1802 NONAME
	_ZTV11HbDataQuery @ 1803 NONAME ABSENT
	_ZTV11HbHighlight @ 1804 NONAME ABSENT
	_ZTV11HbListQuery @ 1805 NONAME ABSENT
	_ZTV11HbValidator @ 1806 NONAME
	_ZTV12HbCommonNote @ 1807 NONAME ABSENT
	_ZTV12HbFileDialog @ 1808 NONAME ABSENT
	_ZTV12HbListDialog @ 1809 NONAME ABSENT
	_ZTV12HbMessageBox @ 1810 NONAME
	_ZTV12HbPushButton @ 1811 NONAME
	_ZTV12HbTrajectory @ 1812 NONAME ABSENT
	_ZTV12HbZoomSlider @ 1813 NONAME
	_ZTV13HbColorDialog @ 1814 NONAME
	_ZTV13HbInputDialog @ 1815 NONAME
	_ZTV13HbProgressBar @ 1816 NONAME
	_ZTV13HbSettingForm @ 1817 NONAME ABSENT
	_ZTV13HbSliderPopup @ 1818 NONAME
	_ZTV14HbAbstractEdit @ 1819 NONAME
	_ZTV14HbCarouselView @ 1820 NONAME ABSENT
	_ZTV14HbDateTimeEdit @ 1821 NONAME ABSENT
	_ZTV14HbFormViewItem @ 1822 NONAME ABSENT
	_ZTV14HbMessageQuery @ 1823 NONAME ABSENT
	_ZTV14HbProgressNote @ 1824 NONAME ABSENT
	_ZTV14HbRatingSlider @ 1825 NONAME
	_ZTV14HbVolumeSlider @ 1826 NONAME
	_ZTV15HbCombinedQuery @ 1827 NONAME ABSENT
	_ZTV15HbDataFormModel @ 1828 NONAME
	_ZTV15HbDiscreetPopup @ 1829 NONAME ABSENT
	_ZTV15HbDualDataQuery @ 1830 NONAME ABSENT
	_ZTV16HbProgressSlider @ 1831 NONAME
	_ZTV17HbRadioButtonList @ 1832 NONAME
	_ZTV17HbSettingFormItem @ 1833 NONAME ABSENT
	_ZTV17HbZoomSliderPopup @ 1834 NONAME
	_ZTV18HbDataFormViewItem @ 1835 NONAME
	_ZTV18HbGlobalCommonNote @ 1836 NONAME ABSENT
	_ZTV18HbSettingFormModel @ 1837 NONAME ABSENT
	_ZTV19HbConfirmationQuery @ 1838 NONAME ABSENT
	_ZTV19HbDataFormModelItem @ 1839 NONAME
	_ZTV19HbTransparentWindow @ 1840 NONAME
	_ZTV19HbVolumeSliderPopup @ 1841 NONAME
	_ZTV20HbGlobalProgressNote @ 1842 NONAME ABSENT
	_ZTV20HbNotificationDialog @ 1843 NONAME
	_ZTV21HbGlobalDiscreetPopup @ 1844 NONAME ABSENT
	_ZTV21HbSettingFormDataItem @ 1845 NONAME ABSENT
	_ZTV22HbDeviceProgressDialog @ 1846 NONAME
	_ZTV23HbAbstractSliderControl @ 1847 NONAME
	_ZTV25HbGlobalConfirmationQuery @ 1848 NONAME ABSENT
	_ZTV26HbDeviceNotificationDialog @ 1849 NONAME
	_ZTV6HbNote @ 1850 NONAME ABSENT
	_ZTV8HbSlider @ 1851 NONAME
	_ZThn16_N10HbCheckBoxD0Ev @ 1852 NONAME
	_ZThn16_N10HbCheckBoxD1Ev @ 1853 NONAME
	_ZThn16_N10HbComboBoxD0Ev @ 1854 NONAME
	_ZThn16_N10HbComboBoxD1Ev @ 1855 NONAME
	_ZThn16_N10HbDataFormD0Ev @ 1856 NONAME
	_ZThn16_N10HbDataFormD1Ev @ 1857 NONAME
	_ZThn16_N10HbFormViewD0Ev @ 1858 NONAME ABSENT
	_ZThn16_N10HbFormViewD1Ev @ 1859 NONAME ABSENT
	_ZThn16_N10HbLineEditD0Ev @ 1860 NONAME
	_ZThn16_N10HbLineEditD1Ev @ 1861 NONAME
	_ZThn16_N10HbTextEditD0Ev @ 1862 NONAME
	_ZThn16_N10HbTextEditD1Ev @ 1863 NONAME
	_ZThn16_N11HbDataQueryD0Ev @ 1864 NONAME ABSENT
	_ZThn16_N11HbDataQueryD1Ev @ 1865 NONAME ABSENT
	_ZThn16_N11HbHighlightD0Ev @ 1866 NONAME ABSENT
	_ZThn16_N11HbHighlightD1Ev @ 1867 NONAME ABSENT
	_ZThn16_N11HbListQueryD0Ev @ 1868 NONAME ABSENT
	_ZThn16_N11HbListQueryD1Ev @ 1869 NONAME ABSENT
	_ZThn16_N12HbCommonNoteD0Ev @ 1870 NONAME ABSENT
	_ZThn16_N12HbCommonNoteD1Ev @ 1871 NONAME ABSENT
	_ZThn16_N12HbListDialogD0Ev @ 1872 NONAME ABSENT
	_ZThn16_N12HbListDialogD1Ev @ 1873 NONAME ABSENT
	_ZThn16_N12HbMessageBoxD0Ev @ 1874 NONAME
	_ZThn16_N12HbMessageBoxD1Ev @ 1875 NONAME
	_ZThn16_N12HbPushButtonD0Ev @ 1876 NONAME
	_ZThn16_N12HbPushButtonD1Ev @ 1877 NONAME
	_ZThn16_N12HbZoomSliderD0Ev @ 1878 NONAME
	_ZThn16_N12HbZoomSliderD1Ev @ 1879 NONAME
	_ZThn16_N13HbInputDialogD0Ev @ 1880 NONAME
	_ZThn16_N13HbInputDialogD1Ev @ 1881 NONAME
	_ZThn16_N13HbProgressBarD0Ev @ 1882 NONAME
	_ZThn16_N13HbProgressBarD1Ev @ 1883 NONAME
	_ZThn16_N13HbSettingFormD0Ev @ 1884 NONAME ABSENT
	_ZThn16_N13HbSettingFormD1Ev @ 1885 NONAME ABSENT
	_ZThn16_N13HbSliderPopupD0Ev @ 1886 NONAME
	_ZThn16_N13HbSliderPopupD1Ev @ 1887 NONAME
	_ZThn16_N14HbAbstractEdit14updateGeometryEv @ 1888 NONAME
	_ZThn16_N14HbAbstractEditD0Ev @ 1889 NONAME
	_ZThn16_N14HbAbstractEditD1Ev @ 1890 NONAME
	_ZThn16_N14HbCarouselViewD0Ev @ 1891 NONAME ABSENT
	_ZThn16_N14HbCarouselViewD1Ev @ 1892 NONAME ABSENT
	_ZThn16_N14HbDateTimeEditD0Ev @ 1893 NONAME ABSENT
	_ZThn16_N14HbDateTimeEditD1Ev @ 1894 NONAME ABSENT
	_ZThn16_N14HbFormViewItemD0Ev @ 1895 NONAME ABSENT
	_ZThn16_N14HbFormViewItemD1Ev @ 1896 NONAME ABSENT
	_ZThn16_N14HbRatingSlider11setGeometryERK6QRectF @ 1897 NONAME
	_ZThn16_N14HbRatingSliderD0Ev @ 1898 NONAME
	_ZThn16_N14HbRatingSliderD1Ev @ 1899 NONAME
	_ZThn16_N14HbVolumeSliderD0Ev @ 1900 NONAME
	_ZThn16_N14HbVolumeSliderD1Ev @ 1901 NONAME
	_ZThn16_N15HbCombinedQueryD0Ev @ 1902 NONAME ABSENT
	_ZThn16_N15HbCombinedQueryD1Ev @ 1903 NONAME ABSENT
	_ZThn16_N15HbDiscreetPopupD0Ev @ 1904 NONAME ABSENT
	_ZThn16_N15HbDiscreetPopupD1Ev @ 1905 NONAME ABSENT
	_ZThn16_N15HbDualDataQueryD0Ev @ 1906 NONAME ABSENT
	_ZThn16_N15HbDualDataQueryD1Ev @ 1907 NONAME ABSENT
	_ZThn16_N16HbProgressSlider11setGeometryERK6QRectF @ 1908 NONAME
	_ZThn16_N16HbProgressSliderD0Ev @ 1909 NONAME
	_ZThn16_N16HbProgressSliderD1Ev @ 1910 NONAME
	_ZThn16_N17HbRadioButtonListD0Ev @ 1911 NONAME
	_ZThn16_N17HbRadioButtonListD1Ev @ 1912 NONAME
	_ZThn16_N17HbSettingFormItemD0Ev @ 1913 NONAME ABSENT
	_ZThn16_N17HbSettingFormItemD1Ev @ 1914 NONAME ABSENT
	_ZThn16_N17HbZoomSliderPopupD0Ev @ 1915 NONAME
	_ZThn16_N17HbZoomSliderPopupD1Ev @ 1916 NONAME
	_ZThn16_N18HbDataFormViewItemD0Ev @ 1917 NONAME
	_ZThn16_N18HbDataFormViewItemD1Ev @ 1918 NONAME
	_ZThn16_N19HbConfirmationQueryD0Ev @ 1919 NONAME ABSENT
	_ZThn16_N19HbConfirmationQueryD1Ev @ 1920 NONAME ABSENT
	_ZThn16_N19HbTransparentWindowD0Ev @ 1921 NONAME
	_ZThn16_N19HbTransparentWindowD1Ev @ 1922 NONAME
	_ZThn16_N19HbVolumeSliderPopupD0Ev @ 1923 NONAME
	_ZThn16_N19HbVolumeSliderPopupD1Ev @ 1924 NONAME
	_ZThn16_N20HbNotificationDialogD0Ev @ 1925 NONAME
	_ZThn16_N20HbNotificationDialogD1Ev @ 1926 NONAME
	_ZThn16_N23HbAbstractSliderControlD0Ev @ 1927 NONAME
	_ZThn16_N23HbAbstractSliderControlD1Ev @ 1928 NONAME
	_ZThn16_N6HbNoteD0Ev @ 1929 NONAME ABSENT
	_ZThn16_N6HbNoteD1Ev @ 1930 NONAME ABSENT
	_ZThn16_N8HbSliderD0Ev @ 1931 NONAME
	_ZThn16_N8HbSliderD1Ev @ 1932 NONAME
	_ZThn16_NK14HbFormViewItem8sizeHintEN2Qt8SizeHintERK6QSizeF @ 1933 NONAME ABSENT
	_ZThn16_NK17HbRadioButtonList8sizeHintEN2Qt8SizeHintERK6QSizeF @ 1934 NONAME
	_ZThn16_NK17HbSettingFormItem8sizeHintEN2Qt8SizeHintERK6QSizeF @ 1935 NONAME ABSENT
	_ZThn16_NK18HbDataFormViewItem8sizeHintEN2Qt8SizeHintERK6QSizeF @ 1936 NONAME ABSENT
	_ZThn8_N10HbCheckBox13keyPressEventEP9QKeyEvent @ 1937 NONAME
	_ZThn8_N10HbCheckBox14mouseMoveEventEP24QGraphicsSceneMouseEvent @ 1938 NONAME ABSENT
	_ZThn8_N10HbCheckBox17mouseReleaseEventEP24QGraphicsSceneMouseEvent @ 1939 NONAME ABSENT
	_ZThn8_N10HbCheckBoxD0Ev @ 1940 NONAME
	_ZThn8_N10HbCheckBoxD1Ev @ 1941 NONAME
	_ZThn8_N10HbComboBox12focusInEventEP11QFocusEvent @ 1942 NONAME ABSENT
	_ZThn8_N10HbComboBox13focusOutEventEP11QFocusEvent @ 1943 NONAME ABSENT
	_ZThn8_N10HbComboBox13keyPressEventEP9QKeyEvent @ 1944 NONAME
	_ZThn8_N10HbComboBox15keyReleaseEventEP9QKeyEvent @ 1945 NONAME
	_ZThn8_N10HbComboBox15mousePressEventEP24QGraphicsSceneMouseEvent @ 1946 NONAME ABSENT
	_ZThn8_N10HbComboBox17mouseReleaseEventEP24QGraphicsSceneMouseEvent @ 1947 NONAME ABSENT
	_ZThn8_N10HbComboBoxD0Ev @ 1948 NONAME
	_ZThn8_N10HbComboBoxD1Ev @ 1949 NONAME
	_ZThn8_N10HbDataFormD0Ev @ 1950 NONAME
	_ZThn8_N10HbDataFormD1Ev @ 1951 NONAME
	_ZThn8_N10HbFormView5paintEP8QPainterPK24QStyleOptionGraphicsItemP7QWidget @ 1952 NONAME ABSENT
	_ZThn8_N10HbFormViewD0Ev @ 1953 NONAME ABSENT
	_ZThn8_N10HbFormViewD1Ev @ 1954 NONAME ABSENT
	_ZThn8_N10HbLineEdit13keyPressEventEP9QKeyEvent @ 1955 NONAME
	_ZThn8_N10HbLineEdit15keyReleaseEventEP9QKeyEvent @ 1956 NONAME
	_ZThn8_N10HbLineEdit16inputMethodEventEP17QInputMethodEvent @ 1957 NONAME
	_ZThn8_N10HbLineEditD0Ev @ 1958 NONAME
	_ZThn8_N10HbLineEditD1Ev @ 1959 NONAME
	_ZThn8_N10HbTextEditD0Ev @ 1960 NONAME
	_ZThn8_N10HbTextEditD1Ev @ 1961 NONAME
	_ZThn8_N11HbDataQueryD0Ev @ 1962 NONAME ABSENT
	_ZThn8_N11HbDataQueryD1Ev @ 1963 NONAME ABSENT
	_ZThn8_N11HbHighlight5paintEP8QPainterPK24QStyleOptionGraphicsItemP7QWidget @ 1964 NONAME ABSENT
	_ZThn8_N11HbHighlightD0Ev @ 1965 NONAME ABSENT
	_ZThn8_N11HbHighlightD1Ev @ 1966 NONAME ABSENT
	_ZThn8_N11HbListQueryD0Ev @ 1967 NONAME ABSENT
	_ZThn8_N11HbListQueryD1Ev @ 1968 NONAME ABSENT
	_ZThn8_N12HbCommonNoteD0Ev @ 1969 NONAME ABSENT
	_ZThn8_N12HbCommonNoteD1Ev @ 1970 NONAME ABSENT
	_ZThn8_N12HbListDialogD0Ev @ 1971 NONAME ABSENT
	_ZThn8_N12HbListDialogD1Ev @ 1972 NONAME ABSENT
	_ZThn8_N12HbMessageBox13keyPressEventEP9QKeyEvent @ 1973 NONAME ABSENT
	_ZThn8_N12HbMessageBoxD0Ev @ 1974 NONAME
	_ZThn8_N12HbMessageBoxD1Ev @ 1975 NONAME
	_ZThn8_N12HbPushButton10itemChangeEN13QGraphicsItem18GraphicsItemChangeERK8QVariant @ 1976 NONAME
	_ZThn8_N12HbPushButton12focusInEventEP11QFocusEvent @ 1977 NONAME
	_ZThn8_N12HbPushButton13focusOutEventEP11QFocusEvent @ 1978 NONAME
	_ZThn8_N12HbPushButton13keyPressEventEP9QKeyEvent @ 1979 NONAME
	_ZThn8_N12HbPushButton15keyReleaseEventEP9QKeyEvent @ 1980 NONAME
	_ZThn8_N12HbPushButton15mousePressEventEP24QGraphicsSceneMouseEvent @ 1981 NONAME
	_ZThn8_N12HbPushButton17mouseReleaseEventEP24QGraphicsSceneMouseEvent @ 1982 NONAME ABSENT
	_ZThn8_N12HbPushButtonD0Ev @ 1983 NONAME
	_ZThn8_N12HbPushButtonD1Ev @ 1984 NONAME
	_ZThn8_N12HbZoomSlider10itemChangeEN13QGraphicsItem18GraphicsItemChangeERK8QVariant @ 1985 NONAME
	_ZThn8_N12HbZoomSlider12focusInEventEP11QFocusEvent @ 1986 NONAME
	_ZThn8_N12HbZoomSlider15mousePressEventEP24QGraphicsSceneMouseEvent @ 1987 NONAME
	_ZThn8_N12HbZoomSlider17mouseReleaseEventEP24QGraphicsSceneMouseEvent @ 1988 NONAME
	_ZThn8_N12HbZoomSliderD0Ev @ 1989 NONAME
	_ZThn8_N12HbZoomSliderD1Ev @ 1990 NONAME
	_ZThn8_N13HbInputDialog15mousePressEventEP24QGraphicsSceneMouseEvent @ 1991 NONAME ABSENT
	_ZThn8_N13HbInputDialogD0Ev @ 1992 NONAME
	_ZThn8_N13HbInputDialogD1Ev @ 1993 NONAME
	_ZThn8_N13HbProgressBar10itemChangeEN13QGraphicsItem18GraphicsItemChangeERK8QVariant @ 1994 NONAME
	_ZThn8_N13HbProgressBarD0Ev @ 1995 NONAME
	_ZThn8_N13HbProgressBarD1Ev @ 1996 NONAME
	_ZThn8_N13HbSettingFormD0Ev @ 1997 NONAME ABSENT
	_ZThn8_N13HbSettingFormD1Ev @ 1998 NONAME ABSENT
	_ZThn8_N13HbSliderPopup10itemChangeEN13QGraphicsItem18GraphicsItemChangeERK8QVariant @ 1999 NONAME ABSENT
	_ZThn8_N13HbSliderPopupD0Ev @ 2000 NONAME
	_ZThn8_N13HbSliderPopupD1Ev @ 2001 NONAME
	_ZThn8_N14HbAbstractEdit12focusInEventEP11QFocusEvent @ 2002 NONAME
	_ZThn8_N14HbAbstractEdit13focusOutEventEP11QFocusEvent @ 2003 NONAME
	_ZThn8_N14HbAbstractEdit13keyPressEventEP9QKeyEvent @ 2004 NONAME
	_ZThn8_N14HbAbstractEdit14mouseMoveEventEP24QGraphicsSceneMouseEvent @ 2005 NONAME ABSENT
	_ZThn8_N14HbAbstractEdit15keyReleaseEventEP9QKeyEvent @ 2006 NONAME
	_ZThn8_N14HbAbstractEdit15mousePressEventEP24QGraphicsSceneMouseEvent @ 2007 NONAME ABSENT
	_ZThn8_N14HbAbstractEdit16inputMethodEventEP17QInputMethodEvent @ 2008 NONAME
	_ZThn8_N14HbAbstractEdit17mouseReleaseEventEP24QGraphicsSceneMouseEvent @ 2009 NONAME ABSENT
	_ZThn8_N14HbAbstractEditD0Ev @ 2010 NONAME
	_ZThn8_N14HbAbstractEditD1Ev @ 2011 NONAME
	_ZThn8_N14HbCarouselView10itemChangeEN13QGraphicsItem18GraphicsItemChangeERK8QVariant @ 2012 NONAME ABSENT
	_ZThn8_N14HbCarouselView15mousePressEventEP24QGraphicsSceneMouseEvent @ 2013 NONAME ABSENT
	_ZThn8_N14HbCarouselView17mouseReleaseEventEP24QGraphicsSceneMouseEvent @ 2014 NONAME ABSENT
	_ZThn8_N14HbCarouselViewD0Ev @ 2015 NONAME ABSENT
	_ZThn8_N14HbCarouselViewD1Ev @ 2016 NONAME ABSENT
	_ZThn8_N14HbDateTimeEdit13focusOutEventEP11QFocusEvent @ 2017 NONAME ABSENT
	_ZThn8_N14HbDateTimeEditD0Ev @ 2018 NONAME ABSENT
	_ZThn8_N14HbDateTimeEditD1Ev @ 2019 NONAME ABSENT
	_ZThn8_N14HbFormViewItem15mousePressEventEP24QGraphicsSceneMouseEvent @ 2020 NONAME ABSENT
	_ZThn8_N14HbFormViewItem16sceneEventFilterEP13QGraphicsItemP6QEvent @ 2021 NONAME ABSENT
	_ZThn8_N14HbFormViewItemD0Ev @ 2022 NONAME ABSENT
	_ZThn8_N14HbFormViewItemD1Ev @ 2023 NONAME ABSENT
	_ZThn8_N14HbRatingSlider14mouseMoveEventEP24QGraphicsSceneMouseEvent @ 2024 NONAME ABSENT
	_ZThn8_N14HbRatingSlider15mousePressEventEP24QGraphicsSceneMouseEvent @ 2025 NONAME
	_ZThn8_N14HbRatingSlider17mouseReleaseEventEP24QGraphicsSceneMouseEvent @ 2026 NONAME ABSENT
	_ZThn8_N14HbRatingSliderD0Ev @ 2027 NONAME
	_ZThn8_N14HbRatingSliderD1Ev @ 2028 NONAME
	_ZThn8_N14HbVolumeSlider10itemChangeEN13QGraphicsItem18GraphicsItemChangeERK8QVariant @ 2029 NONAME
	_ZThn8_N14HbVolumeSlider12focusInEventEP11QFocusEvent @ 2030 NONAME
	_ZThn8_N14HbVolumeSlider15mousePressEventEP24QGraphicsSceneMouseEvent @ 2031 NONAME
	_ZThn8_N14HbVolumeSlider17mouseReleaseEventEP24QGraphicsSceneMouseEvent @ 2032 NONAME
	_ZThn8_N14HbVolumeSliderD0Ev @ 2033 NONAME
	_ZThn8_N14HbVolumeSliderD1Ev @ 2034 NONAME
	_ZThn8_N15HbCombinedQueryD0Ev @ 2035 NONAME ABSENT
	_ZThn8_N15HbCombinedQueryD1Ev @ 2036 NONAME ABSENT
	_ZThn8_N15HbDiscreetPopup15mousePressEventEP24QGraphicsSceneMouseEvent @ 2037 NONAME ABSENT
	_ZThn8_N15HbDiscreetPopup17mouseReleaseEventEP24QGraphicsSceneMouseEvent @ 2038 NONAME ABSENT
	_ZThn8_N15HbDiscreetPopupD0Ev @ 2039 NONAME ABSENT
	_ZThn8_N15HbDiscreetPopupD1Ev @ 2040 NONAME ABSENT
	_ZThn8_N15HbDualDataQueryD0Ev @ 2041 NONAME ABSENT
	_ZThn8_N15HbDualDataQueryD1Ev @ 2042 NONAME ABSENT
	_ZThn8_N16HbProgressSlider10itemChangeEN13QGraphicsItem18GraphicsItemChangeERK8QVariant @ 2043 NONAME
	_ZThn8_N16HbProgressSlider15mousePressEventEP24QGraphicsSceneMouseEvent @ 2044 NONAME
	_ZThn8_N16HbProgressSlider17mouseReleaseEventEP24QGraphicsSceneMouseEvent @ 2045 NONAME
	_ZThn8_N16HbProgressSliderD0Ev @ 2046 NONAME
	_ZThn8_N16HbProgressSliderD1Ev @ 2047 NONAME
	_ZThn8_N17HbRadioButtonList17mouseReleaseEventEP24QGraphicsSceneMouseEvent @ 2048 NONAME ABSENT
	_ZThn8_N17HbRadioButtonListD0Ev @ 2049 NONAME
	_ZThn8_N17HbRadioButtonListD1Ev @ 2050 NONAME
	_ZThn8_N17HbSettingFormItemD0Ev @ 2051 NONAME ABSENT
	_ZThn8_N17HbSettingFormItemD1Ev @ 2052 NONAME ABSENT
	_ZThn8_N17HbZoomSliderPopup13keyPressEventEP9QKeyEvent @ 2053 NONAME
	_ZThn8_N17HbZoomSliderPopup15keyReleaseEventEP9QKeyEvent @ 2054 NONAME
	_ZThn8_N17HbZoomSliderPopupD0Ev @ 2055 NONAME
	_ZThn8_N17HbZoomSliderPopupD1Ev @ 2056 NONAME
	_ZThn8_N18HbDataFormViewItemD0Ev @ 2057 NONAME
	_ZThn8_N18HbDataFormViewItemD1Ev @ 2058 NONAME
	_ZThn8_N19HbConfirmationQueryD0Ev @ 2059 NONAME ABSENT
	_ZThn8_N19HbConfirmationQueryD1Ev @ 2060 NONAME ABSENT
	_ZThn8_N19HbTransparentWindow5paintEP8QPainterPK24QStyleOptionGraphicsItemP7QWidget @ 2061 NONAME
	_ZThn8_N19HbTransparentWindowD0Ev @ 2062 NONAME
	_ZThn8_N19HbTransparentWindowD1Ev @ 2063 NONAME
	_ZThn8_N19HbVolumeSliderPopup13keyPressEventEP9QKeyEvent @ 2064 NONAME
	_ZThn8_N19HbVolumeSliderPopup15keyReleaseEventEP9QKeyEvent @ 2065 NONAME
	_ZThn8_N19HbVolumeSliderPopupD0Ev @ 2066 NONAME
	_ZThn8_N19HbVolumeSliderPopupD1Ev @ 2067 NONAME
	_ZThn8_N20HbNotificationDialog15mousePressEventEP24QGraphicsSceneMouseEvent @ 2068 NONAME ABSENT
	_ZThn8_N20HbNotificationDialog17mouseReleaseEventEP24QGraphicsSceneMouseEvent @ 2069 NONAME ABSENT
	_ZThn8_N20HbNotificationDialogD0Ev @ 2070 NONAME
	_ZThn8_N20HbNotificationDialogD1Ev @ 2071 NONAME
	_ZThn8_N23HbAbstractSliderControl12focusInEventEP11QFocusEvent @ 2072 NONAME
	_ZThn8_N23HbAbstractSliderControl13keyPressEventEP9QKeyEvent @ 2073 NONAME
	_ZThn8_N23HbAbstractSliderControlD0Ev @ 2074 NONAME
	_ZThn8_N23HbAbstractSliderControlD1Ev @ 2075 NONAME
	_ZThn8_N6HbNote10itemChangeEN13QGraphicsItem18GraphicsItemChangeERK8QVariant @ 2076 NONAME ABSENT
	_ZThn8_N6HbNote13keyPressEventEP9QKeyEvent @ 2077 NONAME ABSENT
	_ZThn8_N6HbNote15mousePressEventEP24QGraphicsSceneMouseEvent @ 2078 NONAME ABSENT
	_ZThn8_N6HbNote17mouseReleaseEventEP24QGraphicsSceneMouseEvent @ 2079 NONAME ABSENT
	_ZThn8_N6HbNoteD0Ev @ 2080 NONAME ABSENT
	_ZThn8_N6HbNoteD1Ev @ 2081 NONAME ABSENT
	_ZThn8_N8HbSlider10itemChangeEN13QGraphicsItem18GraphicsItemChangeERK8QVariant @ 2082 NONAME
	_ZThn8_N8HbSlider12focusInEventEP11QFocusEvent @ 2083 NONAME
	_ZThn8_N8HbSlider15mousePressEventEP24QGraphicsSceneMouseEvent @ 2084 NONAME
	_ZThn8_N8HbSlider17mouseReleaseEventEP24QGraphicsSceneMouseEvent @ 2085 NONAME
	_ZThn8_N8HbSliderD0Ev @ 2086 NONAME
	_ZThn8_N8HbSliderD1Ev @ 2087 NONAME
	_ZThn8_NK10HbFormView4typeEv @ 2088 NONAME ABSENT
	_ZThn8_NK10HbLineEdit4typeEv @ 2089 NONAME
	_ZThn8_NK10HbTextEdit4typeEv @ 2090 NONAME
	_ZThn8_NK11HbHighlight4typeEv @ 2091 NONAME ABSENT
	_ZThn8_NK14HbAbstractEdit16inputMethodQueryEN2Qt16InputMethodQueryE @ 2092 NONAME
	_ZThn8_NK14HbAbstractEdit4typeEv @ 2093 NONAME
	_ZThn8_NK14HbDateTimeEdit4typeEv @ 2094 NONAME ABSENT
	_ZThn8_NK14HbFormViewItem4typeEv @ 2095 NONAME ABSENT
	_ZThn8_NK17HbRadioButtonList4typeEv @ 2096 NONAME
	_ZN10HbGroupBox11qt_metacallEN11QMetaObject4CallEiPPv @ 2097 NONAME
	_ZN10HbGroupBox11qt_metacastEPKc @ 2098 NONAME
	_ZN10HbGroupBox12setCollapsedEb @ 2099 NONAME
	_ZN10HbGroupBox12setTitleTextERK7QString @ 2100 NONAME ABSENT
	_ZN10HbGroupBox14setCollapsableEb @ 2101 NONAME
	_ZN10HbGroupBox14setTitleWidgetEP8HbWidget @ 2102 NONAME ABSENT
	_ZN10HbGroupBox16setContentWidgetEP8HbWidget @ 2103 NONAME
	_ZN10HbGroupBox16setTextAlignmentE6QFlagsIN2Qt13AlignmentFlagEE @ 2104 NONAME ABSENT
	_ZN10HbGroupBox16staticMetaObjectE @ 2105 NONAME DATA 16
	_ZN10HbGroupBox16updatePrimitivesEv @ 2106 NONAME
	_ZN10HbGroupBox19getStaticMetaObjectEv @ 2107 NONAME
	_ZN10HbGroupBox7clickedEv @ 2108 NONAME
	_ZN10HbGroupBox7toggledEb @ 2109 NONAME
	_ZN10HbGroupBox9longPressE7QPointF @ 2110 NONAME ABSENT
	_ZN10HbGroupBoxC1EP13QGraphicsItem @ 2111 NONAME
	_ZN10HbGroupBoxC1ERK7QStringP13QGraphicsItem @ 2112 NONAME ABSENT
	_ZN10HbGroupBoxC2EP13QGraphicsItem @ 2113 NONAME
	_ZN10HbGroupBoxC2ERK7QStringP13QGraphicsItem @ 2114 NONAME ABSENT
	_ZN10HbGroupBoxD0Ev @ 2115 NONAME
	_ZN10HbGroupBoxD1Ev @ 2116 NONAME
	_ZN10HbGroupBoxD2Ev @ 2117 NONAME
	_ZN10HbLineEdit11setEchoModeENS_8EchoModeE @ 2118 NONAME
	_ZN10HbLineEdit13focusOutEventEP11QFocusEvent @ 2119 NONAME
	_ZN10HbLineEdit17setCapitalizationEN5QFont14CapitalizationE @ 2120 NONAME
	_ZN12HbPushButton18recreatePrimitivesEv @ 2121 NONAME
	_ZN13HbSearchPanel11exitClickedEv @ 2122 NONAME
	_ZN13HbSearchPanel11qt_metacallEN11QMetaObject4CallEiPPv @ 2123 NONAME
	_ZN13HbSearchPanel11qt_metacastEPKc @ 2124 NONAME
	_ZN13HbSearchPanel14setProgressiveEb @ 2125 NONAME
	_ZN13HbSearchPanel15criteriaChangedERK7QString @ 2126 NONAME
	_ZN13HbSearchPanel16staticMetaObjectE @ 2127 NONAME DATA 16
	_ZN13HbSearchPanel19getStaticMetaObjectEv @ 2128 NONAME
	_ZN13HbSearchPanel20searchOptionsClickedEv @ 2129 NONAME
	_ZN13HbSearchPanel23setSearchOptionsEnabledEb @ 2130 NONAME
	_ZN13HbSearchPanelC1EP13QGraphicsItem @ 2131 NONAME
	_ZN13HbSearchPanelC1ER20HbSearchPanelPrivateP13QGraphicsItem @ 2132 NONAME
	_ZN13HbSearchPanelC2EP13QGraphicsItem @ 2133 NONAME
	_ZN13HbSearchPanelC2ER20HbSearchPanelPrivateP13QGraphicsItem @ 2134 NONAME
	_ZN13HbSearchPanelD0Ev @ 2135 NONAME
	_ZN13HbSearchPanelD1Ev @ 2136 NONAME
	_ZN13HbSearchPanelD2Ev @ 2137 NONAME
	_ZN14HbAbstractEdit18setContextMenuFlagEN2Hb19TextContextMenuFlagE @ 2138 NONAME
	_ZN14HbAbstractEdit19setContextMenuFlagsE6QFlagsIN2Hb19TextContextMenuFlagEE @ 2139 NONAME
	_ZN14HbAbstractEdit20clearContextMenuFlagEN2Hb19TextContextMenuFlagE @ 2140 NONAME
	_ZN14HbAbstractEdit22aboutToShowContextMenuEP6HbMenuRK7QPointF @ 2141 NONAME
	_ZN18HbDeviceMessageBox10setTimeoutEN11HbPopupBase14DefaultTimeoutE @ 2142 NONAME ABSENT
	_ZN18HbDeviceMessageBox10setTimeoutEi @ 2143 NONAME
	_ZN18HbDeviceMessageBox11informationERK7QString @ 2144 NONAME
	_ZN18HbDeviceMessageBox11qt_metacallEN11QMetaObject4CallEiPPv @ 2145 NONAME
	_ZN18HbDeviceMessageBox11qt_metacastEPKc @ 2146 NONAME
	_ZN18HbDeviceMessageBox11setIconNameERK7QString @ 2147 NONAME
	_ZN18HbDeviceMessageBox12aboutToCloseEv @ 2148 NONAME
	_ZN18HbDeviceMessageBox16setDismissPolicyEN11HbPopupBase13DismissPolicyE @ 2149 NONAME ABSENT
	_ZN18HbDeviceMessageBox16setIconAlignmentE6QFlagsIN2Qt13AlignmentFlagEE @ 2150 NONAME ABSENT
	_ZN18HbDeviceMessageBox16setPrimaryActionEP8HbAction @ 2151 NONAME ABSENT
	_ZN18HbDeviceMessageBox16staticMetaObjectE @ 2152 NONAME DATA 16
	_ZN18HbDeviceMessageBox18setSecondaryActionEP8HbAction @ 2153 NONAME ABSENT
	_ZN18HbDeviceMessageBox19getStaticMetaObjectEv @ 2154 NONAME
	_ZN18HbDeviceMessageBox4execEv @ 2155 NONAME
	_ZN18HbDeviceMessageBox4showEv @ 2156 NONAME
	_ZN18HbDeviceMessageBox5closeEv @ 2157 NONAME
	_ZN18HbDeviceMessageBox7setTextERK7QString @ 2158 NONAME
	_ZN18HbDeviceMessageBox7warningERK7QString @ 2159 NONAME
	_ZN18HbDeviceMessageBox8questionERK7QStringS2_S2_ @ 2160 NONAME
	_ZN18HbDeviceMessageBoxC1EN12HbMessageBox14MessageBoxTypeEP7QObject @ 2161 NONAME
	_ZN18HbDeviceMessageBoxC1ERK7QStringN12HbMessageBox14MessageBoxTypeEP7QObject @ 2162 NONAME
	_ZN18HbDeviceMessageBoxC2EN12HbMessageBox14MessageBoxTypeEP7QObject @ 2163 NONAME
	_ZN18HbDeviceMessageBoxC2ERK7QStringN12HbMessageBox14MessageBoxTypeEP7QObject @ 2164 NONAME
	_ZN18HbDeviceMessageBoxD0Ev @ 2165 NONAME
	_ZN18HbDeviceMessageBoxD1Ev @ 2166 NONAME
	_ZN18HbDeviceMessageBoxD2Ev @ 2167 NONAME
	_ZN19HbDataFormModelItem7setIconERK7QString @ 2168 NONAME
	_ZN26HbDeviceNotificationDialog10setTimeoutEi @ 2169 NONAME
	_ZN26HbDeviceNotificationDialog11setIconNameERK7QString @ 2170 NONAME
	_ZN26HbDeviceNotificationDialog12notificationERK7QStringS2_ @ 2171 NONAME
	_ZN26HbDeviceNotificationDialog12notificationERK7QStringS2_S2_ @ 2172 NONAME
	_ZNK10HbGroupBox10metaObjectEv @ 2173 NONAME
	_ZNK10HbGroupBox11isCollapsedEv @ 2174 NONAME
	_ZNK10HbGroupBox11titleWidgetEv @ 2175 NONAME ABSENT
	_ZNK10HbGroupBox13contentWidgetEv @ 2176 NONAME
	_ZNK10HbGroupBox13isCollapsableEv @ 2177 NONAME
	_ZNK10HbGroupBox13textAlignmentEv @ 2178 NONAME ABSENT
	_ZNK10HbGroupBox9primitiveEN7HbStyle9PrimitiveE @ 2179 NONAME
	_ZNK10HbGroupBox9titleTextEv @ 2180 NONAME ABSENT
	_ZNK10HbLineEdit11displayTextEv @ 2181 NONAME
	_ZNK10HbLineEdit14capitalizationEv @ 2182 NONAME
	_ZNK10HbLineEdit8echoModeEv @ 2183 NONAME
	_ZNK13HbSearchPanel10metaObjectEv @ 2184 NONAME
	_ZNK13HbSearchPanel13isProgressiveEv @ 2185 NONAME
	_ZNK13HbSearchPanel22isSearchOptionsEnabledEv @ 2186 NONAME
	_ZNK14HbAbstractEdit15rectForPositionEiN9QTextLine4EdgeE @ 2187 NONAME
	_ZNK14HbAbstractEdit16contextMenuFlagsEv @ 2188 NONAME
	_ZNK14HbAbstractEdit8anchorAtERK7QPointF @ 2189 NONAME
	_ZNK14HbAbstractEdit8anchorAtEi @ 2190 NONAME
	_ZNK15HbDiscreetPopup17isTouchActivatingEv @ 2191 NONAME ABSENT
	_ZNK18HbDeviceMessageBox10metaObjectEv @ 2192 NONAME
	_ZNK18HbDeviceMessageBox13dismissPolicyEv @ 2193 NONAME
	_ZNK18HbDeviceMessageBox13iconAlignmentEv @ 2194 NONAME ABSENT
	_ZNK18HbDeviceMessageBox13primaryActionEv @ 2195 NONAME ABSENT
	_ZNK18HbDeviceMessageBox15secondaryActionEv @ 2196 NONAME ABSENT
	_ZNK18HbDeviceMessageBox4textEv @ 2197 NONAME
	_ZNK18HbDeviceMessageBox7timeoutEv @ 2198 NONAME
	_ZNK18HbDeviceMessageBox8iconNameEv @ 2199 NONAME
	_ZNK19HbDataFormModelItem4iconEv @ 2200 NONAME
	_ZNK20HbNotificationDialog17isTouchActivatingEv @ 2201 NONAME
	_ZNK26HbDeviceNotificationDialog8iconNameEv @ 2202 NONAME
	_ZTI10HbGroupBox @ 2203 NONAME
	_ZTI13HbSearchPanel @ 2204 NONAME
	_ZTI18HbDeviceMessageBox @ 2205 NONAME
	_ZTV10HbGroupBox @ 2206 NONAME
	_ZTV13HbSearchPanel @ 2207 NONAME
	_ZTV18HbDeviceMessageBox @ 2208 NONAME
	_ZThn16_N10HbGroupBoxD0Ev @ 2209 NONAME
	_ZThn16_N10HbGroupBoxD1Ev @ 2210 NONAME
	_ZThn16_N13HbSearchPanelD0Ev @ 2211 NONAME
	_ZThn16_N13HbSearchPanelD1Ev @ 2212 NONAME
	_ZThn8_N10HbGroupBoxD0Ev @ 2213 NONAME
	_ZThn8_N10HbGroupBoxD1Ev @ 2214 NONAME
	_ZThn8_N10HbLineEdit13focusOutEventEP11QFocusEvent @ 2215 NONAME
	_ZThn8_N13HbSearchPanelD0Ev @ 2216 NONAME
	_ZThn8_N13HbSearchPanelD1Ev @ 2217 NONAME
	_ZN10HbComboBox10insertItemEiRK6HbIconRK7QStringRK8QVariant @ 2218 NONAME
	_ZN10HbComboBox10insertItemEiRK7QStringRK8QVariant @ 2219 NONAME
	_ZN10HbDataForm11dataChangedERK11QModelIndexS2_ @ 2220 NONAME
	_ZN10HbDataForm13addConnectionEP19HbDataFormModelItem7QStringP7QObjectS2_ @ 2221 NONAME ABSENT
	_ZN10HbDataForm16removeConnectionEP19HbDataFormModelItem7QStringP7QObjectS2_ @ 2222 NONAME ABSENT
	_ZN10HbDataForm19removeAllConnectionEP19HbDataFormModelItem @ 2223 NONAME
	_ZN10HbDataForm19removeAllConnectionEv @ 2224 NONAME
	_ZN10HbDataForm8scrollToERK11QModelIndexN17QAbstractItemView10ScrollHintE @ 2225 NONAME ABSENT
	_ZN10HbGridView11dataChangedERK11QModelIndexS2_ @ 2226 NONAME
	_ZN10HbGridView11qt_metacallEN11QMetaObject4CallEiPPv @ 2227 NONAME
	_ZN10HbGridView11qt_metacastEPKc @ 2228 NONAME
	_ZN10HbGridView11rowsRemovedERK11QModelIndexii @ 2229 NONAME
	_ZN10HbGridView11setRowCountEi @ 2230 NONAME
	_ZN10HbGridView12rowsInsertedERK11QModelIndexii @ 2231 NONAME
	_ZN10HbGridView14mouseMoveEventEP24QGraphicsSceneMouseEvent @ 2232 NONAME
	_ZN10HbGridView14setColumnCountEi @ 2233 NONAME
	_ZN10HbGridView14setIconVisibleEb @ 2234 NONAME
	_ZN10HbGridView14setTextVisibleEb @ 2235 NONAME
	_ZN10HbGridView16staticMetaObjectE @ 2236 NONAME DATA 16
	_ZN10HbGridView18orientationChangedEN2Qt11OrientationE @ 2237 NONAME
	_ZN10HbGridView19getStaticMetaObjectEv @ 2238 NONAME
	_ZN10HbGridView8scrollToERK11QModelIndexN17QAbstractItemView10ScrollHintE @ 2239 NONAME ABSENT
	_ZN10HbGridViewC1EP13QGraphicsItem @ 2240 NONAME
	_ZN10HbGridViewC1ER17HbGridViewPrivateP23HbAbstractItemContainerP13QGraphicsItem @ 2241 NONAME
	_ZN10HbGridViewC2EP13QGraphicsItem @ 2242 NONAME
	_ZN10HbGridViewC2ER17HbGridViewPrivateP23HbAbstractItemContainerP13QGraphicsItem @ 2243 NONAME
	_ZN10HbGridViewD0Ev @ 2244 NONAME
	_ZN10HbGridViewD1Ev @ 2245 NONAME
	_ZN10HbGridViewD2Ev @ 2246 NONAME
	_ZN10HbGroupBox9longPressERK7QPointF @ 2247 NONAME
	_ZN10HbGroupBoxC1ER17HbGroupBoxPrivateP13QGraphicsItem @ 2248 NONAME
	_ZN10HbGroupBoxC2ER17HbGroupBoxPrivateP13QGraphicsItem @ 2249 NONAME
	_ZN10HbListView11dataChangedERK11QModelIndexS2_ @ 2250 NONAME
	_ZN10HbListView11qt_metacallEN11QMetaObject4CallEiPPv @ 2251 NONAME
	_ZN10HbListView11qt_metacastEPKc @ 2252 NONAME
	_ZN10HbListView11rowsRemovedERK11QModelIndexii @ 2253 NONAME
	_ZN10HbListView12rowsInsertedERK11QModelIndexii @ 2254 NONAME
	_ZN10HbListView14mouseMoveEventEP24QGraphicsSceneMouseEvent @ 2255 NONAME ABSENT
	_ZN10HbListView14setArrangeModeEb @ 2256 NONAME
	_ZN10HbListView15mousePressEventEP24QGraphicsSceneMouseEvent @ 2257 NONAME ABSENT
	_ZN10HbListView16staticMetaObjectE @ 2258 NONAME DATA 16
	_ZN10HbListView17mouseReleaseEventEP24QGraphicsSceneMouseEvent @ 2259 NONAME ABSENT
	_ZN10HbListView19getStaticMetaObjectEv @ 2260 NONAME
	_ZN10HbListView4moveERK11QModelIndexS2_ @ 2261 NONAME
	_ZN10HbListView8scrollToERK11QModelIndexN17QAbstractItemView10ScrollHintE @ 2262 NONAME ABSENT
	_ZN10HbListView9scrollingE7QPointF @ 2263 NONAME
	_ZN10HbListViewC1EP13QGraphicsItem @ 2264 NONAME
	_ZN10HbListViewC1ER17HbListViewPrivateP23HbAbstractItemContainerP13QGraphicsItem @ 2265 NONAME
	_ZN10HbListViewC2EP13QGraphicsItem @ 2266 NONAME
	_ZN10HbListViewC2ER17HbListViewPrivateP23HbAbstractItemContainerP13QGraphicsItem @ 2267 NONAME
	_ZN10HbListViewD0Ev @ 2268 NONAME
	_ZN10HbListViewD1Ev @ 2269 NONAME
	_ZN10HbListViewD2Ev @ 2270 NONAME
	_ZN10HbTreeView11dataChangedERK11QModelIndexS2_ @ 2271 NONAME
	_ZN10HbTreeView11qt_metacallEN11QMetaObject4CallEiPPv @ 2272 NONAME
	_ZN10HbTreeView11qt_metacastEPKc @ 2273 NONAME
	_ZN10HbTreeView11rowsRemovedERK11QModelIndexii @ 2274 NONAME
	_ZN10HbTreeView11setExpandedERK11QModelIndexb @ 2275 NONAME
	_ZN10HbTreeView12rowsInsertedERK11QModelIndexii @ 2276 NONAME
	_ZN10HbTreeView14columnsRemovedERK11QModelIndexii @ 2277 NONAME
	_ZN10HbTreeView15columnsInsertedERK11QModelIndexii @ 2278 NONAME
	_ZN10HbTreeView16staticMetaObjectE @ 2279 NONAME DATA 16
	_ZN10HbTreeView19getStaticMetaObjectEv @ 2280 NONAME
	_ZN10HbTreeView20rowsAboutToBeRemovedERK11QModelIndexii @ 2281 NONAME
	_ZN10HbTreeView23currentSelectionChangedERK14QItemSelectionS2_ @ 2282 NONAME
	_ZN10HbTreeView8scrollToERK11QModelIndexN17QAbstractItemView10ScrollHintE @ 2283 NONAME ABSENT
	_ZN10HbTreeViewC1EP13QGraphicsItem @ 2284 NONAME
	_ZN10HbTreeViewC1ER17HbTreeViewPrivateP23HbAbstractItemContainerP13QGraphicsItem @ 2285 NONAME
	_ZN10HbTreeViewC2EP13QGraphicsItem @ 2286 NONAME
	_ZN10HbTreeViewC2ER17HbTreeViewPrivateP23HbAbstractItemContainerP13QGraphicsItem @ 2287 NONAME
	_ZN10HbTreeViewD0Ev @ 2288 NONAME
	_ZN10HbTreeViewD1Ev @ 2289 NONAME
	_ZN10HbTreeViewD2Ev @ 2290 NONAME
	_ZN11HbListModel10removeRowsEiiRK11QModelIndex @ 2291 NONAME
	_ZN11HbListModel11itemChangedEP16HbListWidgetItem @ 2292 NONAME
	_ZN11HbListModel11qt_metacallEN11QMetaObject4CallEiPPv @ 2293 NONAME
	_ZN11HbListModel11qt_metacastEPKc @ 2294 NONAME
	_ZN11HbListModel16staticMetaObjectE @ 2295 NONAME DATA 16
	_ZN11HbListModel19getStaticMetaObjectEv @ 2296 NONAME
	_ZN11HbListModel4takeEi @ 2297 NONAME
	_ZN11HbListModel5clearEv @ 2298 NONAME
	_ZN11HbListModel6insertEiP16HbListWidgetItem @ 2299 NONAME
	_ZN11HbListModel7setDataERK11QModelIndexRK8QVarianti @ 2300 NONAME
	_ZN11HbListModel9appendRowEP16HbListWidgetItem @ 2301 NONAME
	_ZN11HbListModelC1EP7QObject @ 2302 NONAME
	_ZN11HbListModelC2EP7QObject @ 2303 NONAME
	_ZN11HbListModelD0Ev @ 2304 NONAME
	_ZN11HbListModelD1Ev @ 2305 NONAME
	_ZN11HbListModelD2Ev @ 2306 NONAME
	_ZN12HbListWidget10insertItemEiP16HbListWidgetItem @ 2307 NONAME
	_ZN12HbListWidget10insertItemEiRK6HbIconRK7QString @ 2308 NONAME
	_ZN12HbListWidget10insertItemEiRK7QString @ 2309 NONAME
	_ZN12HbListWidget11longPressedEP16HbListWidgetItemRK7QPointF @ 2310 NONAME
	_ZN12HbListWidget11qt_metacallEN11QMetaObject4CallEiPPv @ 2311 NONAME
	_ZN12HbListWidget11qt_metacastEPKc @ 2312 NONAME
	_ZN12HbListWidget13setCurrentRowEi @ 2313 NONAME
	_ZN12HbListWidget14setArrangeModeEb @ 2314 NONAME
	_ZN12HbListWidget14setCurrentItemEP16HbListWidgetItem @ 2315 NONAME
	_ZN12HbListWidget16staticMetaObjectE @ 2316 NONAME DATA 16
	_ZN12HbListWidget19getStaticMetaObjectEv @ 2317 NONAME
	_ZN12HbListWidget4moveERK11QModelIndexS2_ @ 2318 NONAME
	_ZN12HbListWidget5clearEv @ 2319 NONAME
	_ZN12HbListWidget7addItemEP16HbListWidgetItem @ 2320 NONAME
	_ZN12HbListWidget7addItemERK6HbIconRK7QString @ 2321 NONAME
	_ZN12HbListWidget7addItemERK7QString @ 2322 NONAME
	_ZN12HbListWidget7pressedEP16HbListWidgetItem @ 2323 NONAME
	_ZN12HbListWidget7setIconEiRK6HbIcon @ 2324 NONAME
	_ZN12HbListWidget7setTextEiRK7QString @ 2325 NONAME
	_ZN12HbListWidget8releasedEP16HbListWidgetItem @ 2326 NONAME
	_ZN12HbListWidget8setModelEP18QAbstractItemModelP18HbAbstractViewItem @ 2327 NONAME
	_ZN12HbListWidget8takeItemEi @ 2328 NONAME
	_ZN12HbListWidget9activatedEP16HbListWidgetItem @ 2329 NONAME
	_ZN12HbListWidgetC1EP13QGraphicsItem @ 2330 NONAME
	_ZN12HbListWidgetC1ER19HbListWidgetPrivateP23HbAbstractItemContainerP13QGraphicsItem @ 2331 NONAME
	_ZN12HbListWidgetC2EP13QGraphicsItem @ 2332 NONAME
	_ZN12HbListWidgetC2ER19HbListWidgetPrivateP23HbAbstractItemContainerP13QGraphicsItem @ 2333 NONAME
	_ZN12HbListWidgetD0Ev @ 2334 NONAME
	_ZN12HbListWidgetD1Ev @ 2335 NONAME
	_ZN12HbListWidgetD2Ev @ 2336 NONAME
	_ZN12HbTreeLayout10insertItemEiP19QGraphicsLayoutItemi @ 2337 NONAME ABSENT
	_ZN12HbTreeLayout10removeItemEP19QGraphicsLayoutItem @ 2338 NONAME ABSENT
	_ZN12HbTreeLayout11setGeometryERK6QRectF @ 2339 NONAME
	_ZN12HbTreeLayout12setItemLevelEP19QGraphicsLayoutItemi @ 2340 NONAME
	_ZN12HbTreeLayout14setIndentationEf @ 2341 NONAME
	_ZN12HbTreeLayout7addItemEP19QGraphicsLayoutItemi @ 2342 NONAME ABSENT
	_ZN12HbTreeLayout8removeAtEi @ 2343 NONAME
	_ZN12HbTreeLayoutC1EP19QGraphicsLayoutItem @ 2344 NONAME
	_ZN12HbTreeLayoutC2EP19QGraphicsLayoutItem @ 2345 NONAME
	_ZN12HbTreeLayoutD0Ev @ 2346 NONAME
	_ZN12HbTreeLayoutD1Ev @ 2347 NONAME
	_ZN12HbTreeLayoutD2Ev @ 2348 NONAME
	_ZN13HbInputDialog10getIntegerERK7QStringiPbP14QGraphicsSceneP13QGraphicsItem @ 2349 NONAME ABSENT
	_ZN13HbInputDialog11setEchoModeEN10HbLineEdit8EchoModeEi @ 2350 NONAME
	_ZN13HbInputDialog7getTextERK7QStringS2_PbP14QGraphicsSceneP13QGraphicsItem @ 2351 NONAME ABSENT
	_ZN13HbInputDialog9getDoubleERK7QStringdPbP14QGraphicsSceneP13QGraphicsItem @ 2352 NONAME ABSENT
	_ZN13HbInputDialogC1EP13QGraphicsItem @ 2353 NONAME
	_ZN13HbInputDialogC1ER15HbDialogPrivateP13QGraphicsItem @ 2354 NONAME
	_ZN13HbInputDialogC2EP13QGraphicsItem @ 2355 NONAME
	_ZN13HbInputDialogC2ER15HbDialogPrivateP13QGraphicsItem @ 2356 NONAME
	_ZN13HbSettingForm8scrollToERK11QModelIndexN17QAbstractItemView10ScrollHintE @ 2357 NONAME ABSENT
	_ZN14HbDateTimeEdit13setDateFormatERK7QLocale @ 2358 NONAME ABSENT
	_ZN14HbDateTimeEdit13setTimeFormatERK7QLocale @ 2359 NONAME ABSENT
	_ZN14HbDateTimeEdit17setDateTimeFormatERK7QLocale @ 2360 NONAME ABSENT
	_ZN14HbDateTimeEditC1ERK5QDateP13QGraphicsItem @ 2361 NONAME ABSENT
	_ZN14HbDateTimeEditC1ERK5QTimeP13QGraphicsItem @ 2362 NONAME ABSENT
	_ZN14HbDateTimeEditC1ERK9QDateTimeP13QGraphicsItem @ 2363 NONAME ABSENT
	_ZN14HbDateTimeEditC2ERK5QDateP13QGraphicsItem @ 2364 NONAME ABSENT
	_ZN14HbDateTimeEditC2ERK5QTimeP13QGraphicsItem @ 2365 NONAME ABSENT
	_ZN14HbDateTimeEditC2ERK9QDateTimeP13QGraphicsItem @ 2366 NONAME ABSENT
	_ZN14HbGridViewItem10createItemEv @ 2367 NONAME
	_ZN14HbGridViewItem11qt_metacallEN11QMetaObject4CallEiPPv @ 2368 NONAME
	_ZN14HbGridViewItem11qt_metacastEPKc @ 2369 NONAME
	_ZN14HbGridViewItem16staticMetaObjectE @ 2370 NONAME DATA 16
	_ZN14HbGridViewItem16updateChildItemsEv @ 2371 NONAME
	_ZN14HbGridViewItem16updatePrimitivesEv @ 2372 NONAME
	_ZN14HbGridViewItem19getStaticMetaObjectEv @ 2373 NONAME
	_ZN14HbGridViewItemC1EP13QGraphicsItem @ 2374 NONAME
	_ZN14HbGridViewItemC1ER21HbGridViewItemPrivateP13QGraphicsItem @ 2375 NONAME
	_ZN14HbGridViewItemC1ERKS_ @ 2376 NONAME
	_ZN14HbGridViewItemC2EP13QGraphicsItem @ 2377 NONAME
	_ZN14HbGridViewItemC2ER21HbGridViewItemPrivateP13QGraphicsItem @ 2378 NONAME
	_ZN14HbGridViewItemC2ERKS_ @ 2379 NONAME
	_ZN14HbGridViewItemD0Ev @ 2380 NONAME
	_ZN14HbGridViewItemD1Ev @ 2381 NONAME
	_ZN14HbGridViewItemD2Ev @ 2382 NONAME
	_ZN14HbGridViewItemaSERKS_ @ 2383 NONAME
	_ZN14HbListViewItem10createItemEv @ 2384 NONAME
	_ZN14HbListViewItem11qt_metacallEN11QMetaObject4CallEiPPv @ 2385 NONAME
	_ZN14HbListViewItem11qt_metacastEPKc @ 2386 NONAME
	_ZN14HbListViewItem13setTextFormatEN2Qt10TextFormatE @ 2387 NONAME
	_ZN14HbListViewItem16staticMetaObjectE @ 2388 NONAME DATA 16
	_ZN14HbListViewItem16updateChildItemsEv @ 2389 NONAME
	_ZN14HbListViewItem16updatePrimitivesEv @ 2390 NONAME
	_ZN14HbListViewItem19getStaticMetaObjectEv @ 2391 NONAME
	_ZN14HbListViewItemC1EP13QGraphicsItem @ 2392 NONAME
	_ZN14HbListViewItemC1ER21HbListViewItemPrivateP13QGraphicsItem @ 2393 NONAME
	_ZN14HbListViewItemC1ERKS_ @ 2394 NONAME
	_ZN14HbListViewItemC2EP13QGraphicsItem @ 2395 NONAME
	_ZN14HbListViewItemC2ER21HbListViewItemPrivateP13QGraphicsItem @ 2396 NONAME
	_ZN14HbListViewItemC2ERKS_ @ 2397 NONAME
	_ZN14HbListViewItemD0Ev @ 2398 NONAME
	_ZN14HbListViewItemD1Ev @ 2399 NONAME
	_ZN14HbListViewItemD2Ev @ 2400 NONAME
	_ZN14HbListViewItemaSERKS_ @ 2401 NONAME
	_ZN14HbRatingSlider10ratingDoneEi @ 2402 NONAME
	_ZN14HbRatingSlider11changeEventEP6QEvent @ 2403 NONAME
	_ZN14HbRatingSlider12setStepCountEi @ 2404 NONAME
	_ZN14HbRatingSlider16setCurrentRatingEi @ 2405 NONAME
	_ZN14HbRatingSlider16setNumberOfIconsEi @ 2406 NONAME
	_ZN14HbRatingSlider16setRatedIconNameE7QString @ 2407 NONAME
	_ZN14HbRatingSlider16updatePrimitivesEv @ 2408 NONAME
	_ZN14HbRatingSlider18setUnRatedIconNameE7QString @ 2409 NONAME
	_ZN14HbTreeViewItem10createItemEv @ 2410 NONAME
	_ZN14HbTreeViewItem11qt_metacallEN11QMetaObject4CallEiPPv @ 2411 NONAME
	_ZN14HbTreeViewItem11qt_metacastEPKc @ 2412 NONAME
	_ZN14HbTreeViewItem11setExpandedEb @ 2413 NONAME
	_ZN14HbTreeViewItem15mousePressEventEP24QGraphicsSceneMouseEvent @ 2414 NONAME ABSENT
	_ZN14HbTreeViewItem16staticMetaObjectE @ 2415 NONAME DATA 16
	_ZN14HbTreeViewItem16updateChildItemsEv @ 2416 NONAME
	_ZN14HbTreeViewItem16updateExpandItemEv @ 2417 NONAME ABSENT
	_ZN14HbTreeViewItem16updatePrimitivesEv @ 2418 NONAME
	_ZN14HbTreeViewItem17mouseReleaseEventEP24QGraphicsSceneMouseEvent @ 2419 NONAME ABSENT
	_ZN14HbTreeViewItem19getStaticMetaObjectEv @ 2420 NONAME
	_ZN14HbTreeViewItem8setStateERK4QMapIi8QVariantE @ 2421 NONAME ABSENT
	_ZN14HbTreeViewItemC1EP13QGraphicsItem @ 2422 NONAME
	_ZN14HbTreeViewItemC1ER21HbTreeViewItemPrivateP13QGraphicsItem @ 2423 NONAME
	_ZN14HbTreeViewItemC1ERKS_ @ 2424 NONAME
	_ZN14HbTreeViewItemC2EP13QGraphicsItem @ 2425 NONAME
	_ZN14HbTreeViewItemC2ER21HbTreeViewItemPrivateP13QGraphicsItem @ 2426 NONAME
	_ZN14HbTreeViewItemC2ERKS_ @ 2427 NONAME
	_ZN14HbTreeViewItemD0Ev @ 2428 NONAME
	_ZN14HbTreeViewItemD1Ev @ 2429 NONAME
	_ZN14HbTreeViewItemD2Ev @ 2430 NONAME
	_ZN14HbTreeViewItemaSERKS_ @ 2431 NONAME
	_ZN15HbItemHighlight11eventFilterEP7QObjectP6QEvent @ 2432 NONAME ABSENT
	_ZN15HbItemHighlight11qt_metacallEN11QMetaObject4CallEiPPv @ 2433 NONAME ABSENT
	_ZN15HbItemHighlight11qt_metacastEPKc @ 2434 NONAME ABSENT
	_ZN15HbItemHighlight11setDurationEi @ 2435 NONAME ABSENT
	_ZN15HbItemHighlight11setDurationEiNS_13HighlightModeE @ 2436 NONAME ABSENT
	_ZN15HbItemHighlight14animateVisibleEP15QGraphicsWidget @ 2437 NONAME ABSENT
	_ZN15HbItemHighlight16animateTransientEP15QGraphicsWidget @ 2438 NONAME ABSENT
	_ZN15HbItemHighlight16setHighlightModeENS_13HighlightModeE @ 2439 NONAME ABSENT
	_ZN15HbItemHighlight16staticMetaObjectE @ 2440 NONAME DATA 16 ABSENT
	_ZN15HbItemHighlight19getStaticMetaObjectEv @ 2441 NONAME ABSENT
	_ZN15HbItemHighlight5eventEP6QEvent @ 2442 NONAME ABSENT
	_ZN15HbItemHighlight7restoreEP15QGraphicsWidget @ 2443 NONAME ABSENT
	_ZN15HbItemHighlight9setTargetEP15QGraphicsWidget @ 2444 NONAME ABSENT
	_ZN15HbItemHighlightC1ENS_13HighlightModeEP13QGraphicsItem @ 2445 NONAME ABSENT
	_ZN15HbItemHighlightC1EP13QGraphicsItem @ 2446 NONAME ABSENT
	_ZN15HbItemHighlightC2ENS_13HighlightModeEP13QGraphicsItem @ 2447 NONAME ABSENT
	_ZN15HbItemHighlightC2EP13QGraphicsItem @ 2448 NONAME ABSENT
	_ZN15HbItemHighlightD0Ev @ 2449 NONAME ABSENT
	_ZN15HbItemHighlightD1Ev @ 2450 NONAME ABSENT
	_ZN15HbItemHighlightD2Ev @ 2451 NONAME ABSENT
	_ZN16HbListWidgetItem10setEnabledEb @ 2452 NONAME
	_ZN16HbListWidgetItem16setSecondaryTextERK7QString @ 2453 NONAME
	_ZN16HbListWidgetItem17setDecorationIconERK6HbIcon @ 2454 NONAME ABSENT
	_ZN16HbListWidgetItem17setDecorationTextERK7QString @ 2455 NONAME ABSENT
	_ZN16HbListWidgetItem26setSecondaryDecorationIconERK6HbIcon @ 2456 NONAME ABSENT
	_ZN16HbListWidgetItem26setSecondaryDecorationTextERK7QString @ 2457 NONAME ABSENT
	_ZN16HbListWidgetItem7setDataERK8QVarianti @ 2458 NONAME
	_ZN16HbListWidgetItem7setTextERK7QString @ 2459 NONAME
	_ZN16HbListWidgetItemC1Ei @ 2460 NONAME
	_ZN16HbListWidgetItemC2Ei @ 2461 NONAME
	_ZN16HbListWidgetItemD0Ev @ 2462 NONAME
	_ZN16HbListWidgetItemD1Ev @ 2463 NONAME
	_ZN16HbListWidgetItemD2Ev @ 2464 NONAME
	_ZN17HbListViewPrivate17moveDraggedItemToERK7QPointF @ 2465 NONAME ABSENT
	_ZN17HbListViewPrivate4initEv @ 2466 NONAME ABSENT
	_ZN17HbListViewPrivateC1Ev @ 2467 NONAME ABSENT
	_ZN17HbListViewPrivateC2Ev @ 2468 NONAME ABSENT
	_ZN17HbListViewPrivateD0Ev @ 2469 NONAME ABSENT
	_ZN17HbListViewPrivateD1Ev @ 2470 NONAME ABSENT
	_ZN17HbListViewPrivateD2Ev @ 2471 NONAME ABSENT
	_ZN18HbAbstractItemView10itemChangeEN13QGraphicsItem18GraphicsItemChangeERK8QVariant @ 2472 NONAME
	_ZN18HbAbstractItemView10panGestureERK7QPointF @ 2473 NONAME ABSENT
	_ZN18HbAbstractItemView11dataChangedERK11QModelIndexS2_ @ 2474 NONAME
	_ZN18HbAbstractItemView11downGestureEi @ 2475 NONAME ABSENT
	_ZN18HbAbstractItemView11emitPressedERK11QModelIndex @ 2476 NONAME
	_ZN18HbAbstractItemView11leftGestureEi @ 2477 NONAME ABSENT
	_ZN18HbAbstractItemView11longPressedEP18HbAbstractViewItemRK7QPointF @ 2478 NONAME
	_ZN18HbAbstractItemView11qt_metacallEN11QMetaObject4CallEiPPv @ 2479 NONAME
	_ZN18HbAbstractItemView11qt_metacastEPKc @ 2480 NONAME
	_ZN18HbAbstractItemView11rowsRemovedERK11QModelIndexii @ 2481 NONAME
	_ZN18HbAbstractItemView12emitReleasedERK11QModelIndex @ 2482 NONAME
	_ZN18HbAbstractItemView12rightGestureEi @ 2483 NONAME ABSENT
	_ZN18HbAbstractItemView12rowsInsertedERK11QModelIndexii @ 2484 NONAME
	_ZN18HbAbstractItemView12setRootIndexERK11QModelIndex @ 2485 NONAME
	_ZN18HbAbstractItemView13emitActivatedERK11QModelIndex @ 2486 NONAME
	_ZN18HbAbstractItemView13focusOutEventEP11QFocusEvent @ 2487 NONAME ABSENT
	_ZN18HbAbstractItemView13keyPressEventEP9QKeyEvent @ 2488 NONAME ABSENT
	_ZN18HbAbstractItemView13setBufferSizeEi @ 2489 NONAME ABSENT
	_ZN18HbAbstractItemView13setLayoutNameERK7QString @ 2490 NONAME
	_ZN18HbAbstractItemView14clearSelectionEv @ 2491 NONAME
	_ZN18HbAbstractItemView14columnsRemovedERK11QModelIndexii @ 2492 NONAME
	_ZN18HbAbstractItemView14mouseMoveEventEP24QGraphicsSceneMouseEvent @ 2493 NONAME ABSENT
	_ZN18HbAbstractItemView14scrollByAmountERK7QPointF @ 2494 NONAME
	_ZN18HbAbstractItemView15columnsInsertedERK11QModelIndexii @ 2495 NONAME
	_ZN18HbAbstractItemView15keyReleaseEventEP9QKeyEvent @ 2496 NONAME ABSENT
	_ZN18HbAbstractItemView15mousePressEventEP24QGraphicsSceneMouseEvent @ 2497 NONAME ABSENT
	_ZN18HbAbstractItemView15setCurrentIndexERK11QModelIndex6QFlagsIN19QItemSelectionModel13SelectionFlagEE @ 2498 NONAME
	_ZN18HbAbstractItemView16longPressGestureERK7QPointF @ 2499 NONAME ABSENT
	_ZN18HbAbstractItemView16selectionCommandEPK18HbAbstractViewItemPK6QEventb @ 2500 NONAME ABSENT
	_ZN18HbAbstractItemView16setHighlightModeEN15HbItemHighlight13HighlightModeE @ 2501 NONAME ABSENT
	_ZN18HbAbstractItemView16setItemPrototypeEP18HbAbstractViewItem @ 2502 NONAME
	_ZN18HbAbstractItemView16setItemRecyclingEb @ 2503 NONAME
	_ZN18HbAbstractItemView16setSelectionModeENS_13SelectionModeEb @ 2504 NONAME ABSENT
	_ZN18HbAbstractItemView16staticMetaObjectE @ 2505 NONAME DATA 16
	_ZN18HbAbstractItemView17mouseReleaseEventEP24QGraphicsSceneMouseEvent @ 2506 NONAME ABSENT
	_ZN18HbAbstractItemView17setItemPrototypesERK5QListIP18HbAbstractViewItemE @ 2507 NONAME
	_ZN18HbAbstractItemView17setSelectionModelEP19QItemSelectionModel @ 2508 NONAME
	_ZN18HbAbstractItemView18orientationChangedEN2Qt11OrientationE @ 2509 NONAME
	_ZN18HbAbstractItemView19currentIndexChangedERK11QModelIndexS2_ @ 2510 NONAME
	_ZN18HbAbstractItemView19getStaticMetaObjectEv @ 2511 NONAME
	_ZN18HbAbstractItemView19setUniformItemSizesEb @ 2512 NONAME
	_ZN18HbAbstractItemView20rowsAboutToBeRemovedERK11QModelIndexii @ 2513 NONAME
	_ZN18HbAbstractItemView21rowsAboutToBeInsertedERK11QModelIndexii @ 2514 NONAME
	_ZN18HbAbstractItemView23columnsAboutToBeRemovedERK11QModelIndexii @ 2515 NONAME
	_ZN18HbAbstractItemView23currentSelectionChangedERK14QItemSelectionS2_ @ 2516 NONAME
	_ZN18HbAbstractItemView24columnsAboutToBeInsertedERK11QModelIndexii @ 2517 NONAME
	_ZN18HbAbstractItemView27orientationAboutToBeChangedEv @ 2518 NONAME
	_ZN18HbAbstractItemView5eventEP6QEvent @ 2519 NONAME
	_ZN18HbAbstractItemView5resetEv @ 2520 NONAME
	_ZN18HbAbstractItemView7pressedERK11QModelIndex @ 2521 NONAME
	_ZN18HbAbstractItemView8releasedERK11QModelIndex @ 2522 NONAME
	_ZN18HbAbstractItemView8setModelEP18QAbstractItemModelP18HbAbstractViewItem @ 2523 NONAME
	_ZN18HbAbstractItemView9activatedERK11QModelIndex @ 2524 NONAME
	_ZN18HbAbstractItemView9selectAllEv @ 2525 NONAME
	_ZN18HbAbstractItemView9upGestureEi @ 2526 NONAME ABSENT
	_ZN18HbAbstractItemViewC2ER25HbAbstractItemViewPrivateP23HbAbstractItemContainerP13QGraphicsItem @ 2527 NONAME ABSENT
	_ZN18HbAbstractItemViewD0Ev @ 2528 NONAME
	_ZN18HbAbstractItemViewD1Ev @ 2529 NONAME
	_ZN18HbAbstractItemViewD2Ev @ 2530 NONAME
	_ZN18HbAbstractViewItem10setPressedEbb @ 2531 NONAME ABSENT
	_ZN18HbAbstractViewItem11qt_metacallEN11QMetaObject4CallEiPPv @ 2532 NONAME
	_ZN18HbAbstractViewItem11qt_metacastEPKc @ 2533 NONAME
	_ZN18HbAbstractViewItem11setItemViewEP18HbAbstractItemView @ 2534 NONAME
	_ZN18HbAbstractViewItem13receivedFocusEv @ 2535 NONAME ABSENT
	_ZN18HbAbstractViewItem13setCheckStateEN2Qt10CheckStateE @ 2536 NONAME
	_ZN18HbAbstractViewItem13setModelIndexERK11QModelIndex @ 2537 NONAME
	_ZN18HbAbstractViewItem14mouseMoveEventEP24QGraphicsSceneMouseEvent @ 2538 NONAME ABSENT
	_ZN18HbAbstractViewItem15mousePressEventEP24QGraphicsSceneMouseEvent @ 2539 NONAME ABSENT
	_ZN18HbAbstractViewItem15setDefaultFrameERK17HbFrameBackground @ 2540 NONAME
	_ZN18HbAbstractViewItem16staticMetaObjectE @ 2541 NONAME DATA 16
	_ZN18HbAbstractViewItem16updateChildItemsEv @ 2542 NONAME
	_ZN18HbAbstractViewItem16updatePrimitivesEv @ 2543 NONAME
	_ZN18HbAbstractViewItem17mouseReleaseEventEP24QGraphicsSceneMouseEvent @ 2544 NONAME ABSENT
	_ZN18HbAbstractViewItem17pressStateChangedEb @ 2545 NONAME ABSENT
	_ZN18HbAbstractViewItem19getStaticMetaObjectEv @ 2546 NONAME
	_ZN18HbAbstractViewItem19updateSelectionItemERK29HbStyleOptionAbstractViewItem @ 2547 NONAME ABSENT
	_ZN18HbAbstractViewItem5eventEP6QEvent @ 2548 NONAME
	_ZN18HbAbstractViewItem6polishER17HbStyleParameters @ 2549 NONAME
	_ZN18HbAbstractViewItem8setStateERK4QMapIi8QVariantE @ 2550 NONAME ABSENT
	_ZN18HbAbstractViewItem9lostFocusEv @ 2551 NONAME ABSENT
	_ZN18HbAbstractViewItemC2EP13QGraphicsItem @ 2552 NONAME
	_ZN18HbAbstractViewItemC2ER25HbAbstractViewItemPrivateP13QGraphicsItem @ 2553 NONAME
	_ZN18HbAbstractViewItemC2ERKS_ @ 2554 NONAME
	_ZN18HbAbstractViewItemD0Ev @ 2555 NONAME
	_ZN18HbAbstractViewItemD1Ev @ 2556 NONAME
	_ZN18HbAbstractViewItemD2Ev @ 2557 NONAME
	_ZN18HbAbstractViewItemaSERKS_ @ 2558 NONAME
	_ZN19HbListItemContainer11itemRemovedEP18HbAbstractViewItem @ 2559 NONAME ABSENT
	_ZN19HbListItemContainer11viewResizedERK6QSizeF @ 2560 NONAME ABSENT
	_ZN19HbListItemContainer12recycleItemsERK7QPointF @ 2561 NONAME ABSENT
	_ZN19HbListItemContainer9itemAddedEiP18HbAbstractViewItem @ 2562 NONAME ABSENT
	_ZN19HbListItemContainerC1EP13QGraphicsItem @ 2563 NONAME ABSENT
	_ZN19HbListItemContainerC1ER26HbListItemContainerPrivateP13QGraphicsItem @ 2564 NONAME ABSENT
	_ZN19HbListItemContainerC2EP13QGraphicsItem @ 2565 NONAME ABSENT
	_ZN19HbListItemContainerC2ER26HbListItemContainerPrivateP13QGraphicsItem @ 2566 NONAME ABSENT
	_ZN19HbListItemContainerD0Ev @ 2567 NONAME ABSENT
	_ZN19HbListItemContainerD1Ev @ 2568 NONAME ABSENT
	_ZN19HbListItemContainerD2Ev @ 2569 NONAME ABSENT
	_ZN19HbProgressiveSlider10itemChangeEN13QGraphicsItem18GraphicsItemChangeERK8QVariant @ 2570 NONAME ABSENT
	_ZN19HbProgressiveSlider11qt_metacallEN11QMetaObject4CallEiPPv @ 2571 NONAME ABSENT
	_ZN19HbProgressiveSlider11qt_metacastEPKc @ 2572 NONAME ABSENT
	_ZN19HbProgressiveSlider11resizeEventEP25QGraphicsSceneResizeEvent @ 2573 NONAME ABSENT
	_ZN19HbProgressiveSlider11setGeometryERK6QRectF @ 2574 NONAME ABSENT
	_ZN19HbProgressiveSlider11setTrackingEb @ 2575 NONAME ABSENT
	_ZN19HbProgressiveSlider11sliderMovedEi @ 2576 NONAME ABSENT
	_ZN19HbProgressiveSlider12setThumbIconERK6HbIcon @ 2577 NONAME ABSENT
	_ZN19HbProgressiveSlider12setThumbItemEP15QGraphicsWidget @ 2578 NONAME ABSENT
	_ZN19HbProgressiveSlider13sliderPressedEv @ 2579 NONAME ABSENT
	_ZN19HbProgressiveSlider14setSliderValueEi @ 2580 NONAME ABSENT
	_ZN19HbProgressiveSlider14sliderReleasedEv @ 2581 NONAME ABSENT
	_ZN19HbProgressiveSlider15mousePressEventEP24QGraphicsSceneMouseEvent @ 2582 NONAME ABSENT
	_ZN19HbProgressiveSlider16setHandleToolTipERK7QString @ 2583 NONAME ABSENT
	_ZN19HbProgressiveSlider16staticMetaObjectE @ 2584 NONAME DATA 16 ABSENT
	_ZN19HbProgressiveSlider16updatePrimitivesEv @ 2585 NONAME ABSENT
	_ZN19HbProgressiveSlider17mouseReleaseEventEP24QGraphicsSceneMouseEvent @ 2586 NONAME ABSENT
	_ZN19HbProgressiveSlider18sliderValueChangedEi @ 2587 NONAME ABSENT
	_ZN19HbProgressiveSlider19getStaticMetaObjectEv @ 2588 NONAME ABSENT
	_ZN19HbProgressiveSlider21setInvertedAppearanceEb @ 2589 NONAME ABSENT
	_ZN19HbProgressiveSlider9showEventEP10QShowEvent @ 2590 NONAME ABSENT
	_ZN19HbProgressiveSliderC1EP13QGraphicsItem @ 2591 NONAME ABSENT
	_ZN19HbProgressiveSliderC1ER26HbProgressiveSliderPrivateP13QGraphicsItem @ 2592 NONAME ABSENT
	_ZN19HbProgressiveSliderC2EP13QGraphicsItem @ 2593 NONAME ABSENT
	_ZN19HbProgressiveSliderC2ER26HbProgressiveSliderPrivateP13QGraphicsItem @ 2594 NONAME ABSENT
	_ZN19HbProgressiveSliderD0Ev @ 2595 NONAME ABSENT
	_ZN19HbProgressiveSliderD1Ev @ 2596 NONAME ABSENT
	_ZN19HbProgressiveSliderD2Ev @ 2597 NONAME ABSENT
	_ZN21HbGridViewItemPrivate14updateIconItemERK17HbGridViewPrivate @ 2598 NONAME ABSENT
	_ZN21HbGridViewItemPrivate14updateTextItemERK17HbGridViewPrivate @ 2599 NONAME ABSENT
	_ZN21HbGridViewItemPrivate4iconERK8QVariant @ 2600 NONAME ABSENT
	_ZN21HbGridViewItemPrivate4initEv @ 2601 NONAME ABSENT
	_ZN21HbGridViewItemPrivate4textERK8QVariant @ 2602 NONAME ABSENT
	_ZN21HbGridViewItemPrivateC1EP18HbAbstractViewItem @ 2603 NONAME ABSENT
	_ZN21HbGridViewItemPrivateC2EP18HbAbstractViewItem @ 2604 NONAME ABSENT
	_ZN21HbGridViewItemPrivateD0Ev @ 2605 NONAME ABSENT
	_ZN21HbGridViewItemPrivateD1Ev @ 2606 NONAME ABSENT
	_ZN21HbGridViewItemPrivateD2Ev @ 2607 NONAME ABSENT
	_ZN21HbListViewItemPrivate14setDisplayRoleE7QStringi @ 2608 NONAME ABSENT
	_ZN21HbListViewItemPrivate17setDecorationRoleE8QVarianti @ 2609 NONAME ABSENT
	_ZN21HbListViewItemPrivate4initEv @ 2610 NONAME ABSENT
	_ZN21HbListViewItemPrivateC1EP14HbListViewItem @ 2611 NONAME ABSENT
	_ZN21HbListViewItemPrivateC1ERKS_ @ 2612 NONAME ABSENT
	_ZN21HbListViewItemPrivateC2EP14HbListViewItem @ 2613 NONAME ABSENT
	_ZN21HbListViewItemPrivateC2ERKS_ @ 2614 NONAME ABSENT
	_ZN21HbListViewItemPrivateD0Ev @ 2615 NONAME ABSENT
	_ZN21HbListViewItemPrivateD1Ev @ 2616 NONAME ABSENT
	_ZN21HbListViewItemPrivateD2Ev @ 2617 NONAME ABSENT
	_ZN21HbListViewItemPrivateaSERKS_ @ 2618 NONAME ABSENT
	_ZN23HbAbstractItemContainer10insertItemEiRK11QModelIndex @ 2619 NONAME ABSENT
	_ZN23HbAbstractItemContainer10itemChangeEN13QGraphicsItem18GraphicsItemChangeERK8QVariant @ 2620 NONAME
	_ZN23HbAbstractItemContainer10removeItemERK11QModelIndex @ 2621 NONAME ABSENT
	_ZN23HbAbstractItemContainer10removeItemEi @ 2622 NONAME ABSENT
	_ZN23HbAbstractItemContainer11eventFilterEP7QObjectP6QEvent @ 2623 NONAME
	_ZN23HbAbstractItemContainer11qt_metacallEN11QMetaObject4CallEiPPv @ 2624 NONAME
	_ZN23HbAbstractItemContainer11qt_metacastEPKc @ 2625 NONAME
	_ZN23HbAbstractItemContainer11removeItemsEv @ 2626 NONAME
	_ZN23HbAbstractItemContainer11setItemViewEP18HbAbstractItemView @ 2627 NONAME
	_ZN23HbAbstractItemContainer12recycleItemsERK7QPointF @ 2628 NONAME
	_ZN23HbAbstractItemContainer12setItemStateERK11QModelIndex4QMapIi8QVariantE @ 2629 NONAME ABSENT
	_ZN23HbAbstractItemContainer13setBufferSizeEi @ 2630 NONAME ABSENT
	_ZN23HbAbstractItemContainer15setModelIndexesERK11QModelIndex @ 2631 NONAME
	_ZN23HbAbstractItemContainer16removeItemStatesEv @ 2632 NONAME ABSENT
	_ZN23HbAbstractItemContainer16setItemPrototypeEP18HbAbstractViewItem @ 2633 NONAME
	_ZN23HbAbstractItemContainer16setItemRecyclingEb @ 2634 NONAME
	_ZN23HbAbstractItemContainer16staticMetaObjectE @ 2635 NONAME DATA 16
	_ZN23HbAbstractItemContainer17setItemModelIndexEP18HbAbstractViewItemRK11QModelIndex @ 2636 NONAME
	_ZN23HbAbstractItemContainer17setItemPrototypesERK5QListIP18HbAbstractViewItemE @ 2637 NONAME
	_ZN23HbAbstractItemContainer17setItemStateValueERK11QModelIndexi8QVariant @ 2638 NONAME ABSENT
	_ZN23HbAbstractItemContainer19getStaticMetaObjectEv @ 2639 NONAME
	_ZN23HbAbstractItemContainer19setUniformItemSizesEb @ 2640 NONAME
	_ZN23HbAbstractItemContainer5eventEP6QEvent @ 2641 NONAME
	_ZN23HbAbstractItemContainer5resetEv @ 2642 NONAME
	_ZN23HbAbstractItemContainer7addItemERK11QModelIndex @ 2643 NONAME ABSENT
	_ZN23HbAbstractItemContainerC2EP13QGraphicsItem @ 2644 NONAME
	_ZN23HbAbstractItemContainerC2ER30HbAbstractItemContainerPrivateP13QGraphicsItem @ 2645 NONAME
	_ZN23HbAbstractItemContainerD0Ev @ 2646 NONAME
	_ZN23HbAbstractItemContainerD1Ev @ 2647 NONAME
	_ZN23HbAbstractItemContainerD2Ev @ 2648 NONAME
	_ZN25HbAbstractItemViewPrivate10revealItemEPK18HbAbstractViewItemN17QAbstractItemView10ScrollHintE @ 2649 NONAME ABSENT
	_ZN25HbAbstractItemViewPrivate11scrollToTopEPK18HbAbstractViewItem @ 2650 NONAME ABSENT
	_ZN25HbAbstractItemViewPrivate11updateItemsEv @ 2651 NONAME ABSENT
	_ZN25HbAbstractItemViewPrivate13scrollByItemsEbi @ 2652 NONAME ABSENT
	_ZN25HbAbstractItemViewPrivate14pixelsToScrollEPK18HbAbstractViewItemN17QAbstractItemView10ScrollHintE @ 2653 NONAME ABSENT
	_ZN25HbAbstractItemViewPrivate15handleScrollBarEN2Qt11OrientationE @ 2654 NONAME ABSENT
	_ZN25HbAbstractItemViewPrivate15updateScrollBarEN2Qt11OrientationE @ 2655 NONAME ABSENT
	_ZN25HbAbstractItemViewPrivate16_q_layoutChangedEv @ 2656 NONAME ABSENT
	_ZN25HbAbstractItemViewPrivate17_q_modelDestroyedEv @ 2657 NONAME ABSENT
	_ZN25HbAbstractItemViewPrivate17clearCurrentModelEv @ 2658 NONAME ABSENT
	_ZN25HbAbstractItemViewPrivate17setSelectionModelEP19QItemSelectionModel @ 2659 NONAME ABSENT
	_ZN25HbAbstractItemViewPrivate18initializeNewModelEv @ 2660 NONAME ABSENT
	_ZN25HbAbstractItemViewPrivate19setScrollBarMetricsEN2Qt11OrientationE @ 2661 NONAME ABSENT
	_ZN25HbAbstractItemViewPrivate21multiSelectionCommandEPK18HbAbstractViewItemPK6QEvent @ 2662 NONAME ABSENT
	_ZN25HbAbstractItemViewPrivate23resetContiguousSettingsEv @ 2663 NONAME ABSENT
	_ZN25HbAbstractItemViewPrivate24refreshContainerGeometryEv @ 2664 NONAME ABSENT
	_ZN25HbAbstractItemViewPrivate26contiguousSelectionCommandEPK18HbAbstractViewItemPK6QEventb @ 2665 NONAME ABSENT
	_ZN25HbAbstractItemViewPrivate35updateScrollBarForUniformSizedItemsEv @ 2666 NONAME ABSENT
	_ZN25HbAbstractItemViewPrivate36updateScrollBarForVariableSizedItemsEv @ 2667 NONAME ABSENT
	_ZN25HbAbstractItemViewPrivate38saveIndexMadeVisibleAfterMetricsChangeEv @ 2668 NONAME ABSENT
	_ZN25HbAbstractItemViewPrivate4initEP23HbAbstractItemContainer @ 2669 NONAME ABSENT
	_ZN25HbAbstractItemViewPrivate8setModelEP18QAbstractItemModel @ 2670 NONAME ABSENT
	_ZN25HbAbstractItemViewPrivateC1Ev @ 2671 NONAME ABSENT
	_ZN25HbAbstractItemViewPrivateC2Ev @ 2672 NONAME ABSENT
	_ZN25HbAbstractItemViewPrivateD0Ev @ 2673 NONAME ABSENT
	_ZN25HbAbstractItemViewPrivateD1Ev @ 2674 NONAME ABSENT
	_ZN25HbAbstractItemViewPrivateD2Ev @ 2675 NONAME ABSENT
	_ZN25HbAbstractViewItemPrivate27_q_releaseAnimationFinishedERKN8HbEffect12EffectStatusE @ 2676 NONAME ABSENT
	_ZN25HbAbstractViewItemPrivate4initEv @ 2677 NONAME ABSENT
	_ZNK10HbGridView10metaObjectEv @ 2678 NONAME
	_ZNK10HbGridView11columnCountEv @ 2679 NONAME
	_ZNK10HbGridView11iconVisibleEv @ 2680 NONAME
	_ZNK10HbGridView11textVisibleEv @ 2681 NONAME
	_ZNK10HbGridView6itemAtEi @ 2682 NONAME ABSENT
	_ZNK10HbGridView6itemAtEii @ 2683 NONAME
	_ZNK10HbGridView8rowCountEv @ 2684 NONAME
	_ZNK10HbListView10metaObjectEv @ 2685 NONAME
	_ZNK10HbListView11arrangeModeEv @ 2686 NONAME
	_ZNK10HbListView4typeEv @ 2687 NONAME
	_ZNK10HbListView8viewItemEi @ 2688 NONAME
	_ZNK10HbTreeView10indexCountEv @ 2689 NONAME ABSENT
	_ZNK10HbTreeView10isExpandedERK11QModelIndex @ 2690 NONAME
	_ZNK10HbTreeView10metaObjectEv @ 2691 NONAME
	_ZNK10HbTreeView13indexPositionERK11QModelIndex @ 2692 NONAME ABSENT
	_ZNK10HbTreeView13previousIndexERK11QModelIndex @ 2693 NONAME ABSENT
	_ZNK10HbTreeView9nextIndexERK11QModelIndex @ 2694 NONAME ABSENT
	_ZNK11HbListModel10metaObjectEv @ 2695 NONAME
	_ZNK11HbListModel4dataERK11QModelIndexi @ 2696 NONAME
	_ZNK11HbListModel4itemEi @ 2697 NONAME
	_ZNK11HbListModel5flagsERK11QModelIndex @ 2698 NONAME
	_ZNK11HbListModel5indexEP16HbListWidgetItem @ 2699 NONAME
	_ZNK11HbListModel5indexEiiRK11QModelIndex @ 2700 NONAME
	_ZNK11HbListModel8rowCountERK11QModelIndex @ 2701 NONAME
	_ZNK12HbListWidget10currentRowEv @ 2702 NONAME
	_ZNK12HbListWidget10metaObjectEv @ 2703 NONAME
	_ZNK12HbListWidget11currentItemEv @ 2704 NONAME
	_ZNK12HbListWidget3rowEPK16HbListWidgetItem @ 2705 NONAME
	_ZNK12HbListWidget4itemEi @ 2706 NONAME
	_ZNK12HbListWidget5countEv @ 2707 NONAME
	_ZNK12HbTreeLayout11indentationEv @ 2708 NONAME
	_ZNK12HbTreeLayout5countEv @ 2709 NONAME
	_ZNK12HbTreeLayout6itemAtEi @ 2710 NONAME
	_ZNK12HbTreeLayout7indexOfEP19QGraphicsLayoutItem @ 2711 NONAME
	_ZNK12HbTreeLayout8sizeHintEN2Qt8SizeHintERK6QSizeF @ 2712 NONAME
	_ZNK13HbInputDialog8echoModeEi @ 2713 NONAME
	_ZNK14HbGridViewItem10metaObjectEv @ 2714 NONAME
	_ZNK14HbGridViewItem15initStyleOptionEP25HbStyleOptionGridViewItem @ 2715 NONAME ABSENT
	_ZNK14HbGridViewItem23contiguousSelectionAreaEv @ 2716 NONAME ABSENT
	_ZNK14HbGridViewItem4typeEv @ 2717 NONAME
	_ZNK14HbGridViewItem5shapeEv @ 2718 NONAME
	_ZNK14HbGridViewItem9primitiveEN7HbStyle9PrimitiveE @ 2719 NONAME ABSENT
	_ZNK14HbListViewItem10metaObjectEv @ 2720 NONAME
	_ZNK14HbListViewItem10textFormatEv @ 2721 NONAME
	_ZNK14HbListViewItem23contiguousSelectionAreaEv @ 2722 NONAME ABSENT
	_ZNK14HbListViewItem4typeEv @ 2723 NONAME
	_ZNK14HbRatingSlider13currentRatingEv @ 2724 NONAME
	_ZNK14HbRatingSlider13numberOfIconsEv @ 2725 NONAME
	_ZNK14HbRatingSlider13ratedIconNameEv @ 2726 NONAME
	_ZNK14HbRatingSlider15initStyleOptionEP13HbStyleOption @ 2727 NONAME
	_ZNK14HbRatingSlider15unRatedIconNameEv @ 2728 NONAME
	_ZNK14HbRatingSlider9primitiveEN7HbStyle9PrimitiveE @ 2729 NONAME ABSENT
	_ZNK14HbRatingSlider9stepCountEv @ 2730 NONAME
	_ZNK14HbTreeViewItem10isExpandedEv @ 2731 NONAME
	_ZNK14HbTreeViewItem10metaObjectEv @ 2732 NONAME
	_ZNK14HbTreeViewItem15initStyleOptionEP25HbStyleOptionTreeViewItem @ 2733 NONAME ABSENT
	_ZNK14HbTreeViewItem4typeEv @ 2734 NONAME
	_ZNK14HbTreeViewItem5stateEv @ 2735 NONAME ABSENT
	_ZNK14HbTreeViewItem9primitiveEN7HbStyle9PrimitiveE @ 2736 NONAME ABSENT
	_ZNK15HbDataFormModel12canFetchMoreERK11QModelIndex @ 2737 NONAME
	_ZNK15HbItemHighlight10metaObjectEv @ 2738 NONAME ABSENT
	_ZNK15HbItemHighlight13highlightModeEv @ 2739 NONAME ABSENT
	_ZNK15HbItemHighlight17animationTimeLineEv @ 2740 NONAME ABSENT
	_ZNK15HbItemHighlight4typeEv @ 2741 NONAME ABSENT
	_ZNK15HbItemHighlight6targetEv @ 2742 NONAME ABSENT
	_ZNK15HbItemHighlight8durationENS_13HighlightModeE @ 2743 NONAME ABSENT
	_ZNK15HbItemHighlight8durationEv @ 2744 NONAME ABSENT
	_ZNK16HbListWidgetItem13secondaryTextEv @ 2745 NONAME
	_ZNK16HbListWidgetItem14decorationIconEv @ 2746 NONAME ABSENT
	_ZNK16HbListWidgetItem14decorationTextEv @ 2747 NONAME ABSENT
	_ZNK16HbListWidgetItem23secondaryDecorationIconEv @ 2748 NONAME ABSENT
	_ZNK16HbListWidgetItem23secondaryDecorationTextEv @ 2749 NONAME ABSENT
	_ZNK16HbListWidgetItem4dataEi @ 2750 NONAME
	_ZNK16HbListWidgetItem4textEv @ 2751 NONAME
	_ZNK16HbListWidgetItem4typeEv @ 2752 NONAME
	_ZNK16HbListWidgetItem9isEnabledEv @ 2753 NONAME
	_ZNK18HbAbstractItemView10bufferSizeEv @ 2754 NONAME ABSENT
	_ZNK18HbAbstractItemView10indexCountEv @ 2755 NONAME ABSENT
	_ZNK18HbAbstractItemView10layoutNameEv @ 2756 NONAME
	_ZNK18HbAbstractItemView10metaObjectEv @ 2757 NONAME
	_ZNK18HbAbstractItemView11itemByIndexERK11QModelIndex @ 2758 NONAME
	_ZNK18HbAbstractItemView12currentIndexEv @ 2759 NONAME
	_ZNK18HbAbstractItemView12visibleItemsEv @ 2760 NONAME
	_ZNK18HbAbstractItemView13highlightModeEv @ 2761 NONAME ABSENT
	_ZNK18HbAbstractItemView13indexPositionERK11QModelIndex @ 2762 NONAME ABSENT
	_ZNK18HbAbstractItemView13itemRecyclingEv @ 2763 NONAME
	_ZNK18HbAbstractItemView13previousIndexERK11QModelIndex @ 2764 NONAME ABSENT
	_ZNK18HbAbstractItemView13selectionModeEv @ 2765 NONAME
	_ZNK18HbAbstractItemView14itemAtPositionERK7QPointF @ 2766 NONAME ABSENT
	_ZNK18HbAbstractItemView14itemPrototypesEv @ 2767 NONAME
	_ZNK18HbAbstractItemView14selectionModelEv @ 2768 NONAME
	_ZNK18HbAbstractItemView15currentViewItemEv @ 2769 NONAME
	_ZNK18HbAbstractItemView16uniformItemSizesEv @ 2770 NONAME
	_ZNK18HbAbstractItemView4typeEv @ 2771 NONAME ABSENT
	_ZNK18HbAbstractItemView5modelEv @ 2772 NONAME
	_ZNK18HbAbstractItemView9containerEv @ 2773 NONAME ABSENT
	_ZNK18HbAbstractItemView9highlightEv @ 2774 NONAME ABSENT
	_ZNK18HbAbstractItemView9isVisibleEP18HbAbstractViewItem @ 2775 NONAME ABSENT
	_ZNK18HbAbstractItemView9isVisibleERK11QModelIndex @ 2776 NONAME
	_ZNK18HbAbstractItemView9nextIndexERK11QModelIndex @ 2777 NONAME ABSENT
	_ZNK18HbAbstractItemView9rootIndexEv @ 2778 NONAME
	_ZNK18HbAbstractViewItem10checkStateEv @ 2779 NONAME
	_ZNK18HbAbstractViewItem10metaObjectEv @ 2780 NONAME
	_ZNK18HbAbstractViewItem10modelIndexEv @ 2781 NONAME
	_ZNK18HbAbstractViewItem12defaultFrameEv @ 2782 NONAME
	_ZNK18HbAbstractViewItem15initStyleOptionEP29HbStyleOptionAbstractViewItem @ 2783 NONAME ABSENT
	_ZNK18HbAbstractViewItem16canSetModelIndexERK11QModelIndex @ 2784 NONAME
	_ZNK18HbAbstractViewItem23contiguousSelectionAreaEv @ 2785 NONAME ABSENT
	_ZNK18HbAbstractViewItem4typeEv @ 2786 NONAME ABSENT
	_ZNK18HbAbstractViewItem5stateEv @ 2787 NONAME ABSENT
	_ZNK18HbAbstractViewItem8itemViewEv @ 2788 NONAME
	_ZNK18HbAbstractViewItem8sizeHintEN2Qt8SizeHintERK6QSizeF @ 2789 NONAME
	_ZNK18HbAbstractViewItem9isFocusedEv @ 2790 NONAME ABSENT
	_ZNK18HbAbstractViewItem9isPressedEv @ 2791 NONAME ABSENT
	_ZNK18HbAbstractViewItem9primitiveEN7HbStyle9PrimitiveE @ 2792 NONAME ABSENT
	_ZNK18HbAbstractViewItem9prototypeEv @ 2793 NONAME
	_ZNK19HbListItemContainer12maxItemCountEv @ 2794 NONAME ABSENT
	_ZNK19HbProgressiveSlider10metaObjectEv @ 2795 NONAME ABSENT
	_ZNK19HbProgressiveSlider11hasTrackingEv @ 2796 NONAME ABSENT
	_ZNK19HbProgressiveSlider11sliderValueEv @ 2797 NONAME ABSENT
	_ZNK19HbProgressiveSlider12isSliderDownEv @ 2798 NONAME ABSENT
	_ZNK19HbProgressiveSlider13handleToolTipEv @ 2799 NONAME ABSENT
	_ZNK19HbProgressiveSlider9thumbIconEv @ 2800 NONAME ABSENT
	_ZNK19HbProgressiveSlider9thumbItemEv @ 2801 NONAME ABSENT
	_ZNK21HbGridViewItemPrivate11isIconValidERK8QVariant @ 2802 NONAME ABSENT
	_ZNK21HbGridViewItemPrivate11isTextValidERK8QVariant @ 2803 NONAME ABSENT
	_ZNK23HbAbstractItemContainer10bufferSizeEv @ 2804 NONAME ABSENT
	_ZNK23HbAbstractItemContainer10metaObjectEv @ 2805 NONAME
	_ZNK23HbAbstractItemContainer11itemByIndexERK11QModelIndex @ 2806 NONAME
	_ZNK23HbAbstractItemContainer12maxItemCountEv @ 2807 NONAME
	_ZNK23HbAbstractItemContainer13itemRecyclingEv @ 2808 NONAME
	_ZNK23HbAbstractItemContainer13lastItemIndexEv @ 2809 NONAME ABSENT
	_ZNK23HbAbstractItemContainer14firstItemIndexEv @ 2810 NONAME ABSENT
	_ZNK23HbAbstractItemContainer14itemPrototypesEv @ 2811 NONAME
	_ZNK23HbAbstractItemContainer16uniformItemSizesEv @ 2812 NONAME
	_ZNK23HbAbstractItemContainer29firstAndLastVisibleModelIndexER11QModelIndexS1_b @ 2813 NONAME
	_ZNK23HbAbstractItemContainer4typeEv @ 2814 NONAME ABSENT
	_ZNK23HbAbstractItemContainer5itemsEv @ 2815 NONAME
	_ZNK23HbAbstractItemContainer8itemViewEv @ 2816 NONAME
	_ZNK23HbAbstractItemContainer9itemStateERK11QModelIndex @ 2817 NONAME ABSENT
	_ZNK25HbAbstractItemViewPrivate11currentItemEv @ 2818 NONAME ABSENT
	_ZNK25HbAbstractItemViewPrivate16itemBoundingRectEPK13QGraphicsItem @ 2819 NONAME ABSENT
	_ZNK25HbAbstractItemViewPrivate6itemAtERK7QPointF @ 2820 NONAME ABSENT
	_ZNK25HbAbstractItemViewPrivate7visibleEP18HbAbstractViewItemb @ 2821 NONAME ABSENT
	_ZNK25HbAbstractItemViewPrivate8viewItemEP13QGraphicsItem @ 2822 NONAME ABSENT
	_ZNK25HbAbstractViewItemPrivate13modelItemTypeEv @ 2823 NONAME ABSENT
	_ZTI10HbGridView @ 2824 NONAME
	_ZTI10HbListView @ 2825 NONAME
	_ZTI10HbTreeView @ 2826 NONAME
	_ZTI11HbListModel @ 2827 NONAME
	_ZTI12HbListWidget @ 2828 NONAME
	_ZTI12HbTreeLayout @ 2829 NONAME
	_ZTI14HbGridViewItem @ 2830 NONAME
	_ZTI14HbListViewItem @ 2831 NONAME
	_ZTI14HbTreeViewItem @ 2832 NONAME
	_ZTI15HbItemHighlight @ 2833 NONAME ABSENT
	_ZTI16HbListWidgetItem @ 2834 NONAME
	_ZTI17HbListViewPrivate @ 2835 NONAME ABSENT
	_ZTI18HbAbstractItemView @ 2836 NONAME
	_ZTI18HbAbstractViewItem @ 2837 NONAME
	_ZTI19HbListItemContainer @ 2838 NONAME ABSENT
	_ZTI19HbProgressiveSlider @ 2839 NONAME ABSENT
	_ZTI21HbGridViewItemPrivate @ 2840 NONAME ABSENT
	_ZTI21HbListViewItemPrivate @ 2841 NONAME ABSENT
	_ZTI23HbAbstractItemContainer @ 2842 NONAME
	_ZTI25HbAbstractItemViewPrivate @ 2843 NONAME ABSENT
	_ZTI25HbAbstractViewItemPrivate @ 2844 NONAME ABSENT
	_ZTV10HbGridView @ 2845 NONAME
	_ZTV10HbListView @ 2846 NONAME
	_ZTV10HbTreeView @ 2847 NONAME
	_ZTV11HbListModel @ 2848 NONAME
	_ZTV12HbListWidget @ 2849 NONAME
	_ZTV12HbTreeLayout @ 2850 NONAME
	_ZTV14HbGridViewItem @ 2851 NONAME
	_ZTV14HbListViewItem @ 2852 NONAME
	_ZTV14HbTreeViewItem @ 2853 NONAME
	_ZTV15HbItemHighlight @ 2854 NONAME ABSENT
	_ZTV16HbListWidgetItem @ 2855 NONAME
	_ZTV17HbListViewPrivate @ 2856 NONAME ABSENT
	_ZTV18HbAbstractItemView @ 2857 NONAME
	_ZTV18HbAbstractViewItem @ 2858 NONAME
	_ZTV19HbListItemContainer @ 2859 NONAME ABSENT
	_ZTV19HbProgressiveSlider @ 2860 NONAME ABSENT
	_ZTV21HbGridViewItemPrivate @ 2861 NONAME ABSENT
	_ZTV21HbListViewItemPrivate @ 2862 NONAME ABSENT
	_ZTV23HbAbstractItemContainer @ 2863 NONAME
	_ZTV25HbAbstractItemViewPrivate @ 2864 NONAME ABSENT
	_ZTV25HbAbstractViewItemPrivate @ 2865 NONAME ABSENT
	_ZThn16_N10HbGridViewD0Ev @ 2866 NONAME
	_ZThn16_N10HbGridViewD1Ev @ 2867 NONAME
	_ZThn16_N10HbListViewD0Ev @ 2868 NONAME
	_ZThn16_N10HbListViewD1Ev @ 2869 NONAME
	_ZThn16_N10HbTreeViewD0Ev @ 2870 NONAME
	_ZThn16_N10HbTreeViewD1Ev @ 2871 NONAME
	_ZThn16_N12HbListWidgetD0Ev @ 2872 NONAME
	_ZThn16_N12HbListWidgetD1Ev @ 2873 NONAME
	_ZThn16_N14HbGridViewItemD0Ev @ 2874 NONAME
	_ZThn16_N14HbGridViewItemD1Ev @ 2875 NONAME
	_ZThn16_N14HbListViewItemD0Ev @ 2876 NONAME
	_ZThn16_N14HbListViewItemD1Ev @ 2877 NONAME
	_ZThn16_N14HbTreeViewItemD0Ev @ 2878 NONAME
	_ZThn16_N14HbTreeViewItemD1Ev @ 2879 NONAME
	_ZThn16_N15HbItemHighlightD0Ev @ 2880 NONAME ABSENT
	_ZThn16_N15HbItemHighlightD1Ev @ 2881 NONAME ABSENT
	_ZThn16_N18HbAbstractItemViewD0Ev @ 2882 NONAME
	_ZThn16_N18HbAbstractItemViewD1Ev @ 2883 NONAME
	_ZThn16_N18HbAbstractViewItemD0Ev @ 2884 NONAME
	_ZThn16_N18HbAbstractViewItemD1Ev @ 2885 NONAME
	_ZThn16_N19HbListItemContainerD0Ev @ 2886 NONAME ABSENT
	_ZThn16_N19HbListItemContainerD1Ev @ 2887 NONAME ABSENT
	_ZThn16_N19HbProgressiveSlider11setGeometryERK6QRectF @ 2888 NONAME ABSENT
	_ZThn16_N19HbProgressiveSliderD0Ev @ 2889 NONAME ABSENT
	_ZThn16_N19HbProgressiveSliderD1Ev @ 2890 NONAME ABSENT
	_ZThn16_N23HbAbstractItemContainerD0Ev @ 2891 NONAME
	_ZThn16_N23HbAbstractItemContainerD1Ev @ 2892 NONAME
	_ZThn16_NK18HbAbstractViewItem8sizeHintEN2Qt8SizeHintERK6QSizeF @ 2893 NONAME
	_ZThn8_N10HbGridView14mouseMoveEventEP24QGraphicsSceneMouseEvent @ 2894 NONAME
	_ZThn8_N10HbGridViewD0Ev @ 2895 NONAME
	_ZThn8_N10HbGridViewD1Ev @ 2896 NONAME
	_ZThn8_N10HbListView14mouseMoveEventEP24QGraphicsSceneMouseEvent @ 2897 NONAME ABSENT
	_ZThn8_N10HbListView15mousePressEventEP24QGraphicsSceneMouseEvent @ 2898 NONAME ABSENT
	_ZThn8_N10HbListView17mouseReleaseEventEP24QGraphicsSceneMouseEvent @ 2899 NONAME ABSENT
	_ZThn8_N10HbListViewD0Ev @ 2900 NONAME
	_ZThn8_N10HbListViewD1Ev @ 2901 NONAME
	_ZThn8_N10HbTreeViewD0Ev @ 2902 NONAME
	_ZThn8_N10HbTreeViewD1Ev @ 2903 NONAME
	_ZThn8_N12HbListWidgetD0Ev @ 2904 NONAME
	_ZThn8_N12HbListWidgetD1Ev @ 2905 NONAME
	_ZThn8_N14HbGridViewItemD0Ev @ 2906 NONAME
	_ZThn8_N14HbGridViewItemD1Ev @ 2907 NONAME
	_ZThn8_N14HbListViewItemD0Ev @ 2908 NONAME
	_ZThn8_N14HbListViewItemD1Ev @ 2909 NONAME
	_ZThn8_N14HbTreeViewItem15mousePressEventEP24QGraphicsSceneMouseEvent @ 2910 NONAME ABSENT
	_ZThn8_N14HbTreeViewItem17mouseReleaseEventEP24QGraphicsSceneMouseEvent @ 2911 NONAME ABSENT
	_ZThn8_N14HbTreeViewItemD0Ev @ 2912 NONAME
	_ZThn8_N14HbTreeViewItemD1Ev @ 2913 NONAME
	_ZThn8_N15HbItemHighlightD0Ev @ 2914 NONAME ABSENT
	_ZThn8_N15HbItemHighlightD1Ev @ 2915 NONAME ABSENT
	_ZThn8_N18HbAbstractItemView10itemChangeEN13QGraphicsItem18GraphicsItemChangeERK8QVariant @ 2916 NONAME
	_ZThn8_N18HbAbstractItemView13focusOutEventEP11QFocusEvent @ 2917 NONAME ABSENT
	_ZThn8_N18HbAbstractItemView13keyPressEventEP9QKeyEvent @ 2918 NONAME ABSENT
	_ZThn8_N18HbAbstractItemView14mouseMoveEventEP24QGraphicsSceneMouseEvent @ 2919 NONAME ABSENT
	_ZThn8_N18HbAbstractItemView15keyReleaseEventEP9QKeyEvent @ 2920 NONAME ABSENT
	_ZThn8_N18HbAbstractItemView15mousePressEventEP24QGraphicsSceneMouseEvent @ 2921 NONAME ABSENT
	_ZThn8_N18HbAbstractItemView17mouseReleaseEventEP24QGraphicsSceneMouseEvent @ 2922 NONAME ABSENT
	_ZThn8_N18HbAbstractItemViewD0Ev @ 2923 NONAME
	_ZThn8_N18HbAbstractItemViewD1Ev @ 2924 NONAME
	_ZThn8_N18HbAbstractViewItem14mouseMoveEventEP24QGraphicsSceneMouseEvent @ 2925 NONAME ABSENT
	_ZThn8_N18HbAbstractViewItem15mousePressEventEP24QGraphicsSceneMouseEvent @ 2926 NONAME ABSENT
	_ZThn8_N18HbAbstractViewItem17mouseReleaseEventEP24QGraphicsSceneMouseEvent @ 2927 NONAME ABSENT
	_ZThn8_N18HbAbstractViewItemD0Ev @ 2928 NONAME
	_ZThn8_N18HbAbstractViewItemD1Ev @ 2929 NONAME
	_ZThn8_N19HbListItemContainerD0Ev @ 2930 NONAME ABSENT
	_ZThn8_N19HbListItemContainerD1Ev @ 2931 NONAME ABSENT
	_ZThn8_N19HbProgressiveSlider10itemChangeEN13QGraphicsItem18GraphicsItemChangeERK8QVariant @ 2932 NONAME ABSENT
	_ZThn8_N19HbProgressiveSlider15mousePressEventEP24QGraphicsSceneMouseEvent @ 2933 NONAME ABSENT
	_ZThn8_N19HbProgressiveSlider17mouseReleaseEventEP24QGraphicsSceneMouseEvent @ 2934 NONAME ABSENT
	_ZThn8_N19HbProgressiveSliderD0Ev @ 2935 NONAME ABSENT
	_ZThn8_N19HbProgressiveSliderD1Ev @ 2936 NONAME ABSENT
	_ZThn8_N23HbAbstractItemContainer10itemChangeEN13QGraphicsItem18GraphicsItemChangeERK8QVariant @ 2937 NONAME
	_ZThn8_N23HbAbstractItemContainerD0Ev @ 2938 NONAME
	_ZThn8_N23HbAbstractItemContainerD1Ev @ 2939 NONAME
	_ZThn8_NK10HbListView4typeEv @ 2940 NONAME
	_ZThn8_NK14HbGridViewItem4typeEv @ 2941 NONAME
	_ZThn8_NK14HbGridViewItem5shapeEv @ 2942 NONAME
	_ZThn8_NK14HbListViewItem4typeEv @ 2943 NONAME
	_ZThn8_NK14HbTreeViewItem4typeEv @ 2944 NONAME
	_ZThn8_NK15HbItemHighlight4typeEv @ 2945 NONAME ABSENT
	_ZThn8_NK18HbAbstractItemView4typeEv @ 2946 NONAME ABSENT
	_ZThn8_NK18HbAbstractViewItem4typeEv @ 2947 NONAME ABSENT
	_ZThn8_NK23HbAbstractItemContainer4typeEv @ 2948 NONAME ABSENT
	_ZN10HbCheckBox10itemChangeEN13QGraphicsItem18GraphicsItemChangeERK8QVariant @ 2949 NONAME
	_ZN10HbComboBox7addItemERK6HbIconRK7QStringRK8QVariant @ 2950 NONAME
	_ZN10HbComboBox7addItemERK7QStringRK8QVariant @ 2951 NONAME
	_ZN10HbComboBox8addItemsERK11QStringList @ 2952 NONAME
	_ZN10HbDataForm13addConnectionEP19HbDataFormModelItemPKcP7QObjectS3_ @ 2953 NONAME
	_ZN10HbDataForm16removeConnectionEP19HbDataFormModelItemPKcP7QObjectS3_ @ 2954 NONAME
	_ZN10HbDataForm20rowsAboutToBeRemovedERK11QModelIndexii @ 2955 NONAME
	_ZN10HbDataForm8scrollToERK11QModelIndexN18HbAbstractItemView10ScrollHintE @ 2956 NONAME
	_ZN10HbGridView8scrollToERK11QModelIndexN18HbAbstractItemView10ScrollHintE @ 2957 NONAME
	_ZN10HbListView20rowsAboutToBeRemovedERK11QModelIndexii @ 2958 NONAME
	_ZN10HbListView8scrollToERK11QModelIndexN18HbAbstractItemView10ScrollHintE @ 2959 NONAME
	_ZN10HbTreeView12setRootIndexERK11QModelIndex @ 2960 NONAME
	_ZN10HbTreeView14setIndentationEf @ 2961 NONAME
	_ZN10HbTreeView5resetEv @ 2962 NONAME
	_ZN10HbTreeView8scrollToERK11QModelIndexN18HbAbstractItemView10ScrollHintE @ 2963 NONAME
	_ZN13HbSettingForm8scrollToERK11QModelIndexN18HbAbstractItemView10ScrollHintE @ 2964 NONAME ABSENT
	_ZN14HbListViewItem15setGraphicsSizeENS_12GraphicsSizeE @ 2965 NONAME
	_ZN14HbListViewItem18setStretchingStyleENS_15StretchingStyleE @ 2966 NONAME
	_ZN14HbListViewItem24setSecondaryTextRowCountEii @ 2967 NONAME
	_ZN14HbListViewItem6polishER17HbStyleParameters @ 2968 NONAME
	_ZN16HbProgressDialog10closeEventEP11QCloseEvent @ 2969 NONAME
	_ZN16HbProgressDialog10setMaximumEi @ 2970 NONAME
	_ZN16HbProgressDialog10setMinimumEi @ 2971 NONAME
	_ZN16HbProgressDialog11delayedShowEv @ 2972 NONAME
	_ZN16HbProgressDialog11qt_metacallEN11QMetaObject4CallEiPPv @ 2973 NONAME
	_ZN16HbProgressDialog11qt_metacastEPKc @ 2974 NONAME
	_ZN16HbProgressDialog12setAutoCloseEb @ 2975 NONAME
	_ZN16HbProgressDialog15setTextWrappingEb @ 2976 NONAME ABSENT
	_ZN16HbProgressDialog16setIconAlignmentE6QFlagsIN2Qt13AlignmentFlagEE @ 2977 NONAME ABSENT
	_ZN16HbProgressDialog16setProgressValueEi @ 2978 NONAME
	_ZN16HbProgressDialog16setTextAlignmentE6QFlagsIN2Qt13AlignmentFlagEE @ 2979 NONAME ABSENT
	_ZN16HbProgressDialog16staticMetaObjectE @ 2980 NONAME DATA 16
	_ZN16HbProgressDialog19getStaticMetaObjectEv @ 2981 NONAME
	_ZN16HbProgressDialog21setProgressDialogTypeENS_18ProgressDialogTypeE @ 2982 NONAME
	_ZN16HbProgressDialog6cancelEv @ 2983 NONAME
	_ZN16HbProgressDialog7setIconERK6HbIcon @ 2984 NONAME
	_ZN16HbProgressDialog7setTextERK7QString @ 2985 NONAME
	_ZN16HbProgressDialog8setRangeEii @ 2986 NONAME
	_ZN16HbProgressDialog9cancelledEv @ 2987 NONAME
	_ZN16HbProgressDialog9showEventEP10QShowEvent @ 2988 NONAME
	_ZN16HbProgressDialogC1ENS_18ProgressDialogTypeEP13QGraphicsItem @ 2989 NONAME
	_ZN16HbProgressDialogC1EP13QGraphicsItem @ 2990 NONAME
	_ZN16HbProgressDialogC2ENS_18ProgressDialogTypeEP13QGraphicsItem @ 2991 NONAME
	_ZN16HbProgressDialogC2EP13QGraphicsItem @ 2992 NONAME
	_ZN18HbDeviceMessageBox10setTimeoutEN7HbPopup14DefaultTimeoutE @ 2993 NONAME
	_ZN18HbDeviceMessageBox16setDismissPolicyEN7HbPopup13DismissPolicyE @ 2994 NONAME
	_ZN20HbNotificationDialog11polishEventEv @ 2995 NONAME ABSENT
	_ZN20HbNotificationDialog11setWrapModeEi @ 2996 NONAME ABSENT
	_ZN23HbAbstractItemContainer10insertItemEiRK11QModelIndexb @ 2997 NONAME
	_ZN23HbAbstractItemContainer10removeItemERK11QModelIndexb @ 2998 NONAME
	_ZN23HbAbstractItemContainer10removeItemEib @ 2999 NONAME
	_ZN23HbAbstractItemContainer7addItemERK11QModelIndexb @ 3000 NONAME
	_ZN7HbLabel11changeEventEP6QEvent @ 3001 NONAME ABSENT
	_ZN7HbLabel11qt_metacallEN11QMetaObject4CallEiPPv @ 3002 NONAME
	_ZN7HbLabel11qt_metacastEPKc @ 3003 NONAME
	_ZN7HbLabel11resizeEventEP25QGraphicsSceneResizeEvent @ 3004 NONAME ABSENT
	_ZN7HbLabel11setGeometryERK6QRectF @ 3005 NONAME ABSENT
	_ZN7HbLabel11toggleStateEv @ 3006 NONAME ABSENT
	_ZN7HbLabel12setAlignmentE6QFlagsIN2Qt13AlignmentFlagEE @ 3007 NONAME
	_ZN7HbLabel12setElideModeEN2Qt13TextElideModeE @ 3008 NONAME
	_ZN7HbLabel12setIconFlagsE6QFlagsIN6HbIcon4FlagEE @ 3009 NONAME ABSENT
	_ZN7HbLabel12setPlainTextERK7QString @ 3010 NONAME
	_ZN7HbLabel12setTextColorERK6QColor @ 3011 NONAME
	_ZN7HbLabel12setTextFlagsEi @ 3012 NONAME ABSENT
	_ZN7HbLabel13setTextFormatEN2Qt10TextFormatE @ 3013 NONAME ABSENT
	_ZN7HbLabel14setLogicalFontEN2Hb15LogicalFontNameE @ 3014 NONAME ABSENT
	_ZN7HbLabel15setTextWrappingEN2Hb12TextWrappingE @ 3015 NONAME
	_ZN7HbLabel16setMirroringModeEN6HbIcon13MirroringModeE @ 3016 NONAME ABSENT
	_ZN7HbLabel16staticMetaObjectE @ 3017 NONAME DATA 16
	_ZN7HbLabel16updatePrimitivesEv @ 3018 NONAME
	_ZN7HbLabel18setAspectRatioModeEN2Qt15AspectRatioModeE @ 3019 NONAME
	_ZN7HbLabel19getStaticMetaObjectEv @ 3020 NONAME
	_ZN7HbLabel5clearEv @ 3021 NONAME
	_ZN7HbLabel6setNumEf @ 3022 NONAME ABSENT
	_ZN7HbLabel6setNumEi @ 3023 NONAME ABSENT
	_ZN7HbLabel7setHtmlERK7QString @ 3024 NONAME
	_ZN7HbLabel7setIconERK6HbIcon @ 3025 NONAME
	_ZN7HbLabel7setModeEN5QIcon4ModeE @ 3026 NONAME ABSENT
	_ZN7HbLabel7setTextERK7QString @ 3027 NONAME ABSENT
	_ZN7HbLabel8setColorERK6QColor @ 3028 NONAME ABSENT
	_ZN7HbLabel8setStateEN5QIcon5StateE @ 3029 NONAME ABSENT
	_ZN7HbLabel9setNumberEf @ 3030 NONAME
	_ZN7HbLabel9setNumberEi @ 3031 NONAME
	_ZN7HbLabelC1EP13QGraphicsItem @ 3032 NONAME
	_ZN7HbLabelC1ER14HbLabelPrivateP13QGraphicsItem @ 3033 NONAME
	_ZN7HbLabelC1ERK7QStringP13QGraphicsItem @ 3034 NONAME
	_ZN7HbLabelC2EP13QGraphicsItem @ 3035 NONAME
	_ZN7HbLabelC2ER14HbLabelPrivateP13QGraphicsItem @ 3036 NONAME
	_ZN7HbLabelC2ERK7QStringP13QGraphicsItem @ 3037 NONAME
	_ZN7HbLabelD0Ev @ 3038 NONAME
	_ZN7HbLabelD1Ev @ 3039 NONAME
	_ZN7HbLabelD2Ev @ 3040 NONAME
	_ZNK10HbListView17listItemPrototypeEv @ 3041 NONAME
	_ZNK10HbTreeView11indentationEv @ 3042 NONAME
	_ZNK14HbListViewItem12graphicsSizeEv @ 3043 NONAME
	_ZNK14HbListViewItem15stretchingStyleEv @ 3044 NONAME
	_ZNK14HbListViewItem21secondaryTextRowCountERiS0_ @ 3045 NONAME ABSENT
	_ZNK16HbProgressDialog10metaObjectEv @ 3046 NONAME
	_ZNK16HbProgressDialog12textWrappingEv @ 3047 NONAME ABSENT
	_ZNK16HbProgressDialog13iconAlignmentEv @ 3048 NONAME ABSENT
	_ZNK16HbProgressDialog13progressValueEv @ 3049 NONAME
	_ZNK16HbProgressDialog13textAlignmentEv @ 3050 NONAME ABSENT
	_ZNK16HbProgressDialog15initStyleOptionEP13HbStyleOption @ 3051 NONAME ABSENT
	_ZNK16HbProgressDialog18progressDialogTypeEv @ 3052 NONAME
	_ZNK16HbProgressDialog4iconEv @ 3053 NONAME
	_ZNK16HbProgressDialog4textEv @ 3054 NONAME
	_ZNK16HbProgressDialog7maximumEv @ 3055 NONAME
	_ZNK16HbProgressDialog7minimumEv @ 3056 NONAME
	_ZNK16HbProgressDialog9autoCloseEv @ 3057 NONAME
	_ZNK16HbProgressDialog9primitiveEN7HbStyle9PrimitiveE @ 3058 NONAME ABSENT
	_ZNK18HbAbstractViewItem13modelItemTypeEv @ 3059 NONAME
	_ZNK20HbNotificationDialog8wrapModeEv @ 3060 NONAME ABSENT
	_ZNK7HbLabel10metaObjectEv @ 3061 NONAME
	_ZNK7HbLabel10textFormatEv @ 3062 NONAME ABSENT
	_ZNK7HbLabel11logicalFontEv @ 3063 NONAME ABSENT
	_ZNK7HbLabel12textWrappingEv @ 3064 NONAME
	_ZNK7HbLabel13effectiveFontEv @ 3065 NONAME ABSENT
	_ZNK7HbLabel15aspectRatioModeEv @ 3066 NONAME
	_ZNK7HbLabel15initStyleOptionEP18HbStyleOptionLabel @ 3067 NONAME
	_ZNK7HbLabel4htmlEv @ 3068 NONAME
	_ZNK7HbLabel4iconEv @ 3069 NONAME
	_ZNK7HbLabel4modeEv @ 3070 NONAME ABSENT
	_ZNK7HbLabel4textEv @ 3071 NONAME ABSENT
	_ZNK7HbLabel4typeEv @ 3072 NONAME
	_ZNK7HbLabel5colorEv @ 3073 NONAME ABSENT
	_ZNK7HbLabel5stateEv @ 3074 NONAME ABSENT
	_ZNK7HbLabel6isNullEv @ 3075 NONAME ABSENT
	_ZNK7HbLabel7isEmptyEv @ 3076 NONAME
	_ZNK7HbLabel9alignmentEv @ 3077 NONAME
	_ZNK7HbLabel9elideModeEv @ 3078 NONAME
	_ZNK7HbLabel9plainTextEv @ 3079 NONAME
	_ZNK7HbLabel9primitiveEN7HbStyle9PrimitiveE @ 3080 NONAME
	_ZNK7HbLabel9textColorEv @ 3081 NONAME
	_ZNK7HbLabel9textFlagsEv @ 3082 NONAME ABSENT
	_ZTI16HbProgressDialog @ 3083 NONAME
	_ZTI7HbLabel @ 3084 NONAME
	_ZTV16HbProgressDialog @ 3085 NONAME
	_ZTV7HbLabel @ 3086 NONAME
	_ZThn16_N7HbLabel11setGeometryERK6QRectF @ 3087 NONAME ABSENT
	_ZThn16_N7HbLabelD0Ev @ 3088 NONAME
	_ZThn16_N7HbLabelD1Ev @ 3089 NONAME
	_ZThn8_N10HbCheckBox10itemChangeEN13QGraphicsItem18GraphicsItemChangeERK8QVariant @ 3090 NONAME
	_ZThn8_N7HbLabelD0Ev @ 3091 NONAME
	_ZThn8_N7HbLabelD1Ev @ 3092 NONAME
	_ZThn8_NK7HbLabel4typeEv @ 3093 NONAME
	_ZN10HbTreeView17mouseReleaseEventEP24QGraphicsSceneMouseEvent @ 3094 NONAME ABSENT
	_ZN13HbInputDialog22isAdditionalRowVisibleEv @ 3095 NONAME
	_ZN13HbInputDialog23setAdditionalRowVisibleEb @ 3096 NONAME
	_ZN13HbInputDialog5getIpERK7QStringS2_PbP14QGraphicsSceneP13QGraphicsItem @ 3097 NONAME ABSENT
	_ZN13HbInputDialog8setValueERK8QVarianti @ 3098 NONAME
	_ZN13HbProgressBar22setMinMaxTextAlignmentE6QFlagsIN2Qt13AlignmentFlagEE @ 3099 NONAME
	_ZN13HbSmileyTheme13removePatternERK7QString @ 3100 NONAME ABSENT
	_ZN13HbSmileyTheme4loadERK7QString @ 3101 NONAME ABSENT
	_ZN13HbSmileyTheme5clearEv @ 3102 NONAME ABSENT
	_ZN13HbSmileyTheme6insertERK7QStringRK11QStringList @ 3103 NONAME ABSENT
	_ZN13HbSmileyTheme6insertERK7QStringS2_ @ 3104 NONAME ABSENT
	_ZN13HbSmileyTheme6removeERK7QString @ 3105 NONAME ABSENT
	_ZN13HbSmileyTheme7replaceERK7QStringRK11QStringList @ 3106 NONAME ABSENT
	_ZN13HbSmileyTheme7replaceERK7QStringS2_ @ 3107 NONAME ABSENT
	_ZN13HbSmileyThemeC1ERK7QString @ 3108 NONAME ABSENT
	_ZN13HbSmileyThemeC1ERKS_ @ 3109 NONAME ABSENT
	_ZN13HbSmileyThemeC1Ev @ 3110 NONAME ABSENT
	_ZN13HbSmileyThemeC2ERK7QString @ 3111 NONAME ABSENT
	_ZN13HbSmileyThemeC2ERKS_ @ 3112 NONAME ABSENT
	_ZN13HbSmileyThemeC2Ev @ 3113 NONAME ABSENT
	_ZN13HbSmileyThemeD1Ev @ 3114 NONAME ABSENT
	_ZN13HbSmileyThemeD2Ev @ 3115 NONAME ABSENT
	_ZN13HbSmileyThemeaSERKS_ @ 3116 NONAME ABSENT
	_ZN14HbAbstractEdit14setSmileyThemeERK13HbSmileyTheme @ 3117 NONAME
	_ZN14HbAbstractEdit16resetSmileyThemeEv @ 3118 NONAME
	_ZN14HbAbstractEdit17setSmileysEnabledEb @ 3119 NONAME
	_ZN14HbSmileyEngine11qt_metacallEN11QMetaObject4CallEiPPv @ 3120 NONAME
	_ZN14HbSmileyEngine11qt_metacastEPKc @ 3121 NONAME
	_ZN14HbSmileyEngine11setDocumentEP13QTextDocument @ 3122 NONAME
	_ZN14HbSmileyEngine12insertSmileyERK11QTextCursor @ 3123 NONAME
	_ZN14HbSmileyEngine13insertSmileysERK11QTextCursor @ 3124 NONAME
	_ZN14HbSmileyEngine13insertSmileysEv @ 3125 NONAME
	_ZN14HbSmileyEngine13stopAnimationEv @ 3126 NONAME
	_ZN14HbSmileyEngine14startAnimationEv @ 3127 NONAME
	_ZN14HbSmileyEngine16staticMetaObjectE @ 3128 NONAME DATA 16
	_ZN14HbSmileyEngine19getStaticMetaObjectEv @ 3129 NONAME
	_ZN14HbSmileyEngine8setThemeERK13HbSmileyTheme @ 3130 NONAME
	_ZN14HbSmileyEngineC1EP7QObject @ 3131 NONAME
	_ZN14HbSmileyEngineC1ER21HbSmileyEnginePrivateP7QObject @ 3132 NONAME
	_ZN14HbSmileyEngineC2EP7QObject @ 3133 NONAME
	_ZN14HbSmileyEngineC2ER21HbSmileyEnginePrivateP7QObject @ 3134 NONAME
	_ZN14HbSmileyEngineD0Ev @ 3135 NONAME
	_ZN14HbSmileyEngineD1Ev @ 3136 NONAME
	_ZN14HbSmileyEngineD2Ev @ 3137 NONAME
	_ZN16HbDateTimePicker11dateChangedERK5QDate @ 3138 NONAME
	_ZN16HbDateTimePicker11qt_metacallEN11QMetaObject4CallEiPPv @ 3139 NONAME
	_ZN16HbDateTimePicker11qt_metacastEPKc @ 3140 NONAME
	_ZN16HbDateTimePicker11setDateTimeERK9QDateTime @ 3141 NONAME
	_ZN16HbDateTimePicker11timeChangedERK5QTime @ 3142 NONAME
	_ZN16HbDateTimePicker12setDateRangeERK5QDateS2_ @ 3143 NONAME
	_ZN16HbDateTimePicker12setTimeRangeERK5QTimeS2_ @ 3144 NONAME
	_ZN16HbDateTimePicker14setMaximumDateERK5QDate @ 3145 NONAME
	_ZN16HbDateTimePicker14setMaximumTimeERK5QTime @ 3146 NONAME
	_ZN16HbDateTimePicker14setMinimumDateERK5QDate @ 3147 NONAME
	_ZN16HbDateTimePicker14setMinimumTimeERK5QTime @ 3148 NONAME
	_ZN16HbDateTimePicker15dateTimeChangedERK9QDateTime @ 3149 NONAME
	_ZN16HbDateTimePicker16setDateTimeRangeERK9QDateTimeS2_ @ 3150 NONAME
	_ZN16HbDateTimePicker16setDisplayFormatERK7QString @ 3151 NONAME
	_ZN16HbDateTimePicker16staticMetaObjectE @ 3152 NONAME DATA 16
	_ZN16HbDateTimePicker18setMaximumDateTimeERK9QDateTime @ 3153 NONAME
	_ZN16HbDateTimePicker18setMinimumDateTimeERK9QDateTime @ 3154 NONAME
	_ZN16HbDateTimePicker19getStaticMetaObjectEv @ 3155 NONAME
	_ZN16HbDateTimePicker7setDateERK5QDate @ 3156 NONAME
	_ZN16HbDateTimePicker7setTimeERK5QTime @ 3157 NONAME
	_ZN16HbDateTimePickerC1EP13QGraphicsItem @ 3158 NONAME
	_ZN16HbDateTimePickerC1ER23HbDateTimePickerPrivateP13QGraphicsItem @ 3159 NONAME
	_ZN16HbDateTimePickerC1ERK5QDateP13QGraphicsItem @ 3160 NONAME
	_ZN16HbDateTimePickerC1ERK5QTimeP13QGraphicsItem @ 3161 NONAME
	_ZN16HbDateTimePickerC1ERK9QDateTimeP13QGraphicsItem @ 3162 NONAME
	_ZN16HbDateTimePickerC2EP13QGraphicsItem @ 3163 NONAME
	_ZN16HbDateTimePickerC2ER23HbDateTimePickerPrivateP13QGraphicsItem @ 3164 NONAME
	_ZN16HbDateTimePickerC2ERK5QDateP13QGraphicsItem @ 3165 NONAME
	_ZN16HbDateTimePickerC2ERK5QTimeP13QGraphicsItem @ 3166 NONAME
	_ZN16HbDateTimePickerC2ERK9QDateTimeP13QGraphicsItem @ 3167 NONAME
	_ZN16HbDateTimePickerD0Ev @ 3168 NONAME
	_ZN16HbDateTimePickerD1Ev @ 3169 NONAME
	_ZN16HbDateTimePickerD2Ev @ 3170 NONAME
	_ZN18HbAbstractItemView8scrollToERK11QModelIndexNS_10ScrollHintE @ 3171 NONAME
	_ZNK13HbInputDialog5valueEi @ 3172 NONAME
	_ZNK13HbProgressBar19minMaxTextAlignmentEv @ 3173 NONAME
	_ZNK13HbSmileyTheme6isNullEv @ 3174 NONAME ABSENT
	_ZNK13HbSmileyTheme6smileyERK7QString @ 3175 NONAME ABSENT
	_ZNK13HbSmileyTheme7smileysEv @ 3176 NONAME ABSENT
	_ZNK13HbSmileyTheme8patternsERK7QString @ 3177 NONAME ABSENT
	_ZNK13HbSmileyTheme8patternsEv @ 3178 NONAME ABSENT
	_ZNK13HbSmileyThemecv8QVariantEv @ 3179 NONAME ABSENT
	_ZNK14HbAbstractEdit11smileyThemeEv @ 3180 NONAME
	_ZNK14HbAbstractEdit16isSmileysEnabledEv @ 3181 NONAME
	_ZNK14HbAbstractEdit18defaultSmileyThemeEv @ 3182 NONAME
	_ZNK14HbGridViewItem21selectionAreaContainsERK7QPointF @ 3183 NONAME ABSENT
	_ZNK14HbSmileyEngine10metaObjectEv @ 3184 NONAME
	_ZNK14HbSmileyEngine11toPlainTextEv @ 3185 NONAME
	_ZNK14HbSmileyEngine12defaultThemeEv @ 3186 NONAME
	_ZNK14HbSmileyEngine5themeEv @ 3187 NONAME
	_ZNK14HbSmileyEngine6toHtmlEv @ 3188 NONAME
	_ZNK16HbDateTimePicker10metaObjectEv @ 3189 NONAME
	_ZNK16HbDateTimePicker11maximumDateEv @ 3190 NONAME
	_ZNK16HbDateTimePicker11maximumTimeEv @ 3191 NONAME
	_ZNK16HbDateTimePicker11minimumDateEv @ 3192 NONAME
	_ZNK16HbDateTimePicker11minimumTimeEv @ 3193 NONAME
	_ZNK16HbDateTimePicker13displayFormatEv @ 3194 NONAME
	_ZNK16HbDateTimePicker15maximumDateTimeEv @ 3195 NONAME
	_ZNK16HbDateTimePicker15minimumDateTimeEv @ 3196 NONAME
	_ZNK16HbDateTimePicker4dateEv @ 3197 NONAME
	_ZNK16HbDateTimePicker4timeEv @ 3198 NONAME
	_ZNK16HbDateTimePicker8dateTimeEv @ 3199 NONAME
	_ZNK18HbAbstractViewItem21selectionAreaContainsERK7QPointF @ 3200 NONAME ABSENT
	_ZTI14HbSmileyEngine @ 3201 NONAME
	_ZTI16HbDateTimePicker @ 3202 NONAME
	_ZTV14HbSmileyEngine @ 3203 NONAME
	_ZTV16HbDateTimePicker @ 3204 NONAME
	_ZThn16_N16HbDateTimePickerD0Ev @ 3205 NONAME
	_ZThn16_N16HbDateTimePickerD1Ev @ 3206 NONAME
	_ZThn8_N10HbTreeView17mouseReleaseEventEP24QGraphicsSceneMouseEvent @ 3207 NONAME ABSENT
	_ZThn8_N16HbDateTimePickerD0Ev @ 3208 NONAME
	_ZThn8_N16HbDateTimePickerD1Ev @ 3209 NONAME
	_ZN10HbDataForm9itemShownERK11QModelIndex @ 3210 NONAME
	_ZN10HbTreeView8setModelEP18QAbstractItemModelP18HbAbstractViewItem @ 3211 NONAME
	_ZN14HbAbstractEdit15setFormatDialogE8QPointerI14HbFormatDialogE @ 3212 NONAME
	_ZN14HbAbstractEdit6formatEv @ 3213 NONAME
	_ZN14HbFormatDialog10setContentE11QTextCursor @ 3214 NONAME
	_ZN14HbFormatDialog11qt_metacallEN11QMetaObject4CallEiPPv @ 3215 NONAME
	_ZN14HbFormatDialog11qt_metacastEPKc @ 3216 NONAME
	_ZN14HbFormatDialog12setStyleBoldEb @ 3217 NONAME
	_ZN14HbFormatDialog14setStyleBulletEb @ 3218 NONAME
	_ZN14HbFormatDialog14setStyleItalicEb @ 3219 NONAME
	_ZN14HbFormatDialog15mergeCharFormatERK15QTextCharFormat @ 3220 NONAME
	_ZN14HbFormatDialog16setAlignmentLeftEb @ 3221 NONAME
	_ZN14HbFormatDialog16setFontPointSizeERK7QString @ 3222 NONAME
	_ZN14HbFormatDialog16staticMetaObjectE @ 3223 NONAME DATA 16
	_ZN14HbFormatDialog17setAlignmentRightEb @ 3224 NONAME
	_ZN14HbFormatDialog17setStyleUnderlineEb @ 3225 NONAME
	_ZN14HbFormatDialog18setAlignmentCenterEb @ 3226 NONAME
	_ZN14HbFormatDialog19getStaticMetaObjectEv @ 3227 NONAME
	_ZN14HbFormatDialog19setAlignmentJustifyEb @ 3228 NONAME
	_ZN14HbFormatDialog6launchEP14HbAbstractEdit @ 3229 NONAME
	_ZN14HbFormatDialogC1EP13QGraphicsItem @ 3230 NONAME
	_ZN14HbFormatDialogC2EP13QGraphicsItem @ 3231 NONAME
	_ZN14HbFormatDialogD0Ev @ 3232 NONAME
	_ZN14HbFormatDialogD1Ev @ 3233 NONAME
	_ZN14HbFormatDialogD2Ev @ 3234 NONAME
	_ZN15HbDataFormModel11qt_metacallEN11QMetaObject4CallEiPPv @ 3235 NONAME
	_ZN15HbDataFormModel11qt_metacastEPKc @ 3236 NONAME
	_ZN15HbDataFormModel16staticMetaObjectE @ 3237 NONAME DATA 16
	_ZN15HbDataFormModel18appendDataFormItemEN19HbDataFormModelItem12DataItemTypeERK7QStringPS0_ @ 3238 NONAME
	_ZN15HbDataFormModel18appendDataFormItemEP19HbDataFormModelItemS1_ @ 3239 NONAME
	_ZN15HbDataFormModel18insertDataFormItemEiN19HbDataFormModelItem12DataItemTypeERK7QStringPS0_ @ 3240 NONAME
	_ZN15HbDataFormModel18insertDataFormItemEiP19HbDataFormModelItemS1_ @ 3241 NONAME
	_ZN15HbDataFormModel19appendDataFormGroupERK7QStringP19HbDataFormModelItem @ 3242 NONAME
	_ZN15HbDataFormModel19getStaticMetaObjectEv @ 3243 NONAME
	_ZN15HbDataFormModel19insertDataFormGroupEiRK7QStringP19HbDataFormModelItem @ 3244 NONAME
	_ZN15HbDataFormModel23appendDataFormGroupPageERK7QStringP19HbDataFormModelItem @ 3245 NONAME
	_ZN15HbDataFormModel23insertDataFormGroupPageEiRK7QStringP19HbDataFormModelItem @ 3246 NONAME
	_ZN16HbDateTimePicker11setGeometryERK6QRectF @ 3247 NONAME
	_ZN16HbDateTimePicker16updatePrimitivesEv @ 3248 NONAME
	_ZN16HbDateTimePicker5eventEP6QEvent @ 3249 NONAME
	_ZN18HbAbstractViewItem17pressStateChangedEbb @ 3250 NONAME
	_ZN20HbNotificationDialog18orientationChangedEN2Qt11OrientationE @ 3251 NONAME
	_ZN20HbNotificationDialog20setTitleTextWrappingEN2Hb12TextWrappingE @ 3252 NONAME
	_ZN20HbNotificationDialog9hideEventEP10QHideEvent @ 3253 NONAME
	_ZN20HbNotificationDialog9showEventEP10QShowEvent @ 3254 NONAME
	_ZN26CHbDeviceMessageBoxSymbian10SetButtonLENS_9TButtonIdEi @ 3255 NONAME ABSENT
	_ZN26CHbDeviceMessageBoxSymbian11SetObserverEP27MHbDeviceMessageBoxObserver @ 3256 NONAME
	_ZN26CHbDeviceMessageBoxSymbian11SetTimeoutLEi @ 3257 NONAME ABSENT
	_ZN26CHbDeviceMessageBoxSymbian12InformationLERK7TDesC16 @ 3258 NONAME
	_ZN26CHbDeviceMessageBoxSymbian12SetIconNameLERK7TDesC16 @ 3259 NONAME
	_ZN26CHbDeviceMessageBoxSymbian14SetButtonTextLENS_9TButtonIdERK7TDesC16 @ 3260 NONAME
	_ZN26CHbDeviceMessageBoxSymbian17SetDismissPolicyLEi @ 3261 NONAME ABSENT
	_ZN26CHbDeviceMessageBoxSymbian17SetIconAlignmentLEi @ 3262 NONAME ABSENT
	_ZN26CHbDeviceMessageBoxSymbian4NewLENS_5TTypeEP27MHbDeviceMessageBoxObserver @ 3263 NONAME
	_ZN26CHbDeviceMessageBoxSymbian5CloseEv @ 3264 NONAME
	_ZN26CHbDeviceMessageBoxSymbian5ExecLEv @ 3265 NONAME
	_ZN26CHbDeviceMessageBoxSymbian5ShowLEv @ 3266 NONAME
	_ZN26CHbDeviceMessageBoxSymbian7UpdateLEv @ 3267 NONAME
	_ZN26CHbDeviceMessageBoxSymbian8SetTextLERK7TDesC16 @ 3268 NONAME
	_ZN26CHbDeviceMessageBoxSymbian8SetTypeLENS_5TTypeE @ 3269 NONAME
	_ZN26CHbDeviceMessageBoxSymbian8WarningLERK7TDesC16 @ 3270 NONAME
	_ZN26CHbDeviceMessageBoxSymbian9QuestionLERK7TDesC16S2_S2_ @ 3271 NONAME
	_ZN26CHbDeviceMessageBoxSymbianD0Ev @ 3272 NONAME
	_ZN26CHbDeviceMessageBoxSymbianD1Ev @ 3273 NONAME
	_ZN26CHbDeviceMessageBoxSymbianD2Ev @ 3274 NONAME
	_ZN26HbDeviceNotificationDialog20setTitleTextWrappingEN2Hb12TextWrappingE @ 3275 NONAME
	_ZN34CHbDeviceNotificationDialogSymbian11SetTimeoutLEi @ 3276 NONAME ABSENT
	_ZN34CHbDeviceNotificationDialogSymbian12SetIconNameLERK7TDesC16 @ 3277 NONAME
	_ZN34CHbDeviceNotificationDialogSymbian13NotificationLERK7TDesC16S2_ @ 3278 NONAME
	_ZN34CHbDeviceNotificationDialogSymbian13NotificationLERK7TDesC16S2_S2_ @ 3279 NONAME
	_ZN34CHbDeviceNotificationDialogSymbian21SetTitleTextWrappingLENS_12TextWrappingE @ 3280 NONAME ABSENT
	_ZN34CHbDeviceNotificationDialogSymbian22EnableTouchActivationLEi @ 3281 NONAME ABSENT
	_ZN34CHbDeviceNotificationDialogSymbian4NewLEP35MHbDeviceNotificationDialogObserver @ 3282 NONAME
	_ZN34CHbDeviceNotificationDialogSymbian5CloseEv @ 3283 NONAME
	_ZN34CHbDeviceNotificationDialogSymbian5ShowLEv @ 3284 NONAME
	_ZN34CHbDeviceNotificationDialogSymbian7UpdateLEv @ 3285 NONAME
	_ZN34CHbDeviceNotificationDialogSymbian8SetTextLERK7TDesC16 @ 3286 NONAME
	_ZN34CHbDeviceNotificationDialogSymbian9SetTitleLERK7TDesC16 @ 3287 NONAME
	_ZN34CHbDeviceNotificationDialogSymbianD0Ev @ 3288 NONAME
	_ZN34CHbDeviceNotificationDialogSymbianD1Ev @ 3289 NONAME
	_ZN34CHbDeviceNotificationDialogSymbianD2Ev @ 3290 NONAME
	_ZNK14HbFormatDialog10metaObjectEv @ 3291 NONAME
	_ZNK15HbDataFormModel10metaObjectEv @ 3292 NONAME
	_ZNK16HbDateTimePicker9primitiveEN7HbStyle9PrimitiveE @ 3293 NONAME ABSENT
	_ZNK19HbDataFormModelItem17contentWidgetDataEv @ 3294 NONAME
	_ZNK20HbNotificationDialog17titleTextWrappingEv @ 3295 NONAME
	_ZNK26CHbDeviceMessageBoxSymbian10ButtonTextENS_9TButtonIdE @ 3296 NONAME
	_ZNK26CHbDeviceMessageBoxSymbian13DismissPolicyEv @ 3297 NONAME
	_ZNK26CHbDeviceMessageBoxSymbian13IconAlignmentEv @ 3298 NONAME ABSENT
	_ZNK26CHbDeviceMessageBoxSymbian4TextEv @ 3299 NONAME
	_ZNK26CHbDeviceMessageBoxSymbian4TypeEv @ 3300 NONAME
	_ZNK26CHbDeviceMessageBoxSymbian7TimeoutEv @ 3301 NONAME
	_ZNK26CHbDeviceMessageBoxSymbian8IconNameEv @ 3302 NONAME
	_ZNK26CHbDeviceMessageBoxSymbian9HasButtonENS_9TButtonIdE @ 3303 NONAME
	_ZNK26HbDeviceNotificationDialog17titleTextWrappingEv @ 3304 NONAME
	_ZNK34CHbDeviceNotificationDialogSymbian17IsTouchActivatingEv @ 3305 NONAME
	_ZNK34CHbDeviceNotificationDialogSymbian17TitleTextWrappingEv @ 3306 NONAME
	_ZNK34CHbDeviceNotificationDialogSymbian4TextEv @ 3307 NONAME
	_ZNK34CHbDeviceNotificationDialogSymbian5TitleEv @ 3308 NONAME
	_ZNK34CHbDeviceNotificationDialogSymbian7TimeoutEv @ 3309 NONAME
	_ZNK34CHbDeviceNotificationDialogSymbian8IconNameEv @ 3310 NONAME
	_ZTI14HbFormatDialog @ 3311 NONAME
	_ZTV14HbFormatDialog @ 3312 NONAME
	_ZThn16_N14HbFormatDialogD0Ev @ 3313 NONAME
	_ZThn16_N14HbFormatDialogD1Ev @ 3314 NONAME
	_ZThn16_N16HbDateTimePicker11setGeometryERK6QRectF @ 3315 NONAME
	_ZThn8_N14HbFormatDialogD0Ev @ 3316 NONAME
	_ZThn8_N14HbFormatDialogD1Ev @ 3317 NONAME
	_ZN10HbGroupBox10setHeadingERK7QString @ 3318 NONAME
	_ZN10HbGroupBox17setMarqueeHeadingEb @ 3319 NONAME
	_ZN10HbListView18orientationChangedEN2Qt11OrientationE @ 3320 NONAME
	_ZN10HbTextEdit6polishER17HbStyleParameters @ 3321 NONAME
	_ZN12HbMessageBox11informationERK7QStringP15QGraphicsWidgetP14QGraphicsSceneP13QGraphicsItem @ 3322 NONAME ABSENT
	_ZN12HbMessageBox15mousePressEventEP24QGraphicsSceneMouseEvent @ 3323 NONAME ABSENT
	_ZN12HbMessageBox17mouseReleaseEventEP24QGraphicsSceneMouseEvent @ 3324 NONAME ABSENT
	_ZN12HbMessageBox7warningERK7QStringP15QGraphicsWidgetP14QGraphicsSceneP13QGraphicsItem @ 3325 NONAME ABSENT
	_ZN12HbMessageBox8questionERK7QStringS2_S2_P15QGraphicsWidgetP14QGraphicsSceneP13QGraphicsItem @ 3326 NONAME ABSENT
	_ZN12HbPushButton12setStretchedEb @ 3327 NONAME
	_ZN12HbPushButton16setTextAlignmentE6QFlagsIN2Qt13AlignmentFlagEE @ 3328 NONAME
	_ZN14HbAbstractEdit6polishER17HbStyleParameters @ 3329 NONAME
	_ZN14HbFormatDialog6polishER17HbStyleParameters @ 3330 NONAME
	_ZN14HbGridViewItem6polishER17HbStyleParameters @ 3331 NONAME
	_ZN15HbComboDropDown11eventFilterEP7QObjectP6QEvent @ 3332 NONAME ABSENT
	_ZN15HbComboDropDown11qt_metacallEN11QMetaObject4CallEiPPv @ 3333 NONAME ABSENT
	_ZN15HbComboDropDown11qt_metacastEPKc @ 3334 NONAME ABSENT
	_ZN15HbComboDropDown12keypadClosedEv @ 3335 NONAME ABSENT
	_ZN15HbComboDropDown12keypadOpenedEv @ 3336 NONAME ABSENT
	_ZN15HbComboDropDown16staticMetaObjectE @ 3337 NONAME DATA 16 ABSENT
	_ZN15HbComboDropDown19getStaticMetaObjectEv @ 3338 NONAME ABSENT
	_ZN15HbComboDropDownC1EP13QGraphicsItem @ 3339 NONAME ABSENT
	_ZN15HbComboDropDownC2EP13QGraphicsItem @ 3340 NONAME ABSENT
	_ZN15HbComboDropDownD0Ev @ 3341 NONAME ABSENT
	_ZN15HbComboDropDownD1Ev @ 3342 NONAME ABSENT
	_ZN15HbComboDropDownD2Ev @ 3343 NONAME ABSENT
	_ZN18HbDataFormViewItem17pressStateChangedEbb @ 3344 NONAME
	_ZN18HbDataFormViewItem4saveEv @ 3345 NONAME
	_ZN18HbDataFormViewItem7restoreEv @ 3346 NONAME
	_ZN22HbDeviceProgressDialog15setProgressTypeEN16HbProgressDialog18ProgressDialogTypeE @ 3347 NONAME
	_ZN22HbDeviceProgressDialogC1EN16HbProgressDialog18ProgressDialogTypeEP7QObject @ 3348 NONAME
	_ZN22HbDeviceProgressDialogC2EN16HbProgressDialog18ProgressDialogTypeEP7QObject @ 3349 NONAME
	_ZNK10HbGroupBox14marqueeHeadingEv @ 3350 NONAME
	_ZNK10HbGroupBox7headingEv @ 3351 NONAME
	_ZNK12HbPushButton11isStretchedEv @ 3352 NONAME
	_ZNK12HbPushButton13textAlignmentEv @ 3353 NONAME
	_ZNK14HbListViewItem24getSecondaryTextRowCountERiS0_ @ 3354 NONAME
	_ZNK15HbComboDropDown10metaObjectEv @ 3355 NONAME ABSENT
	_ZNK22HbDeviceProgressDialog12progressTypeEv @ 3356 NONAME
	_ZTI15HbComboDropDown @ 3357 NONAME ABSENT
	_ZTV15HbComboDropDown @ 3358 NONAME ABSENT
	_ZThn16_N15HbComboDropDownD0Ev @ 3359 NONAME ABSENT
	_ZThn16_N15HbComboDropDownD1Ev @ 3360 NONAME ABSENT
	_ZThn8_N12HbMessageBox15mousePressEventEP24QGraphicsSceneMouseEvent @ 3361 NONAME ABSENT
	_ZThn8_N12HbMessageBox17mouseReleaseEventEP24QGraphicsSceneMouseEvent @ 3362 NONAME ABSENT
	_ZThn8_N15HbComboDropDownD0Ev @ 3363 NONAME ABSENT
	_ZThn8_N15HbComboDropDownD1Ev @ 3364 NONAME ABSENT
	_ZN12HbMessageBox14setIconVisibleEb @ 3365 NONAME
	_ZN16HbListWidgetItem16setSecondaryIconERK6HbIcon @ 3366 NONAME
	_ZN16HbListWidgetItem7setIconERK6HbIcon @ 3367 NONAME
	_ZN17HbZoomSliderPopup10itemChangeEN13QGraphicsItem18GraphicsItemChangeERK8QVariant @ 3368 NONAME ABSENT
	_ZN19HbVolumeSliderPopup10itemChangeEN13QGraphicsItem18GraphicsItemChangeERK8QVariant @ 3369 NONAME ABSENT
	_ZN26CHbDeviceMessageBoxSymbian10SetTimeoutEi @ 3370 NONAME
	_ZN26CHbDeviceMessageBoxSymbian16SetDismissPolicyEi @ 3371 NONAME
	_ZN26CHbDeviceMessageBoxSymbian16SetIconAlignmentEi @ 3372 NONAME ABSENT
	_ZN26CHbDeviceMessageBoxSymbian9SetButtonENS_9TButtonIdEi @ 3373 NONAME
	_ZN30CHbDeviceProgressDialogSymbian10SetMaximumEi @ 3374 NONAME
	_ZN30CHbDeviceProgressDialogSymbian10SetMinimumEi @ 3375 NONAME
	_ZN30CHbDeviceProgressDialogSymbian11SetObserverEP31MHbDeviceProgressDialogObserver @ 3376 NONAME
	_ZN30CHbDeviceProgressDialogSymbian12SetAutoCloseEi @ 3377 NONAME
	_ZN30CHbDeviceProgressDialogSymbian12SetIconNameLERK7TDesC16 @ 3378 NONAME
	_ZN30CHbDeviceProgressDialogSymbian15SetProgressTypeENS_5TTypeE @ 3379 NONAME
	_ZN30CHbDeviceProgressDialogSymbian15SetTextWrappingEi @ 3380 NONAME ABSENT
	_ZN30CHbDeviceProgressDialogSymbian16SetIconAlignmentEi @ 3381 NONAME ABSENT
	_ZN30CHbDeviceProgressDialogSymbian16SetProgressValueEi @ 3382 NONAME
	_ZN30CHbDeviceProgressDialogSymbian16SetTextAlignmentEi @ 3383 NONAME ABSENT
	_ZN30CHbDeviceProgressDialogSymbian4NewLENS_5TTypeEP31MHbDeviceProgressDialogObserver @ 3384 NONAME
	_ZN30CHbDeviceProgressDialogSymbian5ShowLEv @ 3385 NONAME
	_ZN30CHbDeviceProgressDialogSymbian6CancelEv @ 3386 NONAME ABSENT
	_ZN30CHbDeviceProgressDialogSymbian7UpdateLEv @ 3387 NONAME
	_ZN30CHbDeviceProgressDialogSymbian8SetRangeEii @ 3388 NONAME
	_ZN30CHbDeviceProgressDialogSymbian8SetTextLERK7TDesC16 @ 3389 NONAME
	_ZN30CHbDeviceProgressDialogSymbianD0Ev @ 3390 NONAME
	_ZN30CHbDeviceProgressDialogSymbianD1Ev @ 3391 NONAME
	_ZN30CHbDeviceProgressDialogSymbianD2Ev @ 3392 NONAME
	_ZN34CHbDeviceNotificationDialogSymbian10SetTimeoutEi @ 3393 NONAME
	_ZN34CHbDeviceNotificationDialogSymbian20SetTitleTextWrappingENS_12TextWrappingE @ 3394 NONAME
	_ZN34CHbDeviceNotificationDialogSymbian21EnableTouchActivationEi @ 3395 NONAME
	_ZN8HbSlider6polishER17HbStyleParameters @ 3396 NONAME ABSENT
	_ZNK12HbMessageBox11iconVisibleEv @ 3397 NONAME
	_ZNK16HbListWidgetItem13secondaryIconEv @ 3398 NONAME
	_ZNK16HbListWidgetItem4iconEv @ 3399 NONAME
	_ZNK30CHbDeviceProgressDialogSymbian12ProgressTypeEv @ 3400 NONAME
	_ZNK30CHbDeviceProgressDialogSymbian12TextWrappingEv @ 3401 NONAME ABSENT
	_ZNK30CHbDeviceProgressDialogSymbian13IconAlignmentEv @ 3402 NONAME ABSENT
	_ZNK30CHbDeviceProgressDialogSymbian13ProgressValueEv @ 3403 NONAME
	_ZNK30CHbDeviceProgressDialogSymbian13TextAlignmentEv @ 3404 NONAME ABSENT
	_ZNK30CHbDeviceProgressDialogSymbian4TextEv @ 3405 NONAME
	_ZNK30CHbDeviceProgressDialogSymbian7MaximumEv @ 3406 NONAME
	_ZNK30CHbDeviceProgressDialogSymbian7MinimumEv @ 3407 NONAME
	_ZNK30CHbDeviceProgressDialogSymbian8IconNameEv @ 3408 NONAME
	_ZNK30CHbDeviceProgressDialogSymbian9AutoCloseEv @ 3409 NONAME
	_ZThn8_N17HbZoomSliderPopup10itemChangeEN13QGraphicsItem18GraphicsItemChangeERK8QVariant @ 3410 NONAME ABSENT
	_ZThn8_N19HbVolumeSliderPopup10itemChangeEN13QGraphicsItem18GraphicsItemChangeERK8QVariant @ 3411 NONAME ABSENT
	_ZN10HbGridView22scrollDirectionChangedE6QFlagsIN2Qt11OrientationEE @ 3412 NONAME
	_ZN10HbGridView27orientationAboutToBeChangedEv @ 3413 NONAME
	_ZN14HbAbstractEdit10itemChangeEN13QGraphicsItem18GraphicsItemChangeERK8QVariant @ 3414 NONAME
	_ZN15HbIndexFeedback11eventFilterEP7QObjectP6QEvent @ 3415 NONAME
	_ZN15HbIndexFeedback11qt_metacallEN11QMetaObject4CallEiPPv @ 3416 NONAME
	_ZN15HbIndexFeedback11qt_metacastEPKc @ 3417 NONAME
	_ZN15HbIndexFeedback11setItemViewEP18HbAbstractItemView @ 3418 NONAME
	_ZN15HbIndexFeedback16sceneEventFilterEP13QGraphicsItemP6QEvent @ 3419 NONAME
	_ZN15HbIndexFeedback16staticMetaObjectE @ 3420 NONAME DATA 16
	_ZN15HbIndexFeedback19getStaticMetaObjectEv @ 3421 NONAME
	_ZN15HbIndexFeedback22setIndexFeedbackPolicyENS_19IndexFeedbackPolicyE @ 3422 NONAME
	_ZN15HbIndexFeedback6polishER17HbStyleParameters @ 3423 NONAME
	_ZN15HbIndexFeedbackC1EP13QGraphicsItem @ 3424 NONAME
	_ZN15HbIndexFeedbackC2EP13QGraphicsItem @ 3425 NONAME
	_ZN15HbIndexFeedbackD0Ev @ 3426 NONAME
	_ZN15HbIndexFeedbackD1Ev @ 3427 NONAME
	_ZN15HbIndexFeedbackD2Ev @ 3428 NONAME
	_ZNK10HbComboBox15initStyleOptionEP21HbStyleOptionComboBox @ 3429 NONAME
	_ZNK15HbIndexFeedback10metaObjectEv @ 3430 NONAME
	_ZNK15HbIndexFeedback15initStyleOptionEP26HbStyleOptionIndexFeedback @ 3431 NONAME ABSENT
	_ZNK15HbIndexFeedback19indexFeedbackPolicyEv @ 3432 NONAME
	_ZNK15HbIndexFeedback8itemViewEv @ 3433 NONAME
	_ZNK15HbIndexFeedback9primitiveEN7HbStyle9PrimitiveE @ 3434 NONAME ABSENT
	_ZTI15HbIndexFeedback @ 3435 NONAME
	_ZTV15HbIndexFeedback @ 3436 NONAME
	_ZThn16_N15HbIndexFeedbackD0Ev @ 3437 NONAME
	_ZThn16_N15HbIndexFeedbackD1Ev @ 3438 NONAME
	_ZThn8_N14HbAbstractEdit10itemChangeEN13QGraphicsItem18GraphicsItemChangeERK8QVariant @ 3439 NONAME
	_ZThn8_N15HbIndexFeedback16sceneEventFilterEP13QGraphicsItemP6QEvent @ 3440 NONAME
	_ZThn8_N15HbIndexFeedbackD0Ev @ 3441 NONAME
	_ZThn8_N15HbIndexFeedbackD1Ev @ 3442 NONAME
	_ZN10HbDataForm17mouseReleaseEventEP24QGraphicsSceneMouseEvent @ 3443 NONAME ABSENT
	_ZN10HbLineEdit12focusInEventEP11QFocusEvent @ 3444 NONAME
	_ZN12HbListDialog14getStringItemsERK7QStringRK11QStringListP7QObjectPKciN18HbAbstractItemView13SelectionModeEP14QGraphicsSceneP13QGraphicsItem @ 3445 NONAME ABSENT
	_ZN12HbListDialog14getWidgetItemsERK7QStringR5QListIP16HbListWidgetItemEP7QObjectPKciN18HbAbstractItemView13SelectionModeEP14QGraphicsSceneP13QGraphicsItem @ 3446 NONAME ABSENT
	_ZN12HbListDialog15getModelIndexesERK7QStringP18QAbstractItemModelP7QObjectPKcN18HbAbstractItemView13SelectionModeEP14QGraphicsSceneP13QGraphicsItem @ 3447 NONAME ABSENT
	_ZN12HbMessageBox11informationERK7QStringP7QObjectPKcP15QGraphicsWidgetP14QGraphicsSceneP13QGraphicsItem @ 3448 NONAME
	_ZN12HbMessageBox7warningERK7QStringP7QObjectPKcP15QGraphicsWidgetP14QGraphicsSceneP13QGraphicsItem @ 3449 NONAME
	_ZN12HbMessageBox8questionERK7QStringP7QObjectPKcS2_S2_P15QGraphicsWidgetP14QGraphicsSceneP13QGraphicsItem @ 3450 NONAME
	_ZN12HbPushButton14mouseMoveEventEP24QGraphicsSceneMouseEvent @ 3451 NONAME ABSENT
	_ZN13HbColorDialog8finishedE6QColorb @ 3452 NONAME
	_ZN13HbColorDialog8getColorERK5QListI6QColorERKS1_P7QObjectPKcbP14QGraphicsSceneP13QGraphicsItem @ 3453 NONAME
	_ZN13HbInputDialog10getIntegerERK7QStringP7QObjectPKciP14QGraphicsSceneP13QGraphicsItem @ 3454 NONAME
	_ZN13HbInputDialog5getIpERK7QStringP7QObjectPKcS2_P14QGraphicsSceneP13QGraphicsItem @ 3455 NONAME
	_ZN13HbInputDialog7getTextERK7QStringP7QObjectPKcS2_P14QGraphicsSceneP13QGraphicsItem @ 3456 NONAME
	_ZN13HbInputDialog9getDoubleERK7QStringP7QObjectPKcdP14QGraphicsSceneP13QGraphicsItem @ 3457 NONAME
	_ZN16HbProgressSlider14setHandleStateENS_11HandleStateE @ 3458 NONAME ABSENT
	_ZN16HbProgressSlider16sceneEventFilterEP13QGraphicsItemP6QEvent @ 3459 NONAME
	_ZN18HbAbstractItemView16sceneEventFilterEP13QGraphicsItemP6QEvent @ 3460 NONAME
	_ZN18HbAbstractItemView16selectionCommandEPK18HbAbstractViewItemPK6QEvent @ 3461 NONAME
	_ZN18HbAbstractItemView20setEnabledAnimationsE6QFlagsINS_13ItemAnimationEE @ 3462 NONAME
	_ZN18HbDataFormViewItem9showEventEP10QShowEvent @ 3463 NONAME
	_ZN18HbDeviceMessageBox22setAnimationDefinitionER7QString @ 3464 NONAME
	_ZN19HbDataFormModelItem10setEnabledEb @ 3465 NONAME
	_ZN20HbNotificationDialog10itemChangeEN13QGraphicsItem18GraphicsItemChangeERK8QVariant @ 3466 NONAME
	_ZN20HbNotificationDialog17setSequentialShowEb @ 3467 NONAME
	_ZN22HbDeviceProgressDialog22setAnimationDefinitionER7QString @ 3468 NONAME
	_ZN26CHbDeviceMessageBoxSymbian23SetAnimationDefinitionLERK7TDesC16 @ 3469 NONAME
	_ZN26HbDeviceNotificationDialog22setAnimationDefinitionER7QString @ 3470 NONAME
	_ZN30CHbDeviceProgressDialogSymbian23SetAnimationDefinitionLERK7TDesC16 @ 3471 NONAME
	_ZN34CHbDeviceNotificationDialogSymbian23SetAnimationDefinitionLERK7TDesC16 @ 3472 NONAME
	_ZNK10HbListView11draggedItemEv @ 3473 NONAME
	_ZNK14HbAbstractEdit11characterAtEi @ 3474 NONAME
	_ZNK15HbDataFormModel5flagsERK11QModelIndex @ 3475 NONAME
	_ZNK16HbProgressSlider11handleStateEv @ 3476 NONAME ABSENT
	_ZNK18HbAbstractItemView17enabledAnimationsEv @ 3477 NONAME
	_ZNK18HbDataFormViewItem15initStyleOptionEP29HbStyleOptionDataFormViewItem @ 3478 NONAME
	_ZNK18HbDataFormViewItem16canSetModelIndexERK11QModelIndex @ 3479 NONAME
	_ZNK18HbDeviceMessageBox19animationDefinitionEv @ 3480 NONAME
	_ZNK19HbDataFormModelItem5flagsEv @ 3481 NONAME
	_ZNK19HbDataFormModelItem9isEnabledEv @ 3482 NONAME
	_ZNK20HbNotificationDialog16isSequentialShowEv @ 3483 NONAME
	_ZNK22HbDeviceProgressDialog19animationDefinitionEv @ 3484 NONAME
	_ZNK26CHbDeviceMessageBoxSymbian19AnimationDefinitionEv @ 3485 NONAME
	_ZNK26HbDeviceNotificationDialog19animationDefinitionEv @ 3486 NONAME
	_ZNK30CHbDeviceProgressDialogSymbian19AnimationDefinitionEv @ 3487 NONAME
	_ZNK34CHbDeviceNotificationDialogSymbian19AnimationDefinitionEv @ 3488 NONAME
	_ZThn8_N10HbDataForm17mouseReleaseEventEP24QGraphicsSceneMouseEvent @ 3489 NONAME ABSENT
	_ZThn8_N10HbLineEdit12focusInEventEP11QFocusEvent @ 3490 NONAME
	_ZThn8_N12HbPushButton14mouseMoveEventEP24QGraphicsSceneMouseEvent @ 3491 NONAME ABSENT
	_ZThn8_N16HbProgressSlider16sceneEventFilterEP13QGraphicsItemP6QEvent @ 3492 NONAME
	_ZThn8_N18HbAbstractItemView16sceneEventFilterEP13QGraphicsItemP6QEvent @ 3493 NONAME
	_ZThn8_N20HbNotificationDialog10itemChangeEN13QGraphicsItem18GraphicsItemChangeERK8QVariant @ 3494 NONAME
	_ZN10HbTextEdit12focusInEventEP11QFocusEvent @ 3495 NONAME ABSENT
	_ZN10HbTextEdit13focusOutEventEP11QFocusEvent @ 3496 NONAME ABSENT
	_ZThn8_N10HbTextEdit12focusInEventEP11QFocusEvent @ 3497 NONAME ABSENT
	_ZThn8_N10HbTextEdit13focusOutEventEP11QFocusEvent @ 3498 NONAME ABSENT
	_ZN10HbGridView20rowsAboutToBeRemovedERK11QModelIndexii @ 3499 NONAME
	_ZN12HbPushButton26setAdditionalTextAlignmentE6QFlagsIN2Qt13AlignmentFlagEE @ 3500 NONAME
	_ZN12HbPushButton6polishER17HbStyleParameters @ 3501 NONAME
	_ZN12HbTumbleView10itemChangeEN13QGraphicsItem18GraphicsItemChangeERK8QVariant @ 3502 NONAME
	_ZN12HbTumbleView11qt_metacallEN11QMetaObject4CallEiPPv @ 3503 NONAME
	_ZN12HbTumbleView11qt_metacastEPKc @ 3504 NONAME
	_ZN12HbTumbleView11rowsRemovedERK11QModelIndexii @ 3505 NONAME
	_ZN12HbTumbleView11setGeometryERK6QRectF @ 3506 NONAME
	_ZN12HbTumbleView11setSelectedEi @ 3507 NONAME
	_ZN12HbTumbleView12itemSelectedEi @ 3508 NONAME
	_ZN12HbTumbleView12rowsInsertedERK11QModelIndexii @ 3509 NONAME
	_ZN12HbTumbleView15mousePressEventEP24QGraphicsSceneMouseEvent @ 3510 NONAME
	_ZN12HbTumbleView16staticMetaObjectE @ 3511 NONAME DATA 16
	_ZN12HbTumbleView16updatePrimitivesEv @ 3512 NONAME
	_ZN12HbTumbleView17mouseReleaseEventEP24QGraphicsSceneMouseEvent @ 3513 NONAME
	_ZN12HbTumbleView17setLoopingEnabledEb @ 3514 NONAME
	_ZN12HbTumbleView19currentIndexChangedERK11QModelIndexS2_ @ 3515 NONAME
	_ZN12HbTumbleView19getStaticMetaObjectEv @ 3516 NONAME
	_ZN12HbTumbleView20rowsAboutToBeRemovedERK11QModelIndexii @ 3517 NONAME
	_ZN12HbTumbleView21rowsAboutToBeInsertedERK11QModelIndexii @ 3518 NONAME
	_ZN12HbTumbleView5eventEP6QEvent @ 3519 NONAME
	_ZN12HbTumbleView8scrollToERK11QModelIndexN18HbAbstractItemView10ScrollHintE @ 3520 NONAME
	_ZN12HbTumbleView8setItemsERK11QStringList @ 3521 NONAME
	_ZN12HbTumbleViewC1EP13QGraphicsItem @ 3522 NONAME
	_ZN12HbTumbleViewC1ER19HbTumbleViewPrivateP13QGraphicsItem @ 3523 NONAME
	_ZN12HbTumbleViewC1ERK11QStringListP13QGraphicsItem @ 3524 NONAME
	_ZN12HbTumbleViewC2EP13QGraphicsItem @ 3525 NONAME
	_ZN12HbTumbleViewC2ER19HbTumbleViewPrivateP13QGraphicsItem @ 3526 NONAME
	_ZN12HbTumbleViewC2ERK11QStringListP13QGraphicsItem @ 3527 NONAME
	_ZN12HbTumbleViewD0Ev @ 3528 NONAME
	_ZN12HbTumbleViewD1Ev @ 3529 NONAME
	_ZN12HbTumbleViewD2Ev @ 3530 NONAME
	_ZN13HbColorDialog6polishER17HbStyleParameters @ 3531 NONAME
	_ZN13HbInputDialog16updatePrimitivesEv @ 3532 NONAME
	_ZN13HbProgressBarC1EP13QGraphicsItem @ 3533 NONAME
	_ZN13HbProgressBarC1ER20HbProgressBarPrivateP13QGraphicsItem @ 3534 NONAME
	_ZN13HbProgressBarC2EP13QGraphicsItem @ 3535 NONAME
	_ZN13HbProgressBarC2ER20HbProgressBarPrivateP13QGraphicsItem @ 3536 NONAME
	_ZN13HbSliderPopup14setElementIconEN8HbSlider13SliderElementERK6HbIcon @ 3537 NONAME
	_ZN13HbSliderPopup14setTrackFilledEb @ 3538 NONAME
	_ZN13HbSliderPopup15setElementIconsERK4QMapI7QString8QVariantE @ 3539 NONAME
	_ZN13HbSliderPopup17setSliderElementsERK5QListI8QVariantE @ 3540 NONAME
	_ZN14HbRatingSlider10itemChangeEN13QGraphicsItem18GraphicsItemChangeERK8QVariant @ 3541 NONAME
	_ZN15HbModelIterator12setRootIndexE11QModelIndex @ 3542 NONAME
	_ZN15HbModelIterator8setModelEP18QAbstractItemModel11QModelIndex @ 3543 NONAME
	_ZN15HbModelIteratorC1EP18QAbstractItemModel11QModelIndex @ 3544 NONAME
	_ZN15HbModelIteratorC1ER22HbModelIteratorPrivate @ 3545 NONAME
	_ZN15HbModelIteratorC2EP18QAbstractItemModel11QModelIndex @ 3546 NONAME
	_ZN15HbModelIteratorC2ER22HbModelIteratorPrivate @ 3547 NONAME
	_ZN15HbModelIteratorD0Ev @ 3548 NONAME
	_ZN15HbModelIteratorD1Ev @ 3549 NONAME
	_ZN15HbModelIteratorD2Ev @ 3550 NONAME
	_ZN16HbProgressSlider14setSliderStateENS_11SliderStateE @ 3551 NONAME ABSENT
	_ZN16HbProgressSlider16setSliderToolTipERK7QString @ 3552 NONAME
	_ZN16HbTumbleViewItem10createItemEv @ 3553 NONAME
	_ZN16HbTumbleViewItem11qt_metacallEN11QMetaObject4CallEiPPv @ 3554 NONAME
	_ZN16HbTumbleViewItem11qt_metacastEPKc @ 3555 NONAME
	_ZN16HbTumbleViewItem16staticMetaObjectE @ 3556 NONAME DATA 16
	_ZN16HbTumbleViewItem16updateChildItemsEv @ 3557 NONAME
	_ZN16HbTumbleViewItem19getStaticMetaObjectEv @ 3558 NONAME
	_ZN16HbTumbleViewItemC1EP13QGraphicsItem @ 3559 NONAME
	_ZN16HbTumbleViewItemC2EP13QGraphicsItem @ 3560 NONAME
	_ZN16HbTumbleViewItemD0Ev @ 3561 NONAME
	_ZN16HbTumbleViewItemD1Ev @ 3562 NONAME
	_ZN16HbTumbleViewItemD2Ev @ 3563 NONAME
	_ZN17HbRadioButtonList16selectionCommandEPK18HbAbstractViewItemPK6QEvent @ 3564 NONAME
	_ZN18HbAbstractItemView16setSelectionModeENS_13SelectionModeE @ 3565 NONAME
	_ZN18HbAbstractItemViewC2ER25HbAbstractItemViewPrivateP23HbAbstractItemContainerP15HbModelIteratorP13QGraphicsItem @ 3566 NONAME
	_ZN18HbDeviceMessageBox14setIconVisibleEb @ 3567 NONAME
	_ZN18HbDeviceMessageBox17setMessageBoxTypeEN12HbMessageBox14MessageBoxTypeE @ 3568 NONAME
	_ZN18HbDeviceMessageBox6updateEv @ 3569 NONAME
	_ZN18HbDeviceMessageBox9setActionEP7QActionNS_10ActionRoleE @ 3570 NONAME
	_ZN19HbDataFormModelItem14setDescriptionERK7QString @ 3571 NONAME
	_ZN22HbDeviceProgressDialog5closeEv @ 3572 NONAME
	_ZN22HbDeviceProgressDialog6updateEv @ 3573 NONAME
	_ZN22HbDeviceProgressDialog9setActionEP7QActionNS_10ActionRoleE @ 3574 NONAME
	_ZN26CHbDeviceMessageBoxSymbian14SetIconVisibleEi @ 3575 NONAME
	_ZN30CHbDeviceProgressDialogSymbian14SetButtonTextLERK7TDesC16 @ 3576 NONAME
	_ZN30CHbDeviceProgressDialogSymbian5CloseEv @ 3577 NONAME
	_ZN30CHbDeviceProgressDialogSymbian9SetButtonEi @ 3578 NONAME
	_ZN8HbSlider14setElementIconENS_13SliderElementERK6HbIcon @ 3579 NONAME
	_ZN8HbSlider14setTrackFilledEb @ 3580 NONAME
	_ZN8HbSlider15setElementIconsERK4QMapI7QString8QVariantE @ 3581 NONAME
	_ZN8HbSlider17setSliderElementsERK5QListI8QVariantE @ 3582 NONAME
	_ZNK12HbPushButton23additionalTextAlignmentEv @ 3583 NONAME
	_ZNK12HbTumbleView10metaObjectEv @ 3584 NONAME
	_ZNK12HbTumbleView16isLoopingEnabledEv @ 3585 NONAME
	_ZNK12HbTumbleView5itemsEv @ 3586 NONAME
	_ZNK12HbTumbleView8selectedEv @ 3587 NONAME
	_ZNK12HbTumbleView8sizeHintEN2Qt8SizeHintERK6QSizeF @ 3588 NONAME
	_ZNK12HbTumbleView9primitiveEN7HbStyle9PrimitiveE @ 3589 NONAME ABSENT
	_ZNK13HbInputDialog15initStyleOptionEP24HbStyleOptionInputDialog @ 3590 NONAME
	_ZNK13HbInputDialog9primitiveEN7HbStyle9PrimitiveE @ 3591 NONAME ABSENT
	_ZNK13HbSliderPopup11elementIconEN8HbSlider13SliderElementE @ 3592 NONAME
	_ZNK13HbSliderPopup12elementIconsEv @ 3593 NONAME
	_ZNK13HbSliderPopup13isTrackFilledEv @ 3594 NONAME
	_ZNK13HbSliderPopup14sliderElementsEv @ 3595 NONAME
	_ZNK15HbModelIterator10indexCountERK11QModelIndex @ 3596 NONAME
	_ZNK15HbModelIterator13indexPositionERK11QModelIndex @ 3597 NONAME
	_ZNK15HbModelIterator13previousIndexERK11QModelIndex @ 3598 NONAME
	_ZNK15HbModelIterator5indexEiRK11QModelIndex @ 3599 NONAME
	_ZNK15HbModelIterator5modelEv @ 3600 NONAME
	_ZNK15HbModelIterator8lessThanERK11QModelIndexS2_ @ 3601 NONAME
	_ZNK15HbModelIterator9nextIndexERK11QModelIndex @ 3602 NONAME
	_ZNK15HbModelIterator9rootIndexEv @ 3603 NONAME
	_ZNK16HbProgressSlider11sliderStateEv @ 3604 NONAME ABSENT
	_ZNK16HbProgressSlider13sliderToolTipEv @ 3605 NONAME
	_ZNK16HbProgressSlider9primitiveEN7HbStyle9PrimitiveE @ 3606 NONAME ABSENT
	_ZNK16HbTumbleViewItem10metaObjectEv @ 3607 NONAME
	_ZNK16HbTumbleViewItem4typeEv @ 3608 NONAME
	_ZNK18HbAbstractItemView13modelIteratorEv @ 3609 NONAME
	_ZNK18HbDeviceMessageBox11iconVisibleEv @ 3610 NONAME
	_ZNK18HbDeviceMessageBox14isAcceptActionEPK7QAction @ 3611 NONAME
	_ZNK18HbDeviceMessageBox14messageBoxTypeEv @ 3612 NONAME
	_ZNK18HbDeviceMessageBox15triggeredActionEv @ 3613 NONAME
	_ZNK18HbDeviceMessageBox4execEv @ 3614 NONAME ABSENT
	_ZNK18HbDeviceMessageBox6actionENS_10ActionRoleE @ 3615 NONAME
	_ZNK19HbDataFormModelItem11descriptionEv @ 3616 NONAME
	_ZNK22HbDeviceProgressDialog15triggeredActionEv @ 3617 NONAME
	_ZNK22HbDeviceProgressDialog6actionENS_10ActionRoleE @ 3618 NONAME
	_ZNK26CHbDeviceMessageBoxSymbian11IconVisibleEv @ 3619 NONAME
	_ZNK30CHbDeviceProgressDialogSymbian10ButtonTextEv @ 3620 NONAME
	_ZNK30CHbDeviceProgressDialogSymbian9HasButtonEv @ 3621 NONAME
	_ZNK8HbSlider11elementIconENS_13SliderElementE @ 3622 NONAME
	_ZNK8HbSlider12elementIconsEv @ 3623 NONAME
	_ZNK8HbSlider13isTrackFilledEv @ 3624 NONAME
	_ZNK8HbSlider14sliderElementsEv @ 3625 NONAME
	_ZTI12HbTumbleView @ 3626 NONAME
	_ZTI15HbModelIterator @ 3627 NONAME
	_ZTI16HbTumbleViewItem @ 3628 NONAME
	_ZTV12HbTumbleView @ 3629 NONAME
	_ZTV15HbModelIterator @ 3630 NONAME
	_ZTV16HbTumbleViewItem @ 3631 NONAME
	_ZThn16_N12HbTumbleView11setGeometryERK6QRectF @ 3632 NONAME
	_ZThn16_N12HbTumbleViewD0Ev @ 3633 NONAME
	_ZThn16_N12HbTumbleViewD1Ev @ 3634 NONAME
	_ZThn16_N16HbTumbleViewItemD0Ev @ 3635 NONAME
	_ZThn16_N16HbTumbleViewItemD1Ev @ 3636 NONAME
	_ZThn16_NK12HbTumbleView8sizeHintEN2Qt8SizeHintERK6QSizeF @ 3637 NONAME
	_ZThn8_N12HbTumbleView10itemChangeEN13QGraphicsItem18GraphicsItemChangeERK8QVariant @ 3638 NONAME
	_ZThn8_N12HbTumbleView15mousePressEventEP24QGraphicsSceneMouseEvent @ 3639 NONAME
	_ZThn8_N12HbTumbleView17mouseReleaseEventEP24QGraphicsSceneMouseEvent @ 3640 NONAME
	_ZThn8_N12HbTumbleViewD0Ev @ 3641 NONAME
	_ZThn8_N12HbTumbleViewD1Ev @ 3642 NONAME
	_ZThn8_N14HbRatingSlider10itemChangeEN13QGraphicsItem18GraphicsItemChangeERK8QVariant @ 3643 NONAME
	_ZThn8_N16HbTumbleViewItemD0Ev @ 3644 NONAME
	_ZThn8_N16HbTumbleViewItemD1Ev @ 3645 NONAME
	_ZThn8_NK16HbTumbleViewItem4typeEv @ 3646 NONAME
	_ZN10HbCheckBox12gestureEventEP13QGestureEvent @ 3647 NONAME
	_ZN10HbTextEdit8setLinedEb @ 3648 NONAME
	_ZN12HbPushButton12gestureEventEP13QGestureEvent @ 3649 NONAME
	_ZN13HbSearchPanel11setCriteriaERK7QString @ 3650 NONAME
	_ZN13HbSearchPanel16setCancelEnabledEb @ 3651 NONAME
	_ZN13HbSearchPanel18setPlaceholderTextERK7QString @ 3652 NONAME
	_ZN14HbAbstractEdit12gestureEventEP13QGestureEvent @ 3653 NONAME
	_ZN14HbAbstractEdit18setPlaceholderTextERK7QString @ 3654 NONAME
	_ZN14HbRatingSlider12gestureEventEP13QGestureEvent @ 3655 NONAME
	_ZN14HbTreeViewItem17setTransientStateERK5QHashI7QString8QVariantE @ 3656 NONAME
	_ZN14HbTreeViewItem17setUserExpandableEb @ 3657 NONAME
	_ZN16HbDateTimePicker11setIntervalEN13QDateTimeEdit7SectionEi @ 3658 NONAME
	_ZN16HbProgressSlider13setHandleIconERK7QString @ 3659 NONAME
	_ZN17HbSelectionDialog11qt_metacallEN11QMetaObject4CallEiPPv @ 3660 NONAME
	_ZN17HbSelectionDialog11qt_metacastEPKc @ 3661 NONAME
	_ZN17HbSelectionDialog14setStringItemsERK11QStringListi @ 3662 NONAME
	_ZN17HbSelectionDialog14setWidgetItemsERK5QListIP16HbListWidgetItemEbi @ 3663 NONAME
	_ZN17HbSelectionDialog16setSelectedItemsE5QListI8QVariantE @ 3664 NONAME
	_ZN17HbSelectionDialog16setSelectionModeEN18HbAbstractItemView13SelectionModeE @ 3665 NONAME
	_ZN17HbSelectionDialog16staticMetaObjectE @ 3666 NONAME DATA 16
	_ZN17HbSelectionDialog19getStaticMetaObjectEv @ 3667 NONAME
	_ZN17HbSelectionDialog8setModelEP18QAbstractItemModel @ 3668 NONAME
	_ZN17HbSelectionDialog9showEventEP10QShowEvent @ 3669 NONAME
	_ZN17HbSelectionDialogC1EP13QGraphicsItem @ 3670 NONAME
	_ZN17HbSelectionDialogC2EP13QGraphicsItem @ 3671 NONAME
	_ZN17HbSelectionDialogD0Ev @ 3672 NONAME
	_ZN17HbSelectionDialogD1Ev @ 3673 NONAME
	_ZN17HbSelectionDialogD2Ev @ 3674 NONAME
	_ZN18HbAbstractItemView11itemCreatedEP18HbAbstractViewItem @ 3675 NONAME
	_ZN18HbAbstractItemView11itemPressedERK7QPointF @ 3676 NONAME
	_ZN18HbAbstractItemView12gestureEventEP13QGestureEvent @ 3677 NONAME
	_ZN18HbAbstractItemView12itemReleasedERK7QPointF @ 3678 NONAME
	_ZN18HbAbstractItemView13itemActivatedERK7QPointF @ 3679 NONAME
	_ZN18HbAbstractItemView15itemLongPressedERK7QPointF @ 3680 NONAME
	_ZN18HbAbstractItemView19setLongPressEnabledEb @ 3681 NONAME
	_ZN18HbAbstractViewItem11longPressedERK7QPointF @ 3682 NONAME
	_ZN18HbAbstractViewItem12gestureEventEP13QGestureEvent @ 3683 NONAME
	_ZN18HbAbstractViewItem17setTransientStateERK5QHashI7QString8QVariantE @ 3684 NONAME
	_ZN18HbAbstractViewItem7pressedERK7QPointF @ 3685 NONAME
	_ZN18HbAbstractViewItem8releasedERK7QPointF @ 3686 NONAME
	_ZN18HbAbstractViewItem9activatedERK7QPointF @ 3687 NONAME
	_ZN20HbNotificationDialog12gestureEventEP13QGestureEvent @ 3688 NONAME
	_ZN23HbAbstractItemContainer11itemCreatedEP18HbAbstractViewItem @ 3689 NONAME
	_ZN23HbAbstractItemContainer21setItemTransientStateERK11QModelIndex5QHashI7QString8QVariantE @ 3690 NONAME
	_ZN23HbAbstractItemContainer25removeItemTransientStatesEv @ 3691 NONAME
	_ZN23HbAbstractItemContainer26setItemTransientStateValueERK11QModelIndexRK7QStringRK8QVariant @ 3692 NONAME
	_ZNK10HbTextEdit7isLinedEv @ 3693 NONAME
	_ZNK13HbProgressBar15initStyleOptionEP24HbStyleOptionProgressBar @ 3694 NONAME
	_ZNK13HbSearchPanel15isCancelEnabledEv @ 3695 NONAME
	_ZNK13HbSearchPanel15placeholderTextEv @ 3696 NONAME
	_ZNK13HbSearchPanel8criteriaEv @ 3697 NONAME
	_ZNK14HbAbstractEdit15placeholderTextEv @ 3698 NONAME
	_ZNK14HbFormatDialog16currentCharColorEv @ 3699 NONAME
	_ZNK14HbTreeViewItem14transientStateEv @ 3700 NONAME
	_ZNK14HbTreeViewItem16isUserExpandableEv @ 3701 NONAME
	_ZNK16HbDateTimePicker8intervalEN13QDateTimeEdit7SectionE @ 3702 NONAME
	_ZNK16HbProgressSlider10handleIconEv @ 3703 NONAME
	_ZNK16HbProgressSlider15initStyleOptionEP27HbStyleOptionProgressSlider @ 3704 NONAME
	_ZNK17HbSelectionDialog10metaObjectEv @ 3705 NONAME
	_ZNK17HbSelectionDialog11stringItemsEv @ 3706 NONAME
	_ZNK17HbSelectionDialog11widgetItemsEv @ 3707 NONAME
	_ZNK17HbSelectionDialog13selectedItemsEv @ 3708 NONAME
	_ZNK17HbSelectionDialog13selectionModeEv @ 3709 NONAME
	_ZNK17HbSelectionDialog20selectedModelIndexesEv @ 3710 NONAME
	_ZNK17HbSelectionDialog5modelEv @ 3711 NONAME
	_ZNK18HbAbstractItemView16longPressEnabledEv @ 3712 NONAME
	_ZNK18HbAbstractViewItem14transientStateEv @ 3713 NONAME
	_ZNK23HbAbstractItemContainer18itemTransientStateERK11QModelIndex @ 3714 NONAME
	_ZTI17HbSelectionDialog @ 3715 NONAME
	_ZTV17HbSelectionDialog @ 3716 NONAME
	_ZThn16_N17HbSelectionDialogD0Ev @ 3717 NONAME
	_ZThn16_N17HbSelectionDialogD1Ev @ 3718 NONAME
	_ZThn8_N17HbSelectionDialogD0Ev @ 3719 NONAME
	_ZThn8_N17HbSelectionDialogD1Ev @ 3720 NONAME
	_ZN10HbLineEdit11eventFilterEP7QObjectP6QEvent @ 3721 NONAME
	_ZN10HbLineEdit28setAdjustFontSizeToFitHeightEb @ 3722 NONAME
	_ZN16HbProgressDialogD0Ev @ 3723 NONAME
	_ZN16HbProgressDialogD1Ev @ 3724 NONAME
	_ZN16HbProgressDialogD2Ev @ 3725 NONAME
	_ZN18HbAbstractItemView18modelLayoutChangedEv @ 3726 NONAME
	_ZN18HbAbstractViewItem10itemChangeEN13QGraphicsItem18GraphicsItemChangeERK8QVariant @ 3727 NONAME
	_ZNK10HbLineEdit25adjustFontSizeToFitHeightEv @ 3728 NONAME
	_ZNK12HbTumbleView9primitiveERK7QString @ 3729 NONAME
	_ZNK14HbGridViewItem21selectionAreaContainsERK7QPointFN18HbAbstractViewItem17SelectionAreaTypeE @ 3730 NONAME
	_ZNK14HbTreeViewItem21selectionAreaContainsERK7QPointFN18HbAbstractViewItem17SelectionAreaTypeE @ 3731 NONAME
	_ZNK16HbProgressDialog15initStyleOptionEP27HbStyleOptionProgressDialog @ 3732 NONAME
	_ZNK18HbAbstractViewItem21selectionAreaContainsERK7QPointFNS_17SelectionAreaTypeE @ 3733 NONAME
	_ZThn16_N16HbProgressDialogD0Ev @ 3734 NONAME
	_ZThn16_N16HbProgressDialogD1Ev @ 3735 NONAME
	_ZThn8_N16HbProgressDialogD0Ev @ 3736 NONAME
	_ZThn8_N16HbProgressDialogD1Ev @ 3737 NONAME
	_ZThn8_N18HbAbstractViewItem10itemChangeEN13QGraphicsItem18GraphicsItemChangeERK8QVariant @ 3738 NONAME
	_ZN11HbDataGroup10createItemEv @ 3739 NONAME
	_ZN11HbDataGroup11pageChangedEi @ 3740 NONAME
	_ZN11HbDataGroup11qt_metacallEN11QMetaObject4CallEiPPv @ 3741 NONAME
	_ZN11HbDataGroup11qt_metacastEPKc @ 3742 NONAME
	_ZN11HbDataGroup11setExpandedEb @ 3743 NONAME
	_ZN11HbDataGroup14setDescriptionERK7QString @ 3744 NONAME
	_ZN11HbDataGroup15initStyleOptionEP22HbStyleOptionDataGroup @ 3745 NONAME
	_ZN11HbDataGroup16staticMetaObjectE @ 3746 NONAME DATA 16
	_ZN11HbDataGroup16updateChildItemsEv @ 3747 NONAME
	_ZN11HbDataGroup16updatePrimitivesEv @ 3748 NONAME
	_ZN11HbDataGroup17pressStateChangedEbb @ 3749 NONAME
	_ZN11HbDataGroup19getStaticMetaObjectEv @ 3750 NONAME
	_ZN11HbDataGroup19updateGroupPageNameEiRK7QString @ 3751 NONAME
	_ZN11HbDataGroup6polishER17HbStyleParameters @ 3752 NONAME
	_ZN11HbDataGroupC1EP13QGraphicsItem @ 3753 NONAME
	_ZN11HbDataGroupC1ERKS_ @ 3754 NONAME
	_ZN11HbDataGroupC2EP13QGraphicsItem @ 3755 NONAME
	_ZN11HbDataGroupC2ERKS_ @ 3756 NONAME
	_ZN11HbDataGroupD0Ev @ 3757 NONAME
	_ZN11HbDataGroupD1Ev @ 3758 NONAME
	_ZN11HbDataGroupD2Ev @ 3759 NONAME
	_ZN12HbGridLayout10insertItemEiP19QGraphicsLayoutItemb @ 3760 NONAME
	_ZN12HbGridLayout10invalidateEv @ 3761 NONAME
	_ZN12HbGridLayout10removeItemEP19QGraphicsLayoutItemb @ 3762 NONAME
	_ZN12HbGridLayout10setMarginsEffff @ 3763 NONAME
	_ZN12HbGridLayout10setSpacingEf @ 3764 NONAME
	_ZN12HbGridLayout11qt_metacallEN11QMetaObject4CallEiPPv @ 3765 NONAME
	_ZN12HbGridLayout11qt_metacastEPKc @ 3766 NONAME
	_ZN12HbGridLayout11setGeometryERK6QRectF @ 3767 NONAME
	_ZN12HbGridLayout11setRowCountEi @ 3768 NONAME
	_ZN12HbGridLayout12recycleItemsEP19QGraphicsLayoutItemS1_ @ 3769 NONAME
	_ZN12HbGridLayout12setRecyclingEb @ 3770 NONAME
	_ZN12HbGridLayout14effectFinishedERKN8HbEffect12EffectStatusE @ 3771 NONAME
	_ZN12HbGridLayout14setColumnCountEi @ 3772 NONAME
	_ZN12HbGridLayout16staticMetaObjectE @ 3773 NONAME DATA 16
	_ZN12HbGridLayout17animationFinishedEP19QGraphicsLayoutItemNS_13AnimationTypeE @ 3774 NONAME
	_ZN12HbGridLayout18isRecyclingEnabledEv @ 3775 NONAME
	_ZN12HbGridLayout18setScrollDirectionE6QFlagsIN2Qt11OrientationEE @ 3776 NONAME
	_ZN12HbGridLayout19getStaticMetaObjectEv @ 3777 NONAME
	_ZN12HbGridLayout7addItemEP19QGraphicsLayoutItem @ 3778 NONAME
	_ZN12HbGridLayout7setSizeERK6QSizeFRi @ 3779 NONAME
	_ZN12HbGridLayout8moveItemEP19QGraphicsLayoutItemib @ 3780 NONAME
	_ZN12HbGridLayout8removeAtEi @ 3781 NONAME
	_ZN12HbGridLayoutC1EP19QGraphicsLayoutItem @ 3782 NONAME
	_ZN12HbGridLayoutC1ER19HbGridLayoutPrivateP19QGraphicsLayoutItem @ 3783 NONAME
	_ZN12HbGridLayoutC2EP19QGraphicsLayoutItem @ 3784 NONAME
	_ZN12HbGridLayoutC2ER19HbGridLayoutPrivateP19QGraphicsLayoutItem @ 3785 NONAME
	_ZN12HbGridLayoutD0Ev @ 3786 NONAME
	_ZN12HbGridLayoutD1Ev @ 3787 NONAME
	_ZN12HbGridLayoutD2Ev @ 3788 NONAME
	_ZN12HbListLayout10insertItemEiP19QGraphicsLayoutItemb @ 3789 NONAME
	_ZN12HbListLayout10invalidateEv @ 3790 NONAME
	_ZN12HbListLayout10removeItemEP19QGraphicsLayoutItemb @ 3791 NONAME
	_ZN12HbListLayout11setGeometryERK6QRectF @ 3792 NONAME
	_ZN12HbListLayout7addItemEP19QGraphicsLayoutItemb @ 3793 NONAME
	_ZN12HbListLayout8removeAtEi @ 3794 NONAME
	_ZN12HbListLayoutC1EP19QGraphicsLayoutItem @ 3795 NONAME
	_ZN12HbListLayoutC2EP19QGraphicsLayoutItem @ 3796 NONAME
	_ZN12HbListLayoutD0Ev @ 3797 NONAME
	_ZN12HbListLayoutD1Ev @ 3798 NONAME
	_ZN12HbListLayoutD2Ev @ 3799 NONAME
	_ZN12HbTreeLayout10insertItemEiP19QGraphicsLayoutItemib @ 3800 NONAME
	_ZN12HbTreeLayout10invalidateEv @ 3801 NONAME
	_ZN12HbTreeLayout10removeItemEP19QGraphicsLayoutItemb @ 3802 NONAME
	_ZN12HbTreeLayout7addItemEP19QGraphicsLayoutItemib @ 3803 NONAME
	_ZN14HbAbstractEdit15filterInputTextERK7QString @ 3804 NONAME
	_ZN14HbSliderHandle11forceSetPosERK7QPointF @ 3805 NONAME
	_ZN14HbSliderHandle11qt_metacallEN11QMetaObject4CallEiPPv @ 3806 NONAME
	_ZN14HbSliderHandle11qt_metacastEPKc @ 3807 NONAME
	_ZN14HbSliderHandle12gestureEventEP13QGestureEvent @ 3808 NONAME
	_ZN14HbSliderHandle13setHandleItemEP13QGraphicsItem @ 3809 NONAME
	_ZN14HbSliderHandle14mouseMoveEventEP24QGraphicsSceneMouseEvent @ 3810 NONAME
	_ZN14HbSliderHandle15mousePressEventEP24QGraphicsSceneMouseEvent @ 3811 NONAME
	_ZN14HbSliderHandle16sceneEventFilterEP13QGraphicsItemP6QEvent @ 3812 NONAME
	_ZN14HbSliderHandle16staticMetaObjectE @ 3813 NONAME DATA 16
	_ZN14HbSliderHandle16updatePrimitivesEv @ 3814 NONAME
	_ZN14HbSliderHandle17mouseReleaseEventEP24QGraphicsSceneMouseEvent @ 3815 NONAME
	_ZN14HbSliderHandle19getStaticMetaObjectEv @ 3816 NONAME
	_ZN14HbSliderHandle9showEventEP10QShowEvent @ 3817 NONAME
	_ZN14HbSliderHandleC1EP15HbSliderControl @ 3818 NONAME
	_ZN14HbSliderHandleC2EP15HbSliderControl @ 3819 NONAME
	_ZN14HbSliderHandleD0Ev @ 3820 NONAME
	_ZN14HbSliderHandleD1Ev @ 3821 NONAME
	_ZN14HbSliderHandleD2Ev @ 3822 NONAME
	_ZN14HbSmileyEngine20setSmileyScaleFactorEf @ 3823 NONAME
	_ZN15HbSliderControl10itemChangeEN13QGraphicsItem18GraphicsItemChangeERK8QVariant @ 3824 NONAME
	_ZN15HbSliderControl10sceneEventEP6QEvent @ 3825 NONAME
	_ZN15HbSliderControl11changeEventEP6QEvent @ 3826 NONAME
	_ZN15HbSliderControl11hideToolTipEv @ 3827 NONAME
	_ZN15HbSliderControl11qt_metacallEN11QMetaObject4CallEiPPv @ 3828 NONAME
	_ZN15HbSliderControl11qt_metacastEPKc @ 3829 NONAME
	_ZN15HbSliderControl11resizeEventEP25QGraphicsSceneResizeEvent @ 3830 NONAME
	_ZN15HbSliderControl11showToolTipEv @ 3831 NONAME
	_ZN15HbSliderControl11updateThemeEv @ 3832 NONAME
	_ZN15HbSliderControl12gestureEventEP13QGestureEvent @ 3833 NONAME
	_ZN15HbSliderControl12sliderChangeEN23HbAbstractSliderControl12SliderChangeE @ 3834 NONAME
	_ZN15HbSliderControl13setHandleIconERK7QString @ 3835 NONAME
	_ZN15HbSliderControl13setHandleItemEP13QGraphicsItem @ 3836 NONAME
	_ZN15HbSliderControl14setTrackFilledEb @ 3837 NONAME
	_ZN15HbSliderControl15mousePressEventEP24QGraphicsSceneMouseEvent @ 3838 NONAME
	_ZN15HbSliderControl15releasedOutsideEb @ 3839 NONAME
	_ZN15HbSliderControl15releasedOutsideEv @ 3840 NONAME
	_ZN15HbSliderControl15setSnappingModeENS_12SnappingModeE @ 3841 NONAME
	_ZN15HbSliderControl15setTickPositionE6QFlagsIN2Hb18SliderTickPositionEE @ 3842 NONAME
	_ZN15HbSliderControl16sceneEventFilterEP13QGraphicsItemP6QEvent @ 3843 NONAME
	_ZN15HbSliderControl16setHandleVisibleEb @ 3844 NONAME
	_ZN15HbSliderControl16setPreviousValueEbi @ 3845 NONAME
	_ZN15HbSliderControl16staticMetaObjectE @ 3846 NONAME DATA 16
	_ZN15HbSliderControl16updatePrimitivesEv @ 3847 NONAME
	_ZN15HbSliderControl17mouseReleaseEventEP24QGraphicsSceneMouseEvent @ 3848 NONAME
	_ZN15HbSliderControl17setSliderPositionEi @ 3849 NONAME
	_ZN15HbSliderControl17setToolTipVisibleEb @ 3850 NONAME
	_ZN15HbSliderControl18setMajorTickLabelsERK11QStringList @ 3851 NONAME
	_ZN15HbSliderControl18setMinorTickLabelsERK11QStringList @ 3852 NONAME
	_ZN15HbSliderControl19getStaticMetaObjectEv @ 3853 NONAME
	_ZN15HbSliderControl19setToolTipAlignmentE6QFlagsIN2Qt13AlignmentFlagEE @ 3854 NONAME
	_ZN15HbSliderControl20setMajorTickIntervalEi @ 3855 NONAME
	_ZN15HbSliderControl20setMinorTickIntervalEi @ 3856 NONAME
	_ZN15HbSliderControl21updateSliderPosToTickEv @ 3857 NONAME
	_ZN15HbSliderControl24enableTrackEventHandlingEb @ 3858 NONAME
	_ZN15HbSliderControl27isTrackEventHandlingEnabledEv @ 3859 NONAME
	_ZN15HbSliderControl6polishER17HbStyleParameters @ 3860 NONAME
	_ZN15HbSliderControlC1EN2Qt11OrientationEP13QGraphicsItem @ 3861 NONAME
	_ZN15HbSliderControlC1EP13QGraphicsItem @ 3862 NONAME
	_ZN15HbSliderControlC1ER22HbSliderControlPrivateP13QGraphicsItem @ 3863 NONAME
	_ZN15HbSliderControlC2EN2Qt11OrientationEP13QGraphicsItem @ 3864 NONAME
	_ZN15HbSliderControlC2EP13QGraphicsItem @ 3865 NONAME
	_ZN15HbSliderControlC2ER22HbSliderControlPrivateP13QGraphicsItem @ 3866 NONAME
	_ZN15HbSliderControlD0Ev @ 3867 NONAME
	_ZN15HbSliderControlD1Ev @ 3868 NONAME
	_ZN15HbSliderControlD2Ev @ 3869 NONAME
	_ZN17HbCheckBoxPrivate16createPrimitivesEv @ 3870 NONAME
	_ZN17HbCheckBoxPrivateC1Ev @ 3871 NONAME
	_ZN17HbCheckBoxPrivateC2Ev @ 3872 NONAME
	_ZN17HbCheckBoxPrivateD0Ev @ 3873 NONAME
	_ZN17HbCheckBoxPrivateD1Ev @ 3874 NONAME
	_ZN17HbCheckBoxPrivateD2Ev @ 3875 NONAME
	_ZN17HbSliderTickmarks10itemChangeEN13QGraphicsItem18GraphicsItemChangeERK8QVariant @ 3876 NONAME
	_ZN17HbSliderTickmarks11createIconsEb @ 3877 NONAME ABSENT
	_ZN17HbSliderTickmarks11qt_metacallEN11QMetaObject4CallEiPPv @ 3878 NONAME
	_ZN17HbSliderTickmarks11qt_metacastEPKc @ 3879 NONAME
	_ZN17HbSliderTickmarks11resizeEventEP25QGraphicsSceneResizeEvent @ 3880 NONAME
	_ZN17HbSliderTickmarks11updateTicksEv @ 3881 NONAME
	_ZN17HbSliderTickmarks15setTickPositionE6QFlagsIN2Hb18SliderTickPositionEE @ 3882 NONAME
	_ZN17HbSliderTickmarks16staticMetaObjectE @ 3883 NONAME DATA 16
	_ZN17HbSliderTickmarks19getStaticMetaObjectEv @ 3884 NONAME
	_ZN17HbSliderTickmarks6polishER17HbStyleParameters @ 3885 NONAME
	_ZN17HbSliderTickmarksC1EP13QGraphicsItem @ 3886 NONAME ABSENT
	_ZN17HbSliderTickmarksC2EP13QGraphicsItem @ 3887 NONAME ABSENT
	_ZN17HbSliderTickmarksD0Ev @ 3888 NONAME
	_ZN17HbSliderTickmarksD1Ev @ 3889 NONAME
	_ZN17HbSliderTickmarksD2Ev @ 3890 NONAME
	_ZN18HbDataGroupPrivate10activePageEv @ 3891 NONAME
	_ZN18HbDataGroupPrivate10setHeadingERK7QString @ 3892 NONAME
	_ZN18HbDataGroupPrivate12setGroupPageERK7QString @ 3893 NONAME
	_ZN18HbDataGroupPrivate13setActivePageEi @ 3894 NONAME ABSENT
	_ZN18HbDataGroupPrivate15removeGroupPageERK7QString @ 3895 NONAME
	_ZN18HbDataGroupPrivate4initEv @ 3896 NONAME
	_ZN18HbDataGroupPrivate6expandEb @ 3897 NONAME ABSENT
	_ZN18HbDataGroupPrivateC1EP11HbDataGroup @ 3898 NONAME
	_ZN18HbDataGroupPrivateC1ERKS_ @ 3899 NONAME
	_ZN18HbDataGroupPrivateC2EP11HbDataGroup @ 3900 NONAME
	_ZN18HbDataGroupPrivateC2ERKS_ @ 3901 NONAME
	_ZN18HbDataGroupPrivateD0Ev @ 3902 NONAME
	_ZN18HbDataGroupPrivateD1Ev @ 3903 NONAME
	_ZN18HbDataGroupPrivateD2Ev @ 3904 NONAME
	_ZN19HbGridItemContainer10itemChangeEN13QGraphicsItem18GraphicsItemChangeERK8QVariant @ 3905 NONAME
	_ZN19HbGridItemContainer10removeItemERK11QModelIndexb @ 3906 NONAME
	_ZN19HbGridItemContainer11itemRemovedEP18HbAbstractViewItemb @ 3907 NONAME
	_ZN19HbGridItemContainer11qt_metacallEN11QMetaObject4CallEiPPv @ 3908 NONAME
	_ZN19HbGridItemContainer11qt_metacastEPKc @ 3909 NONAME
	_ZN19HbGridItemContainer11setRowCountEi @ 3910 NONAME
	_ZN19HbGridItemContainer11viewResizedERK6QSizeF @ 3911 NONAME
	_ZN19HbGridItemContainer12recycleItemsERK7QPointF @ 3912 NONAME
	_ZN19HbGridItemContainer14setColumnCountEi @ 3913 NONAME
	_ZN19HbGridItemContainer15setModelIndexesERK11QModelIndex @ 3914 NONAME
	_ZN19HbGridItemContainer16staticMetaObjectE @ 3915 NONAME DATA 16
	_ZN19HbGridItemContainer17animationFinishedERKN8HbEffect12EffectStatusE @ 3916 NONAME
	_ZN19HbGridItemContainer17setItemModelIndexEP18HbAbstractViewItemRK11QModelIndex @ 3917 NONAME
	_ZN19HbGridItemContainer18orientationChangedEN2Qt11OrientationE @ 3918 NONAME
	_ZN19HbGridItemContainer19getStaticMetaObjectEv @ 3919 NONAME
	_ZN19HbGridItemContainer19setUniformItemSizesEb @ 3920 NONAME
	_ZN19HbGridItemContainer22scrollDirectionChangedE6QFlagsIN2Qt11OrientationEE @ 3921 NONAME
	_ZN19HbGridItemContainer23layoutAnimationFinishedEP19QGraphicsLayoutItemN12HbGridLayout13AnimationTypeE @ 3922 NONAME
	_ZN19HbGridItemContainer5resetEv @ 3923 NONAME
	_ZN19HbGridItemContainer7addItemERK11QModelIndexb @ 3924 NONAME
	_ZN19HbGridItemContainer8scrollToERK11QModelIndexN18HbAbstractItemView10ScrollHintE @ 3925 NONAME
	_ZN19HbGridItemContainer9itemAddedEiP18HbAbstractViewItemb @ 3926 NONAME
	_ZN19HbGridItemContainerC1EP13QGraphicsItem @ 3927 NONAME
	_ZN19HbGridItemContainerC1ER26HbGridItemContainerPrivateP13QGraphicsItem @ 3928 NONAME
	_ZN19HbGridItemContainerC2EP13QGraphicsItem @ 3929 NONAME
	_ZN19HbGridItemContainerC2ER26HbGridItemContainerPrivateP13QGraphicsItem @ 3930 NONAME
	_ZN19HbGridItemContainerD0Ev @ 3931 NONAME
	_ZN19HbGridItemContainerD1Ev @ 3932 NONAME
	_ZN19HbGridItemContainerD2Ev @ 3933 NONAME
	_ZN19HbTreeItemContainer10removeItemEib @ 3934 NONAME
	_ZN19HbTreeItemContainer11itemRemovedEP18HbAbstractViewItemb @ 3935 NONAME
	_ZN19HbTreeItemContainer11qt_metacallEN11QMetaObject4CallEiPPv @ 3936 NONAME
	_ZN19HbTreeItemContainer11qt_metacastEPKc @ 3937 NONAME
	_ZN19HbTreeItemContainer11viewResizedERK6QSizeF @ 3938 NONAME
	_ZN19HbTreeItemContainer12recycleItemsERK7QPointF @ 3939 NONAME
	_ZN19HbTreeItemContainer14setIndentationEf @ 3940 NONAME
	_ZN19HbTreeItemContainer16staticMetaObjectE @ 3941 NONAME DATA 16
	_ZN19HbTreeItemContainer17animationFinishedERKN8HbEffect12EffectStatusE @ 3942 NONAME
	_ZN19HbTreeItemContainer17setItemModelIndexEP18HbAbstractViewItemRK11QModelIndex @ 3943 NONAME
	_ZN19HbTreeItemContainer19getStaticMetaObjectEv @ 3944 NONAME
	_ZN19HbTreeItemContainer5eventEP6QEvent @ 3945 NONAME
	_ZN19HbTreeItemContainer7addItemERK11QModelIndexb @ 3946 NONAME
	_ZN19HbTreeItemContainer9itemAddedEiP18HbAbstractViewItemb @ 3947 NONAME
	_ZN19HbTreeItemContainerC1EP13QGraphicsItem @ 3948 NONAME
	_ZN19HbTreeItemContainerC1ER26HbTreeItemContainerPrivateP13QGraphicsItem @ 3949 NONAME
	_ZN19HbTreeItemContainerC2EP13QGraphicsItem @ 3950 NONAME
	_ZN19HbTreeItemContainerC2ER26HbTreeItemContainerPrivateP13QGraphicsItem @ 3951 NONAME
	_ZN19HbTreeItemContainerD0Ev @ 3952 NONAME
	_ZN19HbTreeItemContainerD1Ev @ 3953 NONAME
	_ZN19HbTreeItemContainerD2Ev @ 3954 NONAME
	_ZN19HbTreeModelIterator11qt_metacallEN11QMetaObject4CallEiPPv @ 3955 NONAME
	_ZN19HbTreeModelIterator11qt_metacastEPKc @ 3956 NONAME
	_ZN19HbTreeModelIterator11rowsRemovedERK11QModelIndexii @ 3957 NONAME
	_ZN19HbTreeModelIterator12rowsInsertedERK11QModelIndexii @ 3958 NONAME
	_ZN19HbTreeModelIterator12setRootIndexE11QModelIndex @ 3959 NONAME
	_ZN19HbTreeModelIterator14columnsRemovedERK11QModelIndexii @ 3960 NONAME
	_ZN19HbTreeModelIterator15columnsInsertedERK11QModelIndexii @ 3961 NONAME
	_ZN19HbTreeModelIterator16setItemContainerEP23HbAbstractItemContainer @ 3962 NONAME
	_ZN19HbTreeModelIterator16staticMetaObjectE @ 3963 NONAME DATA 16
	_ZN19HbTreeModelIterator19getStaticMetaObjectEv @ 3964 NONAME
	_ZN19HbTreeModelIterator20itemExpansionChangedERK11QModelIndex @ 3965 NONAME
	_ZN19HbTreeModelIterator8setModelEP18QAbstractItemModel11QModelIndex @ 3966 NONAME
	_ZN19HbTreeModelIteratorC1EP18QAbstractItemModel11QModelIndexb @ 3967 NONAME
	_ZN19HbTreeModelIteratorC2EP18QAbstractItemModel11QModelIndexb @ 3968 NONAME
	_ZN19HbTreeModelIteratorD0Ev @ 3969 NONAME
	_ZN19HbTreeModelIteratorD1Ev @ 3970 NONAME
	_ZN19HbTreeModelIteratorD2Ev @ 3971 NONAME
	_ZN20HbSliderPopupPrivate12createSliderEv @ 3972 NONAME
	_ZN20HbSliderPopupPrivate15_q_valueChangedEi @ 3973 NONAME
	_ZN20HbSliderPopupPrivate4initEv @ 3974 NONAME
	_ZN20HbSliderPopupPrivateC1Ev @ 3975 NONAME
	_ZN20HbSliderPopupPrivateC2Ev @ 3976 NONAME
	_ZN20HbSliderPopupPrivateD0Ev @ 3977 NONAME
	_ZN20HbSliderPopupPrivateD1Ev @ 3978 NONAME
	_ZN20HbSliderPopupPrivateD2Ev @ 3979 NONAME
	_ZN21HbAbstractEditPrivate10setContentEN2Qt10TextFormatERK7QString @ 3980 NONAME
	_ZN21HbAbstractEditPrivate10tapGestureERK7QPointF @ 3981 NONAME ABSENT
	_ZN21HbAbstractEditPrivate13cursorChangedEN11HbValidator12ChangeSourceE @ 3982 NONAME
	_ZN21HbAbstractEditPrivate13initValidatorEv @ 3983 NONAME
	_ZN21HbAbstractEditPrivate13repaintCursorEv @ 3984 NONAME
	_ZN21HbAbstractEditPrivate14_q_scrollEndedEv @ 3985 NONAME
	_ZN21HbAbstractEditPrivate14_q_updateBlockE10QTextBlock @ 3986 NONAME
	_ZN21HbAbstractEditPrivate14longTapGestureERK7QPointF @ 3987 NONAME ABSENT
	_ZN21HbAbstractEditPrivate14openInputPanelEv @ 3988 NONAME
	_ZN21HbAbstractEditPrivate15closeInputPanelEv @ 3989 NONAME
	_ZN21HbAbstractEditPrivate15gestureReceivedEv @ 3990 NONAME
	_ZN21HbAbstractEditPrivate15prepDocForPasteEv @ 3991 NONAME
	_ZN21HbAbstractEditPrivate15validateContentEiii @ 3992 NONAME
	_ZN21HbAbstractEditPrivate16_q_scrollStartedEv @ 3993 NONAME
	_ZN21HbAbstractEditPrivate16_q_updateRequestE6QRectF @ 3994 NONAME
	_ZN21HbAbstractEditPrivate16selectionChangedEb @ 3995 NONAME
	_ZN21HbAbstractEditPrivate16setFocusToAnchorERK11QTextCursor @ 3996 NONAME
	_ZN21HbAbstractEditPrivate17_q_contentsChangeEiii @ 3997 NONAME
	_ZN21HbAbstractEditPrivate17setCursorPositionEiN11QTextCursor8MoveModeE @ 3998 NONAME
	_ZN21HbAbstractEditPrivate17updateEditingSizeEv @ 3999 NONAME
	_ZN21HbAbstractEditPrivate18_q_contentsChangedEv @ 4000 NONAME
	_ZN21HbAbstractEditPrivate18cursorMoveKeyEventEP9QKeyEvent @ 4001 NONAME
	_ZN21HbAbstractEditPrivate18drawSelectionEdgesEP8QPainterN27QAbstractTextDocumentLayout12PaintContextE @ 4002 NONAME ABSENT
	_ZN21HbAbstractEditPrivate18findNextPrevAnchorERK11QTextCursorbRS0_ @ 4003 NONAME
	_ZN21HbAbstractEditPrivate18minimizeInputPanelEv @ 4004 NONAME ABSENT
	_ZN21HbAbstractEditPrivate18validateAndCorrectEv @ 4005 NONAME
	_ZN21HbAbstractEditPrivate19_q_selectionChangedEv @ 4006 NONAME ABSENT
	_ZN21HbAbstractEditPrivate19acceptKeyPressEventEP9QKeyEvent @ 4007 NONAME
	_ZN21HbAbstractEditPrivate19alignmentFromStringERK7QString @ 4008 NONAME
	_ZN21HbAbstractEditPrivate19ensureCursorVisibleEv @ 4009 NONAME
	_ZN21HbAbstractEditPrivate19sendInputPanelEventEN6QEvent4TypeE @ 4010 NONAME
	_ZN21HbAbstractEditPrivate20connectToNewDocumentEP13QTextDocument @ 4011 NONAME
	_ZN21HbAbstractEditPrivate21ensurePositionVisibleEi @ 4012 NONAME
	_ZN21HbAbstractEditPrivate21removeCurrentDocumentEv @ 4013 NONAME
	_ZN21HbAbstractEditPrivate22updatePaletteFromThemeEv @ 4014 NONAME
	_ZN21HbAbstractEditPrivate23setTextInteractionFlagsE6QFlagsIN2Qt19TextInteractionFlagEE @ 4015 NONAME
	_ZN21HbAbstractEditPrivate23updateCurrentCharFormatEv @ 4016 NONAME
	_ZN21HbAbstractEditPrivate24setBlinkingCursorEnabledEb @ 4017 NONAME ABSENT
	_ZN21HbAbstractEditPrivate25repaintOldAndNewSelectionERK11QTextCursor @ 4018 NONAME
	_ZN21HbAbstractEditPrivate30setFocusToNextOrPreviousAnchorEb @ 4019 NONAME
	_ZN21HbAbstractEditPrivate30updatePlaceholderDocPropertiesEv @ 4020 NONAME
	_ZN21HbAbstractEditPrivate4initEv @ 4021 NONAME
	_ZN21HbAbstractEditPrivateC1Ev @ 4022 NONAME
	_ZN21HbAbstractEditPrivateC2Ev @ 4023 NONAME
	_ZN21HbAbstractEditPrivateD0Ev @ 4024 NONAME
	_ZN21HbAbstractEditPrivateD1Ev @ 4025 NONAME
	_ZN21HbAbstractEditPrivateD2Ev @ 4026 NONAME
	_ZN22HbSliderTickmarksLabel10createTextEb @ 4027 NONAME ABSENT
	_ZN22HbSliderTickmarksLabel10itemChangeEN13QGraphicsItem18GraphicsItemChangeERK8QVariant @ 4028 NONAME
	_ZN22HbSliderTickmarksLabel11qt_metacallEN11QMetaObject4CallEiPPv @ 4029 NONAME
	_ZN22HbSliderTickmarksLabel11qt_metacastEPKc @ 4030 NONAME
	_ZN22HbSliderTickmarksLabel11resizeEventEP25QGraphicsSceneResizeEvent @ 4031 NONAME
	_ZN22HbSliderTickmarksLabel12setLabelSizeEv @ 4032 NONAME ABSENT
	_ZN22HbSliderTickmarksLabel15setTickPositionE6QFlagsIN2Hb18SliderTickPositionEE @ 4033 NONAME
	_ZN22HbSliderTickmarksLabel16staticMetaObjectE @ 4034 NONAME DATA 16
	_ZN22HbSliderTickmarksLabel16updateTickLabelsEv @ 4035 NONAME
	_ZN22HbSliderTickmarksLabel19getStaticMetaObjectEv @ 4036 NONAME
	_ZN22HbSliderTickmarksLabel6polishER17HbStyleParameters @ 4037 NONAME
	_ZN22HbSliderTickmarksLabelC1EP13QGraphicsItem @ 4038 NONAME ABSENT
	_ZN22HbSliderTickmarksLabelC2EP13QGraphicsItem @ 4039 NONAME ABSENT
	_ZN22HbSliderTickmarksLabelD0Ev @ 4040 NONAME
	_ZN22HbSliderTickmarksLabelD1Ev @ 4041 NONAME
	_ZN22HbSliderTickmarksLabelD2Ev @ 4042 NONAME
	_ZN23HbGroupBoxContentWidget10itemChangeEN13QGraphicsItem18GraphicsItemChangeERK8QVariant @ 4043 NONAME
	_ZN23HbGroupBoxContentWidget11qt_metacallEN11QMetaObject4CallEiPPv @ 4044 NONAME
	_ZN23HbGroupBoxContentWidget11qt_metacastEPKc @ 4045 NONAME
	_ZN23HbGroupBoxContentWidget12gestureEventEP13QGestureEvent @ 4046 NONAME
	_ZN23HbGroupBoxContentWidget15mousePressEventEP24QGraphicsSceneMouseEvent @ 4047 NONAME
	_ZN23HbGroupBoxContentWidget16createConnectionEv @ 4048 NONAME
	_ZN23HbGroupBoxContentWidget16createPrimitivesEv @ 4049 NONAME
	_ZN23HbGroupBoxContentWidget16setContentWidgetEP8HbWidget @ 4050 NONAME
	_ZN23HbGroupBoxContentWidget16staticMetaObjectE @ 4051 NONAME DATA 16
	_ZN23HbGroupBoxContentWidget16updatePrimitivesEv @ 4052 NONAME
	_ZN23HbGroupBoxContentWidget17mouseReleaseEventEP24QGraphicsSceneMouseEvent @ 4053 NONAME
	_ZN23HbGroupBoxContentWidget19getStaticMetaObjectEv @ 4054 NONAME
	_ZN23HbGroupBoxContentWidget6polishER17HbStyleParameters @ 4055 NONAME
	_ZN23HbGroupBoxContentWidget7clickedEv @ 4056 NONAME
	_ZN23HbGroupBoxContentWidget7setTypeE12GroupBoxType @ 4057 NONAME
	_ZN23HbGroupBoxContentWidget9longPressE7QPointF @ 4058 NONAME
	_ZN23HbGroupBoxContentWidgetC1EP13QGraphicsItem @ 4059 NONAME
	_ZN23HbGroupBoxContentWidgetC2EP13QGraphicsItem @ 4060 NONAME
	_ZN23HbGroupBoxContentWidgetD0Ev @ 4061 NONAME
	_ZN23HbGroupBoxContentWidgetD1Ev @ 4062 NONAME
	_ZN23HbGroupBoxContentWidgetD2Ev @ 4063 NONAME
	_ZN23HbGroupBoxHeadingWidget10itemChangeEN13QGraphicsItem18GraphicsItemChangeERK8QVariant @ 4064 NONAME
	_ZN23HbGroupBoxHeadingWidget10setHeadingERK7QString @ 4065 NONAME
	_ZN23HbGroupBoxHeadingWidget11qt_metacallEN11QMetaObject4CallEiPPv @ 4066 NONAME
	_ZN23HbGroupBoxHeadingWidget11qt_metacastEPKc @ 4067 NONAME
	_ZN23HbGroupBoxHeadingWidget12gestureEventEP13QGestureEvent @ 4068 NONAME
	_ZN23HbGroupBoxHeadingWidget15mousePressEventEP24QGraphicsSceneMouseEvent @ 4069 NONAME
	_ZN23HbGroupBoxHeadingWidget16createConnectionEv @ 4070 NONAME
	_ZN23HbGroupBoxHeadingWidget16createPrimitivesEv @ 4071 NONAME
	_ZN23HbGroupBoxHeadingWidget16staticMetaObjectE @ 4072 NONAME DATA 16
	_ZN23HbGroupBoxHeadingWidget16updatePrimitivesEv @ 4073 NONAME
	_ZN23HbGroupBoxHeadingWidget17mouseReleaseEventEP24QGraphicsSceneMouseEvent @ 4074 NONAME
	_ZN23HbGroupBoxHeadingWidget17setMarqueeHeadingEb @ 4075 NONAME
	_ZN23HbGroupBoxHeadingWidget19getStaticMetaObjectEv @ 4076 NONAME
	_ZN23HbGroupBoxHeadingWidget4initEv @ 4077 NONAME
	_ZN23HbGroupBoxHeadingWidget7clickedEb @ 4078 NONAME
	_ZN23HbGroupBoxHeadingWidget7setTypeE12GroupBoxType @ 4079 NONAME
	_ZN23HbGroupBoxHeadingWidgetC1EP13QGraphicsItem @ 4080 NONAME
	_ZN23HbGroupBoxHeadingWidgetC2EP13QGraphicsItem @ 4081 NONAME
	_ZN23HbGroupBoxHeadingWidgetD0Ev @ 4082 NONAME
	_ZN23HbGroupBoxHeadingWidgetD1Ev @ 4083 NONAME
	_ZN23HbGroupBoxHeadingWidgetD2Ev @ 4084 NONAME
	_ZN23HbProgressSliderControl11qt_metacallEN11QMetaObject4CallEiPPv @ 4085 NONAME ABSENT
	_ZN23HbProgressSliderControl11qt_metacastEPKc @ 4086 NONAME ABSENT
	_ZN23HbProgressSliderControl16staticMetaObjectE @ 4087 NONAME DATA 16 ABSENT
	_ZN23HbProgressSliderControl19getStaticMetaObjectEv @ 4088 NONAME ABSENT
	_ZN23HbProgressSliderControlC1EN2Qt11OrientationEP13QGraphicsItem @ 4089 NONAME ABSENT
	_ZN23HbProgressSliderControlC1EP13QGraphicsItem @ 4090 NONAME ABSENT
	_ZN23HbProgressSliderControlC2EN2Qt11OrientationEP13QGraphicsItem @ 4091 NONAME ABSENT
	_ZN23HbProgressSliderControlC2EP13QGraphicsItem @ 4092 NONAME ABSENT
	_ZN23HbProgressSliderControlD0Ev @ 4093 NONAME ABSENT
	_ZN23HbProgressSliderControlD1Ev @ 4094 NONAME ABSENT
	_ZN23HbProgressSliderControlD2Ev @ 4095 NONAME ABSENT
	_ZN23HbProgressSliderPrivate11orientationEv @ 4096 NONAME
	_ZN23HbProgressSliderPrivate13setEnableFlagEb @ 4097 NONAME
	_ZN23HbProgressSliderPrivate15emitSliderMovedEi @ 4098 NONAME
	_ZN23HbProgressSliderPrivate16setProgressValueEi @ 4099 NONAME
	_ZN23HbProgressSliderPrivate17emitSliderPressedEv @ 4100 NONAME
	_ZN23HbProgressSliderPrivate18emitSliderReleasedEv @ 4101 NONAME
	_ZN23HbProgressSliderPrivate4initEv @ 4102 NONAME
	_ZN23HbProgressSliderPrivate8setRangeEii @ 4103 NONAME
	_ZN23HbProgressSliderPrivateC1Ev @ 4104 NONAME
	_ZN23HbProgressSliderPrivateC2Ev @ 4105 NONAME
	_ZN23HbProgressSliderPrivateD0Ev @ 4106 NONAME
	_ZN23HbProgressSliderPrivateD1Ev @ 4107 NONAME
	_ZN23HbProgressSliderPrivateD2Ev @ 4108 NONAME
	_ZN24HbDataGroupHeadingWidget11qt_metacallEN11QMetaObject4CallEiPPv @ 4109 NONAME
	_ZN24HbDataGroupHeadingWidget11qt_metacastEPKc @ 4110 NONAME
	_ZN24HbDataGroupHeadingWidget12gestureEventEP13QGestureEvent @ 4111 NONAME
	_ZN24HbDataGroupHeadingWidget15initStyleOptionEP35HbStyleOptionDataGroupHeadingWidget @ 4112 NONAME
	_ZN24HbDataGroupHeadingWidget16createPrimitivesEv @ 4113 NONAME
	_ZN24HbDataGroupHeadingWidget16staticMetaObjectE @ 4114 NONAME DATA 16
	_ZN24HbDataGroupHeadingWidget16updatePrimitivesEv @ 4115 NONAME
	_ZN24HbDataGroupHeadingWidget19getStaticMetaObjectEv @ 4116 NONAME
	_ZN24HbDataGroupHeadingWidgetC1EP13QGraphicsItem @ 4117 NONAME
	_ZN24HbDataGroupHeadingWidgetC2EP13QGraphicsItem @ 4118 NONAME
	_ZN24HbDataGroupHeadingWidgetD0Ev @ 4119 NONAME
	_ZN24HbDataGroupHeadingWidgetD1Ev @ 4120 NONAME
	_ZN24HbDataGroupHeadingWidgetD2Ev @ 4121 NONAME
	_ZN25HbAbstractViewItemPrivate10revealItemEv @ 4122 NONAME ABSENT
	_ZN25HbAbstractViewItemPrivate12tapTriggeredEP13QGestureEvent @ 4123 NONAME ABSENT
	_ZN25HbAbstractViewItemPrivate14setInsidePopupEb @ 4124 NONAME ABSENT
	_ZN25HbAbstractViewItemPrivate16updateCloneItemsEb @ 4125 NONAME ABSENT
	_ZN25HbAbstractViewItemPrivate18repolishCloneItemsEv @ 4126 NONAME ABSENT
	_ZN25HbAbstractViewItemPrivate20_q_animationFinishedERKN8HbEffect12EffectStatusE @ 4127 NONAME ABSENT
	_ZN25HbListDialogContentWidget11eventFilterEP7QObjectP6QEvent @ 4128 NONAME ABSENT
	_ZN25HbListDialogContentWidget11qt_metacallEN11QMetaObject4CallEiPPv @ 4129 NONAME ABSENT
	_ZN25HbListDialogContentWidget11qt_metacastEPKc @ 4130 NONAME ABSENT
	_ZN25HbListDialogContentWidget16staticMetaObjectE @ 4131 NONAME DATA 16 ABSENT
	_ZN25HbListDialogContentWidget19_q_listItemSelectedE11QModelIndex @ 4132 NONAME ABSENT
	_ZN25HbListDialogContentWidget19getStaticMetaObjectEv @ 4133 NONAME ABSENT
	_ZN25HbListDialogContentWidget25_q_listWidgetItemSelectedEP16HbListWidgetItem @ 4134 NONAME ABSENT
	_ZN25HbListDialogContentWidgetC1EP19HbListDialogPrivate @ 4135 NONAME ABSENT
	_ZN25HbListDialogContentWidgetC2EP19HbListDialogPrivate @ 4136 NONAME ABSENT
	_ZN25HbRadioButtonListViewItem10createItemEv @ 4137 NONAME
	_ZN25HbRadioButtonListViewItemC1EP13QGraphicsItem @ 4138 NONAME
	_ZN25HbRadioButtonListViewItemC2EP13QGraphicsItem @ 4139 NONAME
	_ZN25HbRadioButtonListViewItemD0Ev @ 4140 NONAME
	_ZN25HbRadioButtonListViewItemD1Ev @ 4141 NONAME
	_ZN25HbRadioButtonListViewItemD2Ev @ 4142 NONAME
	_ZN26HbProgressiveSliderPrivate14setOrientationEN2Qt11OrientationE @ 4143 NONAME ABSENT
	_ZN26HbProgressiveSliderPrivate4initEv @ 4144 NONAME ABSENT
	_ZN26HbProgressiveSliderPrivateC1Ev @ 4145 NONAME ABSENT
	_ZN26HbProgressiveSliderPrivateC2Ev @ 4146 NONAME ABSENT
	_ZN26HbProgressiveSliderPrivateD0Ev @ 4147 NONAME ABSENT
	_ZN26HbProgressiveSliderPrivateD1Ev @ 4148 NONAME ABSENT
	_ZN26HbProgressiveSliderPrivateD2Ev @ 4149 NONAME ABSENT
	_ZN30HbSelectionDialogContentWidget11qt_metacallEN11QMetaObject4CallEiPPv @ 4150 NONAME
	_ZN30HbSelectionDialogContentWidget11qt_metacastEPKc @ 4151 NONAME
	_ZN30HbSelectionDialogContentWidget13updateCounterEv @ 4152 NONAME
	_ZN30HbSelectionDialogContentWidget14showMarkWidgetEb @ 4153 NONAME
	_ZN30HbSelectionDialogContentWidget16staticMetaObjectE @ 4154 NONAME DATA 16
	_ZN30HbSelectionDialogContentWidget18_q_checkboxclickedEi @ 4155 NONAME
	_ZN30HbSelectionDialogContentWidget19_q_listItemSelectedE11QModelIndex @ 4156 NONAME
	_ZN30HbSelectionDialogContentWidget19getStaticMetaObjectEv @ 4157 NONAME
	_ZN30HbSelectionDialogContentWidget25_q_listWidgetItemSelectedEP16HbListWidgetItem @ 4158 NONAME
	_ZN30HbSelectionDialogContentWidgetC1EP24HbSelectionDialogPrivate @ 4159 NONAME
	_ZN30HbSelectionDialogContentWidgetC2EP24HbSelectionDialogPrivate @ 4160 NONAME
	_ZNK11HbDataGroup10isExpandedEv @ 4161 NONAME
	_ZNK11HbDataGroup10metaObjectEv @ 4162 NONAME
	_ZNK11HbDataGroup11descriptionEv @ 4163 NONAME
	_ZNK11HbDataGroup16canSetModelIndexERK11QModelIndex @ 4164 NONAME
	_ZNK11HbDataGroup8sizeHintEN2Qt8SizeHintERK6QSizeF @ 4165 NONAME
	_ZNK12HbGridLayout10isAnimatedEP19QGraphicsLayoutItem @ 4166 NONAME
	_ZNK12HbGridLayout10metaObjectEv @ 4167 NONAME
	_ZNK12HbGridLayout11columnCountEv @ 4168 NONAME
	_ZNK12HbGridLayout15scrollDirectionEv @ 4169 NONAME
	_ZNK12HbGridLayout5countEv @ 4170 NONAME
	_ZNK12HbGridLayout6itemAtEi @ 4171 NONAME
	_ZNK12HbGridLayout7indexOfEP19QGraphicsLayoutItem @ 4172 NONAME
	_ZNK12HbGridLayout7spacingEv @ 4173 NONAME
	_ZNK12HbGridLayout8rowCountEv @ 4174 NONAME
	_ZNK12HbGridLayout8sizeHintEN2Qt8SizeHintERK6QSizeF @ 4175 NONAME
	_ZNK12HbListLayout18smallestItemHeightEv @ 4176 NONAME
	_ZNK12HbListLayout5countEv @ 4177 NONAME
	_ZNK12HbListLayout6itemAtEi @ 4178 NONAME
	_ZNK12HbListLayout7indexOfEP19QGraphicsLayoutItem @ 4179 NONAME
	_ZNK12HbListLayout8sizeHintEN2Qt8SizeHintERK6QSizeF @ 4180 NONAME
	_ZNK12HbTreeLayout18smallestItemHeightEv @ 4181 NONAME
	_ZNK14HbSliderHandle10handleItemEv @ 4182 NONAME
	_ZNK14HbSliderHandle10metaObjectEv @ 4183 NONAME
	_ZNK14HbSliderHandle9primitiveEN7HbStyle9PrimitiveE @ 4184 NONAME
	_ZNK15HbSliderControl10handleIconEv @ 4185 NONAME
	_ZNK15HbSliderControl10handleItemEv @ 4186 NONAME
	_ZNK15HbSliderControl10metaObjectEv @ 4187 NONAME
	_ZNK15HbSliderControl12snappingModeEv @ 4188 NONAME
	_ZNK15HbSliderControl12tickPositionEv @ 4189 NONAME
	_ZNK15HbSliderControl13handleVisibleEv @ 4190 NONAME
	_ZNK15HbSliderControl13isTrackFilledEv @ 4191 NONAME
	_ZNK15HbSliderControl15initStyleOptionEP19HbStyleOptionSlider @ 4192 NONAME
	_ZNK15HbSliderControl15majorTickLabelsEv @ 4193 NONAME
	_ZNK15HbSliderControl15minorTickLabelsEv @ 4194 NONAME
	_ZNK15HbSliderControl16isToolTipVisibleEv @ 4195 NONAME
	_ZNK15HbSliderControl16toolTipAlignmentEv @ 4196 NONAME
	_ZNK15HbSliderControl17majorTickIntervalEv @ 4197 NONAME
	_ZNK15HbSliderControl17minorTickIntervalEv @ 4198 NONAME
	_ZNK15HbSliderControl9primitiveEN7HbStyle9PrimitiveE @ 4199 NONAME
	_ZNK17HbSliderTickmarks10metaObjectEv @ 4200 NONAME
	_ZNK18HbDataGroupPrivate7headingEv @ 4201 NONAME
	_ZNK18HbDataGroupPrivate9groupPageEv @ 4202 NONAME ABSENT
	_ZNK19HbGridItemContainer10metaObjectEv @ 4203 NONAME
	_ZNK19HbGridItemContainer10viewLayoutEv @ 4204 NONAME
	_ZNK19HbGridItemContainer11columnCountEv @ 4205 NONAME
	_ZNK19HbGridItemContainer12maxItemCountEv @ 4206 NONAME
	_ZNK19HbGridItemContainer18lastValidItemIndexEv @ 4207 NONAME
	_ZNK19HbGridItemContainer22createDefaultPrototypeEv @ 4208 NONAME
	_ZNK19HbGridItemContainer23getViewIndexInTheCenterEv @ 4209 NONAME
	_ZNK19HbGridItemContainer8rowCountEv @ 4210 NONAME
	_ZNK19HbTreeItemContainer10metaObjectEv @ 4211 NONAME
	_ZNK19HbTreeItemContainer11indentationEv @ 4212 NONAME
	_ZNK19HbTreeItemContainer12maxItemCountEv @ 4213 NONAME
	_ZNK19HbTreeItemContainer22createDefaultPrototypeEv @ 4214 NONAME
	_ZNK19HbTreeModelIterator10childCountERK11QModelIndex @ 4215 NONAME
	_ZNK19HbTreeModelIterator10indexCountERK11QModelIndex @ 4216 NONAME
	_ZNK19HbTreeModelIterator10metaObjectEv @ 4217 NONAME
	_ZNK19HbTreeModelIterator13indexPositionERK11QModelIndex @ 4218 NONAME
	_ZNK19HbTreeModelIterator13previousIndexERK11QModelIndex @ 4219 NONAME
	_ZNK19HbTreeModelIterator5childEiRK11QModelIndex @ 4220 NONAME
	_ZNK19HbTreeModelIterator5indexEiRK11QModelIndex @ 4221 NONAME
	_ZNK19HbTreeModelIterator8lessThanERK11QModelIndexS2_ @ 4222 NONAME
	_ZNK19HbTreeModelIterator9nextIndexERK11QModelIndex @ 4223 NONAME
	_ZNK21HbAbstractEditPrivate10cursorRectERK11QTextCursor @ 4224 NONAME
	_ZNK21HbAbstractEditPrivate10cursorRectEv @ 4225 NONAME
	_ZNK21HbAbstractEditPrivate12viewPortRectEv @ 4226 NONAME
	_ZNK21HbAbstractEditPrivate13contentLengthEv @ 4227 NONAME
	_ZNK21HbAbstractEditPrivate13selectionRectERK11QTextCursor @ 4228 NONAME
	_ZNK21HbAbstractEditPrivate13selectionRectEv @ 4229 NONAME ABSENT
	_ZNK21HbAbstractEditPrivate15getPaintContextEv @ 4230 NONAME
	_ZNK21HbAbstractEditPrivate15isCursorVisibleEv @ 4231 NONAME
	_ZNK21HbAbstractEditPrivate18hasAcceptableInputEv @ 4232 NONAME
	_ZNK21HbAbstractEditPrivate20smileyEngineInstanceEv @ 4233 NONAME
	_ZNK21HbAbstractEditPrivate21drawContentBackgroundEP8QPainterRK24QStyleOptionGraphicsItem @ 4234 NONAME
	_ZNK21HbAbstractEditPrivate28sendMouseEventToInputContextERK7QPointF @ 4235 NONAME
	_ZNK21HbAbstractEditPrivate29rectForPositionInCanvasCoordsEiN9QTextLine4EdgeE @ 4236 NONAME
	_ZNK21HbAbstractEditPrivate37cursorRectPlusUnicodeDirectionMarkersEi @ 4237 NONAME
	_ZNK21HbAbstractEditPrivate6canCutEv @ 4238 NONAME
	_ZNK21HbAbstractEditPrivate7canCopyEv @ 4239 NONAME
	_ZNK21HbAbstractEditPrivate7hitTestERK7QPointFN2Qt15HitTestAccuracyE @ 4240 NONAME
	_ZNK21HbAbstractEditPrivate8canPasteEv @ 4241 NONAME
	_ZNK21HbAbstractEditPrivate9canFormatEv @ 4242 NONAME
	_ZNK22HbSliderTickmarksLabel10metaObjectEv @ 4243 NONAME
	_ZNK22HbSliderTickmarksLabel15initStyleOptionEP19HbStyleOptionSlider @ 4244 NONAME
	_ZNK23HbGroupBoxContentWidget10metaObjectEv @ 4245 NONAME
	_ZNK23HbGroupBoxContentWidget15initStyleOptionEP13HbStyleOption @ 4246 NONAME
	_ZNK23HbGroupBoxContentWidget9primitiveEN7HbStyle9PrimitiveE @ 4247 NONAME
	_ZNK23HbGroupBoxHeadingWidget10metaObjectEv @ 4248 NONAME
	_ZNK23HbGroupBoxHeadingWidget15initStyleOptionEP21HbStyleOptionGroupBox @ 4249 NONAME
	_ZNK23HbGroupBoxHeadingWidget9primitiveEN7HbStyle9PrimitiveE @ 4250 NONAME
	_ZNK23HbProgressSliderControl10metaObjectEv @ 4251 NONAME ABSENT
	_ZNK23HbProgressSliderPrivate11toolTipTextEv @ 4252 NONAME
	_ZNK23HbProgressSliderPrivate12boundingRectEv @ 4253 NONAME
	_ZNK23HbProgressSliderPrivate13progressValueEv @ 4254 NONAME
	_ZNK23HbProgressSliderPrivate13textAlignmentEv @ 4255 NONAME
	_ZNK23HbProgressSliderPrivate18invertedAppearanceEv @ 4256 NONAME
	_ZNK23HbProgressSliderPrivate18parentGraphicsItemEv @ 4257 NONAME
	_ZNK23HbProgressSliderPrivate20parentGraphicsWidgetEv @ 4258 NONAME
	_ZNK23HbProgressSliderPrivate5styleEv @ 4259 NONAME ABSENT
	_ZNK23HbProgressSliderPrivate7maximumEv @ 4260 NONAME
	_ZNK23HbProgressSliderPrivate7minimumEv @ 4261 NONAME
	_ZNK24HbDataGroupHeadingWidget10metaObjectEv @ 4262 NONAME
	_ZNK25HbListDialogContentWidget10metaObjectEv @ 4263 NONAME ABSENT
	_ZNK25HbRadioButtonListViewItem4typeEv @ 4264 NONAME
	_ZNK30HbSelectionDialogContentWidget10metaObjectEv @ 4265 NONAME
	_ZNK30HbSelectionDialogContentWidget14totalItemCountEv @ 4266 NONAME
	_ZNK30HbSelectionDialogContentWidget17selectedItemCountEv @ 4267 NONAME
	_ZTI11HbDataGroup @ 4268 NONAME
	_ZTI12HbGridLayout @ 4269 NONAME
	_ZTI12HbListLayout @ 4270 NONAME
	_ZTI14HbSliderHandle @ 4271 NONAME
	_ZTI15HbSliderControl @ 4272 NONAME
	_ZTI17HbCheckBoxPrivate @ 4273 NONAME
	_ZTI17HbSliderTickmarks @ 4274 NONAME
	_ZTI18HbDataGroupPrivate @ 4275 NONAME
	_ZTI19HbGridItemContainer @ 4276 NONAME
	_ZTI19HbTreeItemContainer @ 4277 NONAME
	_ZTI19HbTreeModelIterator @ 4278 NONAME
	_ZTI20HbSliderPopupPrivate @ 4279 NONAME
	_ZTI21HbAbstractEditPrivate @ 4280 NONAME
	_ZTI22HbSliderTickmarksLabel @ 4281 NONAME
	_ZTI23HbGroupBoxContentWidget @ 4282 NONAME
	_ZTI23HbGroupBoxHeadingWidget @ 4283 NONAME
	_ZTI23HbProgressSliderControl @ 4284 NONAME ABSENT
	_ZTI23HbProgressSliderPrivate @ 4285 NONAME
	_ZTI24HbDataGroupHeadingWidget @ 4286 NONAME
	_ZTI25HbListDialogContentWidget @ 4287 NONAME ABSENT
	_ZTI25HbRadioButtonListViewItem @ 4288 NONAME
	_ZTI26HbProgressiveSliderPrivate @ 4289 NONAME ABSENT
	_ZTI30HbSelectionDialogContentWidget @ 4290 NONAME
	_ZTV11HbDataGroup @ 4291 NONAME
	_ZTV12HbGridLayout @ 4292 NONAME
	_ZTV12HbListLayout @ 4293 NONAME
	_ZTV14HbSliderHandle @ 4294 NONAME
	_ZTV15HbSliderControl @ 4295 NONAME
	_ZTV17HbCheckBoxPrivate @ 4296 NONAME
	_ZTV17HbSliderTickmarks @ 4297 NONAME
	_ZTV18HbDataGroupPrivate @ 4298 NONAME
	_ZTV19HbGridItemContainer @ 4299 NONAME
	_ZTV19HbTreeItemContainer @ 4300 NONAME
	_ZTV19HbTreeModelIterator @ 4301 NONAME
	_ZTV20HbSliderPopupPrivate @ 4302 NONAME
	_ZTV21HbAbstractEditPrivate @ 4303 NONAME
	_ZTV22HbSliderTickmarksLabel @ 4304 NONAME
	_ZTV23HbGroupBoxContentWidget @ 4305 NONAME
	_ZTV23HbGroupBoxHeadingWidget @ 4306 NONAME
	_ZTV23HbProgressSliderControl @ 4307 NONAME ABSENT
	_ZTV23HbProgressSliderPrivate @ 4308 NONAME
	_ZTV24HbDataGroupHeadingWidget @ 4309 NONAME
	_ZTV25HbListDialogContentWidget @ 4310 NONAME ABSENT
	_ZTV25HbRadioButtonListViewItem @ 4311 NONAME
	_ZTV26HbProgressiveSliderPrivate @ 4312 NONAME ABSENT
	_ZTV30HbSelectionDialogContentWidget @ 4313 NONAME
	_ZThn152_N23HbProgressSliderPrivate11orientationEv @ 4314 NONAME ABSENT
	_ZThn152_N23HbProgressSliderPrivate15emitSliderMovedEi @ 4315 NONAME ABSENT
	_ZThn152_N23HbProgressSliderPrivate17emitSliderPressedEv @ 4316 NONAME ABSENT
	_ZThn152_N23HbProgressSliderPrivate18emitSliderReleasedEv @ 4317 NONAME ABSENT
	_ZThn152_N23HbProgressSliderPrivateD0Ev @ 4318 NONAME ABSENT
	_ZThn152_N23HbProgressSliderPrivateD1Ev @ 4319 NONAME ABSENT
	_ZThn152_NK23HbProgressSliderPrivate11toolTipTextEv @ 4320 NONAME ABSENT
	_ZThn152_NK23HbProgressSliderPrivate12boundingRectEv @ 4321 NONAME ABSENT
	_ZThn152_NK23HbProgressSliderPrivate13progressValueEv @ 4322 NONAME ABSENT
	_ZThn152_NK23HbProgressSliderPrivate13textAlignmentEv @ 4323 NONAME ABSENT
	_ZThn152_NK23HbProgressSliderPrivate18invertedAppearanceEv @ 4324 NONAME ABSENT
	_ZThn152_NK23HbProgressSliderPrivate18parentGraphicsItemEv @ 4325 NONAME ABSENT
	_ZThn152_NK23HbProgressSliderPrivate20parentGraphicsWidgetEv @ 4326 NONAME ABSENT
	_ZThn152_NK23HbProgressSliderPrivate5styleEv @ 4327 NONAME ABSENT
	_ZThn152_NK23HbProgressSliderPrivate7maximumEv @ 4328 NONAME ABSENT
	_ZThn152_NK23HbProgressSliderPrivate7minimumEv @ 4329 NONAME ABSENT
	_ZThn16_N11HbDataGroupD0Ev @ 4330 NONAME
	_ZThn16_N11HbDataGroupD1Ev @ 4331 NONAME
	_ZThn16_N14HbSliderHandleD0Ev @ 4332 NONAME
	_ZThn16_N14HbSliderHandleD1Ev @ 4333 NONAME
	_ZThn16_N15HbSliderControlD0Ev @ 4334 NONAME
	_ZThn16_N15HbSliderControlD1Ev @ 4335 NONAME
	_ZThn16_N17HbSliderTickmarksD0Ev @ 4336 NONAME
	_ZThn16_N17HbSliderTickmarksD1Ev @ 4337 NONAME
	_ZThn16_N19HbGridItemContainerD0Ev @ 4338 NONAME
	_ZThn16_N19HbGridItemContainerD1Ev @ 4339 NONAME
	_ZThn16_N19HbTreeItemContainerD0Ev @ 4340 NONAME
	_ZThn16_N19HbTreeItemContainerD1Ev @ 4341 NONAME
	_ZThn16_N22HbSliderTickmarksLabelD0Ev @ 4342 NONAME
	_ZThn16_N22HbSliderTickmarksLabelD1Ev @ 4343 NONAME
	_ZThn16_N23HbGroupBoxContentWidgetD0Ev @ 4344 NONAME
	_ZThn16_N23HbGroupBoxContentWidgetD1Ev @ 4345 NONAME
	_ZThn16_N23HbGroupBoxHeadingWidgetD0Ev @ 4346 NONAME
	_ZThn16_N23HbGroupBoxHeadingWidgetD1Ev @ 4347 NONAME
	_ZThn16_N23HbProgressSliderControlD0Ev @ 4348 NONAME ABSENT
	_ZThn16_N23HbProgressSliderControlD1Ev @ 4349 NONAME ABSENT
	_ZThn16_N24HbDataGroupHeadingWidgetD0Ev @ 4350 NONAME
	_ZThn16_N24HbDataGroupHeadingWidgetD1Ev @ 4351 NONAME
	_ZThn16_N25HbRadioButtonListViewItemD0Ev @ 4352 NONAME
	_ZThn16_N25HbRadioButtonListViewItemD1Ev @ 4353 NONAME
	_ZThn16_NK11HbDataGroup8sizeHintEN2Qt8SizeHintERK6QSizeF @ 4354 NONAME
	_ZThn8_N11HbDataGroupD0Ev @ 4355 NONAME
	_ZThn8_N11HbDataGroupD1Ev @ 4356 NONAME
	_ZThn8_N12HbGridLayout10invalidateEv @ 4357 NONAME
	_ZThn8_N12HbGridLayout11setGeometryERK6QRectF @ 4358 NONAME
	_ZThn8_N12HbGridLayout8removeAtEi @ 4359 NONAME
	_ZThn8_N12HbGridLayoutD0Ev @ 4360 NONAME
	_ZThn8_N12HbGridLayoutD1Ev @ 4361 NONAME
	_ZThn8_N14HbSliderHandle14mouseMoveEventEP24QGraphicsSceneMouseEvent @ 4362 NONAME
	_ZThn8_N14HbSliderHandle15mousePressEventEP24QGraphicsSceneMouseEvent @ 4363 NONAME
	_ZThn8_N14HbSliderHandle16sceneEventFilterEP13QGraphicsItemP6QEvent @ 4364 NONAME
	_ZThn8_N14HbSliderHandle17mouseReleaseEventEP24QGraphicsSceneMouseEvent @ 4365 NONAME
	_ZThn8_N14HbSliderHandleD0Ev @ 4366 NONAME
	_ZThn8_N14HbSliderHandleD1Ev @ 4367 NONAME
	_ZThn8_N15HbSliderControl10itemChangeEN13QGraphicsItem18GraphicsItemChangeERK8QVariant @ 4368 NONAME
	_ZThn8_N15HbSliderControl10sceneEventEP6QEvent @ 4369 NONAME
	_ZThn8_N15HbSliderControl15mousePressEventEP24QGraphicsSceneMouseEvent @ 4370 NONAME
	_ZThn8_N15HbSliderControl16sceneEventFilterEP13QGraphicsItemP6QEvent @ 4371 NONAME
	_ZThn8_N15HbSliderControl17mouseReleaseEventEP24QGraphicsSceneMouseEvent @ 4372 NONAME
	_ZThn8_N15HbSliderControlD0Ev @ 4373 NONAME
	_ZThn8_N15HbSliderControlD1Ev @ 4374 NONAME
	_ZThn8_N17HbSliderTickmarks10itemChangeEN13QGraphicsItem18GraphicsItemChangeERK8QVariant @ 4375 NONAME
	_ZThn8_N17HbSliderTickmarksD0Ev @ 4376 NONAME
	_ZThn8_N17HbSliderTickmarksD1Ev @ 4377 NONAME
	_ZThn8_N19HbGridItemContainer10itemChangeEN13QGraphicsItem18GraphicsItemChangeERK8QVariant @ 4378 NONAME
	_ZThn8_N19HbGridItemContainerD0Ev @ 4379 NONAME
	_ZThn8_N19HbGridItemContainerD1Ev @ 4380 NONAME
	_ZThn8_N19HbTreeItemContainerD0Ev @ 4381 NONAME
	_ZThn8_N19HbTreeItemContainerD1Ev @ 4382 NONAME
	_ZThn8_N19HbTreeModelIterator12setRootIndexE11QModelIndex @ 4383 NONAME
	_ZThn8_N19HbTreeModelIterator8setModelEP18QAbstractItemModel11QModelIndex @ 4384 NONAME
	_ZThn8_N19HbTreeModelIteratorD0Ev @ 4385 NONAME
	_ZThn8_N19HbTreeModelIteratorD1Ev @ 4386 NONAME
	_ZThn8_N22HbSliderTickmarksLabel10itemChangeEN13QGraphicsItem18GraphicsItemChangeERK8QVariant @ 4387 NONAME
	_ZThn8_N22HbSliderTickmarksLabelD0Ev @ 4388 NONAME
	_ZThn8_N22HbSliderTickmarksLabelD1Ev @ 4389 NONAME
	_ZThn8_N23HbGroupBoxContentWidget10itemChangeEN13QGraphicsItem18GraphicsItemChangeERK8QVariant @ 4390 NONAME
	_ZThn8_N23HbGroupBoxContentWidget15mousePressEventEP24QGraphicsSceneMouseEvent @ 4391 NONAME
	_ZThn8_N23HbGroupBoxContentWidget17mouseReleaseEventEP24QGraphicsSceneMouseEvent @ 4392 NONAME
	_ZThn8_N23HbGroupBoxContentWidgetD0Ev @ 4393 NONAME
	_ZThn8_N23HbGroupBoxContentWidgetD1Ev @ 4394 NONAME
	_ZThn8_N23HbGroupBoxHeadingWidget10itemChangeEN13QGraphicsItem18GraphicsItemChangeERK8QVariant @ 4395 NONAME
	_ZThn8_N23HbGroupBoxHeadingWidget15mousePressEventEP24QGraphicsSceneMouseEvent @ 4396 NONAME
	_ZThn8_N23HbGroupBoxHeadingWidget17mouseReleaseEventEP24QGraphicsSceneMouseEvent @ 4397 NONAME
	_ZThn8_N23HbGroupBoxHeadingWidgetD0Ev @ 4398 NONAME
	_ZThn8_N23HbGroupBoxHeadingWidgetD1Ev @ 4399 NONAME
	_ZThn8_N23HbProgressSliderControlD0Ev @ 4400 NONAME ABSENT
	_ZThn8_N23HbProgressSliderControlD1Ev @ 4401 NONAME ABSENT
	_ZThn8_N24HbDataGroupHeadingWidgetD0Ev @ 4402 NONAME
	_ZThn8_N24HbDataGroupHeadingWidgetD1Ev @ 4403 NONAME
	_ZThn8_N25HbRadioButtonListViewItemD0Ev @ 4404 NONAME
	_ZThn8_N25HbRadioButtonListViewItemD1Ev @ 4405 NONAME
	_ZThn8_NK12HbGridLayout5countEv @ 4406 NONAME
	_ZThn8_NK12HbGridLayout6itemAtEi @ 4407 NONAME
	_ZThn8_NK12HbGridLayout8sizeHintEN2Qt8SizeHintERK6QSizeF @ 4408 NONAME
	_ZThn8_NK19HbTreeModelIterator10indexCountERK11QModelIndex @ 4409 NONAME
	_ZThn8_NK19HbTreeModelIterator13indexPositionERK11QModelIndex @ 4410 NONAME
	_ZThn8_NK19HbTreeModelIterator13previousIndexERK11QModelIndex @ 4411 NONAME
	_ZThn8_NK19HbTreeModelIterator5indexEiRK11QModelIndex @ 4412 NONAME
	_ZThn8_NK19HbTreeModelIterator8lessThanERK11QModelIndexS2_ @ 4413 NONAME
	_ZThn8_NK19HbTreeModelIterator9nextIndexERK11QModelIndex @ 4414 NONAME
	_ZThn8_NK25HbRadioButtonListViewItem4typeEv @ 4415 NONAME
	_ZN19HbGridItemContainer15resizeContainerEv @ 4416 NONAME
	_ZN19HbTreeItemContainer15resizeContainerEv @ 4417 NONAME
	_ZN23HbAbstractItemContainer15resizeContainerEv @ 4418 NONAME
	_ZNK19HbGridItemContainer8sizeHintEN2Qt8SizeHintERK6QSizeF @ 4419 NONAME
	_ZNK19HbTreeItemContainer8sizeHintEN2Qt8SizeHintERK6QSizeF @ 4420 NONAME
	_ZThn16_NK19HbGridItemContainer8sizeHintEN2Qt8SizeHintERK6QSizeF @ 4421 NONAME
	_ZThn16_NK19HbTreeItemContainer8sizeHintEN2Qt8SizeHintERK6QSizeF @ 4422 NONAME
	_ZNK20HbNotificationDialog9primitiveERK7QString @ 4423 NONAME
	_ZThn140_N23HbProgressSliderPrivate11orientationEv @ 4424 NONAME ABSENT
	_ZThn140_N23HbProgressSliderPrivate15emitSliderMovedEi @ 4425 NONAME ABSENT
	_ZThn140_N23HbProgressSliderPrivate17emitSliderPressedEv @ 4426 NONAME ABSENT
	_ZThn140_N23HbProgressSliderPrivate18emitSliderReleasedEv @ 4427 NONAME ABSENT
	_ZThn140_N23HbProgressSliderPrivateD0Ev @ 4428 NONAME ABSENT
	_ZThn140_N23HbProgressSliderPrivateD1Ev @ 4429 NONAME ABSENT
	_ZThn140_NK23HbProgressSliderPrivate11toolTipTextEv @ 4430 NONAME ABSENT
	_ZThn140_NK23HbProgressSliderPrivate12boundingRectEv @ 4431 NONAME ABSENT
	_ZThn140_NK23HbProgressSliderPrivate13progressValueEv @ 4432 NONAME ABSENT
	_ZThn140_NK23HbProgressSliderPrivate13textAlignmentEv @ 4433 NONAME ABSENT
	_ZThn140_NK23HbProgressSliderPrivate18invertedAppearanceEv @ 4434 NONAME ABSENT
	_ZThn140_NK23HbProgressSliderPrivate18parentGraphicsItemEv @ 4435 NONAME ABSENT
	_ZThn140_NK23HbProgressSliderPrivate20parentGraphicsWidgetEv @ 4436 NONAME ABSENT
	_ZThn140_NK23HbProgressSliderPrivate5styleEv @ 4437 NONAME ABSENT
	_ZThn140_NK23HbProgressSliderPrivate7maximumEv @ 4438 NONAME ABSENT
	_ZThn140_NK23HbProgressSliderPrivate7minimumEv @ 4439 NONAME ABSENT
	_ZNK21HbAbstractEditPrivate15filterInputTextER7QString @ 4440 NONAME
	_ZN12HbTumbleView11dataChangedERK11QModelIndexS2_ @ 4441 NONAME
	_ZN12HbTumbleView12gestureEventEP13QGestureEvent @ 4442 NONAME
	_ZN24HbDataGroupHeadingWidget11longPressedERK7QPointF @ 4443 NONAME
	_ZNK11HbDataGroup13emitActivatedERK11QModelIndex @ 4444 NONAME
	_ZN10HbComboBox15editingFinishedEv @ 4445 NONAME
	_ZN15HbSliderControl13getHandleSizeEv @ 4446 NONAME
	_ZN22HbSliderTickmarksLabel5eventEP6QEvent @ 4447 NONAME
	_ZN18HbAbstractItemViewC2EP23HbAbstractItemContainerP15HbModelIteratorP13QGraphicsItem @ 4448 NONAME
	_ZN14HbAbstractEdit12anchorTappedERK7QString @ 4449 NONAME
	_ZN10HbComboBox10itemChangeEN13QGraphicsItem18GraphicsItemChangeERK8QVariant @ 4450 NONAME
	_ZThn8_N10HbComboBox10itemChangeEN13QGraphicsItem18GraphicsItemChangeERK8QVariant @ 4451 NONAME
	_ZN17HbSliderTickmarks11createTicksEv @ 4452 NONAME
	_ZN8HbSlider12gestureEventEP13QGestureEvent @ 4453 NONAME
	_ZN12HbMessageBox11informationERK7QStringP7QObjectPKc6QFlagsINS_14StandardButtonEEP15QGraphicsWidgetP14QGraphicsSceneP13QGraphicsItem @ 4454 NONAME
	_ZN12HbMessageBox18setStandardButtonsE6QFlagsINS_14StandardButtonEE @ 4455 NONAME
	_ZN12HbMessageBox7warningERK7QStringP7QObjectPKc6QFlagsINS_14StandardButtonEEP15QGraphicsWidgetP14QGraphicsSceneP13QGraphicsItem @ 4456 NONAME
	_ZN12HbMessageBox8questionERK7QStringP7QObjectPKc6QFlagsINS_14StandardButtonEEP15QGraphicsWidgetP14QGraphicsSceneP13QGraphicsItem @ 4457 NONAME
	_ZN13HbInputDialog11queryDoubleERK7QStringP7QObjectPKcdP14QGraphicsSceneP13QGraphicsItem @ 4458 NONAME
	_ZN13HbInputDialog16intValueSelectedEi @ 4459 NONAME
	_ZN13HbInputDialog17textValueSelectedE7QString @ 4460 NONAME
	_ZN13HbInputDialog19doubleValueSelectedEd @ 4461 NONAME
	_ZN13HbInputDialog4doneEi @ 4462 NONAME
	_ZN13HbInputDialog7queryIpERK7QStringP7QObjectPKcS2_P14QGraphicsSceneP13QGraphicsItem @ 4463 NONAME
	_ZN13HbInputDialog8queryIntERK7QStringP7QObjectPKciP14QGraphicsSceneP13QGraphicsItem @ 4464 NONAME
	_ZN13HbInputDialog9queryTextERK7QStringP7QObjectPKcS2_P14QGraphicsSceneP13QGraphicsItem @ 4465 NONAME
	_ZNK12HbMessageBox15standardButtonsEv @ 4466 NONAME
	_ZNK7HbLabel8sizeHintEN2Qt8SizeHintERK6QSizeF @ 4467 NONAME
	_ZThn16_NK7HbLabel8sizeHintEN2Qt8SizeHintERK6QSizeF @ 4468 NONAME
	_ZN11HbDataGroup10itemChangeEN13QGraphicsItem18GraphicsItemChangeERK8QVariant @ 4469 NONAME
	_ZN18HbDataFormViewItem10itemChangeEN13QGraphicsItem18GraphicsItemChangeERK8QVariant @ 4470 NONAME
	_ZThn8_N11HbDataGroup10itemChangeEN13QGraphicsItem18GraphicsItemChangeERK8QVariant @ 4471 NONAME
	_ZThn8_N18HbDataFormViewItem10itemChangeEN13QGraphicsItem18GraphicsItemChangeERK8QVariant @ 4472 NONAME
	_ZN18HbDataGroupPrivate11setExpandedEb @ 4473 NONAME
	_ZN18HbDataGroupPrivate10setEnabledEb @ 4474 NONAME
	_ZN10HbGridView36setSwapDimensionsOnOrientationChangeEb @ 4475 NONAME
	_ZNK10HbGridView33swapDimensionsOnOrientationChangeEv @ 4476 NONAME
	_ZN10HbComboBox12gestureEventEP13QGestureEvent @ 4477 NONAME
	_ZNK10HbGroupBox8sizeHintEN2Qt8SizeHintERK6QSizeF @ 4478 NONAME
	_ZThn16_NK10HbGroupBox8sizeHintEN2Qt8SizeHintERK6QSizeF @ 4479 NONAME
	_ZN16HbTumbleViewItem12gestureEventEP13QGestureEvent @ 4480 NONAME
	_ZN30HbSelectionDialogContentWidget12connectSlotsEv @ 4481 NONAME
	_ZN30HbSelectionDialogContentWidget14createListViewEv @ 4482 NONAME
	_ZN30HbSelectionDialogContentWidget16createListWidgetEv @ 4483 NONAME
	_ZN19HbTreeModelIterator18modelLayoutChangedEv @ 4484 NONAME
	_ZNK16HbTumbleViewItem8sizeHintEN2Qt8SizeHintERK6QSizeF @ 4485 NONAME
	_ZThn16_NK16HbTumbleViewItem8sizeHintEN2Qt8SizeHintERK6QSizeF @ 4486 NONAME
	_ZN10HbLineEdit5eventEP6QEvent @ 4487 NONAME
	_ZN21HbAbstractEditPrivate20setInputFocusEnabledEb @ 4488 NONAME
	_ZNK21HbAbstractEditPrivate13hasInputFocusEv @ 4489 NONAME
	_ZN14HbDateTimeEdit5eventEP6QEvent @ 4490 NONAME ABSENT
	_ZNK10HbLineEdit16inputMethodQueryEN2Qt16InputMethodQueryE @ 4491 NONAME
	_ZThn8_NK10HbLineEdit16inputMethodQueryEN2Qt16InputMethodQueryE @ 4492 NONAME
	_ZN10HbLineEdit22setAutoCompleteContentEP19QGraphicsLayoutItem @ 4493 NONAME
	_ZN18HbDataGroupPrivate20changeExpansionStateEb @ 4494 NONAME
	_ZNK18HbDataGroupPrivate14pageModelIndexEi @ 4495 NONAME
	_ZNK18HbDataGroupPrivate9pageIndexERK11QModelIndex @ 4496 NONAME
	_ZN18HbDeviceMessageBox18setStandardButtonsE6QFlagsIN12HbMessageBox14StandardButtonEE @ 4497 NONAME
	_ZN18HbDeviceMessageBox8questionERK7QString6QFlagsIN12HbMessageBox14StandardButtonEE @ 4498 NONAME
	_ZN26CHbDeviceMessageBoxSymbian18SetStandardButtonsEj @ 4499 NONAME
	_ZN26CHbDeviceMessageBoxSymbian9QuestionLERK7TDesC16j @ 4500 NONAME
	_ZNK18HbDeviceMessageBox15standardButtonsEv @ 4501 NONAME
	_ZNK26CHbDeviceMessageBoxSymbian15StandardButtonsEv @ 4502 NONAME
	_ZN17HbSliderTickmarksC1EP8HbSlider @ 4503 NONAME
	_ZN17HbSliderTickmarksC2EP8HbSlider @ 4504 NONAME
	_ZN22HbSliderTickmarksLabelC1EP8HbSlider @ 4505 NONAME
	_ZN22HbSliderTickmarksLabelC2EP8HbSlider @ 4506 NONAME
	_ZN14HbSmileyEngine13updateSmileysE5QListIP11QTextCursorE @ 4507 NONAME
	_ZNK14HbSmileyEngine17smileyScaleFactorEv @ 4508 NONAME
	_ZNK23HbProgressSliderPrivate11textVisibleEv @ 4509 NONAME
	_ZThn140_NK23HbProgressSliderPrivate11textVisibleEv @ 4510 NONAME ABSENT
	_ZN16HbProgressSlider12trackPressedEv @ 4511 NONAME
	_ZN16HbProgressSlider13trackReleasedEv @ 4512 NONAME
	_ZN16HbProgressSlider14mouseMoveEventEP24QGraphicsSceneMouseEvent @ 4513 NONAME
	_ZThn8_N16HbProgressSlider14mouseMoveEventEP24QGraphicsSceneMouseEvent @ 4514 NONAME
	_ZN18HbAbstractViewItem5paintEP8QPainterPK24QStyleOptionGraphicsItemP7QWidget @ 4515 NONAME
	_ZThn8_N18HbAbstractViewItem5paintEP8QPainterPK24QStyleOptionGraphicsItemP7QWidget @ 4516 NONAME
	_ZN18HbAbstractItemView25setItemPixmapCacheEnabledEb @ 4517 NONAME
	_ZN18HbAbstractViewItem11changeEventEP6QEvent @ 4518 NONAME
	_ZN18HbAbstractViewItem17updatePixmapCacheEv @ 4519 NONAME
	_ZNK18HbAbstractItemView22itemPixmapCacheEnabledEv @ 4520 NONAME
	_ZN30HbSelectionDialogContentWidget12modelChangedERK11QModelIndexii @ 4521 NONAME
	_ZN7HbLabel15setMaximumLinesEi @ 4522 NONAME
	_ZNK7HbLabel12maximumLinesEv @ 4523 NONAME
	_ZThn144_N23HbProgressSliderPrivate11orientationEv @ 4524 NONAME ABSENT
	_ZThn144_N23HbProgressSliderPrivate15emitSliderMovedEi @ 4525 NONAME ABSENT
	_ZThn144_N23HbProgressSliderPrivate17emitSliderPressedEv @ 4526 NONAME ABSENT
	_ZThn144_N23HbProgressSliderPrivate18emitSliderReleasedEv @ 4527 NONAME ABSENT
	_ZThn144_N23HbProgressSliderPrivateD0Ev @ 4528 NONAME ABSENT
	_ZThn144_N23HbProgressSliderPrivateD1Ev @ 4529 NONAME ABSENT
	_ZThn144_NK23HbProgressSliderPrivate11textVisibleEv @ 4530 NONAME ABSENT
	_ZThn144_NK23HbProgressSliderPrivate11toolTipTextEv @ 4531 NONAME ABSENT
	_ZThn144_NK23HbProgressSliderPrivate12boundingRectEv @ 4532 NONAME ABSENT
	_ZThn144_NK23HbProgressSliderPrivate13progressValueEv @ 4533 NONAME ABSENT
	_ZThn144_NK23HbProgressSliderPrivate13textAlignmentEv @ 4534 NONAME ABSENT
	_ZThn144_NK23HbProgressSliderPrivate18invertedAppearanceEv @ 4535 NONAME ABSENT
	_ZThn144_NK23HbProgressSliderPrivate18parentGraphicsItemEv @ 4536 NONAME ABSENT
	_ZThn144_NK23HbProgressSliderPrivate20parentGraphicsWidgetEv @ 4537 NONAME ABSENT
	_ZThn144_NK23HbProgressSliderPrivate5styleEv @ 4538 NONAME ABSENT
	_ZThn144_NK23HbProgressSliderPrivate7maximumEv @ 4539 NONAME ABSENT
	_ZThn144_NK23HbProgressSliderPrivate7minimumEv @ 4540 NONAME ABSENT
	_ZThn148_N23HbProgressSliderPrivate11orientationEv @ 4541 NONAME ABSENT
	_ZThn148_N23HbProgressSliderPrivate15emitSliderMovedEi @ 4542 NONAME ABSENT
	_ZThn148_N23HbProgressSliderPrivate17emitSliderPressedEv @ 4543 NONAME ABSENT
	_ZThn148_N23HbProgressSliderPrivate18emitSliderReleasedEv @ 4544 NONAME ABSENT
	_ZThn148_N23HbProgressSliderPrivateD0Ev @ 4545 NONAME ABSENT
	_ZThn148_N23HbProgressSliderPrivateD1Ev @ 4546 NONAME ABSENT
	_ZThn148_NK23HbProgressSliderPrivate11textVisibleEv @ 4547 NONAME ABSENT
	_ZThn148_NK23HbProgressSliderPrivate11toolTipTextEv @ 4548 NONAME ABSENT
	_ZThn148_NK23HbProgressSliderPrivate12boundingRectEv @ 4549 NONAME ABSENT
	_ZThn148_NK23HbProgressSliderPrivate13progressValueEv @ 4550 NONAME ABSENT
	_ZThn148_NK23HbProgressSliderPrivate13textAlignmentEv @ 4551 NONAME ABSENT
	_ZThn148_NK23HbProgressSliderPrivate18invertedAppearanceEv @ 4552 NONAME ABSENT
	_ZThn148_NK23HbProgressSliderPrivate18parentGraphicsItemEv @ 4553 NONAME ABSENT
	_ZThn148_NK23HbProgressSliderPrivate20parentGraphicsWidgetEv @ 4554 NONAME ABSENT
	_ZThn148_NK23HbProgressSliderPrivate5styleEv @ 4555 NONAME ABSENT
	_ZThn148_NK23HbProgressSliderPrivate7maximumEv @ 4556 NONAME ABSENT
	_ZThn148_NK23HbProgressSliderPrivate7minimumEv @ 4557 NONAME ABSENT
	_ZN12HbMessageBox17initPrimitiveDataEP20HbStylePrimitiveDataPK15QGraphicsObject @ 4558 NONAME
	_ZN12HbMessageBox18recreatePrimitivesEv @ 4559 NONAME
	_ZN16HbProgressSlider12gestureEventEP13QGestureEvent @ 4560 NONAME
	_ZN30HbSelectionDialogContentWidget19_q_selectionChangedERK14QItemSelectionS2_ @ 4561 NONAME
	_ZN30HbSelectionDialogContentWidget8setModelEP18QAbstractItemModel @ 4562 NONAME
	_ZN31HbDeviceDialogsExtensionSymbian12SetShowLevelEP26CHbDeviceMessageBoxSymbiani @ 4563 NONAME
	_ZN31HbDeviceDialogsExtensionSymbian12SetShowLevelEP30CHbDeviceProgressDialogSymbiani @ 4564 NONAME
	_ZN31HbDeviceDialogsExtensionSymbian12SetShowLevelEP34CHbDeviceNotificationDialogSymbiani @ 4565 NONAME
	_ZN10HbDataForm18orientationChangedEN2Qt11OrientationE @ 4566 NONAME
	_ZN10HbDataForm27orientationAboutToBeChangedEv @ 4567 NONAME
	_ZN12HbZoomSlider12gestureEventEP13QGestureEvent @ 4568 NONAME
	_ZN14HbVolumeSlider12gestureEventEP13QGestureEvent @ 4569 NONAME
	_ZN10HbComboBox6polishER17HbStyleParameters @ 4570 NONAME
	_ZN10HbDataForm9hideEventEP10QHideEvent @ 4571 NONAME
	_ZN10HbDataForm9showEventEP10QShowEvent @ 4572 NONAME
	_ZN12HbMessageBox9showEventEP10QShowEvent @ 4573 NONAME
	_ZN13HbInputDialog17initPrimitiveDataEP20HbStylePrimitiveDataPK15QGraphicsObject @ 4574 NONAME
	_ZN13HbInputDialog18recreatePrimitivesEv @ 4575 NONAME
	_ZN14HbRatingSlider14setToolTipTextE7QString @ 4576 NONAME
	_ZN16HbDateTimePicker17initPrimitiveDataEP20HbStylePrimitiveDataPK15QGraphicsObject @ 4577 NONAME
	_ZN16HbProgressDialog16updatePrimitivesEv @ 4578 NONAME
	_ZN16HbProgressDialog17initPrimitiveDataEP20HbStylePrimitiveDataPK15QGraphicsObject @ 4579 NONAME
	_ZN16HbProgressDialog18recreatePrimitivesEv @ 4580 NONAME
	_ZN17HbSelectionDialog17setSelectionTitleERK7QString @ 4581 NONAME
	_ZN30HbSelectionDialogContentWidget17setSelectionTitleERK7QString @ 4582 NONAME
	_ZNK17HbSelectionDialog14selectionTitleEv @ 4583 NONAME
	_ZNK30HbSelectionDialogContentWidget14selectionTitleEv @ 4584 NONAME
	_ZN17HbSelectionDialog16selectionChangedEv @ 4585 NONAME
	_ZN12HbTumbleView17initPrimitiveDataEP20HbStylePrimitiveDataPK15QGraphicsObject @ 4586 NONAME
	_ZN18HbAbstractItemView17setIconLoadPolicyENS_14IconLoadPolicyE @ 4587 NONAME
	_ZNK18HbAbstractItemView14iconLoadPolicyEv @ 4588 NONAME
	_ZN14HbGridViewItem17initPrimitiveDataEP20HbStylePrimitiveDataPK15QGraphicsObject @ 4589 NONAME
	_ZN14HbListViewItem17initPrimitiveDataEP20HbStylePrimitiveDataPK15QGraphicsObjecti @ 4590 NONAME
	_ZN14HbTreeViewItem17initPrimitiveDataEP20HbStylePrimitiveDataPK15QGraphicsObject @ 4591 NONAME
	_ZN15HbIndexFeedback16updatePrimitivesEv @ 4592 NONAME
	_ZN15HbIndexFeedback17initPrimitiveDataEP20HbStylePrimitiveDataPK15QGraphicsObject @ 4593 NONAME
	_ZN18HbAbstractViewItem17initPrimitiveDataEP20HbStylePrimitiveDataPK15QGraphicsObject @ 4594 NONAME
	_ZN21HbAbstractEditPrivate19_q_selectionChangedERK11QTextCursorS2_ @ 4595 NONAME
	_ZN13HbSearchPanel11eventFilterEP7QObjectP6QEvent @ 4596 NONAME
	_ZNK21HbAbstractEditPrivate25calculatePreferredDocSizeEv @ 4597 NONAME
	_ZN19HbVolumeSliderPopup8setMutedEb @ 4598 NONAME
	_ZNK19HbVolumeSliderPopup7isMutedEv @ 4599 NONAME
	_ZN18HbAbstractItemViewC1EP23HbAbstractItemContainerP15HbModelIteratorP13QGraphicsItem @ 4600 NONAME
	_ZN18HbAbstractItemViewC1ER25HbAbstractItemViewPrivateP23HbAbstractItemContainerP15HbModelIteratorP13QGraphicsItem @ 4601 NONAME
	_ZN11HbMagnifier10itemChangeEN13QGraphicsItem18GraphicsItemChangeERK8QVariant @ 4602 NONAME
	_ZN11HbMagnifier10setOverlayERK7QString @ 4603 NONAME
	_ZN11HbMagnifier11qt_metacallEN11QMetaObject4CallEiPPv @ 4604 NONAME
	_ZN11HbMagnifier11qt_metacastEPKc @ 4605 NONAME
	_ZN11HbMagnifier11resizeEventEP25QGraphicsSceneResizeEvent @ 4606 NONAME
	_ZN11HbMagnifier13setBackgroundERK7QString @ 4607 NONAME
	_ZN11HbMagnifier14hideWithEffectEv @ 4608 NONAME
	_ZN11HbMagnifier14showWithEffectEv @ 4609 NONAME
	_ZN11HbMagnifier15centerOnContentERK7QPointF @ 4610 NONAME
	_ZN11HbMagnifier15setContentScaleEf @ 4611 NONAME
	_ZN11HbMagnifier16staticMetaObjectE @ 4612 NONAME DATA 16
	_ZN11HbMagnifier18setContentDelegateEP19HbMagnifierDelegate @ 4613 NONAME
	_ZN11HbMagnifier19getStaticMetaObjectEv @ 4614 NONAME
	_ZN11HbMagnifier19lockContentPositionEv @ 4615 NONAME
	_ZN11HbMagnifier19setContentLockstyleENS_16ContentLockStyleE @ 4616 NONAME
	_ZN11HbMagnifier21unlockContentPositionEv @ 4617 NONAME
	_ZN11HbMagnifier5paintEP8QPainterPK24QStyleOptionGraphicsItemP7QWidget @ 4618 NONAME
	_ZN11HbMagnifier7setMaskERK7QString @ 4619 NONAME
	_ZN11HbMagnifierC1EP13QGraphicsItem @ 4620 NONAME
	_ZN11HbMagnifierC1ER18HbMagnifierPrivateP13QGraphicsItem @ 4621 NONAME
	_ZN11HbMagnifierC2EP13QGraphicsItem @ 4622 NONAME
	_ZN11HbMagnifierC2ER18HbMagnifierPrivateP13QGraphicsItem @ 4623 NONAME
	_ZN11HbMagnifierD0Ev @ 4624 NONAME
	_ZN11HbMagnifierD1Ev @ 4625 NONAME
	_ZN11HbMagnifierD2Ev @ 4626 NONAME
	_ZN14HbAbstractEdit26setSelectionControlEnabledEb @ 4627 NONAME
	_ZN21HbAbstractEditPrivate10drawCursorEP8QPainterN27QAbstractTextDocumentLayout12PaintContextE @ 4628 NONAME
	_ZN21HbAbstractEditPrivate10tapGestureERK7QPointFb @ 4629 NONAME
	_ZN21HbAbstractEditPrivate12gestureEventEP13QGestureEventP8HbWidget @ 4630 NONAME
	_ZN21HbAbstractEditPrivate13setCursorTypeENS_10CursorTypeE @ 4631 NONAME
	_ZN21HbAbstractEditPrivate14setCursorColorERK6QColor @ 4632 NONAME
	_ZN21HbAbstractEditPrivate16updateCursorTypeEb @ 4633 NONAME
	_ZN21HbAbstractEditPrivate16updateCursorTypeEv @ 4634 NONAME
	_ZNK11HbMagnifier10metaObjectEv @ 4635 NONAME
	_ZNK11HbMagnifier12contentScaleEv @ 4636 NONAME
	_ZNK11HbMagnifier15contentDelegateEv @ 4637 NONAME
	_ZNK11HbMagnifier16contentLockstyleEv @ 4638 NONAME
	_ZNK11HbMagnifier23isContentPositionLockedEv @ 4639 NONAME
	_ZNK14HbAbstractEdit25isSelectionControlEnabledEv @ 4640 NONAME
	_ZTI11HbMagnifier @ 4641 NONAME
	_ZTI19HbMagnifierDelegate @ 4642 NONAME
	_ZTV11HbMagnifier @ 4643 NONAME
	_ZThn16_N11HbMagnifierD0Ev @ 4644 NONAME
	_ZThn16_N11HbMagnifierD1Ev @ 4645 NONAME
	_ZThn8_N11HbMagnifier10itemChangeEN13QGraphicsItem18GraphicsItemChangeERK8QVariant @ 4646 NONAME
	_ZThn8_N11HbMagnifier5paintEP8QPainterPK24QStyleOptionGraphicsItemP7QWidget @ 4647 NONAME
	_ZThn8_N11HbMagnifierD0Ev @ 4648 NONAME
	_ZThn8_N11HbMagnifierD1Ev @ 4649 NONAME
	_ZN12HbMessageBox11changeEventEP6QEvent @ 4650 NONAME
	_ZN13HbProgressBar17initPrimitiveDataEP20HbStylePrimitiveDataPK15QGraphicsObject @ 4651 NONAME
	_ZN16HbProgressSlider17initPrimitiveDataEP20HbStylePrimitiveDataPK15QGraphicsObject @ 4652 NONAME
	_ZN23HbProgressSliderPrivate17updateSliderTrackEv @ 4653 NONAME
	_ZN23HbProgressSliderPrivate19updateProgressTrackEv @ 4654 NONAME
	_ZN21HbAbstractEditPrivate21constrainHitTestPointERK7QPointF @ 4655 NONAME
	_ZN18HbAbstractItemView12setEmptyTextERK7QString @ 4656 NONAME
	_ZN23HbAbstractItemContainer20itemAboutToBeDeletedEP18HbAbstractViewItem @ 4657 NONAME
	_ZNK18HbAbstractItemView9emptyTextEv @ 4658 NONAME
	_ZNK12HbMessageBox9primitiveERK7QString @ 4659 NONAME
	_ZNK13HbInputDialog9primitiveERK7QString @ 4660 NONAME
	_ZNK13HbProgressBar9primitiveERK7QString @ 4661 NONAME
	_ZNK14HbRatingSlider9primitiveERK7QString @ 4662 NONAME
	_ZNK16HbDateTimePicker9primitiveERK7QString @ 4663 NONAME
	_ZNK16HbProgressDialog9primitiveERK7QString @ 4664 NONAME
	_ZNK16HbProgressSlider9primitiveERK7QString @ 4665 NONAME

